
./user/test/test.elf:     file format elf64-littleriscv


Disassembly of section .text:

00000000c0000000 <main>:
    c0000000:	7175                	addi	sp,sp,-144
    c0000002:	fca6                	sd	s1,120(sp)
    c0000004:	84aa                	mv	s1,a0
    c0000006:	00009517          	auipc	a0,0x9
    c000000a:	f4a50513          	addi	a0,a0,-182 # c0008f50 <__clzdi2+0x3e>
    c000000e:	e506                	sd	ra,136(sp)
    c0000010:	e122                	sd	s0,128(sp)
    c0000012:	f8ca                	sd	s2,112(sp)
    c0000014:	f4ce                	sd	s3,104(sp)
    c0000016:	f0d2                	sd	s4,96(sp)
    c0000018:	89ae                	mv	s3,a1
    c000001a:	8932                	mv	s2,a2
    c000001c:	ecd6                	sd	s5,88(sp)
    c000001e:	e8da                	sd	s6,80(sp)
    c0000020:	e4de                	sd	s7,72(sp)
    c0000022:	e0e2                	sd	s8,64(sp)
    c0000024:	fc66                	sd	s9,56(sp)
    c0000026:	00001097          	auipc	ra,0x1
    c000002a:	e64080e7          	jalr	-412(ra) # c0000e8a <puts>
    c000002e:	85a6                	mv	a1,s1
    c0000030:	00009517          	auipc	a0,0x9
    c0000034:	f7050513          	addi	a0,a0,-144 # c0008fa0 <__clzdi2+0x8e>
    c0000038:	00001097          	auipc	ra,0x1
    c000003c:	c6c080e7          	jalr	-916(ra) # c0000ca4 <printf>
    c0000040:	4401                	li	s0,0
    c0000042:	00009a17          	auipc	s4,0x9
    c0000046:	f6ea0a13          	addi	s4,s4,-146 # c0008fb0 <__clzdi2+0x9e>
    c000004a:	0a946163          	bltu	s0,s1,c00000ec <main+0xec>
    c000004e:	4401                	li	s0,0
    c0000050:	00009497          	auipc	s1,0x9
    c0000054:	f7048493          	addi	s1,s1,-144 # c0008fc0 <__clzdi2+0xae>
    c0000058:	00341793          	slli	a5,s0,0x3
    c000005c:	97ca                	add	a5,a5,s2
    c000005e:	6390                	ld	a2,0(a5)
    c0000060:	e255                	bnez	a2,c0000104 <main+0x104>
    c0000062:	0000b497          	auipc	s1,0xb
    c0000066:	ade48493          	addi	s1,s1,-1314 # c000ab40 <buf>
    c000006a:	0000b917          	auipc	s2,0xb
    c000006e:	ed690913          	addi	s2,s2,-298 # c000af40 <buf2>
    c0000072:	79fd                	lui	s3,0xfffff
    c0000074:	6a21                	lui	s4,0x8
    c0000076:	00000097          	auipc	ra,0x0
    c000007a:	4c8080e7          	jalr	1224(ra) # c000053e <clear_buffer>
    c000007e:	04000893          	li	a7,64
    c0000082:	4501                	li	a0,0
    c0000084:	00009597          	auipc	a1,0x9
    c0000088:	f4c58593          	addi	a1,a1,-180 # c0008fd0 <__clzdi2+0xbe>
    c000008c:	4609                	li	a2,2
    c000008e:	00000073          	ecall
    c0000092:	862a                	mv	a2,a0
    c0000094:	00065863          	bgez	a2,c00000a4 <main+0xa4>
    c0000098:	40c0063b          	negw	a2,a2
    c000009c:	0000b797          	auipc	a5,0xb
    c00000a0:	f2c7aa23          	sw	a2,-204(a5) # c000afd0 <errno>
    c00000a4:	0000b517          	auipc	a0,0xb
    c00000a8:	a9c50513          	addi	a0,a0,-1380 # c000ab40 <buf>
    c00000ac:	00000097          	auipc	ra,0x0
    c00000b0:	62e080e7          	jalr	1582(ra) # c00006da <gets>
    c00000b4:	4609                	li	a2,2
    c00000b6:	00009597          	auipc	a1,0x9
    c00000ba:	f2258593          	addi	a1,a1,-222 # c0008fd8 <__clzdi2+0xc6>
    c00000be:	0000b517          	auipc	a0,0xb
    c00000c2:	a8250513          	addi	a0,a0,-1406 # c000ab40 <buf>
    c00000c6:	00001097          	auipc	ra,0x1
    c00000ca:	b98080e7          	jalr	-1128(ra) # c0000c5e <memcmp>
    c00000ce:	28051163          	bnez	a0,c0000350 <main+0x350>
    c00000d2:	0024c783          	lbu	a5,2(s1)
    c00000d6:	0df7f793          	andi	a5,a5,223
    c00000da:	26079b63          	bnez	a5,c0000350 <main+0x350>
    c00000de:	0000b417          	auipc	s0,0xb
    c00000e2:	a6440413          	addi	s0,s0,-1436 # c000ab42 <buf+0x2>
    c00000e6:	02000713          	li	a4,32
    c00000ea:	a035                	j	c0000116 <main+0x116>
    c00000ec:	00341793          	slli	a5,s0,0x3
    c00000f0:	97ce                	add	a5,a5,s3
    c00000f2:	6390                	ld	a2,0(a5)
    c00000f4:	85a2                	mv	a1,s0
    c00000f6:	8552                	mv	a0,s4
    c00000f8:	00001097          	auipc	ra,0x1
    c00000fc:	bac080e7          	jalr	-1108(ra) # c0000ca4 <printf>
    c0000100:	0405                	addi	s0,s0,1
    c0000102:	b7a1                	j	c000004a <main+0x4a>
    c0000104:	85a2                	mv	a1,s0
    c0000106:	8526                	mv	a0,s1
    c0000108:	00001097          	auipc	ra,0x1
    c000010c:	b9c080e7          	jalr	-1124(ra) # c0000ca4 <printf>
    c0000110:	0405                	addi	s0,s0,1
    c0000112:	b799                	j	c0000058 <main+0x58>
    c0000114:	0405                	addi	s0,s0,1
    c0000116:	00044783          	lbu	a5,0(s0)
    c000011a:	fee78de3          	beq	a5,a4,c0000114 <main+0x114>
    c000011e:	eba9                	bnez	a5,c0000170 <main+0x170>
    c0000120:	02f00793          	li	a5,47
    c0000124:	0000b717          	auipc	a4,0xb
    c0000128:	e0f70e23          	sb	a5,-484(a4) # c000af40 <buf2>
    c000012c:	40000893          	li	a7,1024
    c0000130:	00009517          	auipc	a0,0x9
    c0000134:	eb050513          	addi	a0,a0,-336 # c0008fe0 <__clzdi2+0xce>
    c0000138:	4581                	li	a1,0
    c000013a:	4601                	li	a2,0
    c000013c:	00000073          	ecall
    c0000140:	852a                	mv	a0,a0
    c0000142:	4785                	li	a5,1
    c0000144:	2e055163          	bgez	a0,c0000426 <main+0x426>
    c0000148:	40a0053b          	negw	a0,a0
    c000014c:	0000b797          	auipc	a5,0xb
    c0000150:	e8a7a223          	sw	a0,-380(a5) # c000afd0 <errno>
    c0000154:	0000b797          	auipc	a5,0xb
    c0000158:	e7c78793          	addi	a5,a5,-388 # c000afd0 <errno>
    c000015c:	438c                	lw	a1,0(a5)
    c000015e:	00009517          	auipc	a0,0x9
    c0000162:	e9a50513          	addi	a0,a0,-358 # c0008ff8 <__clzdi2+0xe6>
    c0000166:	00001097          	auipc	ra,0x1
    c000016a:	b3e080e7          	jalr	-1218(ra) # c0000ca4 <printf>
    c000016e:	b721                	j	c0000076 <main+0x76>
    c0000170:	85a2                	mv	a1,s0
    c0000172:	00009517          	auipc	a0,0x9
    c0000176:	e7650513          	addi	a0,a0,-394 # c0008fe8 <__clzdi2+0xd6>
    c000017a:	00001097          	auipc	ra,0x1
    c000017e:	b2a080e7          	jalr	-1238(ra) # c0000ca4 <printf>
    c0000182:	85a2                	mv	a1,s0
    c0000184:	854a                	mv	a0,s2
    c0000186:	00001097          	auipc	ra,0x1
    c000018a:	e80080e7          	jalr	-384(ra) # c0001006 <strcpy>
    c000018e:	8522                	mv	a0,s0
    c0000190:	00001097          	auipc	ra,0x1
    c0000194:	e88080e7          	jalr	-376(ra) # c0001018 <strlen>
    c0000198:	0005079b          	sext.w	a5,a0
    c000019c:	00f40733          	add	a4,s0,a5
    c00001a0:	fff74683          	lbu	a3,-1(a4)
    c00001a4:	02f00713          	li	a4,47
    c00001a8:	00e68763          	beq	a3,a4,c00001b6 <main+0x1b6>
    c00001ac:	00f906b3          	add	a3,s2,a5
    c00001b0:	00e68023          	sb	a4,0(a3)
    c00001b4:	2785                	addiw	a5,a5,1
    c00001b6:	40000893          	li	a7,1024
    c00001ba:	8522                	mv	a0,s0
    c00001bc:	4581                	li	a1,0
    c00001be:	4601                	li	a2,0
    c00001c0:	00000073          	ecall
    c00001c4:	862a                	mv	a2,a0
    c00001c6:	8532                	mv	a0,a2
    c00001c8:	24065f63          	bgez	a2,c0000426 <main+0x426>
    c00001cc:	40c0063b          	negw	a2,a2
    c00001d0:	0000b797          	auipc	a5,0xb
    c00001d4:	e0c7a023          	sw	a2,-512(a5) # c000afd0 <errno>
    c00001d8:	bfb5                	j	c0000154 <main+0x154>
    c00001da:	000bd783          	lhu	a5,0(s7)
    c00001de:	16078463          	beqz	a5,c0000346 <main+0x346>
    c00001e2:	002b8c93          	addi	s9,s7,2
    c00001e6:	85e6                	mv	a1,s9
    c00001e8:	8522                	mv	a0,s0
    c00001ea:	00001097          	auipc	ra,0x1
    c00001ee:	e1c080e7          	jalr	-484(ra) # c0001006 <strcpy>
    c00001f2:	40e00893          	li	a7,1038
    c00001f6:	854a                	mv	a0,s2
    c00001f8:	858a                	mv	a1,sp
    c00001fa:	00000073          	ecall
    c00001fe:	85aa                	mv	a1,a0
    c0000200:	0005d863          	bgez	a1,c0000210 <main+0x210>
    c0000204:	40b005bb          	negw	a1,a1
    c0000208:	0000b797          	auipc	a5,0xb
    c000020c:	dcb7a423          	sw	a1,-568(a5) # c000afd0 <errno>
    c0000210:	00415783          	lhu	a5,4(sp)
    c0000214:	02d00513          	li	a0,45
    c0000218:	0137f7b3          	and	a5,a5,s3
    c000021c:	03478863          	beq	a5,s4,c000024c <main+0x24c>
    c0000220:	6711                	lui	a4,0x4
    c0000222:	06400513          	li	a0,100
    c0000226:	02e78363          	beq	a5,a4,c000024c <main+0x24c>
    c000022a:	6705                	lui	a4,0x1
    c000022c:	07000513          	li	a0,112
    c0000230:	00e78e63          	beq	a5,a4,c000024c <main+0x24c>
    c0000234:	6719                	lui	a4,0x6
    c0000236:	06200513          	li	a0,98
    c000023a:	00e78963          	beq	a5,a4,c000024c <main+0x24c>
    c000023e:	6709                	lui	a4,0x2
    c0000240:	06300513          	li	a0,99
    c0000244:	00e78463          	beq	a5,a4,c000024c <main+0x24c>
    c0000248:	03f00513          	li	a0,63
    c000024c:	00001097          	auipc	ra,0x1
    c0000250:	a8c080e7          	jalr	-1396(ra) # c0000cd8 <putchar>
    c0000254:	00415783          	lhu	a5,4(sp)
    c0000258:	07200513          	li	a0,114
    c000025c:	1007f793          	andi	a5,a5,256
    c0000260:	e399                	bnez	a5,c0000266 <main+0x266>
    c0000262:	02d00513          	li	a0,45
    c0000266:	00001097          	auipc	ra,0x1
    c000026a:	a72080e7          	jalr	-1422(ra) # c0000cd8 <putchar>
    c000026e:	00415783          	lhu	a5,4(sp)
    c0000272:	07700513          	li	a0,119
    c0000276:	0807f793          	andi	a5,a5,128
    c000027a:	e399                	bnez	a5,c0000280 <main+0x280>
    c000027c:	02d00513          	li	a0,45
    c0000280:	00001097          	auipc	ra,0x1
    c0000284:	a58080e7          	jalr	-1448(ra) # c0000cd8 <putchar>
    c0000288:	00415783          	lhu	a5,4(sp)
    c000028c:	07800513          	li	a0,120
    c0000290:	0407f793          	andi	a5,a5,64
    c0000294:	e399                	bnez	a5,c000029a <main+0x29a>
    c0000296:	02d00513          	li	a0,45
    c000029a:	00001097          	auipc	ra,0x1
    c000029e:	a3e080e7          	jalr	-1474(ra) # c0000cd8 <putchar>
    c00002a2:	00415783          	lhu	a5,4(sp)
    c00002a6:	07200513          	li	a0,114
    c00002aa:	0207f793          	andi	a5,a5,32
    c00002ae:	e399                	bnez	a5,c00002b4 <main+0x2b4>
    c00002b0:	02d00513          	li	a0,45
    c00002b4:	00001097          	auipc	ra,0x1
    c00002b8:	a24080e7          	jalr	-1500(ra) # c0000cd8 <putchar>
    c00002bc:	00415783          	lhu	a5,4(sp)
    c00002c0:	07700513          	li	a0,119
    c00002c4:	8bc1                	andi	a5,a5,16
    c00002c6:	e399                	bnez	a5,c00002cc <main+0x2cc>
    c00002c8:	02d00513          	li	a0,45
    c00002cc:	00001097          	auipc	ra,0x1
    c00002d0:	a0c080e7          	jalr	-1524(ra) # c0000cd8 <putchar>
    c00002d4:	00415783          	lhu	a5,4(sp)
    c00002d8:	07800513          	li	a0,120
    c00002dc:	8ba1                	andi	a5,a5,8
    c00002de:	e399                	bnez	a5,c00002e4 <main+0x2e4>
    c00002e0:	02d00513          	li	a0,45
    c00002e4:	00001097          	auipc	ra,0x1
    c00002e8:	9f4080e7          	jalr	-1548(ra) # c0000cd8 <putchar>
    c00002ec:	00415783          	lhu	a5,4(sp)
    c00002f0:	07200513          	li	a0,114
    c00002f4:	8b91                	andi	a5,a5,4
    c00002f6:	e399                	bnez	a5,c00002fc <main+0x2fc>
    c00002f8:	02d00513          	li	a0,45
    c00002fc:	00001097          	auipc	ra,0x1
    c0000300:	9dc080e7          	jalr	-1572(ra) # c0000cd8 <putchar>
    c0000304:	00415783          	lhu	a5,4(sp)
    c0000308:	07700513          	li	a0,119
    c000030c:	8b89                	andi	a5,a5,2
    c000030e:	e399                	bnez	a5,c0000314 <main+0x314>
    c0000310:	02d00513          	li	a0,45
    c0000314:	00001097          	auipc	ra,0x1
    c0000318:	9c4080e7          	jalr	-1596(ra) # c0000cd8 <putchar>
    c000031c:	00415783          	lhu	a5,4(sp)
    c0000320:	07800513          	li	a0,120
    c0000324:	8b85                	andi	a5,a5,1
    c0000326:	e399                	bnez	a5,c000032c <main+0x32c>
    c0000328:	02d00513          	li	a0,45
    c000032c:	00001097          	auipc	ra,0x1
    c0000330:	9ac080e7          	jalr	-1620(ra) # c0000cd8 <putchar>
    c0000334:	85e6                	mv	a1,s9
    c0000336:	00009517          	auipc	a0,0x9
    c000033a:	d1250513          	addi	a0,a0,-750 # c0009048 <__clzdi2+0x136>
    c000033e:	00001097          	auipc	ra,0x1
    c0000342:	966080e7          	jalr	-1690(ra) # c0000ca4 <printf>
    c0000346:	0c41                	addi	s8,s8,16
    c0000348:	0bc1                	addi	s7,s7,16
    c000034a:	e96c48e3          	blt	s8,s6,c00001da <main+0x1da>
    c000034e:	aa31                	j	c000046a <main+0x46a>
    c0000350:	00009597          	auipc	a1,0x9
    c0000354:	d0058593          	addi	a1,a1,-768 # c0009050 <__clzdi2+0x13e>
    c0000358:	8526                	mv	a0,s1
    c000035a:	00001097          	auipc	ra,0x1
    c000035e:	bc2080e7          	jalr	-1086(ra) # c0000f1c <strcmp>
    c0000362:	e115                	bnez	a0,c0000386 <main+0x386>
    c0000364:	00009517          	auipc	a0,0x9
    c0000368:	cf450513          	addi	a0,a0,-780 # c0009058 <__clzdi2+0x146>
    c000036c:	00001097          	auipc	ra,0x1
    c0000370:	b1e080e7          	jalr	-1250(ra) # c0000e8a <puts>
    c0000374:	00009517          	auipc	a0,0x9
    c0000378:	cec50513          	addi	a0,a0,-788 # c0009060 <__clzdi2+0x14e>
    c000037c:	00001097          	auipc	ra,0x1
    c0000380:	b0e080e7          	jalr	-1266(ra) # c0000e8a <puts>
    c0000384:	b9cd                	j	c0000076 <main+0x76>
    c0000386:	00009597          	auipc	a1,0x9
    c000038a:	cea58593          	addi	a1,a1,-790 # c0009070 <__clzdi2+0x15e>
    c000038e:	8526                	mv	a0,s1
    c0000390:	00001097          	auipc	ra,0x1
    c0000394:	b8c080e7          	jalr	-1140(ra) # c0000f1c <strcmp>
    c0000398:	cd79                	beqz	a0,c0000476 <main+0x476>
    c000039a:	85a6                	mv	a1,s1
    c000039c:	00009517          	auipc	a0,0x9
    c00003a0:	cdc50513          	addi	a0,a0,-804 # c0009078 <__clzdi2+0x166>
    c00003a4:	00001097          	auipc	ra,0x1
    c00003a8:	900080e7          	jalr	-1792(ra) # c0000ca4 <printf>
    c00003ac:	4885                	li	a7,1
    c00003ae:	00000073          	ecall
    c00003b2:	842a                	mv	s0,a0
    c00003b4:	02045163          	bgez	s0,c00003d6 <main+0x3d6>
    c00003b8:	4080043b          	negw	s0,s0
    c00003bc:	0000b797          	auipc	a5,0xb
    c00003c0:	c087aa23          	sw	s0,-1004(a5) # c000afd0 <errno>
    c00003c4:	547d                	li	s0,-1
    c00003c6:	850a                	mv	a0,sp
    c00003c8:	00000097          	auipc	ra,0x0
    c00003cc:	19c080e7          	jalr	412(ra) # c0000564 <wait>
    c00003d0:	fe851be3          	bne	a0,s0,c00003c6 <main+0x3c6>
    c00003d4:	b14d                	j	c0000076 <main+0x76>
    c00003d6:	f865                	bnez	s0,c00003c6 <main+0x3c6>
    c00003d8:	85a6                	mv	a1,s1
    c00003da:	00009517          	auipc	a0,0x9
    c00003de:	c9e50513          	addi	a0,a0,-866 # c0009078 <__clzdi2+0x166>
    c00003e2:	00001097          	auipc	ra,0x1
    c00003e6:	8c2080e7          	jalr	-1854(ra) # c0000ca4 <printf>
    c00003ea:	4891                	li	a7,4
    c00003ec:	8526                	mv	a0,s1
    c00003ee:	4581                	li	a1,0
    c00003f0:	4601                	li	a2,0
    c00003f2:	00000073          	ecall
    c00003f6:	862a                	mv	a2,a0
    c00003f8:	00065863          	bgez	a2,c0000408 <main+0x408>
    c00003fc:	40c0063b          	negw	a2,a2
    c0000400:	0000b797          	auipc	a5,0xb
    c0000404:	bcc7a823          	sw	a2,-1072(a5) # c000afd0 <errno>
    c0000408:	85a6                	mv	a1,s1
    c000040a:	00009517          	auipc	a0,0x9
    c000040e:	c8650513          	addi	a0,a0,-890 # c0009090 <__clzdi2+0x17e>
    c0000412:	00001097          	auipc	ra,0x1
    c0000416:	892080e7          	jalr	-1902(ra) # c0000ca4 <printf>
    c000041a:	557d                	li	a0,-1
    c000041c:	00000097          	auipc	ra,0x0
    c0000420:	0da080e7          	jalr	218(ra) # c00004f6 <usersyscall_exit>
    c0000424:	b989                	j	c0000076 <main+0x76>
    c0000426:	00050a9b          	sext.w	s5,a0
    c000042a:	0000ab97          	auipc	s7,0xa
    c000042e:	716b8b93          	addi	s7,s7,1814 # c000ab40 <buf>
    c0000432:	03f00893          	li	a7,63
    c0000436:	8556                	mv	a0,s5
    c0000438:	85de                	mv	a1,s7
    c000043a:	40000613          	li	a2,1024
    c000043e:	00000073          	ecall
    c0000442:	8b2a                	mv	s6,a0
    c0000444:	4c01                	li	s8,0
    c0000446:	00f90433          	add	s0,s2,a5
    c000044a:	f00b50e3          	bgez	s6,c000034a <main+0x34a>
    c000044e:	416005bb          	negw	a1,s6
    c0000452:	00009517          	auipc	a0,0x9
    c0000456:	bce50513          	addi	a0,a0,-1074 # c0009020 <__clzdi2+0x10e>
    c000045a:	0000b797          	auipc	a5,0xb
    c000045e:	b6b7ab23          	sw	a1,-1162(a5) # c000afd0 <errno>
    c0000462:	00001097          	auipc	ra,0x1
    c0000466:	842080e7          	jalr	-1982(ra) # c0000ca4 <printf>
    c000046a:	8556                	mv	a0,s5
    c000046c:	00000097          	auipc	ra,0x0
    c0000470:	0a8080e7          	jalr	168(ra) # c0000514 <usersyscall_close>
    c0000474:	b109                	j	c0000076 <main+0x76>
    c0000476:	60aa                	ld	ra,136(sp)
    c0000478:	640a                	ld	s0,128(sp)
    c000047a:	74e6                	ld	s1,120(sp)
    c000047c:	7946                	ld	s2,112(sp)
    c000047e:	79a6                	ld	s3,104(sp)
    c0000480:	7a06                	ld	s4,96(sp)
    c0000482:	6ae6                	ld	s5,88(sp)
    c0000484:	6b46                	ld	s6,80(sp)
    c0000486:	6ba6                	ld	s7,72(sp)
    c0000488:	6c06                	ld	s8,64(sp)
    c000048a:	7ce2                	ld	s9,56(sp)
    c000048c:	6149                	addi	sp,sp,144
    c000048e:	8082                	ret

00000000c0000490 <deregister_tm_clones>:
    c0000490:	0000a517          	auipc	a0,0xa
    c0000494:	67050513          	addi	a0,a0,1648 # c000ab00 <__TMC_END__>
    c0000498:	0000a797          	auipc	a5,0xa
    c000049c:	66878793          	addi	a5,a5,1640 # c000ab00 <__TMC_END__>
    c00004a0:	00a78963          	beq	a5,a0,c00004b2 <deregister_tm_clones+0x22>
    c00004a4:	00000337          	lui	t1,0x0
    c00004a8:	00030313          	mv	t1,t1
    c00004ac:	00030363          	beqz	t1,c00004b2 <deregister_tm_clones+0x22>
    c00004b0:	8302                	jr	t1
    c00004b2:	8082                	ret

00000000c00004b4 <__do_global_dtors_aux>:
    c00004b4:	0000a797          	auipc	a5,0xa
    c00004b8:	64c7c783          	lbu	a5,1612(a5) # c000ab00 <__TMC_END__>
    c00004bc:	ef85                	bnez	a5,c00004f4 <__do_global_dtors_aux+0x40>
    c00004be:	1141                	addi	sp,sp,-16
    c00004c0:	e406                	sd	ra,8(sp)
    c00004c2:	00000097          	auipc	ra,0x0
    c00004c6:	fce080e7          	jalr	-50(ra) # c0000490 <deregister_tm_clones>
    c00004ca:	000007b7          	lui	a5,0x0
    c00004ce:	00078793          	mv	a5,a5
    c00004d2:	cb89                	beqz	a5,c00004e4 <__do_global_dtors_aux+0x30>
    c00004d4:	00009517          	auipc	a0,0x9
    c00004d8:	4dc50513          	addi	a0,a0,1244 # c00099b0 <__FRAME_END__>
    c00004dc:	00000097          	auipc	ra,0x0
    c00004e0:	000000e7          	jalr	zero # 0 <main-0xc0000000>
    c00004e4:	60a2                	ld	ra,8(sp)
    c00004e6:	4785                	li	a5,1
    c00004e8:	0000a717          	auipc	a4,0xa
    c00004ec:	60f70c23          	sb	a5,1560(a4) # c000ab00 <__TMC_END__>
    c00004f0:	0141                	addi	sp,sp,16
    c00004f2:	8082                	ret
    c00004f4:	8082                	ret

00000000c00004f6 <usersyscall_exit>:
    c00004f6:	05d00893          	li	a7,93
    c00004fa:	00000073          	ecall
    c00004fe:	852a                	mv	a0,a0
    c0000500:	00055963          	bgez	a0,c0000512 <usersyscall_exit+0x1c>
    c0000504:	40a0053b          	negw	a0,a0
    c0000508:	0000b797          	auipc	a5,0xb
    c000050c:	aca7a423          	sw	a0,-1336(a5) # c000afd0 <errno>
    c0000510:	557d                	li	a0,-1
    c0000512:	8082                	ret

00000000c0000514 <usersyscall_close>:
    c0000514:	03900893          	li	a7,57
    c0000518:	00000073          	ecall
    c000051c:	852a                	mv	a0,a0
    c000051e:	00055963          	bgez	a0,c0000530 <usersyscall_close+0x1c>
    c0000522:	40a0053b          	negw	a0,a0
    c0000526:	0000b797          	auipc	a5,0xb
    c000052a:	aaa7a523          	sw	a0,-1366(a5) # c000afd0 <errno>
    c000052e:	557d                	li	a0,-1
    c0000530:	8082                	ret

00000000c0000532 <_lock_acquire_recursive>:
    c0000532:	8082                	ret

00000000c0000534 <_lock_release_recursive>:
    c0000534:	8082                	ret

00000000c0000536 <_lock_init_recursive>:
    c0000536:	8082                	ret

00000000c0000538 <_lock_close_recursive>:
    c0000538:	8082                	ret

00000000c000053a <pthread_setcancelstate>:
    c000053a:	4501                	li	a0,0
    c000053c:	8082                	ret

00000000c000053e <clear_buffer>:
    c000053e:	6595                	lui	a1,0x5
    c0000540:	02200893          	li	a7,34
    c0000544:	4501                	li	a0,0
    c0000546:	40b58593          	addi	a1,a1,1035 # 540b <main-0xbfffabf5>
    c000054a:	4601                	li	a2,0
    c000054c:	00000073          	ecall
    c0000550:	862a                	mv	a2,a0
    c0000552:	00065863          	bgez	a2,c0000562 <clear_buffer+0x24>
    c0000556:	40c0063b          	negw	a2,a2
    c000055a:	0000b797          	auipc	a5,0xb
    c000055e:	a6c7ab23          	sw	a2,-1418(a5) # c000afd0 <errno>
    c0000562:	8082                	ret

00000000c0000564 <wait>:
    c0000564:	85aa                	mv	a1,a0
    c0000566:	4889                	li	a7,2
    c0000568:	557d                	li	a0,-1
    c000056a:	4601                	li	a2,0
    c000056c:	00000073          	ecall
    c0000570:	852a                	mv	a0,a0
    c0000572:	00055963          	bgez	a0,c0000584 <wait+0x20>
    c0000576:	40a0053b          	negw	a0,a0
    c000057a:	0000b797          	auipc	a5,0xb
    c000057e:	a4a7ab23          	sw	a0,-1450(a5) # c000afd0 <errno>
    c0000582:	557d                	li	a0,-1
    c0000584:	8082                	ret

00000000c0000586 <_start>:
    c0000586:	7179                	addi	sp,sp,-48
    c0000588:	f022                	sd	s0,32(sp)
    c000058a:	ec26                	sd	s1,24(sp)
    c000058c:	f406                	sd	ra,40(sp)
    c000058e:	842a                	mv	s0,a0
    c0000590:	0000b497          	auipc	s1,0xb
    c0000594:	a7048493          	addi	s1,s1,-1424 # c000b000 <_end>
    c0000598:	6505                	lui	a0,0x1
    c000059a:	e432                	sd	a2,8(sp)
    c000059c:	e02e                	sd	a1,0(sp)
    c000059e:	00000097          	auipc	ra,0x0
    c00005a2:	150080e7          	jalr	336(ra) # c00006ee <malloc>
    c00005a6:	609c                	ld	a5,0(s1)
    c00005a8:	6582                	ld	a1,0(sp)
    c00005aa:	6622                	ld	a2,8(sp)
    c00005ac:	fef566e3          	bltu	a0,a5,c0000598 <_start+0x12>
    c00005b0:	00000097          	auipc	ra,0x0
    c00005b4:	f8e080e7          	jalr	-114(ra) # c000053e <clear_buffer>
    c00005b8:	6622                	ld	a2,8(sp)
    c00005ba:	6582                	ld	a1,0(sp)
    c00005bc:	8522                	mv	a0,s0
    c00005be:	00000097          	auipc	ra,0x0
    c00005c2:	a42080e7          	jalr	-1470(ra) # c0000000 <main>
    c00005c6:	7402                	ld	s0,32(sp)
    c00005c8:	70a2                	ld	ra,40(sp)
    c00005ca:	64e2                	ld	s1,24(sp)
    c00005cc:	6145                	addi	sp,sp,48
    c00005ce:	00000317          	auipc	t1,0x0
    c00005d2:	f2830067          	jr	-216(t1) # c00004f6 <usersyscall_exit>

00000000c00005d6 <_gets_r>:
    c00005d6:	493c                	lw	a5,80(a0)
    c00005d8:	715d                	addi	sp,sp,-80
    c00005da:	e0a2                	sd	s0,64(sp)
    c00005dc:	fc26                	sd	s1,56(sp)
    c00005de:	f44e                	sd	s3,40(sp)
    c00005e0:	e486                	sd	ra,72(sp)
    c00005e2:	f84a                	sd	s2,48(sp)
    c00005e4:	f052                	sd	s4,32(sp)
    c00005e6:	ec56                	sd	s5,24(sp)
    c00005e8:	89aa                	mv	s3,a0
    c00005ea:	84ae                	mv	s1,a1
    c00005ec:	6500                	ld	s0,8(a0)
    c00005ee:	e789                	bnez	a5,c00005f8 <_gets_r+0x22>
    c00005f0:	00002097          	auipc	ra,0x2
    c00005f4:	694080e7          	jalr	1684(ra) # c0002c84 <__sinit>
    c00005f8:	006c                	addi	a1,sp,12
    c00005fa:	4505                	li	a0,1
    c00005fc:	00000097          	auipc	ra,0x0
    c0000600:	f3e080e7          	jalr	-194(ra) # c000053a <pthread_setcancelstate>
    c0000604:	0b042783          	lw	a5,176(s0)
    c0000608:	8b85                	andi	a5,a5,1
    c000060a:	ef81                	bnez	a5,c0000622 <_gets_r+0x4c>
    c000060c:	01045783          	lhu	a5,16(s0)
    c0000610:	2007f793          	andi	a5,a5,512
    c0000614:	e799                	bnez	a5,c0000622 <_gets_r+0x4c>
    c0000616:	0a040513          	addi	a0,s0,160
    c000061a:	00000097          	auipc	ra,0x0
    c000061e:	f18080e7          	jalr	-232(ra) # c0000532 <_lock_acquire_recursive>
    c0000622:	8926                	mv	s2,s1
    c0000624:	4a29                	li	s4,10
    c0000626:	5afd                	li	s5,-1
    c0000628:	441c                	lw	a5,8(s0)
    c000062a:	37fd                	addiw	a5,a5,-1
    c000062c:	c41c                	sw	a5,8(s0)
    c000062e:	02079713          	slli	a4,a5,0x20
    c0000632:	06075c63          	bgez	a4,c00006aa <_gets_r+0xd4>
    c0000636:	85a2                	mv	a1,s0
    c0000638:	854e                	mv	a0,s3
    c000063a:	00001097          	auipc	ra,0x1
    c000063e:	864080e7          	jalr	-1948(ra) # c0000e9e <__srget_r>
    c0000642:	87aa                	mv	a5,a0
    c0000644:	01450663          	beq	a0,s4,c0000650 <_gets_r+0x7a>
    c0000648:	07551963          	bne	a0,s5,c00006ba <_gets_r+0xe4>
    c000064c:	02990063          	beq	s2,s1,c000066c <_gets_r+0x96>
    c0000650:	00090023          	sb	zero,0(s2)
    c0000654:	0b042783          	lw	a5,176(s0)
    c0000658:	8b85                	andi	a5,a5,1
    c000065a:	c7a5                	beqz	a5,c00006c2 <_gets_r+0xec>
    c000065c:	4532                	lw	a0,12(sp)
    c000065e:	006c                	addi	a1,sp,12
    c0000660:	00000097          	auipc	ra,0x0
    c0000664:	eda080e7          	jalr	-294(ra) # c000053a <pthread_setcancelstate>
    c0000668:	8526                	mv	a0,s1
    c000066a:	a03d                	j	c0000698 <_gets_r+0xc2>
    c000066c:	0b042783          	lw	a5,176(s0)
    c0000670:	8b85                	andi	a5,a5,1
    c0000672:	ef81                	bnez	a5,c000068a <_gets_r+0xb4>
    c0000674:	01045783          	lhu	a5,16(s0)
    c0000678:	2007f793          	andi	a5,a5,512
    c000067c:	e799                	bnez	a5,c000068a <_gets_r+0xb4>
    c000067e:	0a040513          	addi	a0,s0,160
    c0000682:	00000097          	auipc	ra,0x0
    c0000686:	eb2080e7          	jalr	-334(ra) # c0000534 <_lock_release_recursive>
    c000068a:	4532                	lw	a0,12(sp)
    c000068c:	006c                	addi	a1,sp,12
    c000068e:	00000097          	auipc	ra,0x0
    c0000692:	eac080e7          	jalr	-340(ra) # c000053a <pthread_setcancelstate>
    c0000696:	4501                	li	a0,0
    c0000698:	60a6                	ld	ra,72(sp)
    c000069a:	6406                	ld	s0,64(sp)
    c000069c:	74e2                	ld	s1,56(sp)
    c000069e:	7942                	ld	s2,48(sp)
    c00006a0:	79a2                	ld	s3,40(sp)
    c00006a2:	7a02                	ld	s4,32(sp)
    c00006a4:	6ae2                	ld	s5,24(sp)
    c00006a6:	6161                	addi	sp,sp,80
    c00006a8:	8082                	ret
    c00006aa:	601c                	ld	a5,0(s0)
    c00006ac:	00178713          	addi	a4,a5,1
    c00006b0:	e018                	sd	a4,0(s0)
    c00006b2:	0007c783          	lbu	a5,0(a5)
    c00006b6:	f9478de3          	beq	a5,s4,c0000650 <_gets_r+0x7a>
    c00006ba:	0905                	addi	s2,s2,1
    c00006bc:	fef90fa3          	sb	a5,-1(s2)
    c00006c0:	b7a5                	j	c0000628 <_gets_r+0x52>
    c00006c2:	01045783          	lhu	a5,16(s0)
    c00006c6:	2007f793          	andi	a5,a5,512
    c00006ca:	fbc9                	bnez	a5,c000065c <_gets_r+0x86>
    c00006cc:	0a040513          	addi	a0,s0,160
    c00006d0:	00000097          	auipc	ra,0x0
    c00006d4:	e64080e7          	jalr	-412(ra) # c0000534 <_lock_release_recursive>
    c00006d8:	b751                	j	c000065c <_gets_r+0x86>

00000000c00006da <gets>:
    c00006da:	0000a797          	auipc	a5,0xa
    c00006de:	3fe78793          	addi	a5,a5,1022 # c000aad8 <_impure_ptr>
    c00006e2:	85aa                	mv	a1,a0
    c00006e4:	6388                	ld	a0,0(a5)
    c00006e6:	00000317          	auipc	t1,0x0
    c00006ea:	ef030067          	jr	-272(t1) # c00005d6 <_gets_r>

00000000c00006ee <malloc>:
    c00006ee:	0000a797          	auipc	a5,0xa
    c00006f2:	3ea78793          	addi	a5,a5,1002 # c000aad8 <_impure_ptr>
    c00006f6:	85aa                	mv	a1,a0
    c00006f8:	6388                	ld	a0,0(a5)
    c00006fa:	00000317          	auipc	t1,0x0
    c00006fe:	00830067          	jr	8(t1) # c0000702 <_malloc_r>

00000000c0000702 <_malloc_r>:
    c0000702:	711d                	addi	sp,sp,-96
    c0000704:	ec86                	sd	ra,88(sp)
    c0000706:	e8a2                	sd	s0,80(sp)
    c0000708:	e4a6                	sd	s1,72(sp)
    c000070a:	e0ca                	sd	s2,64(sp)
    c000070c:	fc4e                	sd	s3,56(sp)
    c000070e:	f852                	sd	s4,48(sp)
    c0000710:	f456                	sd	s5,40(sp)
    c0000712:	f05a                	sd	s6,32(sp)
    c0000714:	ec5e                	sd	s7,24(sp)
    c0000716:	e862                	sd	s8,16(sp)
    c0000718:	e466                	sd	s9,8(sp)
    c000071a:	01758793          	addi	a5,a1,23
    c000071e:	02e00713          	li	a4,46
    c0000722:	02f77a63          	bleu	a5,a4,c0000756 <_malloc_r+0x54>
    c0000726:	ff07f493          	andi	s1,a5,-16
    c000072a:	800007b7          	lui	a5,0x80000
    c000072e:	fff7c793          	not	a5,a5
    c0000732:	0297f463          	bleu	s1,a5,c000075a <_malloc_r+0x58>
    c0000736:	47b1                	li	a5,12
    c0000738:	c11c                	sw	a5,0(a0)
    c000073a:	4501                	li	a0,0
    c000073c:	60e6                	ld	ra,88(sp)
    c000073e:	6446                	ld	s0,80(sp)
    c0000740:	64a6                	ld	s1,72(sp)
    c0000742:	6906                	ld	s2,64(sp)
    c0000744:	79e2                	ld	s3,56(sp)
    c0000746:	7a42                	ld	s4,48(sp)
    c0000748:	7aa2                	ld	s5,40(sp)
    c000074a:	7b02                	ld	s6,32(sp)
    c000074c:	6be2                	ld	s7,24(sp)
    c000074e:	6c42                	ld	s8,16(sp)
    c0000750:	6ca2                	ld	s9,8(sp)
    c0000752:	6125                	addi	sp,sp,96
    c0000754:	8082                	ret
    c0000756:	02000493          	li	s1,32
    c000075a:	fcb4eee3          	bltu	s1,a1,c0000736 <_malloc_r+0x34>
    c000075e:	892a                	mv	s2,a0
    c0000760:	00000097          	auipc	ra,0x0
    c0000764:	524080e7          	jalr	1316(ra) # c0000c84 <__malloc_lock>
    c0000768:	1f700793          	li	a5,503
    c000076c:	0000a997          	auipc	s3,0xa
    c0000770:	9b498993          	addi	s3,s3,-1612 # c000a120 <__malloc_av_>
    c0000774:	0497e063          	bltu	a5,s1,c00007b4 <_malloc_r+0xb2>
    c0000778:	0034d793          	srli	a5,s1,0x3
    c000077c:	2781                	sext.w	a5,a5
    c000077e:	0017871b          	addiw	a4,a5,1
    c0000782:	0017171b          	slliw	a4,a4,0x1
    c0000786:	070e                	slli	a4,a4,0x3
    c0000788:	974e                	add	a4,a4,s3
    c000078a:	6700                	ld	s0,8(a4)
    c000078c:	ff070693          	addi	a3,a4,-16
    c0000790:	00d41663          	bne	s0,a3,c000079c <_malloc_r+0x9a>
    c0000794:	6f00                	ld	s0,24(a4)
    c0000796:	2789                	addiw	a5,a5,2
    c0000798:	04870e63          	beq	a4,s0,c00007f4 <_malloc_r+0xf2>
    c000079c:	641c                	ld	a5,8(s0)
    c000079e:	6c18                	ld	a4,24(s0)
    c00007a0:	6814                	ld	a3,16(s0)
    c00007a2:	9bf1                	andi	a5,a5,-4
    c00007a4:	97a2                	add	a5,a5,s0
    c00007a6:	ee98                	sd	a4,24(a3)
    c00007a8:	eb14                	sd	a3,16(a4)
    c00007aa:	6798                	ld	a4,8(a5)
    c00007ac:	00176713          	ori	a4,a4,1
    c00007b0:	e798                	sd	a4,8(a5)
    c00007b2:	a061                	j	c000083a <_malloc_r+0x138>
    c00007b4:	0094d713          	srli	a4,s1,0x9
    c00007b8:	03f00793          	li	a5,63
    c00007bc:	cb01                	beqz	a4,c00007cc <_malloc_r+0xca>
    c00007be:	4791                	li	a5,4
    c00007c0:	08e7e563          	bltu	a5,a4,c000084a <_malloc_r+0x148>
    c00007c4:	0064d793          	srli	a5,s1,0x6
    c00007c8:	0387879b          	addiw	a5,a5,56
    c00007cc:	0017871b          	addiw	a4,a5,1
    c00007d0:	0017171b          	slliw	a4,a4,0x1
    c00007d4:	070e                	slli	a4,a4,0x3
    c00007d6:	974e                	add	a4,a4,s3
    c00007d8:	6700                	ld	s0,8(a4)
    c00007da:	ff070593          	addi	a1,a4,-16
    c00007de:	457d                	li	a0,31
    c00007e0:	00b40963          	beq	s0,a1,c00007f2 <_malloc_r+0xf0>
    c00007e4:	6418                	ld	a4,8(s0)
    c00007e6:	9b71                	andi	a4,a4,-4
    c00007e8:	40970633          	sub	a2,a4,s1
    c00007ec:	0ac55263          	ble	a2,a0,c0000890 <_malloc_r+0x18e>
    c00007f0:	37fd                	addiw	a5,a5,-1
    c00007f2:	2785                	addiw	a5,a5,1
    c00007f4:	0209b403          	ld	s0,32(s3)
    c00007f8:	0000a597          	auipc	a1,0xa
    c00007fc:	93858593          	addi	a1,a1,-1736 # c000a130 <__malloc_av_+0x10>
    c0000800:	10b40263          	beq	s0,a1,c0000904 <_malloc_r+0x202>
    c0000804:	6418                	ld	a4,8(s0)
    c0000806:	46fd                	li	a3,31
    c0000808:	9b71                	andi	a4,a4,-4
    c000080a:	40970633          	sub	a2,a4,s1
    c000080e:	08c6dc63          	ble	a2,a3,c00008a6 <_malloc_r+0x1a4>
    c0000812:	0014e793          	ori	a5,s1,1
    c0000816:	e41c                	sd	a5,8(s0)
    c0000818:	009406b3          	add	a3,s0,s1
    c000081c:	0000a797          	auipc	a5,0xa
    c0000820:	92d7b623          	sd	a3,-1748(a5) # c000a148 <__malloc_av_+0x28>
    c0000824:	0000a797          	auipc	a5,0xa
    c0000828:	90d7be23          	sd	a3,-1764(a5) # c000a140 <__malloc_av_+0x20>
    c000082c:	00166793          	ori	a5,a2,1
    c0000830:	ee8c                	sd	a1,24(a3)
    c0000832:	ea8c                	sd	a1,16(a3)
    c0000834:	e69c                	sd	a5,8(a3)
    c0000836:	9722                	add	a4,a4,s0
    c0000838:	e310                	sd	a2,0(a4)
    c000083a:	854a                	mv	a0,s2
    c000083c:	00000097          	auipc	ra,0x0
    c0000840:	458080e7          	jalr	1112(ra) # c0000c94 <__malloc_unlock>
    c0000844:	01040513          	addi	a0,s0,16
    c0000848:	bdd5                	j	c000073c <_malloc_r+0x3a>
    c000084a:	47d1                	li	a5,20
    c000084c:	00e7e563          	bltu	a5,a4,c0000856 <_malloc_r+0x154>
    c0000850:	05b7079b          	addiw	a5,a4,91
    c0000854:	bfa5                	j	c00007cc <_malloc_r+0xca>
    c0000856:	05400793          	li	a5,84
    c000085a:	00e7e763          	bltu	a5,a4,c0000868 <_malloc_r+0x166>
    c000085e:	00c4d793          	srli	a5,s1,0xc
    c0000862:	06e7879b          	addiw	a5,a5,110
    c0000866:	b79d                	j	c00007cc <_malloc_r+0xca>
    c0000868:	15400793          	li	a5,340
    c000086c:	00e7e763          	bltu	a5,a4,c000087a <_malloc_r+0x178>
    c0000870:	00f4d793          	srli	a5,s1,0xf
    c0000874:	0777879b          	addiw	a5,a5,119
    c0000878:	bf91                	j	c00007cc <_malloc_r+0xca>
    c000087a:	55400693          	li	a3,1364
    c000087e:	07e00793          	li	a5,126
    c0000882:	f4e6e5e3          	bltu	a3,a4,c00007cc <_malloc_r+0xca>
    c0000886:	0124d793          	srli	a5,s1,0x12
    c000088a:	07c7879b          	addiw	a5,a5,124
    c000088e:	bf3d                	j	c00007cc <_malloc_r+0xca>
    c0000890:	6c14                	ld	a3,24(s0)
    c0000892:	00064863          	bltz	a2,c00008a2 <_malloc_r+0x1a0>
    c0000896:	681c                	ld	a5,16(s0)
    c0000898:	ef94                	sd	a3,24(a5)
    c000089a:	ea9c                	sd	a5,16(a3)
    c000089c:	00e407b3          	add	a5,s0,a4
    c00008a0:	b729                	j	c00007aa <_malloc_r+0xa8>
    c00008a2:	8436                	mv	s0,a3
    c00008a4:	bf35                	j	c00007e0 <_malloc_r+0xde>
    c00008a6:	0000a697          	auipc	a3,0xa
    c00008aa:	8ab6b123          	sd	a1,-1886(a3) # c000a148 <__malloc_av_+0x28>
    c00008ae:	0000a697          	auipc	a3,0xa
    c00008b2:	88b6b923          	sd	a1,-1902(a3) # c000a140 <__malloc_av_+0x20>
    c00008b6:	00064863          	bltz	a2,c00008c6 <_malloc_r+0x1c4>
    c00008ba:	9722                	add	a4,a4,s0
    c00008bc:	671c                	ld	a5,8(a4)
    c00008be:	0017e793          	ori	a5,a5,1
    c00008c2:	e71c                	sd	a5,8(a4)
    c00008c4:	bf9d                	j	c000083a <_malloc_r+0x138>
    c00008c6:	1ff00693          	li	a3,511
    c00008ca:	0089b803          	ld	a6,8(s3)
    c00008ce:	16e6e263          	bltu	a3,a4,c0000a32 <_malloc_r+0x330>
    c00008d2:	830d                	srli	a4,a4,0x3
    c00008d4:	2701                	sext.w	a4,a4
    c00008d6:	4027561b          	sraiw	a2,a4,0x2
    c00008da:	2705                	addiw	a4,a4,1
    c00008dc:	4685                	li	a3,1
    c00008de:	0017171b          	slliw	a4,a4,0x1
    c00008e2:	00c696b3          	sll	a3,a3,a2
    c00008e6:	070e                	slli	a4,a4,0x3
    c00008e8:	974e                	add	a4,a4,s3
    c00008ea:	0106e6b3          	or	a3,a3,a6
    c00008ee:	0000a617          	auipc	a2,0xa
    c00008f2:	82d63d23          	sd	a3,-1990(a2) # c000a128 <__malloc_av_+0x8>
    c00008f6:	6314                	ld	a3,0(a4)
    c00008f8:	ff070613          	addi	a2,a4,-16
    c00008fc:	ec10                	sd	a2,24(s0)
    c00008fe:	e814                	sd	a3,16(s0)
    c0000900:	e300                	sd	s0,0(a4)
    c0000902:	ee80                	sd	s0,24(a3)
    c0000904:	4027d71b          	sraiw	a4,a5,0x2
    c0000908:	4305                	li	t1,1
    c000090a:	00e31333          	sll	t1,t1,a4
    c000090e:	0089b703          	ld	a4,8(s3)
    c0000912:	06676263          	bltu	a4,t1,c0000976 <_malloc_r+0x274>
    c0000916:	006776b3          	and	a3,a4,t1
    c000091a:	e699                	bnez	a3,c0000928 <_malloc_r+0x226>
    c000091c:	9bf1                	andi	a5,a5,-4
    c000091e:	0306                	slli	t1,t1,0x1
    c0000920:	006776b3          	and	a3,a4,t1
    c0000924:	2791                	addiw	a5,a5,4
    c0000926:	dee5                	beqz	a3,c000091e <_malloc_r+0x21c>
    c0000928:	4e7d                	li	t3,31
    c000092a:	0017871b          	addiw	a4,a5,1
    c000092e:	0017171b          	slliw	a4,a4,0x1
    c0000932:	070e                	slli	a4,a4,0x3
    c0000934:	1741                	addi	a4,a4,-16
    c0000936:	974e                	add	a4,a4,s3
    c0000938:	883a                	mv	a6,a4
    c000093a:	853e                	mv	a0,a5
    c000093c:	01883403          	ld	s0,24(a6)
    c0000940:	19041963          	bne	s0,a6,c0000ad2 <_malloc_r+0x3d0>
    c0000944:	2505                	addiw	a0,a0,1
    c0000946:	00357693          	andi	a3,a0,3
    c000094a:	0841                	addi	a6,a6,16
    c000094c:	fae5                	bnez	a3,c000093c <_malloc_r+0x23a>
    c000094e:	0037f693          	andi	a3,a5,3
    c0000952:	1c069d63          	bnez	a3,c0000b2c <_malloc_r+0x42a>
    c0000956:	0089b703          	ld	a4,8(s3)
    c000095a:	fff34793          	not	a5,t1
    c000095e:	8ff9                	and	a5,a5,a4
    c0000960:	00009717          	auipc	a4,0x9
    c0000964:	7cf73423          	sd	a5,1992(a4) # c000a128 <__malloc_av_+0x8>
    c0000968:	0089b703          	ld	a4,8(s3)
    c000096c:	0306                	slli	t1,t1,0x1
    c000096e:	00676463          	bltu	a4,t1,c0000976 <_malloc_r+0x274>
    c0000972:	1c031963          	bnez	t1,c0000b44 <_malloc_r+0x442>
    c0000976:	0109bb83          	ld	s7,16(s3)
    c000097a:	008bb403          	ld	s0,8(s7)
    c000097e:	ffc47a93          	andi	s5,s0,-4
    c0000982:	009ae763          	bltu	s5,s1,c0000990 <_malloc_r+0x28e>
    c0000986:	409a8733          	sub	a4,s5,s1
    c000098a:	47fd                	li	a5,31
    c000098c:	2ae7cd63          	blt	a5,a4,c0000c46 <_malloc_r+0x544>
    c0000990:	0000a797          	auipc	a5,0xa
    c0000994:	18878793          	addi	a5,a5,392 # c000ab18 <__malloc_top_pad>
    c0000998:	0000a717          	auipc	a4,0xa
    c000099c:	14870713          	addi	a4,a4,328 # c000aae0 <__malloc_sbrk_base>
    c00009a0:	6380                	ld	s0,0(a5)
    c00009a2:	6314                	ld	a3,0(a4)
    c00009a4:	57fd                	li	a5,-1
    c00009a6:	015b8c33          	add	s8,s7,s5
    c00009aa:	9426                	add	s0,s0,s1
    c00009ac:	8a3a                	mv	s4,a4
    c00009ae:	18f69d63          	bne	a3,a5,c0000b48 <_malloc_r+0x446>
    c00009b2:	02040413          	addi	s0,s0,32
    c00009b6:	85a2                	mv	a1,s0
    c00009b8:	854a                	mv	a0,s2
    c00009ba:	00000097          	auipc	ra,0x0
    c00009be:	52c080e7          	jalr	1324(ra) # c0000ee6 <_sbrk_r>
    c00009c2:	57fd                	li	a5,-1
    c00009c4:	8b2a                	mv	s6,a0
    c00009c6:	20f50f63          	beq	a0,a5,c0000be4 <_malloc_r+0x4e2>
    c00009ca:	01857463          	bleu	s8,a0,c00009d2 <_malloc_r+0x2d0>
    c00009ce:	213b9b63          	bne	s7,s3,c0000be4 <_malloc_r+0x4e2>
    c00009d2:	0000ac97          	auipc	s9,0xa
    c00009d6:	5d6c8c93          	addi	s9,s9,1494 # c000afa8 <__malloc_current_mallinfo>
    c00009da:	000ca703          	lw	a4,0(s9)
    c00009de:	9f21                	addw	a4,a4,s0
    c00009e0:	0000a797          	auipc	a5,0xa
    c00009e4:	5ce7a423          	sw	a4,1480(a5) # c000afa8 <__malloc_current_mallinfo>
    c00009e8:	176c1663          	bne	s8,s6,c0000b54 <_malloc_r+0x452>
    c00009ec:	034c1793          	slli	a5,s8,0x34
    c00009f0:	16079263          	bnez	a5,c0000b54 <_malloc_r+0x452>
    c00009f4:	0109b783          	ld	a5,16(s3)
    c00009f8:	9456                	add	s0,s0,s5
    c00009fa:	00146413          	ori	s0,s0,1
    c00009fe:	e780                	sd	s0,8(a5)
    c0000a00:	0000a717          	auipc	a4,0xa
    c0000a04:	10870713          	addi	a4,a4,264 # c000ab08 <__malloc_max_sbrked_mem>
    c0000a08:	000ca783          	lw	a5,0(s9)
    c0000a0c:	6318                	ld	a4,0(a4)
    c0000a0e:	00f77663          	bleu	a5,a4,c0000a1a <_malloc_r+0x318>
    c0000a12:	0000a717          	auipc	a4,0xa
    c0000a16:	0ef73b23          	sd	a5,246(a4) # c000ab08 <__malloc_max_sbrked_mem>
    c0000a1a:	0000a717          	auipc	a4,0xa
    c0000a1e:	0f670713          	addi	a4,a4,246 # c000ab10 <__malloc_max_total_mem>
    c0000a22:	6318                	ld	a4,0(a4)
    c0000a24:	1cf77063          	bleu	a5,a4,c0000be4 <_malloc_r+0x4e2>
    c0000a28:	0000a717          	auipc	a4,0xa
    c0000a2c:	0ef73423          	sd	a5,232(a4) # c000ab10 <__malloc_max_total_mem>
    c0000a30:	aa55                	j	c0000be4 <_malloc_r+0x4e2>
    c0000a32:	00975613          	srli	a2,a4,0x9
    c0000a36:	4691                	li	a3,4
    c0000a38:	04c6e163          	bltu	a3,a2,c0000a7a <_malloc_r+0x378>
    c0000a3c:	00675693          	srli	a3,a4,0x6
    c0000a40:	0386869b          	addiw	a3,a3,56
    c0000a44:	0016861b          	addiw	a2,a3,1
    c0000a48:	0016161b          	slliw	a2,a2,0x1
    c0000a4c:	060e                	slli	a2,a2,0x3
    c0000a4e:	964e                	add	a2,a2,s3
    c0000a50:	ff060513          	addi	a0,a2,-16
    c0000a54:	6210                	ld	a2,0(a2)
    c0000a56:	06c51863          	bne	a0,a2,c0000ac6 <_malloc_r+0x3c4>
    c0000a5a:	4705                	li	a4,1
    c0000a5c:	4026d69b          	sraiw	a3,a3,0x2
    c0000a60:	00d716b3          	sll	a3,a4,a3
    c0000a64:	0106e6b3          	or	a3,a3,a6
    c0000a68:	00009717          	auipc	a4,0x9
    c0000a6c:	6cd73023          	sd	a3,1728(a4) # c000a128 <__malloc_av_+0x8>
    c0000a70:	ec08                	sd	a0,24(s0)
    c0000a72:	e810                	sd	a2,16(s0)
    c0000a74:	e900                	sd	s0,16(a0)
    c0000a76:	ee00                	sd	s0,24(a2)
    c0000a78:	b571                	j	c0000904 <_malloc_r+0x202>
    c0000a7a:	46d1                	li	a3,20
    c0000a7c:	00c6e563          	bltu	a3,a2,c0000a86 <_malloc_r+0x384>
    c0000a80:	05b6069b          	addiw	a3,a2,91
    c0000a84:	b7c1                	j	c0000a44 <_malloc_r+0x342>
    c0000a86:	05400693          	li	a3,84
    c0000a8a:	00c6e763          	bltu	a3,a2,c0000a98 <_malloc_r+0x396>
    c0000a8e:	00c75693          	srli	a3,a4,0xc
    c0000a92:	06e6869b          	addiw	a3,a3,110
    c0000a96:	b77d                	j	c0000a44 <_malloc_r+0x342>
    c0000a98:	15400693          	li	a3,340
    c0000a9c:	00c6e763          	bltu	a3,a2,c0000aaa <_malloc_r+0x3a8>
    c0000aa0:	00f75693          	srli	a3,a4,0xf
    c0000aa4:	0776869b          	addiw	a3,a3,119
    c0000aa8:	bf71                	j	c0000a44 <_malloc_r+0x342>
    c0000aaa:	55400513          	li	a0,1364
    c0000aae:	07e00693          	li	a3,126
    c0000ab2:	f8c569e3          	bltu	a0,a2,c0000a44 <_malloc_r+0x342>
    c0000ab6:	01275693          	srli	a3,a4,0x12
    c0000aba:	07c6869b          	addiw	a3,a3,124
    c0000abe:	b759                	j	c0000a44 <_malloc_r+0x342>
    c0000ac0:	6a10                	ld	a2,16(a2)
    c0000ac2:	00c50663          	beq	a0,a2,c0000ace <_malloc_r+0x3cc>
    c0000ac6:	6614                	ld	a3,8(a2)
    c0000ac8:	9af1                	andi	a3,a3,-4
    c0000aca:	fed76be3          	bltu	a4,a3,c0000ac0 <_malloc_r+0x3be>
    c0000ace:	6e08                	ld	a0,24(a2)
    c0000ad0:	b745                	j	c0000a70 <_malloc_r+0x36e>
    c0000ad2:	6414                	ld	a3,8(s0)
    c0000ad4:	6c10                	ld	a2,24(s0)
    c0000ad6:	9af1                	andi	a3,a3,-4
    c0000ad8:	409688b3          	sub	a7,a3,s1
    c0000adc:	031e5b63          	ble	a7,t3,c0000b12 <_malloc_r+0x410>
    c0000ae0:	0014e793          	ori	a5,s1,1
    c0000ae4:	e41c                	sd	a5,8(s0)
    c0000ae6:	681c                	ld	a5,16(s0)
    c0000ae8:	00940733          	add	a4,s0,s1
    c0000aec:	96a2                	add	a3,a3,s0
    c0000aee:	ef90                	sd	a2,24(a5)
    c0000af0:	ea1c                	sd	a5,16(a2)
    c0000af2:	00009797          	auipc	a5,0x9
    c0000af6:	64e7bb23          	sd	a4,1622(a5) # c000a148 <__malloc_av_+0x28>
    c0000afa:	00009797          	auipc	a5,0x9
    c0000afe:	64e7b323          	sd	a4,1606(a5) # c000a140 <__malloc_av_+0x20>
    c0000b02:	0018e793          	ori	a5,a7,1
    c0000b06:	ef0c                	sd	a1,24(a4)
    c0000b08:	eb0c                	sd	a1,16(a4)
    c0000b0a:	e71c                	sd	a5,8(a4)
    c0000b0c:	0116b023          	sd	a7,0(a3)
    c0000b10:	b32d                	j	c000083a <_malloc_r+0x138>
    c0000b12:	0008cb63          	bltz	a7,c0000b28 <_malloc_r+0x426>
    c0000b16:	96a2                	add	a3,a3,s0
    c0000b18:	669c                	ld	a5,8(a3)
    c0000b1a:	0017e793          	ori	a5,a5,1
    c0000b1e:	e69c                	sd	a5,8(a3)
    c0000b20:	681c                	ld	a5,16(s0)
    c0000b22:	ef90                	sd	a2,24(a5)
    c0000b24:	ea1c                	sd	a5,16(a2)
    c0000b26:	bb11                	j	c000083a <_malloc_r+0x138>
    c0000b28:	8432                	mv	s0,a2
    c0000b2a:	bd19                	j	c0000940 <_malloc_r+0x23e>
    c0000b2c:	1741                	addi	a4,a4,-16
    c0000b2e:	6b14                	ld	a3,16(a4)
    c0000b30:	37fd                	addiw	a5,a5,-1
    c0000b32:	e0e68ee3          	beq	a3,a4,c000094e <_malloc_r+0x24c>
    c0000b36:	bd0d                	j	c0000968 <_malloc_r+0x266>
    c0000b38:	2791                	addiw	a5,a5,4
    c0000b3a:	0306                	slli	t1,t1,0x1
    c0000b3c:	006776b3          	and	a3,a4,t1
    c0000b40:	dee5                	beqz	a3,c0000b38 <_malloc_r+0x436>
    c0000b42:	b3e5                	j	c000092a <_malloc_r+0x228>
    c0000b44:	87aa                	mv	a5,a0
    c0000b46:	bfdd                	j	c0000b3c <_malloc_r+0x43a>
    c0000b48:	6705                	lui	a4,0x1
    c0000b4a:	077d                	addi	a4,a4,31
    c0000b4c:	943a                	add	s0,s0,a4
    c0000b4e:	77fd                	lui	a5,0xfffff
    c0000b50:	8c7d                	and	s0,s0,a5
    c0000b52:	b595                	j	c00009b6 <_malloc_r+0x2b4>
    c0000b54:	000a3683          	ld	a3,0(s4) # 8000 <main-0xbfff8000>
    c0000b58:	57fd                	li	a5,-1
    c0000b5a:	0af69663          	bne	a3,a5,c0000c06 <_malloc_r+0x504>
    c0000b5e:	0000a797          	auipc	a5,0xa
    c0000b62:	f967b123          	sd	s6,-126(a5) # c000aae0 <__malloc_sbrk_base>
    c0000b66:	00fb7c13          	andi	s8,s6,15
    c0000b6a:	4781                	li	a5,0
    c0000b6c:	000c0663          	beqz	s8,c0000b78 <_malloc_r+0x476>
    c0000b70:	47c1                	li	a5,16
    c0000b72:	418787b3          	sub	a5,a5,s8
    c0000b76:	9b3e                	add	s6,s6,a5
    c0000b78:	6505                	lui	a0,0x1
    c0000b7a:	00a78a33          	add	s4,a5,a0
    c0000b7e:	945a                	add	s0,s0,s6
    c0000b80:	157d                	addi	a0,a0,-1
    c0000b82:	00a477b3          	and	a5,s0,a0
    c0000b86:	40fa0a33          	sub	s4,s4,a5
    c0000b8a:	00aa7a33          	and	s4,s4,a0
    c0000b8e:	85d2                	mv	a1,s4
    c0000b90:	854a                	mv	a0,s2
    c0000b92:	00000097          	auipc	ra,0x0
    c0000b96:	354080e7          	jalr	852(ra) # c0000ee6 <_sbrk_r>
    c0000b9a:	57fd                	li	a5,-1
    c0000b9c:	00f51963          	bne	a0,a5,c0000bae <_malloc_r+0x4ac>
    c0000ba0:	8522                	mv	a0,s0
    c0000ba2:	000c0563          	beqz	s8,c0000bac <_malloc_r+0x4aa>
    c0000ba6:	ff0c0513          	addi	a0,s8,-16
    c0000baa:	9522                	add	a0,a0,s0
    c0000bac:	4a01                	li	s4,0
    c0000bae:	000ca783          	lw	a5,0(s9)
    c0000bb2:	41650533          	sub	a0,a0,s6
    c0000bb6:	014787bb          	addw	a5,a5,s4
    c0000bba:	9a2a                	add	s4,s4,a0
    c0000bbc:	0000a717          	auipc	a4,0xa
    c0000bc0:	3ef72623          	sw	a5,1004(a4) # c000afa8 <__malloc_current_mallinfo>
    c0000bc4:	001a6a13          	ori	s4,s4,1
    c0000bc8:	00009797          	auipc	a5,0x9
    c0000bcc:	5767b423          	sd	s6,1384(a5) # c000a130 <__malloc_av_+0x10>
    c0000bd0:	014b3423          	sd	s4,8(s6)
    c0000bd4:	e33b86e3          	beq	s7,s3,c0000a00 <_malloc_r+0x2fe>
    c0000bd8:	477d                	li	a4,31
    c0000bda:	03576e63          	bltu	a4,s5,c0000c16 <_malloc_r+0x514>
    c0000bde:	4785                	li	a5,1
    c0000be0:	00fb3423          	sd	a5,8(s6)
    c0000be4:	0109b783          	ld	a5,16(s3)
    c0000be8:	679c                	ld	a5,8(a5)
    c0000bea:	9bf1                	andi	a5,a5,-4
    c0000bec:	40978733          	sub	a4,a5,s1
    c0000bf0:	0097e563          	bltu	a5,s1,c0000bfa <_malloc_r+0x4f8>
    c0000bf4:	47fd                	li	a5,31
    c0000bf6:	04e7c863          	blt	a5,a4,c0000c46 <_malloc_r+0x544>
    c0000bfa:	854a                	mv	a0,s2
    c0000bfc:	00000097          	auipc	ra,0x0
    c0000c00:	098080e7          	jalr	152(ra) # c0000c94 <__malloc_unlock>
    c0000c04:	be1d                	j	c000073a <_malloc_r+0x38>
    c0000c06:	418b07b3          	sub	a5,s6,s8
    c0000c0a:	9fb9                	addw	a5,a5,a4
    c0000c0c:	0000a717          	auipc	a4,0xa
    c0000c10:	38f72e23          	sw	a5,924(a4) # c000afa8 <__malloc_current_mallinfo>
    c0000c14:	bf89                	j	c0000b66 <_malloc_r+0x464>
    c0000c16:	008bb783          	ld	a5,8(s7)
    c0000c1a:	fe8a8413          	addi	s0,s5,-24
    c0000c1e:	9841                	andi	s0,s0,-16
    c0000c20:	8b85                	andi	a5,a5,1
    c0000c22:	8fc1                	or	a5,a5,s0
    c0000c24:	00fbb423          	sd	a5,8(s7)
    c0000c28:	46a5                	li	a3,9
    c0000c2a:	008b87b3          	add	a5,s7,s0
    c0000c2e:	e794                	sd	a3,8(a5)
    c0000c30:	eb94                	sd	a3,16(a5)
    c0000c32:	dc8777e3          	bleu	s0,a4,c0000a00 <_malloc_r+0x2fe>
    c0000c36:	010b8593          	addi	a1,s7,16
    c0000c3a:	854a                	mv	a0,s2
    c0000c3c:	00002097          	auipc	ra,0x2
    c0000c40:	19e080e7          	jalr	414(ra) # c0002dda <_free_r>
    c0000c44:	bb75                	j	c0000a00 <_malloc_r+0x2fe>
    c0000c46:	0109b403          	ld	s0,16(s3)
    c0000c4a:	0014e793          	ori	a5,s1,1
    c0000c4e:	e41c                	sd	a5,8(s0)
    c0000c50:	009407b3          	add	a5,s0,s1
    c0000c54:	00009697          	auipc	a3,0x9
    c0000c58:	4cf6be23          	sd	a5,1244(a3) # c000a130 <__malloc_av_+0x10>
    c0000c5c:	be81                	j	c00007ac <_malloc_r+0xaa>

00000000c0000c5e <memcmp>:
    c0000c5e:	4701                	li	a4,0
    c0000c60:	00e61463          	bne	a2,a4,c0000c68 <memcmp+0xa>
    c0000c64:	4501                	li	a0,0
    c0000c66:	8082                	ret
    c0000c68:	00e507b3          	add	a5,a0,a4
    c0000c6c:	0705                	addi	a4,a4,1
    c0000c6e:	00e586b3          	add	a3,a1,a4
    c0000c72:	0007c783          	lbu	a5,0(a5)
    c0000c76:	fff6c683          	lbu	a3,-1(a3)
    c0000c7a:	fed783e3          	beq	a5,a3,c0000c60 <memcmp+0x2>
    c0000c7e:	40d7853b          	subw	a0,a5,a3
    c0000c82:	8082                	ret

00000000c0000c84 <__malloc_lock>:
    c0000c84:	0000a517          	auipc	a0,0xa
    c0000c88:	e9c50513          	addi	a0,a0,-356 # c000ab20 <__malloc_recursive_mutex>
    c0000c8c:	00000317          	auipc	t1,0x0
    c0000c90:	8a630067          	jr	-1882(t1) # c0000532 <_lock_acquire_recursive>

00000000c0000c94 <__malloc_unlock>:
    c0000c94:	0000a517          	auipc	a0,0xa
    c0000c98:	e8c50513          	addi	a0,a0,-372 # c000ab20 <__malloc_recursive_mutex>
    c0000c9c:	00000317          	auipc	t1,0x0
    c0000ca0:	89830067          	jr	-1896(t1) # c0000534 <_lock_release_recursive>

00000000c0000ca4 <printf>:
    c0000ca4:	711d                	addi	sp,sp,-96
    c0000ca6:	f832                	sd	a2,48(sp)
    c0000ca8:	fc36                	sd	a3,56(sp)
    c0000caa:	e4be                	sd	a5,72(sp)
    c0000cac:	f42e                	sd	a1,40(sp)
    c0000cae:	e0ba                	sd	a4,64(sp)
    c0000cb0:	e8c2                	sd	a6,80(sp)
    c0000cb2:	ecc6                	sd	a7,88(sp)
    c0000cb4:	0000a797          	auipc	a5,0xa
    c0000cb8:	e2478793          	addi	a5,a5,-476 # c000aad8 <_impure_ptr>
    c0000cbc:	639c                	ld	a5,0(a5)
    c0000cbe:	1034                	addi	a3,sp,40
    c0000cc0:	862a                	mv	a2,a0
    c0000cc2:	6b8c                	ld	a1,16(a5)
    c0000cc4:	853e                	mv	a0,a5
    c0000cc6:	ec06                	sd	ra,24(sp)
    c0000cc8:	e436                	sd	a3,8(sp)
    c0000cca:	00000097          	auipc	ra,0x0
    c0000cce:	360080e7          	jalr	864(ra) # c000102a <_vfprintf_r>
    c0000cd2:	60e2                	ld	ra,24(sp)
    c0000cd4:	6125                	addi	sp,sp,96
    c0000cd6:	8082                	ret

00000000c0000cd8 <putchar>:
    c0000cd8:	0000a797          	auipc	a5,0xa
    c0000cdc:	e0078793          	addi	a5,a5,-512 # c000aad8 <_impure_ptr>
    c0000ce0:	639c                	ld	a5,0(a5)
    c0000ce2:	85aa                	mv	a1,a0
    c0000ce4:	6b90                	ld	a2,16(a5)
    c0000ce6:	853e                	mv	a0,a5
    c0000ce8:	00000317          	auipc	t1,0x0
    c0000cec:	00830067          	jr	8(t1) # c0000cf0 <_putc_r>

00000000c0000cf0 <_putc_r>:
    c0000cf0:	7179                	addi	sp,sp,-48
    c0000cf2:	f022                	sd	s0,32(sp)
    c0000cf4:	ec26                	sd	s1,24(sp)
    c0000cf6:	e84a                	sd	s2,16(sp)
    c0000cf8:	f406                	sd	ra,40(sp)
    c0000cfa:	892a                	mv	s2,a0
    c0000cfc:	84ae                	mv	s1,a1
    c0000cfe:	8432                	mv	s0,a2
    c0000d00:	c519                	beqz	a0,c0000d0e <_putc_r+0x1e>
    c0000d02:	493c                	lw	a5,80(a0)
    c0000d04:	e789                	bnez	a5,c0000d0e <_putc_r+0x1e>
    c0000d06:	00002097          	auipc	ra,0x2
    c0000d0a:	f7e080e7          	jalr	-130(ra) # c0002c84 <__sinit>
    c0000d0e:	006c                	addi	a1,sp,12
    c0000d10:	4505                	li	a0,1
    c0000d12:	00000097          	auipc	ra,0x0
    c0000d16:	828080e7          	jalr	-2008(ra) # c000053a <pthread_setcancelstate>
    c0000d1a:	0b042783          	lw	a5,176(s0)
    c0000d1e:	8b85                	andi	a5,a5,1
    c0000d20:	ef81                	bnez	a5,c0000d38 <_putc_r+0x48>
    c0000d22:	01045783          	lhu	a5,16(s0)
    c0000d26:	2007f793          	andi	a5,a5,512
    c0000d2a:	e799                	bnez	a5,c0000d38 <_putc_r+0x48>
    c0000d2c:	0a040513          	addi	a0,s0,160
    c0000d30:	00000097          	auipc	ra,0x0
    c0000d34:	802080e7          	jalr	-2046(ra) # c0000532 <_lock_acquire_recursive>
    c0000d38:	445c                	lw	a5,12(s0)
    c0000d3a:	fff7871b          	addiw	a4,a5,-1
    c0000d3e:	c458                	sw	a4,12(s0)
    c0000d40:	00075a63          	bgez	a4,c0000d54 <_putc_r+0x64>
    c0000d44:	541c                	lw	a5,40(s0)
    c0000d46:	04f74b63          	blt	a4,a5,c0000d9c <_putc_r+0xac>
    c0000d4a:	0ff4f793          	andi	a5,s1,255
    c0000d4e:	4729                	li	a4,10
    c0000d50:	04e78663          	beq	a5,a4,c0000d9c <_putc_r+0xac>
    c0000d54:	601c                	ld	a5,0(s0)
    c0000d56:	00178713          	addi	a4,a5,1
    c0000d5a:	e018                	sd	a4,0(s0)
    c0000d5c:	00978023          	sb	s1,0(a5)
    c0000d60:	0ff4f493          	andi	s1,s1,255
    c0000d64:	0b042783          	lw	a5,176(s0)
    c0000d68:	8b85                	andi	a5,a5,1
    c0000d6a:	ef81                	bnez	a5,c0000d82 <_putc_r+0x92>
    c0000d6c:	01045783          	lhu	a5,16(s0)
    c0000d70:	2007f793          	andi	a5,a5,512
    c0000d74:	e799                	bnez	a5,c0000d82 <_putc_r+0x92>
    c0000d76:	0a040513          	addi	a0,s0,160
    c0000d7a:	fffff097          	auipc	ra,0xfffff
    c0000d7e:	7ba080e7          	jalr	1978(ra) # c0000534 <_lock_release_recursive>
    c0000d82:	4532                	lw	a0,12(sp)
    c0000d84:	006c                	addi	a1,sp,12
    c0000d86:	fffff097          	auipc	ra,0xfffff
    c0000d8a:	7b4080e7          	jalr	1972(ra) # c000053a <pthread_setcancelstate>
    c0000d8e:	70a2                	ld	ra,40(sp)
    c0000d90:	7402                	ld	s0,32(sp)
    c0000d92:	8526                	mv	a0,s1
    c0000d94:	6942                	ld	s2,16(sp)
    c0000d96:	64e2                	ld	s1,24(sp)
    c0000d98:	6145                	addi	sp,sp,48
    c0000d9a:	8082                	ret
    c0000d9c:	85a6                	mv	a1,s1
    c0000d9e:	8622                	mv	a2,s0
    c0000da0:	854a                	mv	a0,s2
    c0000da2:	00002097          	auipc	ra,0x2
    c0000da6:	a3c080e7          	jalr	-1476(ra) # c00027de <__swbuf_r>
    c0000daa:	84aa                	mv	s1,a0
    c0000dac:	bf65                	j	c0000d64 <_putc_r+0x74>

00000000c0000dae <_puts_r>:
    c0000dae:	7159                	addi	sp,sp,-112
    c0000db0:	eca6                	sd	s1,88(sp)
    c0000db2:	84aa                	mv	s1,a0
    c0000db4:	852e                	mv	a0,a1
    c0000db6:	f0a2                	sd	s0,96(sp)
    c0000db8:	e42e                	sd	a1,8(sp)
    c0000dba:	f486                	sd	ra,104(sp)
    c0000dbc:	00000097          	auipc	ra,0x0
    c0000dc0:	25c080e7          	jalr	604(ra) # c0001018 <strlen>
    c0000dc4:	00008797          	auipc	a5,0x8
    c0000dc8:	2f478793          	addi	a5,a5,756 # c00090b8 <__clzdi2+0x1a6>
    c0000dcc:	e0be                	sd	a5,64(sp)
    c0000dce:	4785                	li	a5,1
    c0000dd0:	e4be                	sd	a5,72(sp)
    c0000dd2:	181c                	addi	a5,sp,48
    c0000dd4:	65a2                	ld	a1,8(sp)
    c0000dd6:	ec3e                	sd	a5,24(sp)
    c0000dd8:	4789                	li	a5,2
    c0000dda:	d03e                	sw	a5,32(sp)
    c0000ddc:	48bc                	lw	a5,80(s1)
    c0000dde:	fc2a                	sd	a0,56(sp)
    c0000de0:	0505                	addi	a0,a0,1
    c0000de2:	f82e                	sd	a1,48(sp)
    c0000de4:	f42a                	sd	a0,40(sp)
    c0000de6:	6880                	ld	s0,16(s1)
    c0000de8:	e791                	bnez	a5,c0000df4 <_puts_r+0x46>
    c0000dea:	8526                	mv	a0,s1
    c0000dec:	00002097          	auipc	ra,0x2
    c0000df0:	e98080e7          	jalr	-360(ra) # c0002c84 <__sinit>
    c0000df4:	084c                	addi	a1,sp,20
    c0000df6:	4505                	li	a0,1
    c0000df8:	fffff097          	auipc	ra,0xfffff
    c0000dfc:	742080e7          	jalr	1858(ra) # c000053a <pthread_setcancelstate>
    c0000e00:	0b042783          	lw	a5,176(s0)
    c0000e04:	8b85                	andi	a5,a5,1
    c0000e06:	ef81                	bnez	a5,c0000e1e <_puts_r+0x70>
    c0000e08:	01045783          	lhu	a5,16(s0)
    c0000e0c:	2007f793          	andi	a5,a5,512
    c0000e10:	e799                	bnez	a5,c0000e1e <_puts_r+0x70>
    c0000e12:	0a040513          	addi	a0,s0,160
    c0000e16:	fffff097          	auipc	ra,0xfffff
    c0000e1a:	71c080e7          	jalr	1820(ra) # c0000532 <_lock_acquire_recursive>
    c0000e1e:	01041783          	lh	a5,16(s0)
    c0000e22:	03279713          	slli	a4,a5,0x32
    c0000e26:	00074d63          	bltz	a4,c0000e40 <_puts_r+0x92>
    c0000e2a:	6709                	lui	a4,0x2
    c0000e2c:	8fd9                	or	a5,a5,a4
    c0000e2e:	00f41823          	sh	a5,16(s0)
    c0000e32:	0b042783          	lw	a5,176(s0)
    c0000e36:	7779                	lui	a4,0xffffe
    c0000e38:	177d                	addi	a4,a4,-1
    c0000e3a:	8ff9                	and	a5,a5,a4
    c0000e3c:	0af42823          	sw	a5,176(s0)
    c0000e40:	8526                	mv	a0,s1
    c0000e42:	0830                	addi	a2,sp,24
    c0000e44:	85a2                	mv	a1,s0
    c0000e46:	00002097          	auipc	ra,0x2
    c0000e4a:	182080e7          	jalr	386(ra) # c0002fc8 <__sfvwrite_r>
    c0000e4e:	54fd                	li	s1,-1
    c0000e50:	e111                	bnez	a0,c0000e54 <_puts_r+0xa6>
    c0000e52:	44a9                	li	s1,10
    c0000e54:	0b042783          	lw	a5,176(s0)
    c0000e58:	8b85                	andi	a5,a5,1
    c0000e5a:	ef81                	bnez	a5,c0000e72 <_puts_r+0xc4>
    c0000e5c:	01045783          	lhu	a5,16(s0)
    c0000e60:	2007f793          	andi	a5,a5,512
    c0000e64:	e799                	bnez	a5,c0000e72 <_puts_r+0xc4>
    c0000e66:	0a040513          	addi	a0,s0,160
    c0000e6a:	fffff097          	auipc	ra,0xfffff
    c0000e6e:	6ca080e7          	jalr	1738(ra) # c0000534 <_lock_release_recursive>
    c0000e72:	4552                	lw	a0,20(sp)
    c0000e74:	084c                	addi	a1,sp,20
    c0000e76:	fffff097          	auipc	ra,0xfffff
    c0000e7a:	6c4080e7          	jalr	1732(ra) # c000053a <pthread_setcancelstate>
    c0000e7e:	70a6                	ld	ra,104(sp)
    c0000e80:	7406                	ld	s0,96(sp)
    c0000e82:	8526                	mv	a0,s1
    c0000e84:	64e6                	ld	s1,88(sp)
    c0000e86:	6165                	addi	sp,sp,112
    c0000e88:	8082                	ret

00000000c0000e8a <puts>:
    c0000e8a:	0000a797          	auipc	a5,0xa
    c0000e8e:	c4e78793          	addi	a5,a5,-946 # c000aad8 <_impure_ptr>
    c0000e92:	85aa                	mv	a1,a0
    c0000e94:	6388                	ld	a0,0(a5)
    c0000e96:	00000317          	auipc	t1,0x0
    c0000e9a:	f1830067          	jr	-232(t1) # c0000dae <_puts_r>

00000000c0000e9e <__srget_r>:
    c0000e9e:	1101                	addi	sp,sp,-32
    c0000ea0:	e822                	sd	s0,16(sp)
    c0000ea2:	e426                	sd	s1,8(sp)
    c0000ea4:	ec06                	sd	ra,24(sp)
    c0000ea6:	84aa                	mv	s1,a0
    c0000ea8:	842e                	mv	s0,a1
    c0000eaa:	c519                	beqz	a0,c0000eb8 <__srget_r+0x1a>
    c0000eac:	493c                	lw	a5,80(a0)
    c0000eae:	e789                	bnez	a5,c0000eb8 <__srget_r+0x1a>
    c0000eb0:	00002097          	auipc	ra,0x2
    c0000eb4:	dd4080e7          	jalr	-556(ra) # c0002c84 <__sinit>
    c0000eb8:	85a2                	mv	a1,s0
    c0000eba:	8526                	mv	a0,s1
    c0000ebc:	00004097          	auipc	ra,0x4
    c0000ec0:	66a080e7          	jalr	1642(ra) # c0005526 <__srefill_r>
    c0000ec4:	57fd                	li	a5,-1
    c0000ec6:	e911                	bnez	a0,c0000eda <__srget_r+0x3c>
    c0000ec8:	441c                	lw	a5,8(s0)
    c0000eca:	37fd                	addiw	a5,a5,-1
    c0000ecc:	c41c                	sw	a5,8(s0)
    c0000ece:	601c                	ld	a5,0(s0)
    c0000ed0:	00178713          	addi	a4,a5,1
    c0000ed4:	e018                	sd	a4,0(s0)
    c0000ed6:	0007c783          	lbu	a5,0(a5)
    c0000eda:	60e2                	ld	ra,24(sp)
    c0000edc:	6442                	ld	s0,16(sp)
    c0000ede:	64a2                	ld	s1,8(sp)
    c0000ee0:	853e                	mv	a0,a5
    c0000ee2:	6105                	addi	sp,sp,32
    c0000ee4:	8082                	ret

00000000c0000ee6 <_sbrk_r>:
    c0000ee6:	1141                	addi	sp,sp,-16
    c0000ee8:	e022                	sd	s0,0(sp)
    c0000eea:	842a                	mv	s0,a0
    c0000eec:	852e                	mv	a0,a1
    c0000eee:	0000a797          	auipc	a5,0xa
    c0000ef2:	0e07a123          	sw	zero,226(a5) # c000afd0 <errno>
    c0000ef6:	e406                	sd	ra,8(sp)
    c0000ef8:	00006097          	auipc	ra,0x6
    c0000efc:	73c080e7          	jalr	1852(ra) # c0007634 <_sbrk>
    c0000f00:	57fd                	li	a5,-1
    c0000f02:	00f51963          	bne	a0,a5,c0000f14 <_sbrk_r+0x2e>
    c0000f06:	0000a797          	auipc	a5,0xa
    c0000f0a:	0ca78793          	addi	a5,a5,202 # c000afd0 <errno>
    c0000f0e:	439c                	lw	a5,0(a5)
    c0000f10:	c391                	beqz	a5,c0000f14 <_sbrk_r+0x2e>
    c0000f12:	c01c                	sw	a5,0(s0)
    c0000f14:	60a2                	ld	ra,8(sp)
    c0000f16:	6402                	ld	s0,0(sp)
    c0000f18:	0141                	addi	sp,sp,16
    c0000f1a:	8082                	ret

00000000c0000f1c <strcmp>:
    c0000f1c:	00b56733          	or	a4,a0,a1
    c0000f20:	53fd                	li	t2,-1
    c0000f22:	8b1d                	andi	a4,a4,7
    c0000f24:	eb4d                	bnez	a4,c0000fd6 <strcmp+0xba>
    c0000f26:	0000a797          	auipc	a5,0xa
    c0000f2a:	bca7b783          	ld	a5,-1078(a5) # c000aaf0 <mask>
    c0000f2e:	6110                	ld	a2,0(a0)
    c0000f30:	6194                	ld	a3,0(a1)
    c0000f32:	00f672b3          	and	t0,a2,a5
    c0000f36:	00f66333          	or	t1,a2,a5
    c0000f3a:	92be                	add	t0,t0,a5
    c0000f3c:	0062e2b3          	or	t0,t0,t1
    c0000f40:	0a729963          	bne	t0,t2,c0000ff2 <strcmp+0xd6>
    c0000f44:	02d61e63          	bne	a2,a3,c0000f80 <strcmp+0x64>
    c0000f48:	6510                	ld	a2,8(a0)
    c0000f4a:	6594                	ld	a3,8(a1)
    c0000f4c:	00f672b3          	and	t0,a2,a5
    c0000f50:	00f66333          	or	t1,a2,a5
    c0000f54:	92be                	add	t0,t0,a5
    c0000f56:	0062e2b3          	or	t0,t0,t1
    c0000f5a:	08729a63          	bne	t0,t2,c0000fee <strcmp+0xd2>
    c0000f5e:	02d61163          	bne	a2,a3,c0000f80 <strcmp+0x64>
    c0000f62:	6910                	ld	a2,16(a0)
    c0000f64:	6994                	ld	a3,16(a1)
    c0000f66:	00f672b3          	and	t0,a2,a5
    c0000f6a:	00f66333          	or	t1,a2,a5
    c0000f6e:	92be                	add	t0,t0,a5
    c0000f70:	0062e2b3          	or	t0,t0,t1
    c0000f74:	08729363          	bne	t0,t2,c0000ffa <strcmp+0xde>
    c0000f78:	0561                	addi	a0,a0,24
    c0000f7a:	05e1                	addi	a1,a1,24
    c0000f7c:	fad609e3          	beq	a2,a3,c0000f2e <strcmp+0x12>
    c0000f80:	03061713          	slli	a4,a2,0x30
    c0000f84:	03069793          	slli	a5,a3,0x30
    c0000f88:	02f71863          	bne	a4,a5,c0000fb8 <strcmp+0x9c>
    c0000f8c:	02061713          	slli	a4,a2,0x20
    c0000f90:	02069793          	slli	a5,a3,0x20
    c0000f94:	02f71263          	bne	a4,a5,c0000fb8 <strcmp+0x9c>
    c0000f98:	01061713          	slli	a4,a2,0x10
    c0000f9c:	01069793          	slli	a5,a3,0x10
    c0000fa0:	00f71c63          	bne	a4,a5,c0000fb8 <strcmp+0x9c>
    c0000fa4:	03065713          	srli	a4,a2,0x30
    c0000fa8:	0306d793          	srli	a5,a3,0x30
    c0000fac:	40f70533          	sub	a0,a4,a5
    c0000fb0:	0ff57593          	andi	a1,a0,255
    c0000fb4:	e991                	bnez	a1,c0000fc8 <strcmp+0xac>
    c0000fb6:	8082                	ret
    c0000fb8:	9341                	srli	a4,a4,0x30
    c0000fba:	93c1                	srli	a5,a5,0x30
    c0000fbc:	40f70533          	sub	a0,a4,a5
    c0000fc0:	0ff57593          	andi	a1,a0,255
    c0000fc4:	e191                	bnez	a1,c0000fc8 <strcmp+0xac>
    c0000fc6:	8082                	ret
    c0000fc8:	0ff77713          	andi	a4,a4,255
    c0000fcc:	0ff7f793          	andi	a5,a5,255
    c0000fd0:	40f70533          	sub	a0,a4,a5
    c0000fd4:	8082                	ret
    c0000fd6:	00054603          	lbu	a2,0(a0)
    c0000fda:	0005c683          	lbu	a3,0(a1)
    c0000fde:	0505                	addi	a0,a0,1
    c0000fe0:	0585                	addi	a1,a1,1
    c0000fe2:	00d61363          	bne	a2,a3,c0000fe8 <strcmp+0xcc>
    c0000fe6:	fa65                	bnez	a2,c0000fd6 <strcmp+0xba>
    c0000fe8:	40d60533          	sub	a0,a2,a3
    c0000fec:	8082                	ret
    c0000fee:	0521                	addi	a0,a0,8
    c0000ff0:	05a1                	addi	a1,a1,8
    c0000ff2:	fed612e3          	bne	a2,a3,c0000fd6 <strcmp+0xba>
    c0000ff6:	4501                	li	a0,0
    c0000ff8:	8082                	ret
    c0000ffa:	0541                	addi	a0,a0,16
    c0000ffc:	05c1                	addi	a1,a1,16
    c0000ffe:	fcd61ce3          	bne	a2,a3,c0000fd6 <strcmp+0xba>
    c0001002:	4501                	li	a0,0
    c0001004:	8082                	ret

00000000c0001006 <strcpy>:
    c0001006:	87aa                	mv	a5,a0
    c0001008:	0005c703          	lbu	a4,0(a1)
    c000100c:	0785                	addi	a5,a5,1
    c000100e:	0585                	addi	a1,a1,1
    c0001010:	fee78fa3          	sb	a4,-1(a5)
    c0001014:	fb75                	bnez	a4,c0001008 <strcpy+0x2>
    c0001016:	8082                	ret

00000000c0001018 <strlen>:
    c0001018:	87aa                	mv	a5,a0
    c000101a:	0785                	addi	a5,a5,1
    c000101c:	fff7c703          	lbu	a4,-1(a5)
    c0001020:	ff6d                	bnez	a4,c000101a <strlen+0x2>
    c0001022:	40a78533          	sub	a0,a5,a0
    c0001026:	157d                	addi	a0,a0,-1
    c0001028:	8082                	ret

00000000c000102a <_vfprintf_r>:
    c000102a:	db010113          	addi	sp,sp,-592
    c000102e:	24113423          	sd	ra,584(sp)
    c0001032:	22913c23          	sd	s1,568(sp)
    c0001036:	23213823          	sd	s2,560(sp)
    c000103a:	23313423          	sd	s3,552(sp)
    c000103e:	21613823          	sd	s6,528(sp)
    c0001042:	84ae                	mv	s1,a1
    c0001044:	8932                	mv	s2,a2
    c0001046:	8b36                	mv	s6,a3
    c0001048:	24813023          	sd	s0,576(sp)
    c000104c:	23413023          	sd	s4,544(sp)
    c0001050:	21513c23          	sd	s5,536(sp)
    c0001054:	21713423          	sd	s7,520(sp)
    c0001058:	21813023          	sd	s8,512(sp)
    c000105c:	ffe6                	sd	s9,504(sp)
    c000105e:	fbea                	sd	s10,496(sp)
    c0001060:	f7ee                	sd	s11,488(sp)
    c0001062:	89aa                	mv	s3,a0
    c0001064:	00004097          	auipc	ra,0x4
    c0001068:	d08080e7          	jalr	-760(ra) # c0004d6c <_localeconv_r>
    c000106c:	611c                	ld	a5,0(a0)
    c000106e:	853e                	mv	a0,a5
    c0001070:	e0be                	sd	a5,64(sp)
    c0001072:	00000097          	auipc	ra,0x0
    c0001076:	fa6080e7          	jalr	-90(ra) # c0001018 <strlen>
    c000107a:	e82a                	sd	a0,16(sp)
    c000107c:	e982                	sd	zero,208(sp)
    c000107e:	ed82                	sd	zero,216(sp)
    c0001080:	00098a63          	beqz	s3,c0001094 <_vfprintf_r+0x6a>
    c0001084:	0509a783          	lw	a5,80(s3)
    c0001088:	e791                	bnez	a5,c0001094 <_vfprintf_r+0x6a>
    c000108a:	854e                	mv	a0,s3
    c000108c:	00002097          	auipc	ra,0x2
    c0001090:	bf8080e7          	jalr	-1032(ra) # c0002c84 <__sinit>
    c0001094:	192c                	addi	a1,sp,184
    c0001096:	4505                	li	a0,1
    c0001098:	fffff097          	auipc	ra,0xfffff
    c000109c:	4a2080e7          	jalr	1186(ra) # c000053a <pthread_setcancelstate>
    c00010a0:	0b04a783          	lw	a5,176(s1)
    c00010a4:	8b85                	andi	a5,a5,1
    c00010a6:	ef81                	bnez	a5,c00010be <_vfprintf_r+0x94>
    c00010a8:	0104d783          	lhu	a5,16(s1)
    c00010ac:	2007f793          	andi	a5,a5,512
    c00010b0:	e799                	bnez	a5,c00010be <_vfprintf_r+0x94>
    c00010b2:	0a048513          	addi	a0,s1,160
    c00010b6:	fffff097          	auipc	ra,0xfffff
    c00010ba:	47c080e7          	jalr	1148(ra) # c0000532 <_lock_acquire_recursive>
    c00010be:	01049783          	lh	a5,16(s1)
    c00010c2:	03279713          	slli	a4,a5,0x32
    c00010c6:	00074d63          	bltz	a4,c00010e0 <_vfprintf_r+0xb6>
    c00010ca:	6709                	lui	a4,0x2
    c00010cc:	8fd9                	or	a5,a5,a4
    c00010ce:	00f49823          	sh	a5,16(s1)
    c00010d2:	0b04a783          	lw	a5,176(s1)
    c00010d6:	7779                	lui	a4,0xffffe
    c00010d8:	177d                	addi	a4,a4,-1
    c00010da:	8ff9                	and	a5,a5,a4
    c00010dc:	0af4a823          	sw	a5,176(s1)
    c00010e0:	0104d783          	lhu	a5,16(s1)
    c00010e4:	8ba1                	andi	a5,a5,8
    c00010e6:	c399                	beqz	a5,c00010ec <_vfprintf_r+0xc2>
    c00010e8:	6c9c                	ld	a5,24(s1)
    c00010ea:	e3a1                	bnez	a5,c000112a <_vfprintf_r+0x100>
    c00010ec:	85a6                	mv	a1,s1
    c00010ee:	854e                	mv	a0,s3
    c00010f0:	00001097          	auipc	ra,0x1
    c00010f4:	7ba080e7          	jalr	1978(ra) # c00028aa <__swsetup_r>
    c00010f8:	c90d                	beqz	a0,c000112a <_vfprintf_r+0x100>
    c00010fa:	0b04a783          	lw	a5,176(s1)
    c00010fe:	8b85                	andi	a5,a5,1
    c0001100:	ef81                	bnez	a5,c0001118 <_vfprintf_r+0xee>
    c0001102:	0104d783          	lhu	a5,16(s1)
    c0001106:	2007f793          	andi	a5,a5,512
    c000110a:	e799                	bnez	a5,c0001118 <_vfprintf_r+0xee>
    c000110c:	0a048513          	addi	a0,s1,160
    c0001110:	fffff097          	auipc	ra,0xfffff
    c0001114:	424080e7          	jalr	1060(ra) # c0000534 <_lock_release_recursive>
    c0001118:	556a                	lw	a0,184(sp)
    c000111a:	192c                	addi	a1,sp,184
    c000111c:	fffff097          	auipc	ra,0xfffff
    c0001120:	41e080e7          	jalr	1054(ra) # c000053a <pthread_setcancelstate>
    c0001124:	57fd                	li	a5,-1
    c0001126:	ec3e                	sd	a5,24(sp)
    c0001128:	a881                	j	c0001178 <_vfprintf_r+0x14e>
    c000112a:	0104d783          	lhu	a5,16(s1)
    c000112e:	4729                	li	a4,10
    c0001130:	01a7f693          	andi	a3,a5,26
    c0001134:	06e69d63          	bne	a3,a4,c00011ae <_vfprintf_r+0x184>
    c0001138:	01249703          	lh	a4,18(s1)
    c000113c:	06074963          	bltz	a4,c00011ae <_vfprintf_r+0x184>
    c0001140:	0b04a703          	lw	a4,176(s1)
    c0001144:	8b05                	andi	a4,a4,1
    c0001146:	eb11                	bnez	a4,c000115a <_vfprintf_r+0x130>
    c0001148:	2007f793          	andi	a5,a5,512
    c000114c:	e799                	bnez	a5,c000115a <_vfprintf_r+0x130>
    c000114e:	0a048513          	addi	a0,s1,160
    c0001152:	fffff097          	auipc	ra,0xfffff
    c0001156:	3e2080e7          	jalr	994(ra) # c0000534 <_lock_release_recursive>
    c000115a:	556a                	lw	a0,184(sp)
    c000115c:	192c                	addi	a1,sp,184
    c000115e:	fffff097          	auipc	ra,0xfffff
    c0001162:	3dc080e7          	jalr	988(ra) # c000053a <pthread_setcancelstate>
    c0001166:	86da                	mv	a3,s6
    c0001168:	864a                	mv	a2,s2
    c000116a:	85a6                	mv	a1,s1
    c000116c:	854e                	mv	a0,s3
    c000116e:	00001097          	auipc	ra,0x1
    c0001172:	5bc080e7          	jalr	1468(ra) # c000272a <__sbprintf>
    c0001176:	ec2a                	sd	a0,24(sp)
    c0001178:	24813083          	ld	ra,584(sp)
    c000117c:	24013403          	ld	s0,576(sp)
    c0001180:	6562                	ld	a0,24(sp)
    c0001182:	23813483          	ld	s1,568(sp)
    c0001186:	23013903          	ld	s2,560(sp)
    c000118a:	22813983          	ld	s3,552(sp)
    c000118e:	22013a03          	ld	s4,544(sp)
    c0001192:	21813a83          	ld	s5,536(sp)
    c0001196:	21013b03          	ld	s6,528(sp)
    c000119a:	20813b83          	ld	s7,520(sp)
    c000119e:	20013c03          	ld	s8,512(sp)
    c00011a2:	7cfe                	ld	s9,504(sp)
    c00011a4:	7d5e                	ld	s10,496(sp)
    c00011a6:	7dbe                	ld	s11,488(sp)
    c00011a8:	25010113          	addi	sp,sp,592
    c00011ac:	8082                	ret
    c00011ae:	129c                	addi	a5,sp,352
    c00011b0:	f1be                	sd	a5,224(sp)
    c00011b2:	f982                	sd	zero,240(sp)
    c00011b4:	d582                	sw	zero,232(sp)
    c00011b6:	4a01                	li	s4,0
    c00011b8:	8c3e                	mv	s8,a5
    c00011ba:	ec82                	sd	zero,88(sp)
    c00011bc:	e882                	sd	zero,80(sp)
    c00011be:	e002                	sd	zero,0(sp)
    c00011c0:	fc02                	sd	zero,56(sp)
    c00011c2:	e482                	sd	zero,72(sp)
    c00011c4:	ec02                	sd	zero,24(sp)
    c00011c6:	844a                	mv	s0,s2
    c00011c8:	02500713          	li	a4,37
    c00011cc:	00044783          	lbu	a5,0(s0)
    c00011d0:	c399                	beqz	a5,c00011d6 <_vfprintf_r+0x1ac>
    c00011d2:	08e79b63          	bne	a5,a4,c0001268 <_vfprintf_r+0x23e>
    c00011d6:	41240abb          	subw	s5,s0,s2
    c00011da:	040a8063          	beqz	s5,c000121a <_vfprintf_r+0x1f0>
    c00011de:	77ce                	ld	a5,240(sp)
    c00011e0:	012c3023          	sd	s2,0(s8)
    c00011e4:	015c3423          	sd	s5,8(s8)
    c00011e8:	97d6                	add	a5,a5,s5
    c00011ea:	f9be                	sd	a5,240(sp)
    c00011ec:	57ae                	lw	a5,232(sp)
    c00011ee:	0c41                	addi	s8,s8,16
    c00011f0:	0017871b          	addiw	a4,a5,1
    c00011f4:	d5ba                	sw	a4,232(sp)
    c00011f6:	479d                	li	a5,7
    c00011f8:	00e7dd63          	ble	a4,a5,c0001212 <_vfprintf_r+0x1e8>
    c00011fc:	1190                	addi	a2,sp,224
    c00011fe:	85a6                	mv	a1,s1
    c0001200:	854e                	mv	a0,s3
    c0001202:	00006097          	auipc	ra,0x6
    c0001206:	c66080e7          	jalr	-922(ra) # c0006e68 <__sprint_r>
    c000120a:	54051363          	bnez	a0,c0001750 <_vfprintf_r+0x726>
    c000120e:	16010c13          	addi	s8,sp,352
    c0001212:	67e2                	ld	a5,24(sp)
    c0001214:	015787bb          	addw	a5,a5,s5
    c0001218:	ec3e                	sd	a5,24(sp)
    c000121a:	00044783          	lbu	a5,0(s0)
    c000121e:	e399                	bnez	a5,c0001224 <_vfprintf_r+0x1fa>
    c0001220:	4d00106f          	j	c00026f0 <_vfprintf_r+0x16c6>
    c0001224:	00140793          	addi	a5,s0,1
    c0001228:	0a0107a3          	sb	zero,175(sp)
    c000122c:	5dfd                	li	s11,-1
    c000122e:	f002                	sd	zero,32(sp)
    c0001230:	4401                	li	s0,0
    c0001232:	4ba9                	li	s7,10
    c0001234:	4d25                	li	s10,9
    c0001236:	0007ca83          	lbu	s5,0(a5)
    c000123a:	00178713          	addi	a4,a5,1
    c000123e:	e43a                	sd	a4,8(sp)
    c0001240:	05a00693          	li	a3,90
    c0001244:	02a00613          	li	a2,42
    c0001248:	fe0a879b          	addiw	a5,s5,-32
    c000124c:	0007871b          	sext.w	a4,a5
    c0001250:	44e6ebe3          	bltu	a3,a4,c0001ea6 <_vfprintf_r+0xe7c>
    c0001254:	1782                	slli	a5,a5,0x20
    c0001256:	00008717          	auipc	a4,0x8
    c000125a:	e6670713          	addi	a4,a4,-410 # c00090bc <__clzdi2+0x1aa>
    c000125e:	83f9                	srli	a5,a5,0x1e
    c0001260:	97ba                	add	a5,a5,a4
    c0001262:	439c                	lw	a5,0(a5)
    c0001264:	97ba                	add	a5,a5,a4
    c0001266:	8782                	jr	a5
    c0001268:	0405                	addi	s0,s0,1
    c000126a:	b78d                	j	c00011cc <_vfprintf_r+0x1a2>
    c000126c:	854e                	mv	a0,s3
    c000126e:	00004097          	auipc	ra,0x4
    c0001272:	afe080e7          	jalr	-1282(ra) # c0004d6c <_localeconv_r>
    c0001276:	651c                	ld	a5,8(a0)
    c0001278:	853e                	mv	a0,a5
    c000127a:	e4be                	sd	a5,72(sp)
    c000127c:	00000097          	auipc	ra,0x0
    c0001280:	d9c080e7          	jalr	-612(ra) # c0001018 <strlen>
    c0001284:	fc2a                	sd	a0,56(sp)
    c0001286:	854e                	mv	a0,s3
    c0001288:	00004097          	auipc	ra,0x4
    c000128c:	ae4080e7          	jalr	-1308(ra) # c0004d6c <_localeconv_r>
    c0001290:	691c                	ld	a5,16(a0)
    c0001292:	e03e                	sd	a5,0(sp)
    c0001294:	77e2                	ld	a5,56(sp)
    c0001296:	c38d                	beqz	a5,c00012b8 <_vfprintf_r+0x28e>
    c0001298:	6782                	ld	a5,0(sp)
    c000129a:	cf99                	beqz	a5,c00012b8 <_vfprintf_r+0x28e>
    c000129c:	0007c783          	lbu	a5,0(a5)
    c00012a0:	cf81                	beqz	a5,c00012b8 <_vfprintf_r+0x28e>
    c00012a2:	40046413          	ori	s0,s0,1024
    c00012a6:	2401                	sext.w	s0,s0
    c00012a8:	a801                	j	c00012b8 <_vfprintf_r+0x28e>
    c00012aa:	0af14783          	lbu	a5,175(sp)
    c00012ae:	e789                	bnez	a5,c00012b8 <_vfprintf_r+0x28e>
    c00012b0:	02000793          	li	a5,32
    c00012b4:	0af107a3          	sb	a5,175(sp)
    c00012b8:	67a2                	ld	a5,8(sp)
    c00012ba:	bfb5                	j	c0001236 <_vfprintf_r+0x20c>
    c00012bc:	00146413          	ori	s0,s0,1
    c00012c0:	b7dd                	j	c00012a6 <_vfprintf_r+0x27c>
    c00012c2:	000b2783          	lw	a5,0(s6)
    c00012c6:	0b21                	addi	s6,s6,8
    c00012c8:	f03e                	sd	a5,32(sp)
    c00012ca:	fe07d7e3          	bgez	a5,c00012b8 <_vfprintf_r+0x28e>
    c00012ce:	40f007bb          	negw	a5,a5
    c00012d2:	f03e                	sd	a5,32(sp)
    c00012d4:	00446413          	ori	s0,s0,4
    c00012d8:	b7f9                	j	c00012a6 <_vfprintf_r+0x27c>
    c00012da:	02b00793          	li	a5,43
    c00012de:	bfd9                	j	c00012b4 <_vfprintf_r+0x28a>
    c00012e0:	6722                	ld	a4,8(sp)
    c00012e2:	67a2                	ld	a5,8(sp)
    c00012e4:	00074a83          	lbu	s5,0(a4)
    c00012e8:	0785                	addi	a5,a5,1
    c00012ea:	02ca9e63          	bne	s5,a2,c0001326 <_vfprintf_r+0x2fc>
    c00012ee:	000b2e03          	lw	t3,0(s6)
    c00012f2:	008b0713          	addi	a4,s6,8
    c00012f6:	020e1693          	slli	a3,t3,0x20
    c00012fa:	0006d363          	bgez	a3,c0001300 <_vfprintf_r+0x2d6>
    c00012fe:	5e7d                	li	t3,-1
    c0001300:	000e0d9b          	sext.w	s11,t3
    c0001304:	8b3a                	mv	s6,a4
    c0001306:	e43e                	sd	a5,8(sp)
    c0001308:	bf45                	j	c00012b8 <_vfprintf_r+0x28e>
    c000130a:	03bb8e3b          	mulw	t3,s7,s11
    c000130e:	0785                	addi	a5,a5,1
    c0001310:	fff7ca83          	lbu	s5,-1(a5)
    c0001314:	00ee0dbb          	addw	s11,t3,a4
    c0001318:	fd0a859b          	addiw	a1,s5,-48
    c000131c:	872e                	mv	a4,a1
    c000131e:	febd76e3          	bleu	a1,s10,c000130a <_vfprintf_r+0x2e0>
    c0001322:	e43e                	sd	a5,8(sp)
    c0001324:	b715                	j	c0001248 <_vfprintf_r+0x21e>
    c0001326:	4d81                	li	s11,0
    c0001328:	bfc5                	j	c0001318 <_vfprintf_r+0x2ee>
    c000132a:	08046413          	ori	s0,s0,128
    c000132e:	bfa5                	j	c00012a6 <_vfprintf_r+0x27c>
    c0001330:	67a2                	ld	a5,8(sp)
    c0001332:	f002                	sd	zero,32(sp)
    c0001334:	7702                	ld	a4,32(sp)
    c0001336:	fd0a8a9b          	addiw	s5,s5,-48
    c000133a:	0785                	addi	a5,a5,1
    c000133c:	02eb873b          	mulw	a4,s7,a4
    c0001340:	00ea873b          	addw	a4,s5,a4
    c0001344:	fff7ca83          	lbu	s5,-1(a5)
    c0001348:	f03a                	sd	a4,32(sp)
    c000134a:	fd0a871b          	addiw	a4,s5,-48
    c000134e:	feed73e3          	bleu	a4,s10,c0001334 <_vfprintf_r+0x30a>
    c0001352:	bfc1                	j	c0001322 <_vfprintf_r+0x2f8>
    c0001354:	00846413          	ori	s0,s0,8
    c0001358:	b7b9                	j	c00012a6 <_vfprintf_r+0x27c>
    c000135a:	67a2                	ld	a5,8(sp)
    c000135c:	0007c703          	lbu	a4,0(a5)
    c0001360:	06800793          	li	a5,104
    c0001364:	00f71863          	bne	a4,a5,c0001374 <_vfprintf_r+0x34a>
    c0001368:	67a2                	ld	a5,8(sp)
    c000136a:	20046413          	ori	s0,s0,512
    c000136e:	0785                	addi	a5,a5,1
    c0001370:	e43e                	sd	a5,8(sp)
    c0001372:	bf15                	j	c00012a6 <_vfprintf_r+0x27c>
    c0001374:	04046413          	ori	s0,s0,64
    c0001378:	b73d                	j	c00012a6 <_vfprintf_r+0x27c>
    c000137a:	67a2                	ld	a5,8(sp)
    c000137c:	0007c703          	lbu	a4,0(a5)
    c0001380:	06c00793          	li	a5,108
    c0001384:	00f71863          	bne	a4,a5,c0001394 <_vfprintf_r+0x36a>
    c0001388:	67a2                	ld	a5,8(sp)
    c000138a:	0785                	addi	a5,a5,1
    c000138c:	e43e                	sd	a5,8(sp)
    c000138e:	02046413          	ori	s0,s0,32
    c0001392:	bf11                	j	c00012a6 <_vfprintf_r+0x27c>
    c0001394:	01046413          	ori	s0,s0,16
    c0001398:	b739                	j	c00012a6 <_vfprintf_r+0x27c>
    c000139a:	008b0793          	addi	a5,s6,8
    c000139e:	f43e                	sd	a5,40(sp)
    c00013a0:	000b2783          	lw	a5,0(s6)
    c00013a4:	0a0107a3          	sb	zero,175(sp)
    c00013a8:	0ef10c23          	sb	a5,248(sp)
    c00013ac:	4b01                	li	s6,0
    c00013ae:	4d85                	li	s11,1
    c00013b0:	4701                	li	a4,0
    c00013b2:	4d01                	li	s10,0
    c00013b4:	4b81                	li	s7,0
    c00013b6:	4c81                	li	s9,0
    c00013b8:	0f810913          	addi	s2,sp,248
    c00013bc:	86ba                	mv	a3,a4
    c00013be:	01b75363          	ble	s11,a4,c00013c4 <_vfprintf_r+0x39a>
    c00013c2:	86ee                	mv	a3,s11
    c00013c4:	0af14603          	lbu	a2,175(sp)
    c00013c8:	0006879b          	sext.w	a5,a3
    c00013cc:	f83e                	sd	a5,48(sp)
    c00013ce:	c601                	beqz	a2,c00013d6 <_vfprintf_r+0x3ac>
    c00013d0:	0016879b          	addiw	a5,a3,1
    c00013d4:	f83e                	sd	a5,48(sp)
    c00013d6:	00247693          	andi	a3,s0,2
    c00013da:	0006879b          	sext.w	a5,a3
    c00013de:	f0be                	sd	a5,96(sp)
    c00013e0:	c781                	beqz	a5,c00013e8 <_vfprintf_r+0x3be>
    c00013e2:	77c2                	ld	a5,48(sp)
    c00013e4:	2789                	addiw	a5,a5,2
    c00013e6:	f83e                	sd	a5,48(sp)
    c00013e8:	08447793          	andi	a5,s0,132
    c00013ec:	f4be                	sd	a5,104(sp)
    c00013ee:	efb9                	bnez	a5,c000144c <_vfprintf_r+0x422>
    c00013f0:	7782                	ld	a5,32(sp)
    c00013f2:	76c2                	ld	a3,48(sp)
    c00013f4:	40d786bb          	subw	a3,a5,a3
    c00013f8:	04d05a63          	blez	a3,c000144c <_vfprintf_r+0x422>
    c00013fc:	48c1                	li	a7,16
    c00013fe:	00008817          	auipc	a6,0x8
    c0001402:	eba80813          	addi	a6,a6,-326 # c00092b8 <blanks.4826>
    c0001406:	4e9d                	li	t4,7
    c0001408:	55ae                	lw	a1,232(sp)
    c000140a:	010c3023          	sd	a6,0(s8)
    c000140e:	764e                	ld	a2,240(sp)
    c0001410:	0015851b          	addiw	a0,a1,1
    c0001414:	85aa                	mv	a1,a0
    c0001416:	010c0f13          	addi	t5,s8,16
    c000141a:	28d8cfe3          	blt	a7,a3,c0001eb8 <_vfprintf_r+0xe8e>
    c000141e:	00dc3423          	sd	a3,8(s8)
    c0001422:	96b2                	add	a3,a3,a2
    c0001424:	f9b6                	sd	a3,240(sp)
    c0001426:	d5aa                	sw	a0,232(sp)
    c0001428:	469d                	li	a3,7
    c000142a:	8c7a                	mv	s8,t5
    c000142c:	02a6d063          	ble	a0,a3,c000144c <_vfprintf_r+0x422>
    c0001430:	1190                	addi	a2,sp,224
    c0001432:	85a6                	mv	a1,s1
    c0001434:	854e                	mv	a0,s3
    c0001436:	f8ba                	sd	a4,112(sp)
    c0001438:	00006097          	auipc	ra,0x6
    c000143c:	a30080e7          	jalr	-1488(ra) # c0006e68 <__sprint_r>
    c0001440:	c119                	beqz	a0,c0001446 <_vfprintf_r+0x41c>
    c0001442:	2640106f          	j	c00026a6 <_vfprintf_r+0x167c>
    c0001446:	7746                	ld	a4,112(sp)
    c0001448:	16010c13          	addi	s8,sp,352
    c000144c:	0af14683          	lbu	a3,175(sp)
    c0001450:	c2a9                	beqz	a3,c0001492 <_vfprintf_r+0x468>
    c0001452:	0af10693          	addi	a3,sp,175
    c0001456:	00dc3023          	sd	a3,0(s8)
    c000145a:	4685                	li	a3,1
    c000145c:	00dc3423          	sd	a3,8(s8)
    c0001460:	76ce                	ld	a3,240(sp)
    c0001462:	0c41                	addi	s8,s8,16
    c0001464:	0685                	addi	a3,a3,1
    c0001466:	f9b6                	sd	a3,240(sp)
    c0001468:	56ae                	lw	a3,232(sp)
    c000146a:	0016861b          	addiw	a2,a3,1
    c000146e:	d5b2                	sw	a2,232(sp)
    c0001470:	469d                	li	a3,7
    c0001472:	02c6d063          	ble	a2,a3,c0001492 <_vfprintf_r+0x468>
    c0001476:	1190                	addi	a2,sp,224
    c0001478:	85a6                	mv	a1,s1
    c000147a:	854e                	mv	a0,s3
    c000147c:	f8ba                	sd	a4,112(sp)
    c000147e:	00006097          	auipc	ra,0x6
    c0001482:	9ea080e7          	jalr	-1558(ra) # c0006e68 <__sprint_r>
    c0001486:	c119                	beqz	a0,c000148c <_vfprintf_r+0x462>
    c0001488:	21e0106f          	j	c00026a6 <_vfprintf_r+0x167c>
    c000148c:	7746                	ld	a4,112(sp)
    c000148e:	16010c13          	addi	s8,sp,352
    c0001492:	7786                	ld	a5,96(sp)
    c0001494:	c3a1                	beqz	a5,c00014d4 <_vfprintf_r+0x4aa>
    c0001496:	1914                	addi	a3,sp,176
    c0001498:	00dc3023          	sd	a3,0(s8)
    c000149c:	4689                	li	a3,2
    c000149e:	00dc3423          	sd	a3,8(s8)
    c00014a2:	76ce                	ld	a3,240(sp)
    c00014a4:	0c41                	addi	s8,s8,16
    c00014a6:	0689                	addi	a3,a3,2
    c00014a8:	f9b6                	sd	a3,240(sp)
    c00014aa:	56ae                	lw	a3,232(sp)
    c00014ac:	0016861b          	addiw	a2,a3,1
    c00014b0:	d5b2                	sw	a2,232(sp)
    c00014b2:	469d                	li	a3,7
    c00014b4:	02c6d063          	ble	a2,a3,c00014d4 <_vfprintf_r+0x4aa>
    c00014b8:	1190                	addi	a2,sp,224
    c00014ba:	85a6                	mv	a1,s1
    c00014bc:	854e                	mv	a0,s3
    c00014be:	f0ba                	sd	a4,96(sp)
    c00014c0:	00006097          	auipc	ra,0x6
    c00014c4:	9a8080e7          	jalr	-1624(ra) # c0006e68 <__sprint_r>
    c00014c8:	c119                	beqz	a0,c00014ce <_vfprintf_r+0x4a4>
    c00014ca:	1dc0106f          	j	c00026a6 <_vfprintf_r+0x167c>
    c00014ce:	7706                	ld	a4,96(sp)
    c00014d0:	16010c13          	addi	s8,sp,352
    c00014d4:	77a6                	ld	a5,104(sp)
    c00014d6:	08000693          	li	a3,128
    c00014da:	06d79063          	bne	a5,a3,c000153a <_vfprintf_r+0x510>
    c00014de:	7782                	ld	a5,32(sp)
    c00014e0:	76c2                	ld	a3,48(sp)
    c00014e2:	40d786bb          	subw	a3,a5,a3
    c00014e6:	04d05a63          	blez	a3,c000153a <_vfprintf_r+0x510>
    c00014ea:	4841                	li	a6,16
    c00014ec:	489d                	li	a7,7
    c00014ee:	55ae                	lw	a1,232(sp)
    c00014f0:	00008797          	auipc	a5,0x8
    c00014f4:	dd878793          	addi	a5,a5,-552 # c00092c8 <zeroes.4827>
    c00014f8:	00fc3023          	sd	a5,0(s8)
    c00014fc:	0015851b          	addiw	a0,a1,1
    c0001500:	764e                	ld	a2,240(sp)
    c0001502:	85aa                	mv	a1,a0
    c0001504:	010c0e93          	addi	t4,s8,16
    c0001508:	1ed848e3          	blt	a6,a3,c0001ef8 <_vfprintf_r+0xece>
    c000150c:	00dc3423          	sd	a3,8(s8)
    c0001510:	96b2                	add	a3,a3,a2
    c0001512:	f9b6                	sd	a3,240(sp)
    c0001514:	d5aa                	sw	a0,232(sp)
    c0001516:	469d                	li	a3,7
    c0001518:	8c76                	mv	s8,t4
    c000151a:	02a6d063          	ble	a0,a3,c000153a <_vfprintf_r+0x510>
    c000151e:	1190                	addi	a2,sp,224
    c0001520:	85a6                	mv	a1,s1
    c0001522:	854e                	mv	a0,s3
    c0001524:	f0ba                	sd	a4,96(sp)
    c0001526:	00006097          	auipc	ra,0x6
    c000152a:	942080e7          	jalr	-1726(ra) # c0006e68 <__sprint_r>
    c000152e:	c119                	beqz	a0,c0001534 <_vfprintf_r+0x50a>
    c0001530:	1760106f          	j	c00026a6 <_vfprintf_r+0x167c>
    c0001534:	7706                	ld	a4,96(sp)
    c0001536:	16010c13          	addi	s8,sp,352
    c000153a:	41b7073b          	subw	a4,a4,s11
    c000153e:	04e05863          	blez	a4,c000158e <_vfprintf_r+0x564>
    c0001542:	4841                	li	a6,16
    c0001544:	489d                	li	a7,7
    c0001546:	562e                	lw	a2,232(sp)
    c0001548:	00008797          	auipc	a5,0x8
    c000154c:	d8078793          	addi	a5,a5,-640 # c00092c8 <zeroes.4827>
    c0001550:	00fc3023          	sd	a5,0(s8)
    c0001554:	0016059b          	addiw	a1,a2,1
    c0001558:	76ce                	ld	a3,240(sp)
    c000155a:	862e                	mv	a2,a1
    c000155c:	010c0513          	addi	a0,s8,16
    c0001560:	1ce848e3          	blt	a6,a4,c0001f30 <_vfprintf_r+0xf06>
    c0001564:	00ec3423          	sd	a4,8(s8)
    c0001568:	9736                	add	a4,a4,a3
    c000156a:	f9ba                	sd	a4,240(sp)
    c000156c:	d5ae                	sw	a1,232(sp)
    c000156e:	471d                	li	a4,7
    c0001570:	8c2a                	mv	s8,a0
    c0001572:	00b75e63          	ble	a1,a4,c000158e <_vfprintf_r+0x564>
    c0001576:	1190                	addi	a2,sp,224
    c0001578:	85a6                	mv	a1,s1
    c000157a:	854e                	mv	a0,s3
    c000157c:	00006097          	auipc	ra,0x6
    c0001580:	8ec080e7          	jalr	-1812(ra) # c0006e68 <__sprint_r>
    c0001584:	c119                	beqz	a0,c000158a <_vfprintf_r+0x560>
    c0001586:	1200106f          	j	c00026a6 <_vfprintf_r+0x167c>
    c000158a:	16010c13          	addi	s8,sp,352
    c000158e:	10047693          	andi	a3,s0,256
    c0001592:	774e                	ld	a4,240(sp)
    c0001594:	1c0697e3          	bnez	a3,c0001f62 <_vfprintf_r+0xf38>
    c0001598:	57ae                	lw	a5,232(sp)
    c000159a:	00ed8e33          	add	t3,s11,a4
    c000159e:	012c3023          	sd	s2,0(s8)
    c00015a2:	0017871b          	addiw	a4,a5,1
    c00015a6:	01bc3423          	sd	s11,8(s8)
    c00015aa:	f9f2                	sd	t3,240(sp)
    c00015ac:	d5ba                	sw	a4,232(sp)
    c00015ae:	479d                	li	a5,7
    c00015b0:	0c41                	addi	s8,s8,16
    c00015b2:	3ce7d1e3          	ble	a4,a5,c0002174 <_vfprintf_r+0x114a>
    c00015b6:	1190                	addi	a2,sp,224
    c00015b8:	85a6                	mv	a1,s1
    c00015ba:	854e                	mv	a0,s3
    c00015bc:	00006097          	auipc	ra,0x6
    c00015c0:	8ac080e7          	jalr	-1876(ra) # c0006e68 <__sprint_r>
    c00015c4:	c119                	beqz	a0,c00015ca <_vfprintf_r+0x5a0>
    c00015c6:	0e00106f          	j	c00026a6 <_vfprintf_r+0x167c>
    c00015ca:	16010c13          	addi	s8,sp,352
    c00015ce:	3a70006f          	j	c0002174 <_vfprintf_r+0x114a>
    c00015d2:	01046413          	ori	s0,s0,16
    c00015d6:	2401                	sext.w	s0,s0
    c00015d8:	008b0793          	addi	a5,s6,8
    c00015dc:	f43e                	sd	a5,40(sp)
    c00015de:	02047793          	andi	a5,s0,32
    c00015e2:	cf95                	beqz	a5,c000161e <_vfprintf_r+0x5f4>
    c00015e4:	000b3b03          	ld	s6,0(s6)
    c00015e8:	000b4463          	bltz	s6,c00015f0 <_vfprintf_r+0x5c6>
    c00015ec:	1220106f          	j	c000270e <_vfprintf_r+0x16e4>
    c00015f0:	02d00793          	li	a5,45
    c00015f4:	0af107a3          	sb	a5,175(sp)
    c00015f8:	41600b33          	neg	s6,s6
    c00015fc:	4785                	li	a5,1
    c00015fe:	577d                	li	a4,-1
    c0001600:	7aed8563          	beq	s11,a4,c0001daa <_vfprintf_r+0xd80>
    c0001604:	8722                	mv	a4,s0
    c0001606:	f7f47413          	andi	s0,s0,-129
    c000160a:	2401                	sext.w	s0,s0
    c000160c:	780b1f63          	bnez	s6,c0001daa <_vfprintf_r+0xd80>
    c0001610:	080d80e3          	beqz	s11,c0001e90 <_vfprintf_r+0xe66>
    c0001614:	4705                	li	a4,1
    c0001616:	78e79d63          	bne	a5,a4,c0001db0 <_vfprintf_r+0xd86>
    c000161a:	1000106f          	j	c000271a <_vfprintf_r+0x16f0>
    c000161e:	01047793          	andi	a5,s0,16
    c0001622:	f3e9                	bnez	a5,c00015e4 <_vfprintf_r+0x5ba>
    c0001624:	04047793          	andi	a5,s0,64
    c0001628:	c781                	beqz	a5,c0001630 <_vfprintf_r+0x606>
    c000162a:	000b1b03          	lh	s6,0(s6)
    c000162e:	bf6d                	j	c00015e8 <_vfprintf_r+0x5be>
    c0001630:	20047793          	andi	a5,s0,512
    c0001634:	c781                	beqz	a5,c000163c <_vfprintf_r+0x612>
    c0001636:	000b0b03          	lb	s6,0(s6)
    c000163a:	b77d                	j	c00015e8 <_vfprintf_r+0x5be>
    c000163c:	000b2b03          	lw	s6,0(s6)
    c0001640:	b765                	j	c00015e8 <_vfprintf_r+0x5be>
    c0001642:	00847793          	andi	a5,s0,8
    c0001646:	c7bd                	beqz	a5,c00016b4 <_vfprintf_r+0x68a>
    c0001648:	0b3d                	addi	s6,s6,15
    c000164a:	ff0b7b13          	andi	s6,s6,-16
    c000164e:	010b0793          	addi	a5,s6,16
    c0001652:	f43e                	sd	a5,40(sp)
    c0001654:	000b3783          	ld	a5,0(s6)
    c0001658:	e9be                	sd	a5,208(sp)
    c000165a:	008b3783          	ld	a5,8(s6)
    c000165e:	edbe                	sd	a5,216(sp)
    c0001660:	0988                	addi	a0,sp,208
    c0001662:	00003097          	auipc	ra,0x3
    c0001666:	6cc080e7          	jalr	1740(ra) # c0004d2e <_ldcheck>
    c000166a:	db2a                	sw	a0,180(sp)
    c000166c:	4789                	li	a5,2
    c000166e:	04f51f63          	bne	a0,a5,c00016cc <_vfprintf_r+0x6a2>
    c0001672:	654e                	ld	a0,208(sp)
    c0001674:	65ee                	ld	a1,216(sp)
    c0001676:	4601                	li	a2,0
    c0001678:	4681                	li	a3,0
    c000167a:	00006097          	auipc	ra,0x6
    c000167e:	57a080e7          	jalr	1402(ra) # c0007bf4 <__letf2>
    c0001682:	00055663          	bgez	a0,c000168e <_vfprintf_r+0x664>
    c0001686:	02d00793          	li	a5,45
    c000168a:	0af107a3          	sb	a5,175(sp)
    c000168e:	04700793          	li	a5,71
    c0001692:	00008917          	auipc	s2,0x8
    c0001696:	bce90913          	addi	s2,s2,-1074 # c0009260 <__clzdi2+0x34e>
    c000169a:	0157d663          	ble	s5,a5,c00016a6 <_vfprintf_r+0x67c>
    c000169e:	00008917          	auipc	s2,0x8
    c00016a2:	bca90913          	addi	s2,s2,-1078 # c0009268 <__clzdi2+0x356>
    c00016a6:	f7f47413          	andi	s0,s0,-129
    c00016aa:	2401                	sext.w	s0,s0
    c00016ac:	4b01                	li	s6,0
    c00016ae:	4d8d                	li	s11,3
    c00016b0:	4701                	li	a4,0
    c00016b2:	a781                	j	c0001df2 <_vfprintf_r+0xdc8>
    c00016b4:	000b3503          	ld	a0,0(s6)
    c00016b8:	008b0793          	addi	a5,s6,8
    c00016bc:	f43e                	sd	a5,40(sp)
    c00016be:	00007097          	auipc	ra,0x7
    c00016c2:	55c080e7          	jalr	1372(ra) # c0008c1a <__extenddftf2>
    c00016c6:	e9aa                	sd	a0,208(sp)
    c00016c8:	edae                	sd	a1,216(sp)
    c00016ca:	bf59                	j	c0001660 <_vfprintf_r+0x636>
    c00016cc:	4785                	li	a5,1
    c00016ce:	02f51663          	bne	a0,a5,c00016fa <_vfprintf_r+0x6d0>
    c00016d2:	67ee                	ld	a5,216(sp)
    c00016d4:	0007d663          	bgez	a5,c00016e0 <_vfprintf_r+0x6b6>
    c00016d8:	02d00793          	li	a5,45
    c00016dc:	0af107a3          	sb	a5,175(sp)
    c00016e0:	04700793          	li	a5,71
    c00016e4:	00008917          	auipc	s2,0x8
    c00016e8:	b8c90913          	addi	s2,s2,-1140 # c0009270 <__clzdi2+0x35e>
    c00016ec:	fb57dde3          	ble	s5,a5,c00016a6 <_vfprintf_r+0x67c>
    c00016f0:	00008917          	auipc	s2,0x8
    c00016f4:	b8890913          	addi	s2,s2,-1144 # c0009278 <__clzdi2+0x366>
    c00016f8:	b77d                	j	c00016a6 <_vfprintf_r+0x67c>
    c00016fa:	fdfafb93          	andi	s7,s5,-33
    c00016fe:	04100793          	li	a5,65
    c0001702:	08fb9363          	bne	s7,a5,c0001788 <_vfprintf_r+0x75e>
    c0001706:	03000793          	li	a5,48
    c000170a:	0af10823          	sb	a5,176(sp)
    c000170e:	06100713          	li	a4,97
    c0001712:	07800793          	li	a5,120
    c0001716:	00ea8463          	beq	s5,a4,c000171e <_vfprintf_r+0x6f4>
    c000171a:	05800793          	li	a5,88
    c000171e:	0af108a3          	sb	a5,177(sp)
    c0001722:	00246413          	ori	s0,s0,2
    c0001726:	06300793          	li	a5,99
    c000172a:	2401                	sext.w	s0,s0
    c000172c:	2db7da63          	ble	s11,a5,c0001a00 <_vfprintf_r+0x9d6>
    c0001730:	001d859b          	addiw	a1,s11,1
    c0001734:	854e                	mv	a0,s3
    c0001736:	fffff097          	auipc	ra,0xfffff
    c000173a:	fcc080e7          	jalr	-52(ra) # c0000702 <_malloc_r>
    c000173e:	892a                	mv	s2,a0
    c0001740:	2c051463          	bnez	a0,c0001a08 <_vfprintf_r+0x9de>
    c0001744:	0104d783          	lhu	a5,16(s1)
    c0001748:	0407e793          	ori	a5,a5,64
    c000174c:	00f49823          	sh	a5,16(s1)
    c0001750:	0b04a783          	lw	a5,176(s1)
    c0001754:	8b85                	andi	a5,a5,1
    c0001756:	ef81                	bnez	a5,c000176e <_vfprintf_r+0x744>
    c0001758:	0104d783          	lhu	a5,16(s1)
    c000175c:	2007f793          	andi	a5,a5,512
    c0001760:	e799                	bnez	a5,c000176e <_vfprintf_r+0x744>
    c0001762:	0a048513          	addi	a0,s1,160
    c0001766:	fffff097          	auipc	ra,0xfffff
    c000176a:	dce080e7          	jalr	-562(ra) # c0000534 <_lock_release_recursive>
    c000176e:	556a                	lw	a0,184(sp)
    c0001770:	192c                	addi	a1,sp,184
    c0001772:	fffff097          	auipc	ra,0xfffff
    c0001776:	dc8080e7          	jalr	-568(ra) # c000053a <pthread_setcancelstate>
    c000177a:	0104d783          	lhu	a5,16(s1)
    c000177e:	0407f793          	andi	a5,a5,64
    c0001782:	9e078be3          	beqz	a5,c0001178 <_vfprintf_r+0x14e>
    c0001786:	ba79                	j	c0001124 <_vfprintf_r+0xfa>
    c0001788:	57fd                	li	a5,-1
    c000178a:	28fd8163          	beq	s11,a5,c0001a0c <_vfprintf_r+0x9e2>
    c000178e:	04700793          	li	a5,71
    c0001792:	4b01                	li	s6,0
    c0001794:	00fb9663          	bne	s7,a5,c00017a0 <_vfprintf_r+0x776>
    c0001798:	000d9463          	bnez	s11,c00017a0 <_vfprintf_r+0x776>
    c000179c:	8b6e                	mv	s6,s11
    c000179e:	4d85                	li	s11,1
    c00017a0:	10046793          	ori	a5,s0,256
    c00017a4:	6a6e                	ld	s4,216(sp)
    c00017a6:	2781                	sext.w	a5,a5
    c00017a8:	f0be                	sd	a5,96(sp)
    c00017aa:	fc82                	sd	zero,120(sp)
    c00017ac:	6ece                	ld	t4,208(sp)
    c00017ae:	000a5963          	bgez	s4,c00017c0 <_vfprintf_r+0x796>
    c00017b2:	57fd                	li	a5,-1
    c00017b4:	17fe                	slli	a5,a5,0x3f
    c00017b6:	00fa4a33          	xor	s4,s4,a5
    c00017ba:	02d00793          	li	a5,45
    c00017be:	fcbe                	sd	a5,120(sp)
    c00017c0:	04100793          	li	a5,65
    c00017c4:	28fb9063          	bne	s7,a5,c0001a44 <_vfprintf_r+0xa1a>
    c00017c8:	8576                	mv	a0,t4
    c00017ca:	85d2                	mv	a1,s4
    c00017cc:	00007097          	auipc	ra,0x7
    c00017d0:	51a080e7          	jalr	1306(ra) # c0008ce6 <__trunctfdf2>
    c00017d4:	194c                	addi	a1,sp,180
    c00017d6:	00004097          	auipc	ra,0x4
    c00017da:	eb6080e7          	jalr	-330(ra) # c000568c <frexp>
    c00017de:	00007097          	auipc	ra,0x7
    c00017e2:	43c080e7          	jalr	1084(ra) # c0008c1a <__extenddftf2>
    c00017e6:	00008797          	auipc	a5,0x8
    c00017ea:	a4a78793          	addi	a5,a5,-1462 # c0009230 <__clzdi2+0x31e>
    c00017ee:	6794                	ld	a3,8(a5)
    c00017f0:	4601                	li	a2,0
    c00017f2:	00006097          	auipc	ra,0x6
    c00017f6:	4b4080e7          	jalr	1204(ra) # c0007ca6 <__multf3>
    c00017fa:	4601                	li	a2,0
    c00017fc:	4681                	li	a3,0
    c00017fe:	e12a                	sd	a0,128(sp)
    c0001800:	8a2e                	mv	s4,a1
    c0001802:	00006097          	auipc	ra,0x6
    c0001806:	2a4080e7          	jalr	676(ra) # c0007aa6 <__eqtf2>
    c000180a:	e119                	bnez	a0,c0001810 <_vfprintf_r+0x7e6>
    c000180c:	4785                	li	a5,1
    c000180e:	db3e                	sw	a5,180(sp)
    c0001810:	00008717          	auipc	a4,0x8
    c0001814:	a7070713          	addi	a4,a4,-1424 # c0009280 <__clzdi2+0x36e>
    c0001818:	06100793          	li	a5,97
    c000181c:	f83a                	sd	a4,48(sp)
    c000181e:	00fa8763          	beq	s5,a5,c000182c <_vfprintf_r+0x802>
    c0001822:	00008797          	auipc	a5,0x8
    c0001826:	a7678793          	addi	a5,a5,-1418 # c0009298 <__clzdi2+0x386>
    c000182a:	f83e                	sd	a5,48(sp)
    c000182c:	00008697          	auipc	a3,0x8
    c0001830:	a1468693          	addi	a3,a3,-1516 # c0009240 <__clzdi2+0x32e>
    c0001834:	669c                	ld	a5,8(a3)
    c0001836:	fffd871b          	addiw	a4,s11,-1
    c000183a:	8cca                	mv	s9,s2
    c000183c:	e53e                	sd	a5,136(sp)
    c000183e:	66aa                	ld	a3,136(sp)
    c0001840:	650a                	ld	a0,128(sp)
    c0001842:	4601                	li	a2,0
    c0001844:	85d2                	mv	a1,s4
    c0001846:	f4ba                	sd	a4,104(sp)
    c0001848:	00006097          	auipc	ra,0x6
    c000184c:	45e080e7          	jalr	1118(ra) # c0007ca6 <__multf3>
    c0001850:	8a2e                	mv	s4,a1
    c0001852:	8d2a                	mv	s10,a0
    c0001854:	00007097          	auipc	ra,0x7
    c0001858:	2c8080e7          	jalr	712(ra) # c0008b1c <__fixtfsi>
    c000185c:	0005079b          	sext.w	a5,a0
    c0001860:	f8be                	sd	a5,112(sp)
    c0001862:	00007097          	auipc	ra,0x7
    c0001866:	34a080e7          	jalr	842(ra) # c0008bac <__floatsitf>
    c000186a:	86ae                	mv	a3,a1
    c000186c:	862a                	mv	a2,a0
    c000186e:	85d2                	mv	a1,s4
    c0001870:	856a                	mv	a0,s10
    c0001872:	00007097          	auipc	ra,0x7
    c0001876:	a72080e7          	jalr	-1422(ra) # c00082e4 <__subtf3>
    c000187a:	77c2                	ld	a5,48(sp)
    c000187c:	7746                	ld	a4,112(sp)
    c000187e:	0c85                	addi	s9,s9,1
    c0001880:	e12a                	sd	a0,128(sp)
    c0001882:	00e786b3          	add	a3,a5,a4
    c0001886:	7726                	ld	a4,104(sp)
    c0001888:	0006c683          	lbu	a3,0(a3)
    c000188c:	88aa                	mv	a7,a0
    c000188e:	0007079b          	sext.w	a5,a4
    c0001892:	f4be                	sd	a5,104(sp)
    c0001894:	fedc8fa3          	sb	a3,-1(s9)
    c0001898:	57fd                	li	a5,-1
    c000189a:	8d2e                	mv	s10,a1
    c000189c:	8a2e                	mv	s4,a1
    c000189e:	16f70a63          	beq	a4,a5,c0001a12 <_vfprintf_r+0x9e8>
    c00018a2:	377d                	addiw	a4,a4,-1
    c00018a4:	4601                	li	a2,0
    c00018a6:	4681                	li	a3,0
    c00018a8:	e93a                	sd	a4,144(sp)
    c00018aa:	ed2a                	sd	a0,152(sp)
    c00018ac:	00006097          	auipc	ra,0x6
    c00018b0:	1fa080e7          	jalr	506(ra) # c0007aa6 <__eqtf2>
    c00018b4:	674a                	ld	a4,144(sp)
    c00018b6:	68ea                	ld	a7,152(sp)
    c00018b8:	f159                	bnez	a0,c000183e <_vfprintf_r+0x814>
    c00018ba:	00008717          	auipc	a4,0x8
    c00018be:	99670713          	addi	a4,a4,-1642 # c0009250 <__clzdi2+0x33e>
    c00018c2:	00873a03          	ld	s4,8(a4)
    c00018c6:	4601                	li	a2,0
    c00018c8:	8546                	mv	a0,a7
    c00018ca:	86d2                	mv	a3,s4
    c00018cc:	85ea                	mv	a1,s10
    c00018ce:	e146                	sd	a7,128(sp)
    c00018d0:	00006097          	auipc	ra,0x6
    c00018d4:	272080e7          	jalr	626(ra) # c0007b42 <__getf2>
    c00018d8:	02a04263          	bgtz	a0,c00018fc <_vfprintf_r+0x8d2>
    c00018dc:	688a                	ld	a7,128(sp)
    c00018de:	4601                	li	a2,0
    c00018e0:	86d2                	mv	a3,s4
    c00018e2:	8546                	mv	a0,a7
    c00018e4:	85ea                	mv	a1,s10
    c00018e6:	00006097          	auipc	ra,0x6
    c00018ea:	1c0080e7          	jalr	448(ra) # c0007aa6 <__eqtf2>
    c00018ee:	14051463          	bnez	a0,c0001a36 <_vfprintf_r+0xa0c>
    c00018f2:	77c6                	ld	a5,112(sp)
    c00018f4:	0017f713          	andi	a4,a5,1
    c00018f8:	12070f63          	beqz	a4,c0001a36 <_vfprintf_r+0xa0c>
    c00018fc:	77c2                	ld	a5,48(sp)
    c00018fe:	e5e6                	sd	s9,200(sp)
    c0001900:	03000593          	li	a1,48
    c0001904:	00f7c603          	lbu	a2,15(a5)
    c0001908:	66ae                	ld	a3,200(sp)
    c000190a:	fff68713          	addi	a4,a3,-1
    c000190e:	e5ba                	sd	a4,200(sp)
    c0001910:	fff6c703          	lbu	a4,-1(a3)
    c0001914:	10c70263          	beq	a4,a2,c0001a18 <_vfprintf_r+0x9ee>
    c0001918:	03900613          	li	a2,57
    c000191c:	10c71163          	bne	a4,a2,c0001a1e <_vfprintf_r+0x9f4>
    c0001920:	77c2                	ld	a5,48(sp)
    c0001922:	00a7c703          	lbu	a4,10(a5)
    c0001926:	fee68fa3          	sb	a4,-1(a3)
    c000192a:	8a66                	mv	s4,s9
    c000192c:	04700713          	li	a4,71
    c0001930:	412a0a3b          	subw	s4,s4,s2
    c0001934:	5cda                	lw	s9,180(sp)
    c0001936:	1ceb9263          	bne	s7,a4,c0001afa <_vfprintf_r+0xad0>
    c000193a:	5775                	li	a4,-3
    c000193c:	00ecc463          	blt	s9,a4,c0001944 <_vfprintf_r+0x91a>
    c0001940:	239dd063          	ble	s9,s11,c0001b60 <_vfprintf_r+0xb36>
    c0001944:	3af9                	addiw	s5,s5,-2
    c0001946:	fffc869b          	addiw	a3,s9,-1
    c000194a:	db36                	sw	a3,180(sp)
    c000194c:	fdfaf613          	andi	a2,s5,-33
    c0001950:	04100513          	li	a0,65
    c0001954:	0ffaf713          	andi	a4,s5,255
    c0001958:	4581                	li	a1,0
    c000195a:	00a61663          	bne	a2,a0,c0001966 <_vfprintf_r+0x93c>
    c000195e:	273d                	addiw	a4,a4,15
    c0001960:	0ff77713          	andi	a4,a4,255
    c0001964:	4585                	li	a1,1
    c0001966:	0ce10023          	sb	a4,192(sp)
    c000196a:	02b00793          	li	a5,43
    c000196e:	0006d763          	bgez	a3,c000197c <_vfprintf_r+0x952>
    c0001972:	4685                	li	a3,1
    c0001974:	419686bb          	subw	a3,a3,s9
    c0001978:	02d00793          	li	a5,45
    c000197c:	0cf100a3          	sb	a5,193(sp)
    c0001980:	47a5                	li	a5,9
    c0001982:	1ad7da63          	ble	a3,a5,c0001b36 <_vfprintf_r+0xb0c>
    c0001986:	0cf10713          	addi	a4,sp,207
    c000198a:	853a                	mv	a0,a4
    c000198c:	45a9                	li	a1,10
    c000198e:	06300813          	li	a6,99
    c0001992:	02b6e7bb          	remw	a5,a3,a1
    c0001996:	fff70613          	addi	a2,a4,-1
    c000199a:	0307879b          	addiw	a5,a5,48
    c000199e:	fef70fa3          	sb	a5,-1(a4)
    c00019a2:	02b6c7bb          	divw	a5,a3,a1
    c00019a6:	16d84e63          	blt	a6,a3,c0001b22 <_vfprintf_r+0xaf8>
    c00019aa:	0307879b          	addiw	a5,a5,48
    c00019ae:	fef60fa3          	sb	a5,-1(a2)
    c00019b2:	1779                	addi	a4,a4,-2
    c00019b4:	0c210613          	addi	a2,sp,194
    c00019b8:	16a76863          	bltu	a4,a0,c0001b28 <_vfprintf_r+0xafe>
    c00019bc:	019c                	addi	a5,sp,192
    c00019be:	40f607bb          	subw	a5,a2,a5
    c00019c2:	e8be                	sd	a5,80(sp)
    c00019c4:	01478dbb          	addw	s11,a5,s4
    c00019c8:	4705                	li	a4,1
    c00019ca:	87ee                	mv	a5,s11
    c00019cc:	01474563          	blt	a4,s4,c00019d6 <_vfprintf_r+0x9ac>
    c00019d0:	00147713          	andi	a4,s0,1
    c00019d4:	c701                	beqz	a4,c00019dc <_vfprintf_r+0x9b2>
    c00019d6:	6742                	ld	a4,16(sp)
    c00019d8:	00e78dbb          	addw	s11,a5,a4
    c00019dc:	bff47413          	andi	s0,s0,-1025
    c00019e0:	2401                	sext.w	s0,s0
    c00019e2:	10046793          	ori	a5,s0,256
    c00019e6:	f0be                	sd	a5,96(sp)
    c00019e8:	4d01                	li	s10,0
    c00019ea:	4b81                	li	s7,0
    c00019ec:	4c81                	li	s9,0
    c00019ee:	77e6                	ld	a5,120(sp)
    c00019f0:	c789                	beqz	a5,c00019fa <_vfprintf_r+0x9d0>
    c00019f2:	02d00713          	li	a4,45
    c00019f6:	0ae107a3          	sb	a4,175(sp)
    c00019fa:	7406                	ld	s0,96(sp)
    c00019fc:	4701                	li	a4,0
    c00019fe:	ba7d                	j	c00013bc <_vfprintf_r+0x392>
    c0001a00:	4b01                	li	s6,0
    c0001a02:	0f810913          	addi	s2,sp,248
    c0001a06:	bb69                	j	c00017a0 <_vfprintf_r+0x776>
    c0001a08:	8b2a                	mv	s6,a0
    c0001a0a:	bb59                	j	c00017a0 <_vfprintf_r+0x776>
    c0001a0c:	4b01                	li	s6,0
    c0001a0e:	4d99                	li	s11,6
    c0001a10:	bb41                	j	c00017a0 <_vfprintf_r+0x776>
    c0001a12:	57fd                	li	a5,-1
    c0001a14:	f4be                	sd	a5,104(sp)
    c0001a16:	b555                	j	c00018ba <_vfprintf_r+0x890>
    c0001a18:	feb68fa3          	sb	a1,-1(a3)
    c0001a1c:	b5f5                	j	c0001908 <_vfprintf_r+0x8de>
    c0001a1e:	2705                	addiw	a4,a4,1
    c0001a20:	0ff77713          	andi	a4,a4,255
    c0001a24:	b709                	j	c0001926 <_vfprintf_r+0x8fc>
    c0001a26:	0a05                	addi	s4,s4,1
    c0001a28:	feda0fa3          	sb	a3,-1(s4)
    c0001a2c:	4147873b          	subw	a4,a5,s4
    c0001a30:	fe075be3          	bgez	a4,c0001a26 <_vfprintf_r+0x9fc>
    c0001a34:	bde5                	j	c000192c <_vfprintf_r+0x902>
    c0001a36:	77a6                	ld	a5,104(sp)
    c0001a38:	8a66                	mv	s4,s9
    c0001a3a:	03000693          	li	a3,48
    c0001a3e:	00fc87bb          	addw	a5,s9,a5
    c0001a42:	b7ed                	j	c0001a2c <_vfprintf_r+0xa02>
    c0001a44:	04600793          	li	a5,70
    c0001a48:	00fb8b63          	beq	s7,a5,c0001a5e <_vfprintf_r+0xa34>
    c0001a4c:	04500793          	li	a5,69
    c0001a50:	8d6e                	mv	s10,s11
    c0001a52:	00fb9463          	bne	s7,a5,c0001a5a <_vfprintf_r+0xa30>
    c0001a56:	001d8d1b          	addiw	s10,s11,1
    c0001a5a:	4689                	li	a3,2
    c0001a5c:	a019                	j	c0001a62 <_vfprintf_r+0xa38>
    c0001a5e:	8d6e                	mv	s10,s11
    c0001a60:	468d                	li	a3,3
    c0001a62:	195c                	addi	a5,sp,180
    c0001a64:	85f6                	mv	a1,t4
    c0001a66:	0c810893          	addi	a7,sp,200
    c0001a6a:	0bc10813          	addi	a6,sp,188
    c0001a6e:	876a                	mv	a4,s10
    c0001a70:	8652                	mv	a2,s4
    c0001a72:	854e                	mv	a0,s3
    c0001a74:	f876                	sd	t4,48(sp)
    c0001a76:	00003097          	auipc	ra,0x3
    c0001a7a:	844080e7          	jalr	-1980(ra) # c00042ba <_ldtoa_r>
    c0001a7e:	04700793          	li	a5,71
    c0001a82:	892a                	mv	s2,a0
    c0001a84:	7ec2                	ld	t4,48(sp)
    c0001a86:	00fb9763          	bne	s7,a5,c0001a94 <_vfprintf_r+0xa6a>
    c0001a8a:	00147793          	andi	a5,s0,1
    c0001a8e:	e399                	bnez	a5,c0001a94 <_vfprintf_r+0xa6a>
    c0001a90:	6a2e                	ld	s4,200(sp)
    c0001a92:	bd69                	j	c000192c <_vfprintf_r+0x902>
    c0001a94:	04600713          	li	a4,70
    c0001a98:	01a90cb3          	add	s9,s2,s10
    c0001a9c:	02eb9963          	bne	s7,a4,c0001ace <_vfprintf_r+0xaa4>
    c0001aa0:	00094683          	lbu	a3,0(s2)
    c0001aa4:	03000713          	li	a4,48
    c0001aa8:	02e69163          	bne	a3,a4,c0001aca <_vfprintf_r+0xaa0>
    c0001aac:	8576                	mv	a0,t4
    c0001aae:	4601                	li	a2,0
    c0001ab0:	4681                	li	a3,0
    c0001ab2:	85d2                	mv	a1,s4
    c0001ab4:	f876                	sd	t4,48(sp)
    c0001ab6:	00006097          	auipc	ra,0x6
    c0001aba:	ff0080e7          	jalr	-16(ra) # c0007aa6 <__eqtf2>
    c0001abe:	7ec2                	ld	t4,48(sp)
    c0001ac0:	c509                	beqz	a0,c0001aca <_vfprintf_r+0xaa0>
    c0001ac2:	4705                	li	a4,1
    c0001ac4:	41a70d3b          	subw	s10,a4,s10
    c0001ac8:	db6a                	sw	s10,180(sp)
    c0001aca:	575a                	lw	a4,180(sp)
    c0001acc:	9cba                	add	s9,s9,a4
    c0001ace:	4601                	li	a2,0
    c0001ad0:	4681                	li	a3,0
    c0001ad2:	8576                	mv	a0,t4
    c0001ad4:	85d2                	mv	a1,s4
    c0001ad6:	00006097          	auipc	ra,0x6
    c0001ada:	fd0080e7          	jalr	-48(ra) # c0007aa6 <__eqtf2>
    c0001ade:	e111                	bnez	a0,c0001ae2 <_vfprintf_r+0xab8>
    c0001ae0:	e5e6                	sd	s9,200(sp)
    c0001ae2:	03000693          	li	a3,48
    c0001ae6:	a031                	j	c0001af2 <_vfprintf_r+0xac8>
    c0001ae8:	00170613          	addi	a2,a4,1
    c0001aec:	e5b2                	sd	a2,200(sp)
    c0001aee:	00d70023          	sb	a3,0(a4)
    c0001af2:	672e                	ld	a4,200(sp)
    c0001af4:	ff976ae3          	bltu	a4,s9,c0001ae8 <_vfprintf_r+0xabe>
    c0001af8:	bf61                	j	c0001a90 <_vfprintf_r+0xa66>
    c0001afa:	04600713          	li	a4,70
    c0001afe:	e4eb94e3          	bne	s7,a4,c0001946 <_vfprintf_r+0x91c>
    c0001b02:	00147713          	andi	a4,s0,1
    c0001b06:	00ede733          	or	a4,s11,a4
    c0001b0a:	2701                	sext.w	a4,a4
    c0001b0c:	05905563          	blez	s9,c0001b56 <_vfprintf_r+0xb2c>
    c0001b10:	cf41                	beqz	a4,c0001ba8 <_vfprintf_r+0xb7e>
    c0001b12:	67c2                	ld	a5,16(sp)
    c0001b14:	0197873b          	addw	a4,a5,s9
    c0001b18:	01b70dbb          	addw	s11,a4,s11
    c0001b1c:	06600a93          	li	s5,102
    c0001b20:	a0bd                	j	c0001b8e <_vfprintf_r+0xb64>
    c0001b22:	8732                	mv	a4,a2
    c0001b24:	86be                	mv	a3,a5
    c0001b26:	b5b5                	j	c0001992 <_vfprintf_r+0x968>
    c0001b28:	0705                	addi	a4,a4,1
    c0001b2a:	fff74783          	lbu	a5,-1(a4)
    c0001b2e:	0605                	addi	a2,a2,1
    c0001b30:	fef60fa3          	sb	a5,-1(a2)
    c0001b34:	b551                	j	c00019b8 <_vfprintf_r+0x98e>
    c0001b36:	0c210713          	addi	a4,sp,194
    c0001b3a:	e599                	bnez	a1,c0001b48 <_vfprintf_r+0xb1e>
    c0001b3c:	03000793          	li	a5,48
    c0001b40:	0cf10123          	sb	a5,194(sp)
    c0001b44:	0c310713          	addi	a4,sp,195
    c0001b48:	0306879b          	addiw	a5,a3,48
    c0001b4c:	00170613          	addi	a2,a4,1
    c0001b50:	00f70023          	sb	a5,0(a4)
    c0001b54:	b5a5                	j	c00019bc <_vfprintf_r+0x992>
    c0001b56:	cb39                	beqz	a4,c0001bac <_vfprintf_r+0xb82>
    c0001b58:	67c2                	ld	a5,16(sp)
    c0001b5a:	0017871b          	addiw	a4,a5,1
    c0001b5e:	bf6d                	j	c0001b18 <_vfprintf_r+0xaee>
    c0001b60:	014ccc63          	blt	s9,s4,c0001b78 <_vfprintf_r+0xb4e>
    c0001b64:	00147713          	andi	a4,s0,1
    c0001b68:	8de6                	mv	s11,s9
    c0001b6a:	c701                	beqz	a4,c0001b72 <_vfprintf_r+0xb48>
    c0001b6c:	67c2                	ld	a5,16(sp)
    c0001b6e:	01978dbb          	addw	s11,a5,s9
    c0001b72:	06700a93          	li	s5,103
    c0001b76:	a821                	j	c0001b8e <_vfprintf_r+0xb64>
    c0001b78:	67c2                	ld	a5,16(sp)
    c0001b7a:	06700a93          	li	s5,103
    c0001b7e:	01478dbb          	addw	s11,a5,s4
    c0001b82:	01904663          	bgtz	s9,c0001b8e <_vfprintf_r+0xb64>
    c0001b86:	419d8e3b          	subw	t3,s11,s9
    c0001b8a:	001e0d9b          	addiw	s11,t3,1
    c0001b8e:	40047413          	andi	s0,s0,1024
    c0001b92:	00040b9b          	sext.w	s7,s0
    c0001b96:	4d01                	li	s10,0
    c0001b98:	e40b8be3          	beqz	s7,c00019ee <_vfprintf_r+0x9c4>
    c0001b9c:	4b81                	li	s7,0
    c0001b9e:	e59058e3          	blez	s9,c00019ee <_vfprintf_r+0x9c4>
    c0001ba2:	0ff00693          	li	a3,255
    c0001ba6:	a01d                	j	c0001bcc <_vfprintf_r+0xba2>
    c0001ba8:	8de6                	mv	s11,s9
    c0001baa:	bf8d                	j	c0001b1c <_vfprintf_r+0xaf2>
    c0001bac:	06600a93          	li	s5,102
    c0001bb0:	4d85                	li	s11,1
    c0001bb2:	bff1                	j	c0001b8e <_vfprintf_r+0xb64>
    c0001bb4:	2701                	sext.w	a4,a4
    c0001bb6:	03975063          	ble	s9,a4,c0001bd6 <_vfprintf_r+0xbac>
    c0001bba:	6782                	ld	a5,0(sp)
    c0001bbc:	40ec8cbb          	subw	s9,s9,a4
    c0001bc0:	0017c703          	lbu	a4,1(a5)
    c0001bc4:	c30d                	beqz	a4,c0001be6 <_vfprintf_r+0xbbc>
    c0001bc6:	0785                	addi	a5,a5,1
    c0001bc8:	2b85                	addiw	s7,s7,1
    c0001bca:	e03e                	sd	a5,0(sp)
    c0001bcc:	6782                	ld	a5,0(sp)
    c0001bce:	0007c703          	lbu	a4,0(a5)
    c0001bd2:	fed711e3          	bne	a4,a3,c0001bb4 <_vfprintf_r+0xb8a>
    c0001bd6:	77e2                	ld	a5,56(sp)
    c0001bd8:	01ab873b          	addw	a4,s7,s10
    c0001bdc:	02f7073b          	mulw	a4,a4,a5
    c0001be0:	01b70dbb          	addw	s11,a4,s11
    c0001be4:	b529                	j	c00019ee <_vfprintf_r+0x9c4>
    c0001be6:	2d05                	addiw	s10,s10,1
    c0001be8:	b7d5                	j	c0001bcc <_vfprintf_r+0xba2>
    c0001bea:	008b0713          	addi	a4,s6,8
    c0001bee:	f43a                	sd	a4,40(sp)
    c0001bf0:	02047713          	andi	a4,s0,32
    c0001bf4:	000b3783          	ld	a5,0(s6)
    c0001bf8:	c719                	beqz	a4,c0001c06 <_vfprintf_r+0xbdc>
    c0001bfa:	6762                	ld	a4,24(sp)
    c0001bfc:	e398                	sd	a4,0(a5)
    c0001bfe:	7b22                	ld	s6,40(sp)
    c0001c00:	6922                	ld	s2,8(sp)
    c0001c02:	dc4ff06f          	j	c00011c6 <_vfprintf_r+0x19c>
    c0001c06:	01047713          	andi	a4,s0,16
    c0001c0a:	fb65                	bnez	a4,c0001bfa <_vfprintf_r+0xbd0>
    c0001c0c:	04047713          	andi	a4,s0,64
    c0001c10:	c709                	beqz	a4,c0001c1a <_vfprintf_r+0xbf0>
    c0001c12:	6762                	ld	a4,24(sp)
    c0001c14:	00e79023          	sh	a4,0(a5)
    c0001c18:	b7dd                	j	c0001bfe <_vfprintf_r+0xbd4>
    c0001c1a:	20047413          	andi	s0,s0,512
    c0001c1e:	6762                	ld	a4,24(sp)
    c0001c20:	c401                	beqz	s0,c0001c28 <_vfprintf_r+0xbfe>
    c0001c22:	00e78023          	sb	a4,0(a5)
    c0001c26:	bfe1                	j	c0001bfe <_vfprintf_r+0xbd4>
    c0001c28:	c398                	sw	a4,0(a5)
    c0001c2a:	bfd1                	j	c0001bfe <_vfprintf_r+0xbd4>
    c0001c2c:	01046413          	ori	s0,s0,16
    c0001c30:	2401                	sext.w	s0,s0
    c0001c32:	008b0793          	addi	a5,s6,8
    c0001c36:	f43e                	sd	a5,40(sp)
    c0001c38:	02047793          	andi	a5,s0,32
    c0001c3c:	cb91                	beqz	a5,c0001c50 <_vfprintf_r+0xc26>
    c0001c3e:	000b3b03          	ld	s6,0(s6)
    c0001c42:	bff47413          	andi	s0,s0,-1025
    c0001c46:	2401                	sext.w	s0,s0
    c0001c48:	4781                	li	a5,0
    c0001c4a:	0a0107a3          	sb	zero,175(sp)
    c0001c4e:	ba45                	j	c00015fe <_vfprintf_r+0x5d4>
    c0001c50:	01047793          	andi	a5,s0,16
    c0001c54:	f7ed                	bnez	a5,c0001c3e <_vfprintf_r+0xc14>
    c0001c56:	04047793          	andi	a5,s0,64
    c0001c5a:	000b2b03          	lw	s6,0(s6)
    c0001c5e:	c789                	beqz	a5,c0001c68 <_vfprintf_r+0xc3e>
    c0001c60:	1b42                	slli	s6,s6,0x30
    c0001c62:	030b5b13          	srli	s6,s6,0x30
    c0001c66:	bff1                	j	c0001c42 <_vfprintf_r+0xc18>
    c0001c68:	20047793          	andi	a5,s0,512
    c0001c6c:	c781                	beqz	a5,c0001c74 <_vfprintf_r+0xc4a>
    c0001c6e:	0ffb7b13          	andi	s6,s6,255
    c0001c72:	bfc1                	j	c0001c42 <_vfprintf_r+0xc18>
    c0001c74:	1b02                	slli	s6,s6,0x20
    c0001c76:	020b5b13          	srli	s6,s6,0x20
    c0001c7a:	b7e1                	j	c0001c42 <_vfprintf_r+0xc18>
    c0001c7c:	008b0793          	addi	a5,s6,8
    c0001c80:	f43e                	sd	a5,40(sp)
    c0001c82:	77e1                	lui	a5,0xffff8
    c0001c84:	8307c793          	xori	a5,a5,-2000
    c0001c88:	00246413          	ori	s0,s0,2
    c0001c8c:	0af11823          	sh	a5,176(sp)
    c0001c90:	00007797          	auipc	a5,0x7
    c0001c94:	5f078793          	addi	a5,a5,1520 # c0009280 <__clzdi2+0x36e>
    c0001c98:	ecbe                	sd	a5,88(sp)
    c0001c9a:	000b3b03          	ld	s6,0(s6)
    c0001c9e:	2401                	sext.w	s0,s0
    c0001ca0:	4789                	li	a5,2
    c0001ca2:	07800a93          	li	s5,120
    c0001ca6:	b755                	j	c0001c4a <_vfprintf_r+0xc20>
    c0001ca8:	008b0793          	addi	a5,s6,8
    c0001cac:	f43e                	sd	a5,40(sp)
    c0001cae:	0a0107a3          	sb	zero,175(sp)
    c0001cb2:	57fd                	li	a5,-1
    c0001cb4:	000b3903          	ld	s2,0(s6)
    c0001cb8:	02fd8063          	beq	s11,a5,c0001cd8 <_vfprintf_r+0xcae>
    c0001cbc:	866e                	mv	a2,s11
    c0001cbe:	4581                	li	a1,0
    c0001cc0:	854a                	mv	a0,s2
    c0001cc2:	00003097          	auipc	ra,0x3
    c0001cc6:	210080e7          	jalr	528(ra) # c0004ed2 <memchr>
    c0001cca:	8b2a                	mv	s6,a0
    c0001ccc:	9e0502e3          	beqz	a0,c00016b0 <_vfprintf_r+0x686>
    c0001cd0:	41250dbb          	subw	s11,a0,s2
    c0001cd4:	4b01                	li	s6,0
    c0001cd6:	bae9                	j	c00016b0 <_vfprintf_r+0x686>
    c0001cd8:	854a                	mv	a0,s2
    c0001cda:	fffff097          	auipc	ra,0xfffff
    c0001cde:	33e080e7          	jalr	830(ra) # c0001018 <strlen>
    c0001ce2:	00050d9b          	sext.w	s11,a0
    c0001ce6:	b7fd                	j	c0001cd4 <_vfprintf_r+0xcaa>
    c0001ce8:	01046413          	ori	s0,s0,16
    c0001cec:	2401                	sext.w	s0,s0
    c0001cee:	008b0793          	addi	a5,s6,8
    c0001cf2:	f43e                	sd	a5,40(sp)
    c0001cf4:	02047793          	andi	a5,s0,32
    c0001cf8:	c789                	beqz	a5,c0001d02 <_vfprintf_r+0xcd8>
    c0001cfa:	000b3b03          	ld	s6,0(s6)
    c0001cfe:	4785                	li	a5,1
    c0001d00:	b7a9                	j	c0001c4a <_vfprintf_r+0xc20>
    c0001d02:	01047793          	andi	a5,s0,16
    c0001d06:	fbf5                	bnez	a5,c0001cfa <_vfprintf_r+0xcd0>
    c0001d08:	04047793          	andi	a5,s0,64
    c0001d0c:	000b2b03          	lw	s6,0(s6)
    c0001d10:	c789                	beqz	a5,c0001d1a <_vfprintf_r+0xcf0>
    c0001d12:	1b42                	slli	s6,s6,0x30
    c0001d14:	030b5b13          	srli	s6,s6,0x30
    c0001d18:	b7dd                	j	c0001cfe <_vfprintf_r+0xcd4>
    c0001d1a:	20047793          	andi	a5,s0,512
    c0001d1e:	c781                	beqz	a5,c0001d26 <_vfprintf_r+0xcfc>
    c0001d20:	0ffb7b13          	andi	s6,s6,255
    c0001d24:	bfe9                	j	c0001cfe <_vfprintf_r+0xcd4>
    c0001d26:	1b02                	slli	s6,s6,0x20
    c0001d28:	020b5b13          	srli	s6,s6,0x20
    c0001d2c:	bfc9                	j	c0001cfe <_vfprintf_r+0xcd4>
    c0001d2e:	00007797          	auipc	a5,0x7
    c0001d32:	56a78793          	addi	a5,a5,1386 # c0009298 <__clzdi2+0x386>
    c0001d36:	ecbe                	sd	a5,88(sp)
    c0001d38:	008b0793          	addi	a5,s6,8
    c0001d3c:	f43e                	sd	a5,40(sp)
    c0001d3e:	02047793          	andi	a5,s0,32
    c0001d42:	cb9d                	beqz	a5,c0001d78 <_vfprintf_r+0xd4e>
    c0001d44:	000b3b03          	ld	s6,0(s6)
    c0001d48:	00147793          	andi	a5,s0,1
    c0001d4c:	cf81                	beqz	a5,c0001d64 <_vfprintf_r+0xd3a>
    c0001d4e:	000b0b63          	beqz	s6,c0001d64 <_vfprintf_r+0xd3a>
    c0001d52:	03000793          	li	a5,48
    c0001d56:	00246413          	ori	s0,s0,2
    c0001d5a:	0af10823          	sb	a5,176(sp)
    c0001d5e:	0b5108a3          	sb	s5,177(sp)
    c0001d62:	2401                	sext.w	s0,s0
    c0001d64:	bff47413          	andi	s0,s0,-1025
    c0001d68:	2401                	sext.w	s0,s0
    c0001d6a:	4789                	li	a5,2
    c0001d6c:	bdf9                	j	c0001c4a <_vfprintf_r+0xc20>
    c0001d6e:	00007797          	auipc	a5,0x7
    c0001d72:	51278793          	addi	a5,a5,1298 # c0009280 <__clzdi2+0x36e>
    c0001d76:	b7c1                	j	c0001d36 <_vfprintf_r+0xd0c>
    c0001d78:	01047793          	andi	a5,s0,16
    c0001d7c:	f7e1                	bnez	a5,c0001d44 <_vfprintf_r+0xd1a>
    c0001d7e:	04047793          	andi	a5,s0,64
    c0001d82:	000b2b03          	lw	s6,0(s6)
    c0001d86:	c789                	beqz	a5,c0001d90 <_vfprintf_r+0xd66>
    c0001d88:	1b42                	slli	s6,s6,0x30
    c0001d8a:	030b5b13          	srli	s6,s6,0x30
    c0001d8e:	bf6d                	j	c0001d48 <_vfprintf_r+0xd1e>
    c0001d90:	20047793          	andi	a5,s0,512
    c0001d94:	c781                	beqz	a5,c0001d9c <_vfprintf_r+0xd72>
    c0001d96:	0ffb7b13          	andi	s6,s6,255
    c0001d9a:	b77d                	j	c0001d48 <_vfprintf_r+0xd1e>
    c0001d9c:	1b02                	slli	s6,s6,0x20
    c0001d9e:	020b5b13          	srli	s6,s6,0x20
    c0001da2:	b75d                	j	c0001d48 <_vfprintf_r+0xd1e>
    c0001da4:	8722                	mv	a4,s0
    c0001da6:	4785                	li	a5,1
    c0001da8:	b8b9                	j	c0001606 <_vfprintf_r+0x5dc>
    c0001daa:	4705                	li	a4,1
    c0001dac:	16e784e3          	beq	a5,a4,c0002714 <_vfprintf_r+0x16ea>
    c0001db0:	4709                	li	a4,2
    c0001db2:	0ae78f63          	beq	a5,a4,c0001e70 <_vfprintf_r+0xe46>
    c0001db6:	0afc                	addi	a5,sp,348
    c0001db8:	007b7713          	andi	a4,s6,7
    c0001dbc:	03070713          	addi	a4,a4,48
    c0001dc0:	fee78fa3          	sb	a4,-1(a5)
    c0001dc4:	003b5b13          	srli	s6,s6,0x3
    c0001dc8:	fff78913          	addi	s2,a5,-1
    c0001dcc:	020b1863          	bnez	s6,c0001dfc <_vfprintf_r+0xdd2>
    c0001dd0:	00147693          	andi	a3,s0,1
    c0001dd4:	ca89                	beqz	a3,c0001de6 <_vfprintf_r+0xdbc>
    c0001dd6:	03000693          	li	a3,48
    c0001dda:	00d70663          	beq	a4,a3,c0001de6 <_vfprintf_r+0xdbc>
    c0001dde:	fed90fa3          	sb	a3,-1(s2)
    c0001de2:	ffe78913          	addi	s2,a5,-2
    c0001de6:	15c10e13          	addi	t3,sp,348
    c0001dea:	876e                	mv	a4,s11
    c0001dec:	4b01                	li	s6,0
    c0001dee:	412e0dbb          	subw	s11,t3,s2
    c0001df2:	4d01                	li	s10,0
    c0001df4:	4b81                	li	s7,0
    c0001df6:	4c81                	li	s9,0
    c0001df8:	dc4ff06f          	j	c00013bc <_vfprintf_r+0x392>
    c0001dfc:	87ca                	mv	a5,s2
    c0001dfe:	bf6d                	j	c0001db8 <_vfprintf_r+0xd8e>
    c0001e00:	40047b93          	andi	s7,s0,1024
    c0001e04:	4a01                	li	s4,0
    c0001e06:	0afc                	addi	a5,sp,348
    c0001e08:	4ca9                	li	s9,10
    c0001e0a:	2b81                	sext.w	s7,s7
    c0001e0c:	0ff00813          	li	a6,255
    c0001e10:	4d25                	li	s10,9
    c0001e12:	039b7733          	remu	a4,s6,s9
    c0001e16:	fff78913          	addi	s2,a5,-1
    c0001e1a:	2a05                	addiw	s4,s4,1
    c0001e1c:	0307071b          	addiw	a4,a4,48
    c0001e20:	fee78fa3          	sb	a4,-1(a5)
    c0001e24:	020b8f63          	beqz	s7,c0001e62 <_vfprintf_r+0xe38>
    c0001e28:	6782                	ld	a5,0(sp)
    c0001e2a:	0007c783          	lbu	a5,0(a5)
    c0001e2e:	02fa1a63          	bne	s4,a5,c0001e62 <_vfprintf_r+0xe38>
    c0001e32:	03078863          	beq	a5,a6,c0001e62 <_vfprintf_r+0xe38>
    c0001e36:	036d7663          	bleu	s6,s10,c0001e62 <_vfprintf_r+0xe38>
    c0001e3a:	77e2                	ld	a5,56(sp)
    c0001e3c:	65a6                	ld	a1,72(sp)
    c0001e3e:	4a01                	li	s4,0
    c0001e40:	40f90933          	sub	s2,s2,a5
    c0001e44:	863e                	mv	a2,a5
    c0001e46:	854a                	mv	a0,s2
    c0001e48:	00004097          	auipc	ra,0x4
    c0001e4c:	9f6080e7          	jalr	-1546(ra) # c000583e <strncpy>
    c0001e50:	6782                	ld	a5,0(sp)
    c0001e52:	0ff00813          	li	a6,255
    c0001e56:	0017c783          	lbu	a5,1(a5)
    c0001e5a:	c781                	beqz	a5,c0001e62 <_vfprintf_r+0xe38>
    c0001e5c:	6782                	ld	a5,0(sp)
    c0001e5e:	0785                	addi	a5,a5,1
    c0001e60:	e03e                	sd	a5,0(sp)
    c0001e62:	039b57b3          	divu	a5,s6,s9
    c0001e66:	f96d70e3          	bleu	s6,s10,c0001de6 <_vfprintf_r+0xdbc>
    c0001e6a:	8b3e                	mv	s6,a5
    c0001e6c:	87ca                	mv	a5,s2
    c0001e6e:	b755                	j	c0001e12 <_vfprintf_r+0xde8>
    c0001e70:	15c10913          	addi	s2,sp,348
    c0001e74:	6766                	ld	a4,88(sp)
    c0001e76:	00fb7793          	andi	a5,s6,15
    c0001e7a:	197d                	addi	s2,s2,-1
    c0001e7c:	97ba                	add	a5,a5,a4
    c0001e7e:	0007c783          	lbu	a5,0(a5)
    c0001e82:	004b5b13          	srli	s6,s6,0x4
    c0001e86:	00f90023          	sb	a5,0(s2)
    c0001e8a:	fe0b15e3          	bnez	s6,c0001e74 <_vfprintf_r+0xe4a>
    c0001e8e:	bfa1                	j	c0001de6 <_vfprintf_r+0xdbc>
    c0001e90:	15c10913          	addi	s2,sp,348
    c0001e94:	fba9                	bnez	a5,c0001de6 <_vfprintf_r+0xdbc>
    c0001e96:	8b05                	andi	a4,a4,1
    c0001e98:	d739                	beqz	a4,c0001de6 <_vfprintf_r+0xdbc>
    c0001e9a:	03000793          	li	a5,48
    c0001e9e:	14f10da3          	sb	a5,347(sp)
    c0001ea2:	0810006f          	j	c0002722 <_vfprintf_r+0x16f8>
    c0001ea6:	040a85e3          	beqz	s5,c00026f0 <_vfprintf_r+0x16c6>
    c0001eaa:	0f510c23          	sb	s5,248(sp)
    c0001eae:	0a0107a3          	sb	zero,175(sp)
    c0001eb2:	f45a                	sd	s6,40(sp)
    c0001eb4:	cf8ff06f          	j	c00013ac <_vfprintf_r+0x382>
    c0001eb8:	0641                	addi	a2,a2,16
    c0001eba:	011c3423          	sd	a7,8(s8)
    c0001ebe:	f9b2                	sd	a2,240(sp)
    c0001ec0:	d5ae                	sw	a1,232(sp)
    c0001ec2:	02aed763          	ble	a0,t4,c0001ef0 <_vfprintf_r+0xec6>
    c0001ec6:	1190                	addi	a2,sp,224
    c0001ec8:	85a6                	mv	a1,s1
    c0001eca:	854e                	mv	a0,s3
    c0001ecc:	fcba                	sd	a4,120(sp)
    c0001ece:	f8b6                	sd	a3,112(sp)
    c0001ed0:	00005097          	auipc	ra,0x5
    c0001ed4:	f98080e7          	jalr	-104(ra) # c0006e68 <__sprint_r>
    c0001ed8:	7c051763          	bnez	a0,c00026a6 <_vfprintf_r+0x167c>
    c0001edc:	7766                	ld	a4,120(sp)
    c0001ede:	76c6                	ld	a3,112(sp)
    c0001ee0:	16010f13          	addi	t5,sp,352
    c0001ee4:	4e9d                	li	t4,7
    c0001ee6:	00007817          	auipc	a6,0x7
    c0001eea:	3d280813          	addi	a6,a6,978 # c00092b8 <blanks.4826>
    c0001eee:	48c1                	li	a7,16
    c0001ef0:	36c1                	addiw	a3,a3,-16
    c0001ef2:	8c7a                	mv	s8,t5
    c0001ef4:	d14ff06f          	j	c0001408 <_vfprintf_r+0x3de>
    c0001ef8:	0641                	addi	a2,a2,16
    c0001efa:	010c3423          	sd	a6,8(s8)
    c0001efe:	f9b2                	sd	a2,240(sp)
    c0001f00:	d5ae                	sw	a1,232(sp)
    c0001f02:	02a8d363          	ble	a0,a7,c0001f28 <_vfprintf_r+0xefe>
    c0001f06:	1190                	addi	a2,sp,224
    c0001f08:	85a6                	mv	a1,s1
    c0001f0a:	854e                	mv	a0,s3
    c0001f0c:	f4ba                	sd	a4,104(sp)
    c0001f0e:	f0b6                	sd	a3,96(sp)
    c0001f10:	00005097          	auipc	ra,0x5
    c0001f14:	f58080e7          	jalr	-168(ra) # c0006e68 <__sprint_r>
    c0001f18:	78051763          	bnez	a0,c00026a6 <_vfprintf_r+0x167c>
    c0001f1c:	7726                	ld	a4,104(sp)
    c0001f1e:	7686                	ld	a3,96(sp)
    c0001f20:	16010e93          	addi	t4,sp,352
    c0001f24:	489d                	li	a7,7
    c0001f26:	4841                	li	a6,16
    c0001f28:	36c1                	addiw	a3,a3,-16
    c0001f2a:	8c76                	mv	s8,t4
    c0001f2c:	dc2ff06f          	j	c00014ee <_vfprintf_r+0x4c4>
    c0001f30:	06c1                	addi	a3,a3,16
    c0001f32:	010c3423          	sd	a6,8(s8)
    c0001f36:	f9b6                	sd	a3,240(sp)
    c0001f38:	d5b2                	sw	a2,232(sp)
    c0001f3a:	02b8d063          	ble	a1,a7,c0001f5a <_vfprintf_r+0xf30>
    c0001f3e:	1190                	addi	a2,sp,224
    c0001f40:	85a6                	mv	a1,s1
    c0001f42:	854e                	mv	a0,s3
    c0001f44:	f0ba                	sd	a4,96(sp)
    c0001f46:	00005097          	auipc	ra,0x5
    c0001f4a:	f22080e7          	jalr	-222(ra) # c0006e68 <__sprint_r>
    c0001f4e:	74051c63          	bnez	a0,c00026a6 <_vfprintf_r+0x167c>
    c0001f52:	7706                	ld	a4,96(sp)
    c0001f54:	1288                	addi	a0,sp,352
    c0001f56:	489d                	li	a7,7
    c0001f58:	4841                	li	a6,16
    c0001f5a:	3741                	addiw	a4,a4,-16
    c0001f5c:	8c2a                	mv	s8,a0
    c0001f5e:	de8ff06f          	j	c0001546 <_vfprintf_r+0x51c>
    c0001f62:	06500693          	li	a3,101
    c0001f66:	5956d663          	ble	s5,a3,c00024f2 <_vfprintf_r+0x14c8>
    c0001f6a:	654e                	ld	a0,208(sp)
    c0001f6c:	65ee                	ld	a1,216(sp)
    c0001f6e:	4601                	li	a2,0
    c0001f70:	4681                	li	a3,0
    c0001f72:	f0ba                	sd	a4,96(sp)
    c0001f74:	00006097          	auipc	ra,0x6
    c0001f78:	b32080e7          	jalr	-1230(ra) # c0007aa6 <__eqtf2>
    c0001f7c:	7706                	ld	a4,96(sp)
    c0001f7e:	ed6d                	bnez	a0,c0002078 <_vfprintf_r+0x104e>
    c0001f80:	00007797          	auipc	a5,0x7
    c0001f84:	33078793          	addi	a5,a5,816 # c00092b0 <__clzdi2+0x39e>
    c0001f88:	00fc3023          	sd	a5,0(s8)
    c0001f8c:	4785                	li	a5,1
    c0001f8e:	00fc3423          	sd	a5,8(s8)
    c0001f92:	57ae                	lw	a5,232(sp)
    c0001f94:	0705                	addi	a4,a4,1
    c0001f96:	f9ba                	sd	a4,240(sp)
    c0001f98:	0017871b          	addiw	a4,a5,1
    c0001f9c:	d5ba                	sw	a4,232(sp)
    c0001f9e:	479d                	li	a5,7
    c0001fa0:	0c41                	addi	s8,s8,16
    c0001fa2:	00e7dd63          	ble	a4,a5,c0001fbc <_vfprintf_r+0xf92>
    c0001fa6:	1190                	addi	a2,sp,224
    c0001fa8:	85a6                	mv	a1,s1
    c0001faa:	854e                	mv	a0,s3
    c0001fac:	00005097          	auipc	ra,0x5
    c0001fb0:	ebc080e7          	jalr	-324(ra) # c0006e68 <__sprint_r>
    c0001fb4:	6e051963          	bnez	a0,c00026a6 <_vfprintf_r+0x167c>
    c0001fb8:	16010c13          	addi	s8,sp,352
    c0001fbc:	57da                	lw	a5,180(sp)
    c0001fbe:	0147c663          	blt	a5,s4,c0001fca <_vfprintf_r+0xfa0>
    c0001fc2:	00147793          	andi	a5,s0,1
    c0001fc6:	1a078763          	beqz	a5,c0002174 <_vfprintf_r+0x114a>
    c0001fca:	6786                	ld	a5,64(sp)
    c0001fcc:	6742                	ld	a4,16(sp)
    c0001fce:	0c41                	addi	s8,s8,16
    c0001fd0:	fefc3823          	sd	a5,-16(s8)
    c0001fd4:	67c2                	ld	a5,16(sp)
    c0001fd6:	fefc3c23          	sd	a5,-8(s8)
    c0001fda:	77ce                	ld	a5,240(sp)
    c0001fdc:	97ba                	add	a5,a5,a4
    c0001fde:	f9be                	sd	a5,240(sp)
    c0001fe0:	57ae                	lw	a5,232(sp)
    c0001fe2:	0017871b          	addiw	a4,a5,1
    c0001fe6:	d5ba                	sw	a4,232(sp)
    c0001fe8:	479d                	li	a5,7
    c0001fea:	00e7dd63          	ble	a4,a5,c0002004 <_vfprintf_r+0xfda>
    c0001fee:	1190                	addi	a2,sp,224
    c0001ff0:	85a6                	mv	a1,s1
    c0001ff2:	854e                	mv	a0,s3
    c0001ff4:	00005097          	auipc	ra,0x5
    c0001ff8:	e74080e7          	jalr	-396(ra) # c0006e68 <__sprint_r>
    c0001ffc:	6a051563          	bnez	a0,c00026a6 <_vfprintf_r+0x167c>
    c0002000:	16010c13          	addi	s8,sp,352
    c0002004:	fffa091b          	addiw	s2,s4,-1
    c0002008:	17205663          	blez	s2,c0002174 <_vfprintf_r+0x114a>
    c000200c:	4ac1                	li	s5,16
    c000200e:	4b9d                	li	s7,7
    c0002010:	572e                	lw	a4,232(sp)
    c0002012:	77ce                	ld	a5,240(sp)
    c0002014:	010c0613          	addi	a2,s8,16
    c0002018:	0017069b          	addiw	a3,a4,1
    c000201c:	8736                	mv	a4,a3
    c000201e:	032ac363          	blt	s5,s2,c0002044 <_vfprintf_r+0x101a>
    c0002022:	00007717          	auipc	a4,0x7
    c0002026:	2a670713          	addi	a4,a4,678 # c00092c8 <zeroes.4827>
    c000202a:	012c3423          	sd	s2,8(s8)
    c000202e:	00ec3023          	sd	a4,0(s8)
    c0002032:	993e                	add	s2,s2,a5
    c0002034:	f9ca                	sd	s2,240(sp)
    c0002036:	d5b6                	sw	a3,232(sp)
    c0002038:	479d                	li	a5,7
    c000203a:	8c32                	mv	s8,a2
    c000203c:	12d7dc63          	ble	a3,a5,c0002174 <_vfprintf_r+0x114a>
    c0002040:	d76ff06f          	j	c00015b6 <_vfprintf_r+0x58c>
    c0002044:	00007597          	auipc	a1,0x7
    c0002048:	28458593          	addi	a1,a1,644 # c00092c8 <zeroes.4827>
    c000204c:	07c1                	addi	a5,a5,16
    c000204e:	00bc3023          	sd	a1,0(s8)
    c0002052:	015c3423          	sd	s5,8(s8)
    c0002056:	f9be                	sd	a5,240(sp)
    c0002058:	d5ba                	sw	a4,232(sp)
    c000205a:	00dbdc63          	ble	a3,s7,c0002072 <_vfprintf_r+0x1048>
    c000205e:	1190                	addi	a2,sp,224
    c0002060:	85a6                	mv	a1,s1
    c0002062:	854e                	mv	a0,s3
    c0002064:	00005097          	auipc	ra,0x5
    c0002068:	e04080e7          	jalr	-508(ra) # c0006e68 <__sprint_r>
    c000206c:	62051d63          	bnez	a0,c00026a6 <_vfprintf_r+0x167c>
    c0002070:	1290                	addi	a2,sp,352
    c0002072:	3941                	addiw	s2,s2,-16
    c0002074:	8c32                	mv	s8,a2
    c0002076:	bf69                	j	c0002010 <_vfprintf_r+0xfe6>
    c0002078:	56da                	lw	a3,180(sp)
    c000207a:	16d04463          	bgtz	a3,c00021e2 <_vfprintf_r+0x11b8>
    c000207e:	00007797          	auipc	a5,0x7
    c0002082:	23278793          	addi	a5,a5,562 # c00092b0 <__clzdi2+0x39e>
    c0002086:	00fc3023          	sd	a5,0(s8)
    c000208a:	4785                	li	a5,1
    c000208c:	00fc3423          	sd	a5,8(s8)
    c0002090:	57ae                	lw	a5,232(sp)
    c0002092:	0705                	addi	a4,a4,1
    c0002094:	f9ba                	sd	a4,240(sp)
    c0002096:	0017871b          	addiw	a4,a5,1
    c000209a:	d5ba                	sw	a4,232(sp)
    c000209c:	479d                	li	a5,7
    c000209e:	0c41                	addi	s8,s8,16
    c00020a0:	00e7dd63          	ble	a4,a5,c00020ba <_vfprintf_r+0x1090>
    c00020a4:	1190                	addi	a2,sp,224
    c00020a6:	85a6                	mv	a1,s1
    c00020a8:	854e                	mv	a0,s3
    c00020aa:	00005097          	auipc	ra,0x5
    c00020ae:	dbe080e7          	jalr	-578(ra) # c0006e68 <__sprint_r>
    c00020b2:	5e051a63          	bnez	a0,c00026a6 <_vfprintf_r+0x167c>
    c00020b6:	16010c13          	addi	s8,sp,352
    c00020ba:	57da                	lw	a5,180(sp)
    c00020bc:	00147693          	andi	a3,s0,1
    c00020c0:	774e                	ld	a4,240(sp)
    c00020c2:	00fa67b3          	or	a5,s4,a5
    c00020c6:	8fd5                	or	a5,a5,a3
    c00020c8:	2781                	sext.w	a5,a5
    c00020ca:	c7cd                	beqz	a5,c0002174 <_vfprintf_r+0x114a>
    c00020cc:	6786                	ld	a5,64(sp)
    c00020ce:	010c0313          	addi	t1,s8,16
    c00020d2:	00fc3023          	sd	a5,0(s8)
    c00020d6:	67c2                	ld	a5,16(sp)
    c00020d8:	00fc3423          	sd	a5,8(s8)
    c00020dc:	97ba                	add	a5,a5,a4
    c00020de:	f9be                	sd	a5,240(sp)
    c00020e0:	57ae                	lw	a5,232(sp)
    c00020e2:	0017871b          	addiw	a4,a5,1
    c00020e6:	d5ba                	sw	a4,232(sp)
    c00020e8:	479d                	li	a5,7
    c00020ea:	00e7dd63          	ble	a4,a5,c0002104 <_vfprintf_r+0x10da>
    c00020ee:	1190                	addi	a2,sp,224
    c00020f0:	85a6                	mv	a1,s1
    c00020f2:	854e                	mv	a0,s3
    c00020f4:	00005097          	auipc	ra,0x5
    c00020f8:	d74080e7          	jalr	-652(ra) # c0006e68 <__sprint_r>
    c00020fc:	5a051563          	bnez	a0,c00026a6 <_vfprintf_r+0x167c>
    c0002100:	16010313          	addi	t1,sp,352
    c0002104:	5ada                	lw	s5,180(sp)
    c0002106:	040ad763          	bgez	s5,c0002154 <_vfprintf_r+0x112a>
    c000210a:	41500abb          	negw	s5,s5
    c000210e:	879a                	mv	a5,t1
    c0002110:	4bc1                	li	s7,16
    c0002112:	4d1d                	li	s10,7
    c0002114:	56ae                	lw	a3,232(sp)
    c0002116:	774e                	ld	a4,240(sp)
    c0002118:	0341                	addi	t1,t1,16
    c000211a:	0016861b          	addiw	a2,a3,1
    c000211e:	86b2                	mv	a3,a2
    c0002120:	095bc763          	blt	s7,s5,c00021ae <_vfprintf_r+0x1184>
    c0002124:	0157b423          	sd	s5,8(a5)
    c0002128:	00007697          	auipc	a3,0x7
    c000212c:	1a068693          	addi	a3,a3,416 # c00092c8 <zeroes.4827>
    c0002130:	9aba                	add	s5,s5,a4
    c0002132:	e394                	sd	a3,0(a5)
    c0002134:	f9d6                	sd	s5,240(sp)
    c0002136:	d5b2                	sw	a2,232(sp)
    c0002138:	479d                	li	a5,7
    c000213a:	00c7dd63          	ble	a2,a5,c0002154 <_vfprintf_r+0x112a>
    c000213e:	1190                	addi	a2,sp,224
    c0002140:	85a6                	mv	a1,s1
    c0002142:	854e                	mv	a0,s3
    c0002144:	00005097          	auipc	ra,0x5
    c0002148:	d24080e7          	jalr	-732(ra) # c0006e68 <__sprint_r>
    c000214c:	54051d63          	bnez	a0,c00026a6 <_vfprintf_r+0x167c>
    c0002150:	16010313          	addi	t1,sp,352
    c0002154:	77ce                	ld	a5,240(sp)
    c0002156:	01233023          	sd	s2,0(t1)
    c000215a:	01433423          	sd	s4,8(t1)
    c000215e:	97d2                	add	a5,a5,s4
    c0002160:	f9be                	sd	a5,240(sp)
    c0002162:	57ae                	lw	a5,232(sp)
    c0002164:	01030c13          	addi	s8,t1,16
    c0002168:	0017871b          	addiw	a4,a5,1
    c000216c:	d5ba                	sw	a4,232(sp)
    c000216e:	479d                	li	a5,7
    c0002170:	c4e7c363          	blt	a5,a4,c00015b6 <_vfprintf_r+0x58c>
    c0002174:	8811                	andi	s0,s0,4
    c0002176:	4e041263          	bnez	s0,c000265a <_vfprintf_r+0x1630>
    c000217a:	7702                	ld	a4,32(sp)
    c000217c:	76c2                	ld	a3,48(sp)
    c000217e:	5782                	lw	a5,32(sp)
    c0002180:	00d75363          	ble	a3,a4,c0002186 <_vfprintf_r+0x115c>
    c0002184:	57c2                	lw	a5,48(sp)
    c0002186:	6762                	ld	a4,24(sp)
    c0002188:	9fb9                	addw	a5,a5,a4
    c000218a:	ec3e                	sd	a5,24(sp)
    c000218c:	77ce                	ld	a5,240(sp)
    c000218e:	cb91                	beqz	a5,c00021a2 <_vfprintf_r+0x1178>
    c0002190:	1190                	addi	a2,sp,224
    c0002192:	85a6                	mv	a1,s1
    c0002194:	854e                	mv	a0,s3
    c0002196:	00005097          	auipc	ra,0x5
    c000219a:	cd2080e7          	jalr	-814(ra) # c0006e68 <__sprint_r>
    c000219e:	50051463          	bnez	a0,c00026a6 <_vfprintf_r+0x167c>
    c00021a2:	d582                	sw	zero,232(sp)
    c00021a4:	520b1f63          	bnez	s6,c00026e2 <_vfprintf_r+0x16b8>
    c00021a8:	16010c13          	addi	s8,sp,352
    c00021ac:	bc89                	j	c0001bfe <_vfprintf_r+0xbd4>
    c00021ae:	00007597          	auipc	a1,0x7
    c00021b2:	11a58593          	addi	a1,a1,282 # c00092c8 <zeroes.4827>
    c00021b6:	0741                	addi	a4,a4,16
    c00021b8:	e38c                	sd	a1,0(a5)
    c00021ba:	0177b423          	sd	s7,8(a5)
    c00021be:	f9ba                	sd	a4,240(sp)
    c00021c0:	d5b6                	sw	a3,232(sp)
    c00021c2:	00cd5d63          	ble	a2,s10,c00021dc <_vfprintf_r+0x11b2>
    c00021c6:	1190                	addi	a2,sp,224
    c00021c8:	85a6                	mv	a1,s1
    c00021ca:	854e                	mv	a0,s3
    c00021cc:	00005097          	auipc	ra,0x5
    c00021d0:	c9c080e7          	jalr	-868(ra) # c0006e68 <__sprint_r>
    c00021d4:	4c051963          	bnez	a0,c00026a6 <_vfprintf_r+0x167c>
    c00021d8:	16010313          	addi	t1,sp,352
    c00021dc:	3ac1                	addiw	s5,s5,-16
    c00021de:	879a                	mv	a5,t1
    c00021e0:	bf15                	j	c0002114 <_vfprintf_r+0x10ea>
    c00021e2:	86e6                	mv	a3,s9
    c00021e4:	019a5363          	ble	s9,s4,c00021ea <_vfprintf_r+0x11c0>
    c00021e8:	86d2                	mv	a3,s4
    c00021ea:	00068d9b          	sext.w	s11,a3
    c00021ee:	03b05b63          	blez	s11,c0002224 <_vfprintf_r+0x11fa>
    c00021f2:	976e                	add	a4,a4,s11
    c00021f4:	f9ba                	sd	a4,240(sp)
    c00021f6:	572e                	lw	a4,232(sp)
    c00021f8:	012c3023          	sd	s2,0(s8)
    c00021fc:	01bc3423          	sd	s11,8(s8)
    c0002200:	0017061b          	addiw	a2,a4,1
    c0002204:	d5b2                	sw	a2,232(sp)
    c0002206:	471d                	li	a4,7
    c0002208:	0c41                	addi	s8,s8,16
    c000220a:	00c75d63          	ble	a2,a4,c0002224 <_vfprintf_r+0x11fa>
    c000220e:	1190                	addi	a2,sp,224
    c0002210:	85a6                	mv	a1,s1
    c0002212:	854e                	mv	a0,s3
    c0002214:	00005097          	auipc	ra,0x5
    c0002218:	c54080e7          	jalr	-940(ra) # c0006e68 <__sprint_r>
    c000221c:	48051563          	bnez	a0,c00026a6 <_vfprintf_r+0x167c>
    c0002220:	16010c13          	addi	s8,sp,352
    c0002224:	8aee                	mv	s5,s11
    c0002226:	000dd363          	bgez	s11,c000222c <_vfprintf_r+0x1202>
    c000222a:	4a81                	li	s5,0
    c000222c:	415c8abb          	subw	s5,s9,s5
    c0002230:	05505763          	blez	s5,c000227e <_vfprintf_r+0x1254>
    c0002234:	4dc1                	li	s11,16
    c0002236:	489d                	li	a7,7
    c0002238:	56ae                	lw	a3,232(sp)
    c000223a:	00007797          	auipc	a5,0x7
    c000223e:	08e78793          	addi	a5,a5,142 # c00092c8 <zeroes.4827>
    c0002242:	00fc3023          	sd	a5,0(s8)
    c0002246:	0016861b          	addiw	a2,a3,1
    c000224a:	774e                	ld	a4,240(sp)
    c000224c:	86b2                	mv	a3,a2
    c000224e:	010c0593          	addi	a1,s8,16
    c0002252:	155dc263          	blt	s11,s5,c0002396 <_vfprintf_r+0x136c>
    c0002256:	015c3423          	sd	s5,8(s8)
    c000225a:	9aba                	add	s5,s5,a4
    c000225c:	f9d6                	sd	s5,240(sp)
    c000225e:	d5b2                	sw	a2,232(sp)
    c0002260:	471d                	li	a4,7
    c0002262:	8c2e                	mv	s8,a1
    c0002264:	00c75d63          	ble	a2,a4,c000227e <_vfprintf_r+0x1254>
    c0002268:	1190                	addi	a2,sp,224
    c000226a:	85a6                	mv	a1,s1
    c000226c:	854e                	mv	a0,s3
    c000226e:	00005097          	auipc	ra,0x5
    c0002272:	bfa080e7          	jalr	-1030(ra) # c0006e68 <__sprint_r>
    c0002276:	42051863          	bnez	a0,c00026a6 <_vfprintf_r+0x167c>
    c000227a:	16010c13          	addi	s8,sp,352
    c000227e:	40047793          	andi	a5,s0,1024
    c0002282:	01990ab3          	add	s5,s2,s9
    c0002286:	cf91                	beqz	a5,c00022a2 <_vfprintf_r+0x1278>
    c0002288:	014907b3          	add	a5,s2,s4
    c000228c:	4d9d                	li	s11,7
    c000228e:	8cbe                	mv	s9,a5
    c0002290:	120b9863          	bnez	s7,c00023c0 <_vfprintf_r+0x1396>
    c0002294:	120d1863          	bnez	s10,c00023c4 <_vfprintf_r+0x139a>
    c0002298:	014907b3          	add	a5,s2,s4
    c000229c:	0157f363          	bleu	s5,a5,c00022a2 <_vfprintf_r+0x1278>
    c00022a0:	8abe                	mv	s5,a5
    c00022a2:	57da                	lw	a5,180(sp)
    c00022a4:	0147c563          	blt	a5,s4,c00022ae <_vfprintf_r+0x1284>
    c00022a8:	00147793          	andi	a5,s0,1
    c00022ac:	cf95                	beqz	a5,c00022e8 <_vfprintf_r+0x12be>
    c00022ae:	6786                	ld	a5,64(sp)
    c00022b0:	6742                	ld	a4,16(sp)
    c00022b2:	0c41                	addi	s8,s8,16
    c00022b4:	fefc3823          	sd	a5,-16(s8)
    c00022b8:	67c2                	ld	a5,16(sp)
    c00022ba:	fefc3c23          	sd	a5,-8(s8)
    c00022be:	77ce                	ld	a5,240(sp)
    c00022c0:	97ba                	add	a5,a5,a4
    c00022c2:	f9be                	sd	a5,240(sp)
    c00022c4:	57ae                	lw	a5,232(sp)
    c00022c6:	0017871b          	addiw	a4,a5,1
    c00022ca:	d5ba                	sw	a4,232(sp)
    c00022cc:	479d                	li	a5,7
    c00022ce:	00e7dd63          	ble	a4,a5,c00022e8 <_vfprintf_r+0x12be>
    c00022d2:	1190                	addi	a2,sp,224
    c00022d4:	85a6                	mv	a1,s1
    c00022d6:	854e                	mv	a0,s3
    c00022d8:	00005097          	auipc	ra,0x5
    c00022dc:	b90080e7          	jalr	-1136(ra) # c0006e68 <__sprint_r>
    c00022e0:	3c051363          	bnez	a0,c00026a6 <_vfprintf_r+0x167c>
    c00022e4:	16010c13          	addi	s8,sp,352
    c00022e8:	5bda                	lw	s7,180(sp)
    c00022ea:	9952                	add	s2,s2,s4
    c00022ec:	4159093b          	subw	s2,s2,s5
    c00022f0:	417a07bb          	subw	a5,s4,s7
    c00022f4:	8bbe                	mv	s7,a5
    c00022f6:	00f95463          	ble	a5,s2,c00022fe <_vfprintf_r+0x12d4>
    c00022fa:	00090b9b          	sext.w	s7,s2
    c00022fe:	03705c63          	blez	s7,c0002336 <_vfprintf_r+0x130c>
    c0002302:	77ce                	ld	a5,240(sp)
    c0002304:	015c3023          	sd	s5,0(s8)
    c0002308:	017c3423          	sd	s7,8(s8)
    c000230c:	97de                	add	a5,a5,s7
    c000230e:	f9be                	sd	a5,240(sp)
    c0002310:	57ae                	lw	a5,232(sp)
    c0002312:	0c41                	addi	s8,s8,16
    c0002314:	0017871b          	addiw	a4,a5,1
    c0002318:	d5ba                	sw	a4,232(sp)
    c000231a:	479d                	li	a5,7
    c000231c:	00e7dd63          	ble	a4,a5,c0002336 <_vfprintf_r+0x130c>
    c0002320:	1190                	addi	a2,sp,224
    c0002322:	85a6                	mv	a1,s1
    c0002324:	854e                	mv	a0,s3
    c0002326:	00005097          	auipc	ra,0x5
    c000232a:	b42080e7          	jalr	-1214(ra) # c0006e68 <__sprint_r>
    c000232e:	36051c63          	bnez	a0,c00026a6 <_vfprintf_r+0x167c>
    c0002332:	16010c13          	addi	s8,sp,352
    c0002336:	87de                	mv	a5,s7
    c0002338:	000bd363          	bgez	s7,c000233e <_vfprintf_r+0x1314>
    c000233c:	4781                	li	a5,0
    c000233e:	595a                	lw	s2,180(sp)
    c0002340:	412a093b          	subw	s2,s4,s2
    c0002344:	40f9093b          	subw	s2,s2,a5
    c0002348:	e32056e3          	blez	s2,c0002174 <_vfprintf_r+0x114a>
    c000234c:	4ac1                	li	s5,16
    c000234e:	4b9d                	li	s7,7
    c0002350:	572e                	lw	a4,232(sp)
    c0002352:	77ce                	ld	a5,240(sp)
    c0002354:	010c0613          	addi	a2,s8,16
    c0002358:	0017069b          	addiw	a3,a4,1
    c000235c:	8736                	mv	a4,a3
    c000235e:	cd2ad2e3          	ble	s2,s5,c0002022 <_vfprintf_r+0xff8>
    c0002362:	00007597          	auipc	a1,0x7
    c0002366:	f6658593          	addi	a1,a1,-154 # c00092c8 <zeroes.4827>
    c000236a:	07c1                	addi	a5,a5,16
    c000236c:	00bc3023          	sd	a1,0(s8)
    c0002370:	015c3423          	sd	s5,8(s8)
    c0002374:	f9be                	sd	a5,240(sp)
    c0002376:	d5ba                	sw	a4,232(sp)
    c0002378:	00dbdc63          	ble	a3,s7,c0002390 <_vfprintf_r+0x1366>
    c000237c:	1190                	addi	a2,sp,224
    c000237e:	85a6                	mv	a1,s1
    c0002380:	854e                	mv	a0,s3
    c0002382:	00005097          	auipc	ra,0x5
    c0002386:	ae6080e7          	jalr	-1306(ra) # c0006e68 <__sprint_r>
    c000238a:	30051e63          	bnez	a0,c00026a6 <_vfprintf_r+0x167c>
    c000238e:	1290                	addi	a2,sp,352
    c0002390:	3941                	addiw	s2,s2,-16
    c0002392:	8c32                	mv	s8,a2
    c0002394:	bf75                	j	c0002350 <_vfprintf_r+0x1326>
    c0002396:	0741                	addi	a4,a4,16
    c0002398:	01bc3423          	sd	s11,8(s8)
    c000239c:	f9ba                	sd	a4,240(sp)
    c000239e:	d5b6                	sw	a3,232(sp)
    c00023a0:	00c8dd63          	ble	a2,a7,c00023ba <_vfprintf_r+0x1390>
    c00023a4:	1190                	addi	a2,sp,224
    c00023a6:	85a6                	mv	a1,s1
    c00023a8:	854e                	mv	a0,s3
    c00023aa:	00005097          	auipc	ra,0x5
    c00023ae:	abe080e7          	jalr	-1346(ra) # c0006e68 <__sprint_r>
    c00023b2:	2e051a63          	bnez	a0,c00026a6 <_vfprintf_r+0x167c>
    c00023b6:	128c                	addi	a1,sp,352
    c00023b8:	489d                	li	a7,7
    c00023ba:	3ac1                	addiw	s5,s5,-16
    c00023bc:	8c2e                	mv	s8,a1
    c00023be:	bdad                	j	c0002238 <_vfprintf_r+0x120e>
    c00023c0:	0a0d0563          	beqz	s10,c000246a <_vfprintf_r+0x1440>
    c00023c4:	3d7d                	addiw	s10,s10,-1
    c00023c6:	67a6                	ld	a5,72(sp)
    c00023c8:	7762                	ld	a4,56(sp)
    c00023ca:	0c41                	addi	s8,s8,16
    c00023cc:	fefc3823          	sd	a5,-16(s8)
    c00023d0:	77e2                	ld	a5,56(sp)
    c00023d2:	fefc3c23          	sd	a5,-8(s8)
    c00023d6:	77ce                	ld	a5,240(sp)
    c00023d8:	97ba                	add	a5,a5,a4
    c00023da:	f9be                	sd	a5,240(sp)
    c00023dc:	57ae                	lw	a5,232(sp)
    c00023de:	0017871b          	addiw	a4,a5,1
    c00023e2:	d5ba                	sw	a4,232(sp)
    c00023e4:	00eddd63          	ble	a4,s11,c00023fe <_vfprintf_r+0x13d4>
    c00023e8:	1190                	addi	a2,sp,224
    c00023ea:	85a6                	mv	a1,s1
    c00023ec:	854e                	mv	a0,s3
    c00023ee:	00005097          	auipc	ra,0x5
    c00023f2:	a7a080e7          	jalr	-1414(ra) # c0006e68 <__sprint_r>
    c00023f6:	2a051863          	bnez	a0,c00026a6 <_vfprintf_r+0x167c>
    c00023fa:	16010c13          	addi	s8,sp,352
    c00023fe:	6702                	ld	a4,0(sp)
    c0002400:	415c87bb          	subw	a5,s9,s5
    c0002404:	00074703          	lbu	a4,0(a4)
    c0002408:	00e7d463          	ble	a4,a5,c0002410 <_vfprintf_r+0x13e6>
    c000240c:	0007871b          	sext.w	a4,a5
    c0002410:	02e05d63          	blez	a4,c000244a <_vfprintf_r+0x1420>
    c0002414:	77ce                	ld	a5,240(sp)
    c0002416:	015c3023          	sd	s5,0(s8)
    c000241a:	00ec3423          	sd	a4,8(s8)
    c000241e:	97ba                	add	a5,a5,a4
    c0002420:	f9be                	sd	a5,240(sp)
    c0002422:	57ae                	lw	a5,232(sp)
    c0002424:	0c41                	addi	s8,s8,16
    c0002426:	0017869b          	addiw	a3,a5,1
    c000242a:	d5b6                	sw	a3,232(sp)
    c000242c:	00dddf63          	ble	a3,s11,c000244a <_vfprintf_r+0x1420>
    c0002430:	1190                	addi	a2,sp,224
    c0002432:	85a6                	mv	a1,s1
    c0002434:	854e                	mv	a0,s3
    c0002436:	f0ba                	sd	a4,96(sp)
    c0002438:	00005097          	auipc	ra,0x5
    c000243c:	a30080e7          	jalr	-1488(ra) # c0006e68 <__sprint_r>
    c0002440:	26051363          	bnez	a0,c00026a6 <_vfprintf_r+0x167c>
    c0002444:	7706                	ld	a4,96(sp)
    c0002446:	16010c13          	addi	s8,sp,352
    c000244a:	86ba                	mv	a3,a4
    c000244c:	00075363          	bgez	a4,c0002452 <_vfprintf_r+0x1428>
    c0002450:	4681                	li	a3,0
    c0002452:	6782                	ld	a5,0(sp)
    c0002454:	4841                	li	a6,16
    c0002456:	0007c783          	lbu	a5,0(a5)
    c000245a:	9f95                	subw	a5,a5,a3
    c000245c:	04f04863          	bgtz	a5,c00024ac <_vfprintf_r+0x1482>
    c0002460:	6782                	ld	a5,0(sp)
    c0002462:	0007c783          	lbu	a5,0(a5)
    c0002466:	9abe                	add	s5,s5,a5
    c0002468:	b525                	j	c0002290 <_vfprintf_r+0x1266>
    c000246a:	6782                	ld	a5,0(sp)
    c000246c:	3bfd                	addiw	s7,s7,-1
    c000246e:	17fd                	addi	a5,a5,-1
    c0002470:	e03e                	sd	a5,0(sp)
    c0002472:	bf91                	j	c00023c6 <_vfprintf_r+0x139c>
    c0002474:	00007517          	auipc	a0,0x7
    c0002478:	e5450513          	addi	a0,a0,-428 # c00092c8 <zeroes.4827>
    c000247c:	0741                	addi	a4,a4,16
    c000247e:	00ac3023          	sd	a0,0(s8)
    c0002482:	010c3423          	sd	a6,8(s8)
    c0002486:	f9ba                	sd	a4,240(sp)
    c0002488:	d5b6                	sw	a3,232(sp)
    c000248a:	00cddf63          	ble	a2,s11,c00024a8 <_vfprintf_r+0x147e>
    c000248e:	1190                	addi	a2,sp,224
    c0002490:	85a6                	mv	a1,s1
    c0002492:	854e                	mv	a0,s3
    c0002494:	f0be                	sd	a5,96(sp)
    c0002496:	00005097          	auipc	ra,0x5
    c000249a:	9d2080e7          	jalr	-1582(ra) # c0006e68 <__sprint_r>
    c000249e:	20051463          	bnez	a0,c00026a6 <_vfprintf_r+0x167c>
    c00024a2:	7786                	ld	a5,96(sp)
    c00024a4:	128c                	addi	a1,sp,352
    c00024a6:	4841                	li	a6,16
    c00024a8:	37c1                	addiw	a5,a5,-16
    c00024aa:	8c2e                	mv	s8,a1
    c00024ac:	56ae                	lw	a3,232(sp)
    c00024ae:	774e                	ld	a4,240(sp)
    c00024b0:	010c0593          	addi	a1,s8,16
    c00024b4:	0016861b          	addiw	a2,a3,1
    c00024b8:	86b2                	mv	a3,a2
    c00024ba:	faf84de3          	blt	a6,a5,c0002474 <_vfprintf_r+0x144a>
    c00024be:	00fc3423          	sd	a5,8(s8)
    c00024c2:	00007697          	auipc	a3,0x7
    c00024c6:	e0668693          	addi	a3,a3,-506 # c00092c8 <zeroes.4827>
    c00024ca:	97ba                	add	a5,a5,a4
    c00024cc:	00dc3023          	sd	a3,0(s8)
    c00024d0:	f9be                	sd	a5,240(sp)
    c00024d2:	d5b2                	sw	a2,232(sp)
    c00024d4:	8c2e                	mv	s8,a1
    c00024d6:	f8cdd5e3          	ble	a2,s11,c0002460 <_vfprintf_r+0x1436>
    c00024da:	1190                	addi	a2,sp,224
    c00024dc:	85a6                	mv	a1,s1
    c00024de:	854e                	mv	a0,s3
    c00024e0:	00005097          	auipc	ra,0x5
    c00024e4:	988080e7          	jalr	-1656(ra) # c0006e68 <__sprint_r>
    c00024e8:	1a051f63          	bnez	a0,c00026a6 <_vfprintf_r+0x167c>
    c00024ec:	16010c13          	addi	s8,sp,352
    c00024f0:	bf85                	j	c0002460 <_vfprintf_r+0x1436>
    c00024f2:	57ae                	lw	a5,232(sp)
    c00024f4:	4605                	li	a2,1
    c00024f6:	012c3023          	sd	s2,0(s8)
    c00024fa:	0017869b          	addiw	a3,a5,1
    c00024fe:	0705                	addi	a4,a4,1
    c0002500:	87b6                	mv	a5,a3
    c0002502:	010c0b93          	addi	s7,s8,16
    c0002506:	01464663          	blt	a2,s4,c0002512 <_vfprintf_r+0x14e8>
    c000250a:	00147593          	andi	a1,s0,1
    c000250e:	14058063          	beqz	a1,c000264e <_vfprintf_r+0x1624>
    c0002512:	4605                	li	a2,1
    c0002514:	d5be                	sw	a5,232(sp)
    c0002516:	00cc3423          	sd	a2,8(s8)
    c000251a:	f9ba                	sd	a4,240(sp)
    c000251c:	479d                	li	a5,7
    c000251e:	00d7dd63          	ble	a3,a5,c0002538 <_vfprintf_r+0x150e>
    c0002522:	1190                	addi	a2,sp,224
    c0002524:	85a6                	mv	a1,s1
    c0002526:	854e                	mv	a0,s3
    c0002528:	00005097          	auipc	ra,0x5
    c000252c:	940080e7          	jalr	-1728(ra) # c0006e68 <__sprint_r>
    c0002530:	16051b63          	bnez	a0,c00026a6 <_vfprintf_r+0x167c>
    c0002534:	16010b93          	addi	s7,sp,352
    c0002538:	6786                	ld	a5,64(sp)
    c000253a:	6742                	ld	a4,16(sp)
    c000253c:	0bc1                	addi	s7,s7,16
    c000253e:	fefbb823          	sd	a5,-16(s7)
    c0002542:	67c2                	ld	a5,16(sp)
    c0002544:	fefbbc23          	sd	a5,-8(s7)
    c0002548:	77ce                	ld	a5,240(sp)
    c000254a:	97ba                	add	a5,a5,a4
    c000254c:	f9be                	sd	a5,240(sp)
    c000254e:	57ae                	lw	a5,232(sp)
    c0002550:	0017871b          	addiw	a4,a5,1
    c0002554:	d5ba                	sw	a4,232(sp)
    c0002556:	479d                	li	a5,7
    c0002558:	00e7dd63          	ble	a4,a5,c0002572 <_vfprintf_r+0x1548>
    c000255c:	1190                	addi	a2,sp,224
    c000255e:	85a6                	mv	a1,s1
    c0002560:	854e                	mv	a0,s3
    c0002562:	00005097          	auipc	ra,0x5
    c0002566:	906080e7          	jalr	-1786(ra) # c0006e68 <__sprint_r>
    c000256a:	12051e63          	bnez	a0,c00026a6 <_vfprintf_r+0x167c>
    c000256e:	16010b93          	addi	s7,sp,352
    c0002572:	654e                	ld	a0,208(sp)
    c0002574:	65ee                	ld	a1,216(sp)
    c0002576:	4601                	li	a2,0
    c0002578:	4681                	li	a3,0
    c000257a:	fffa0a9b          	addiw	s5,s4,-1
    c000257e:	00005097          	auipc	ra,0x5
    c0002582:	528080e7          	jalr	1320(ra) # c0007aa6 <__eqtf2>
    c0002586:	c125                	beqz	a0,c00025e6 <_vfprintf_r+0x15bc>
    c0002588:	57ae                	lw	a5,232(sp)
    c000258a:	774e                	ld	a4,240(sp)
    c000258c:	015bb423          	sd	s5,8(s7)
    c0002590:	0017869b          	addiw	a3,a5,1
    c0002594:	0905                	addi	s2,s2,1
    c0002596:	9aba                	add	s5,s5,a4
    c0002598:	012bb023          	sd	s2,0(s7)
    c000259c:	f9d6                	sd	s5,240(sp)
    c000259e:	d5b6                	sw	a3,232(sp)
    c00025a0:	479d                	li	a5,7
    c00025a2:	0bc1                	addi	s7,s7,16
    c00025a4:	00d7dc63          	ble	a3,a5,c00025bc <_vfprintf_r+0x1592>
    c00025a8:	1190                	addi	a2,sp,224
    c00025aa:	85a6                	mv	a1,s1
    c00025ac:	854e                	mv	a0,s3
    c00025ae:	00005097          	auipc	ra,0x5
    c00025b2:	8ba080e7          	jalr	-1862(ra) # c0006e68 <__sprint_r>
    c00025b6:	e965                	bnez	a0,c00026a6 <_vfprintf_r+0x167c>
    c00025b8:	16010b93          	addi	s7,sp,352
    c00025bc:	019c                	addi	a5,sp,192
    c00025be:	00fbb023          	sd	a5,0(s7)
    c00025c2:	67c6                	ld	a5,80(sp)
    c00025c4:	6746                	ld	a4,80(sp)
    c00025c6:	010b8c13          	addi	s8,s7,16
    c00025ca:	00fbb423          	sd	a5,8(s7)
    c00025ce:	77ce                	ld	a5,240(sp)
    c00025d0:	97ba                	add	a5,a5,a4
    c00025d2:	f9be                	sd	a5,240(sp)
    c00025d4:	57ae                	lw	a5,232(sp)
    c00025d6:	0017871b          	addiw	a4,a5,1
    c00025da:	d5ba                	sw	a4,232(sp)
    c00025dc:	479d                	li	a5,7
    c00025de:	b8e7dbe3          	ble	a4,a5,c0002174 <_vfprintf_r+0x114a>
    c00025e2:	fd5fe06f          	j	c00015b6 <_vfprintf_r+0x58c>
    c00025e6:	fd505be3          	blez	s5,c00025bc <_vfprintf_r+0x1592>
    c00025ea:	4941                	li	s2,16
    c00025ec:	4d1d                	li	s10,7
    c00025ee:	572e                	lw	a4,232(sp)
    c00025f0:	77ce                	ld	a5,240(sp)
    c00025f2:	010b8613          	addi	a2,s7,16
    c00025f6:	0017069b          	addiw	a3,a4,1
    c00025fa:	8736                	mv	a4,a3
    c00025fc:	03594063          	blt	s2,s5,c000261c <_vfprintf_r+0x15f2>
    c0002600:	015bb423          	sd	s5,8(s7)
    c0002604:	00007717          	auipc	a4,0x7
    c0002608:	cc470713          	addi	a4,a4,-828 # c00092c8 <zeroes.4827>
    c000260c:	9abe                	add	s5,s5,a5
    c000260e:	00ebb023          	sd	a4,0(s7)
    c0002612:	f9d6                	sd	s5,240(sp)
    c0002614:	d5b6                	sw	a3,232(sp)
    c0002616:	479d                	li	a5,7
    c0002618:	8bb2                	mv	s7,a2
    c000261a:	b769                	j	c00025a4 <_vfprintf_r+0x157a>
    c000261c:	00007597          	auipc	a1,0x7
    c0002620:	cac58593          	addi	a1,a1,-852 # c00092c8 <zeroes.4827>
    c0002624:	07c1                	addi	a5,a5,16
    c0002626:	00bbb023          	sd	a1,0(s7)
    c000262a:	012bb423          	sd	s2,8(s7)
    c000262e:	f9be                	sd	a5,240(sp)
    c0002630:	d5ba                	sw	a4,232(sp)
    c0002632:	00dd5b63          	ble	a3,s10,c0002648 <_vfprintf_r+0x161e>
    c0002636:	1190                	addi	a2,sp,224
    c0002638:	85a6                	mv	a1,s1
    c000263a:	854e                	mv	a0,s3
    c000263c:	00005097          	auipc	ra,0x5
    c0002640:	82c080e7          	jalr	-2004(ra) # c0006e68 <__sprint_r>
    c0002644:	e12d                	bnez	a0,c00026a6 <_vfprintf_r+0x167c>
    c0002646:	1290                	addi	a2,sp,352
    c0002648:	3ac1                	addiw	s5,s5,-16
    c000264a:	8bb2                	mv	s7,a2
    c000264c:	b74d                	j	c00025ee <_vfprintf_r+0x15c4>
    c000264e:	00cc3423          	sd	a2,8(s8)
    c0002652:	f9ba                	sd	a4,240(sp)
    c0002654:	d5b6                	sw	a3,232(sp)
    c0002656:	479d                	li	a5,7
    c0002658:	b7b1                	j	c00025a4 <_vfprintf_r+0x157a>
    c000265a:	7782                	ld	a5,32(sp)
    c000265c:	7742                	ld	a4,48(sp)
    c000265e:	40e7843b          	subw	s0,a5,a4
    c0002662:	b0805ce3          	blez	s0,c000217a <_vfprintf_r+0x1150>
    c0002666:	4ac1                	li	s5,16
    c0002668:	00007917          	auipc	s2,0x7
    c000266c:	c5090913          	addi	s2,s2,-944 # c00092b8 <blanks.4826>
    c0002670:	4b9d                	li	s7,7
    c0002672:	572e                	lw	a4,232(sp)
    c0002674:	012c3023          	sd	s2,0(s8)
    c0002678:	77ce                	ld	a5,240(sp)
    c000267a:	0017069b          	addiw	a3,a4,1
    c000267e:	8736                	mv	a4,a3
    c0002680:	028acd63          	blt	s5,s0,c00026ba <_vfprintf_r+0x1690>
    c0002684:	008c3423          	sd	s0,8(s8)
    c0002688:	943e                	add	s0,s0,a5
    c000268a:	f9a2                	sd	s0,240(sp)
    c000268c:	d5b6                	sw	a3,232(sp)
    c000268e:	479d                	li	a5,7
    c0002690:	aed7d5e3          	ble	a3,a5,c000217a <_vfprintf_r+0x1150>
    c0002694:	1190                	addi	a2,sp,224
    c0002696:	85a6                	mv	a1,s1
    c0002698:	854e                	mv	a0,s3
    c000269a:	00004097          	auipc	ra,0x4
    c000269e:	7ce080e7          	jalr	1998(ra) # c0006e68 <__sprint_r>
    c00026a2:	ac050ce3          	beqz	a0,c000217a <_vfprintf_r+0x1150>
    c00026a6:	8a0b0563          	beqz	s6,c0001750 <_vfprintf_r+0x726>
    c00026aa:	85da                	mv	a1,s6
    c00026ac:	854e                	mv	a0,s3
    c00026ae:	00000097          	auipc	ra,0x0
    c00026b2:	72c080e7          	jalr	1836(ra) # c0002dda <_free_r>
    c00026b6:	89aff06f          	j	c0001750 <_vfprintf_r+0x726>
    c00026ba:	07c1                	addi	a5,a5,16
    c00026bc:	015c3423          	sd	s5,8(s8)
    c00026c0:	f9be                	sd	a5,240(sp)
    c00026c2:	d5ba                	sw	a4,232(sp)
    c00026c4:	0c41                	addi	s8,s8,16
    c00026c6:	00dbdc63          	ble	a3,s7,c00026de <_vfprintf_r+0x16b4>
    c00026ca:	1190                	addi	a2,sp,224
    c00026cc:	85a6                	mv	a1,s1
    c00026ce:	854e                	mv	a0,s3
    c00026d0:	00004097          	auipc	ra,0x4
    c00026d4:	798080e7          	jalr	1944(ra) # c0006e68 <__sprint_r>
    c00026d8:	f579                	bnez	a0,c00026a6 <_vfprintf_r+0x167c>
    c00026da:	16010c13          	addi	s8,sp,352
    c00026de:	3441                	addiw	s0,s0,-16
    c00026e0:	bf49                	j	c0002672 <_vfprintf_r+0x1648>
    c00026e2:	85da                	mv	a1,s6
    c00026e4:	854e                	mv	a0,s3
    c00026e6:	00000097          	auipc	ra,0x0
    c00026ea:	6f4080e7          	jalr	1780(ra) # c0002dda <_free_r>
    c00026ee:	bc6d                	j	c00021a8 <_vfprintf_r+0x117e>
    c00026f0:	77ce                	ld	a5,240(sp)
    c00026f2:	e781                	bnez	a5,c00026fa <_vfprintf_r+0x16d0>
    c00026f4:	d582                	sw	zero,232(sp)
    c00026f6:	85aff06f          	j	c0001750 <_vfprintf_r+0x726>
    c00026fa:	1190                	addi	a2,sp,224
    c00026fc:	85a6                	mv	a1,s1
    c00026fe:	854e                	mv	a0,s3
    c0002700:	00004097          	auipc	ra,0x4
    c0002704:	768080e7          	jalr	1896(ra) # c0006e68 <__sprint_r>
    c0002708:	d575                	beqz	a0,c00026f4 <_vfprintf_r+0x16ca>
    c000270a:	846ff06f          	j	c0001750 <_vfprintf_r+0x726>
    c000270e:	57fd                	li	a5,-1
    c0002710:	e8fd9a63          	bne	s11,a5,c0001da4 <_vfprintf_r+0xd7a>
    c0002714:	47a5                	li	a5,9
    c0002716:	ef67e563          	bltu	a5,s6,c0001e00 <_vfprintf_r+0xdd6>
    c000271a:	030b0b1b          	addiw	s6,s6,48
    c000271e:	15610da3          	sb	s6,347(sp)
    c0002722:	15b10913          	addi	s2,sp,347
    c0002726:	ec0ff06f          	j	c0001de6 <_vfprintf_r+0xdbc>

00000000c000272a <__sbprintf>:
    c000272a:	0105d783          	lhu	a5,16(a1)
    c000272e:	b1010113          	addi	sp,sp,-1264
    c0002732:	4d213823          	sd	s2,1232(sp)
    c0002736:	9bf5                	andi	a5,a5,-3
    c0002738:	02f11423          	sh	a5,40(sp)
    c000273c:	0b05a783          	lw	a5,176(a1)
    c0002740:	892a                	mv	s2,a0
    c0002742:	1928                	addi	a0,sp,184
    c0002744:	c5be                	sw	a5,200(sp)
    c0002746:	0125d783          	lhu	a5,18(a1)
    c000274a:	4e113423          	sd	ra,1256(sp)
    c000274e:	4e813023          	sd	s0,1248(sp)
    c0002752:	02f11523          	sh	a5,42(sp)
    c0002756:	799c                	ld	a5,48(a1)
    c0002758:	4c913c23          	sd	s1,1240(sp)
    c000275c:	842e                	mv	s0,a1
    c000275e:	e4be                	sd	a5,72(sp)
    c0002760:	61bc                	ld	a5,64(a1)
    c0002762:	e432                	sd	a2,8(sp)
    c0002764:	e036                	sd	a3,0(sp)
    c0002766:	ecbe                	sd	a5,88(sp)
    c0002768:	099c                	addi	a5,sp,208
    c000276a:	ec3e                	sd	a5,24(sp)
    c000276c:	f83e                	sd	a5,48(sp)
    c000276e:	40000793          	li	a5,1024
    c0002772:	d23e                	sw	a5,36(sp)
    c0002774:	dc3e                	sw	a5,56(sp)
    c0002776:	c082                	sw	zero,64(sp)
    c0002778:	ffffe097          	auipc	ra,0xffffe
    c000277c:	dbe080e7          	jalr	-578(ra) # c0000536 <_lock_init_recursive>
    c0002780:	6682                	ld	a3,0(sp)
    c0002782:	6622                	ld	a2,8(sp)
    c0002784:	082c                	addi	a1,sp,24
    c0002786:	854a                	mv	a0,s2
    c0002788:	fffff097          	auipc	ra,0xfffff
    c000278c:	8a2080e7          	jalr	-1886(ra) # c000102a <_vfprintf_r>
    c0002790:	84aa                	mv	s1,a0
    c0002792:	00054a63          	bltz	a0,c00027a6 <__sbprintf+0x7c>
    c0002796:	082c                	addi	a1,sp,24
    c0002798:	854a                	mv	a0,s2
    c000279a:	00000097          	auipc	ra,0x0
    c000279e:	362080e7          	jalr	866(ra) # c0002afc <_fflush_r>
    c00027a2:	c111                	beqz	a0,c00027a6 <__sbprintf+0x7c>
    c00027a4:	54fd                	li	s1,-1
    c00027a6:	02815783          	lhu	a5,40(sp)
    c00027aa:	0407f793          	andi	a5,a5,64
    c00027ae:	c799                	beqz	a5,c00027bc <__sbprintf+0x92>
    c00027b0:	01045783          	lhu	a5,16(s0)
    c00027b4:	0407e793          	ori	a5,a5,64
    c00027b8:	00f41823          	sh	a5,16(s0)
    c00027bc:	1928                	addi	a0,sp,184
    c00027be:	ffffe097          	auipc	ra,0xffffe
    c00027c2:	d7a080e7          	jalr	-646(ra) # c0000538 <_lock_close_recursive>
    c00027c6:	4e813083          	ld	ra,1256(sp)
    c00027ca:	4e013403          	ld	s0,1248(sp)
    c00027ce:	8526                	mv	a0,s1
    c00027d0:	4d013903          	ld	s2,1232(sp)
    c00027d4:	4d813483          	ld	s1,1240(sp)
    c00027d8:	4f010113          	addi	sp,sp,1264
    c00027dc:	8082                	ret

00000000c00027de <__swbuf_r>:
    c00027de:	7179                	addi	sp,sp,-48
    c00027e0:	f022                	sd	s0,32(sp)
    c00027e2:	ec26                	sd	s1,24(sp)
    c00027e4:	e84a                	sd	s2,16(sp)
    c00027e6:	f406                	sd	ra,40(sp)
    c00027e8:	e44e                	sd	s3,8(sp)
    c00027ea:	892a                	mv	s2,a0
    c00027ec:	84ae                	mv	s1,a1
    c00027ee:	8432                	mv	s0,a2
    c00027f0:	c519                	beqz	a0,c00027fe <__swbuf_r+0x20>
    c00027f2:	493c                	lw	a5,80(a0)
    c00027f4:	e789                	bnez	a5,c00027fe <__swbuf_r+0x20>
    c00027f6:	00000097          	auipc	ra,0x0
    c00027fa:	48e080e7          	jalr	1166(ra) # c0002c84 <__sinit>
    c00027fe:	541c                	lw	a5,40(s0)
    c0002800:	c45c                	sw	a5,12(s0)
    c0002802:	01045783          	lhu	a5,16(s0)
    c0002806:	8ba1                	andi	a5,a5,8
    c0002808:	cfa5                	beqz	a5,c0002880 <__swbuf_r+0xa2>
    c000280a:	6c1c                	ld	a5,24(s0)
    c000280c:	cbb5                	beqz	a5,c0002880 <__swbuf_r+0xa2>
    c000280e:	01041783          	lh	a5,16(s0)
    c0002812:	0ff4f993          	andi	s3,s1,255
    c0002816:	84ce                	mv	s1,s3
    c0002818:	03279713          	slli	a4,a5,0x32
    c000281c:	06075b63          	bgez	a4,c0002892 <__swbuf_r+0xb4>
    c0002820:	6c1c                	ld	a5,24(s0)
    c0002822:	6008                	ld	a0,0(s0)
    c0002824:	9d1d                	subw	a0,a0,a5
    c0002826:	501c                	lw	a5,32(s0)
    c0002828:	00f54963          	blt	a0,a5,c000283a <__swbuf_r+0x5c>
    c000282c:	85a2                	mv	a1,s0
    c000282e:	854a                	mv	a0,s2
    c0002830:	00000097          	auipc	ra,0x0
    c0002834:	2cc080e7          	jalr	716(ra) # c0002afc <_fflush_r>
    c0002838:	e939                	bnez	a0,c000288e <__swbuf_r+0xb0>
    c000283a:	445c                	lw	a5,12(s0)
    c000283c:	2505                	addiw	a0,a0,1
    c000283e:	37fd                	addiw	a5,a5,-1
    c0002840:	c45c                	sw	a5,12(s0)
    c0002842:	601c                	ld	a5,0(s0)
    c0002844:	00178713          	addi	a4,a5,1
    c0002848:	e018                	sd	a4,0(s0)
    c000284a:	01378023          	sb	s3,0(a5)
    c000284e:	501c                	lw	a5,32(s0)
    c0002850:	00a78963          	beq	a5,a0,c0002862 <__swbuf_r+0x84>
    c0002854:	01045783          	lhu	a5,16(s0)
    c0002858:	8b85                	andi	a5,a5,1
    c000285a:	cb99                	beqz	a5,c0002870 <__swbuf_r+0x92>
    c000285c:	47a9                	li	a5,10
    c000285e:	00f49963          	bne	s1,a5,c0002870 <__swbuf_r+0x92>
    c0002862:	85a2                	mv	a1,s0
    c0002864:	854a                	mv	a0,s2
    c0002866:	00000097          	auipc	ra,0x0
    c000286a:	296080e7          	jalr	662(ra) # c0002afc <_fflush_r>
    c000286e:	e105                	bnez	a0,c000288e <__swbuf_r+0xb0>
    c0002870:	70a2                	ld	ra,40(sp)
    c0002872:	7402                	ld	s0,32(sp)
    c0002874:	8526                	mv	a0,s1
    c0002876:	6942                	ld	s2,16(sp)
    c0002878:	64e2                	ld	s1,24(sp)
    c000287a:	69a2                	ld	s3,8(sp)
    c000287c:	6145                	addi	sp,sp,48
    c000287e:	8082                	ret
    c0002880:	85a2                	mv	a1,s0
    c0002882:	854a                	mv	a0,s2
    c0002884:	00000097          	auipc	ra,0x0
    c0002888:	026080e7          	jalr	38(ra) # c00028aa <__swsetup_r>
    c000288c:	d149                	beqz	a0,c000280e <__swbuf_r+0x30>
    c000288e:	54fd                	li	s1,-1
    c0002890:	b7c5                	j	c0002870 <__swbuf_r+0x92>
    c0002892:	6709                	lui	a4,0x2
    c0002894:	8fd9                	or	a5,a5,a4
    c0002896:	00f41823          	sh	a5,16(s0)
    c000289a:	0b042783          	lw	a5,176(s0)
    c000289e:	7779                	lui	a4,0xffffe
    c00028a0:	177d                	addi	a4,a4,-1
    c00028a2:	8ff9                	and	a5,a5,a4
    c00028a4:	0af42823          	sw	a5,176(s0)
    c00028a8:	bfa5                	j	c0002820 <__swbuf_r+0x42>

00000000c00028aa <__swsetup_r>:
    c00028aa:	1101                	addi	sp,sp,-32
    c00028ac:	00008797          	auipc	a5,0x8
    c00028b0:	22c78793          	addi	a5,a5,556 # c000aad8 <_impure_ptr>
    c00028b4:	e426                	sd	s1,8(sp)
    c00028b6:	84aa                	mv	s1,a0
    c00028b8:	6388                	ld	a0,0(a5)
    c00028ba:	e822                	sd	s0,16(sp)
    c00028bc:	ec06                	sd	ra,24(sp)
    c00028be:	842e                	mv	s0,a1
    c00028c0:	c519                	beqz	a0,c00028ce <__swsetup_r+0x24>
    c00028c2:	493c                	lw	a5,80(a0)
    c00028c4:	e789                	bnez	a5,c00028ce <__swsetup_r+0x24>
    c00028c6:	00000097          	auipc	ra,0x0
    c00028ca:	3be080e7          	jalr	958(ra) # c0002c84 <__sinit>
    c00028ce:	01041703          	lh	a4,16(s0)
    c00028d2:	03071793          	slli	a5,a4,0x30
    c00028d6:	93c1                	srli	a5,a5,0x30
    c00028d8:	0087f693          	andi	a3,a5,8
    c00028dc:	eeb9                	bnez	a3,c000293a <__swsetup_r+0x90>
    c00028de:	0107f693          	andi	a3,a5,16
    c00028e2:	ee89                	bnez	a3,c00028fc <__swsetup_r+0x52>
    c00028e4:	47a5                	li	a5,9
    c00028e6:	c09c                	sw	a5,0(s1)
    c00028e8:	04076713          	ori	a4,a4,64
    c00028ec:	00e41823          	sh	a4,16(s0)
    c00028f0:	557d                	li	a0,-1
    c00028f2:	60e2                	ld	ra,24(sp)
    c00028f4:	6442                	ld	s0,16(sp)
    c00028f6:	64a2                	ld	s1,8(sp)
    c00028f8:	6105                	addi	sp,sp,32
    c00028fa:	8082                	ret
    c00028fc:	8b91                	andi	a5,a5,4
    c00028fe:	cb85                	beqz	a5,c000292e <__swsetup_r+0x84>
    c0002900:	6c2c                	ld	a1,88(s0)
    c0002902:	cd81                	beqz	a1,c000291a <__swsetup_r+0x70>
    c0002904:	07440793          	addi	a5,s0,116
    c0002908:	00f58763          	beq	a1,a5,c0002916 <__swsetup_r+0x6c>
    c000290c:	8526                	mv	a0,s1
    c000290e:	00000097          	auipc	ra,0x0
    c0002912:	4cc080e7          	jalr	1228(ra) # c0002dda <_free_r>
    c0002916:	04043c23          	sd	zero,88(s0)
    c000291a:	01045783          	lhu	a5,16(s0)
    c000291e:	00042423          	sw	zero,8(s0)
    c0002922:	fdb7f793          	andi	a5,a5,-37
    c0002926:	00f41823          	sh	a5,16(s0)
    c000292a:	6c1c                	ld	a5,24(s0)
    c000292c:	e01c                	sd	a5,0(s0)
    c000292e:	01045783          	lhu	a5,16(s0)
    c0002932:	0087e793          	ori	a5,a5,8
    c0002936:	00f41823          	sh	a5,16(s0)
    c000293a:	6c1c                	ld	a5,24(s0)
    c000293c:	ef99                	bnez	a5,c000295a <__swsetup_r+0xb0>
    c000293e:	01045783          	lhu	a5,16(s0)
    c0002942:	20000713          	li	a4,512
    c0002946:	2807f793          	andi	a5,a5,640
    c000294a:	00e78863          	beq	a5,a4,c000295a <__swsetup_r+0xb0>
    c000294e:	85a2                	mv	a1,s0
    c0002950:	8526                	mv	a0,s1
    c0002952:	00002097          	auipc	ra,0x2
    c0002956:	498080e7          	jalr	1176(ra) # c0004dea <__smakebuf_r>
    c000295a:	01045783          	lhu	a5,16(s0)
    c000295e:	0017f713          	andi	a4,a5,1
    c0002962:	c705                	beqz	a4,c000298a <__swsetup_r+0xe0>
    c0002964:	501c                	lw	a5,32(s0)
    c0002966:	00042623          	sw	zero,12(s0)
    c000296a:	40f007bb          	negw	a5,a5
    c000296e:	d41c                	sw	a5,40(s0)
    c0002970:	6c1c                	ld	a5,24(s0)
    c0002972:	4501                	li	a0,0
    c0002974:	ffbd                	bnez	a5,c00028f2 <__swsetup_r+0x48>
    c0002976:	01041783          	lh	a5,16(s0)
    c000297a:	0807f713          	andi	a4,a5,128
    c000297e:	db35                	beqz	a4,c00028f2 <__swsetup_r+0x48>
    c0002980:	0407e793          	ori	a5,a5,64
    c0002984:	00f41823          	sh	a5,16(s0)
    c0002988:	b7a5                	j	c00028f0 <__swsetup_r+0x46>
    c000298a:	8b89                	andi	a5,a5,2
    c000298c:	4701                	li	a4,0
    c000298e:	e391                	bnez	a5,c0002992 <__swsetup_r+0xe8>
    c0002990:	5018                	lw	a4,32(s0)
    c0002992:	c458                	sw	a4,12(s0)
    c0002994:	bff1                	j	c0002970 <__swsetup_r+0xc6>

00000000c0002996 <__sflush_r>:
    c0002996:	01059783          	lh	a5,16(a1)
    c000299a:	7179                	addi	sp,sp,-48
    c000299c:	f022                	sd	s0,32(sp)
    c000299e:	03079713          	slli	a4,a5,0x30
    c00029a2:	9341                	srli	a4,a4,0x30
    c00029a4:	ec26                	sd	s1,24(sp)
    c00029a6:	f406                	sd	ra,40(sp)
    c00029a8:	e84a                	sd	s2,16(sp)
    c00029aa:	e44e                	sd	s3,8(sp)
    c00029ac:	00877693          	andi	a3,a4,8
    c00029b0:	84aa                	mv	s1,a0
    c00029b2:	842e                	mv	s0,a1
    c00029b4:	10069263          	bnez	a3,c0002ab8 <__sflush_r+0x122>
    c00029b8:	6705                	lui	a4,0x1
    c00029ba:	80070713          	addi	a4,a4,-2048 # 800 <main-0xbffff800>
    c00029be:	8fd9                	or	a5,a5,a4
    c00029c0:	4598                	lw	a4,8(a1)
    c00029c2:	00f59823          	sh	a5,16(a1)
    c00029c6:	00e04d63          	bgtz	a4,c00029e0 <__sflush_r+0x4a>
    c00029ca:	59b8                	lw	a4,112(a1)
    c00029cc:	00e04a63          	bgtz	a4,c00029e0 <__sflush_r+0x4a>
    c00029d0:	4501                	li	a0,0
    c00029d2:	70a2                	ld	ra,40(sp)
    c00029d4:	7402                	ld	s0,32(sp)
    c00029d6:	64e2                	ld	s1,24(sp)
    c00029d8:	6942                	ld	s2,16(sp)
    c00029da:	69a2                	ld	s3,8(sp)
    c00029dc:	6145                	addi	sp,sp,48
    c00029de:	8082                	ret
    c00029e0:	6438                	ld	a4,72(s0)
    c00029e2:	d77d                	beqz	a4,c00029d0 <__sflush_r+0x3a>
    c00029e4:	0004a903          	lw	s2,0(s1)
    c00029e8:	03379693          	slli	a3,a5,0x33
    c00029ec:	0004a023          	sw	zero,0(s1)
    c00029f0:	0806da63          	bgez	a3,c0002a84 <__sflush_r+0xee>
    c00029f4:	6850                	ld	a2,144(s0)
    c00029f6:	01045783          	lhu	a5,16(s0)
    c00029fa:	8b91                	andi	a5,a5,4
    c00029fc:	c799                	beqz	a5,c0002a0a <__sflush_r+0x74>
    c00029fe:	441c                	lw	a5,8(s0)
    c0002a00:	8e1d                	sub	a2,a2,a5
    c0002a02:	6c3c                	ld	a5,88(s0)
    c0002a04:	c399                	beqz	a5,c0002a0a <__sflush_r+0x74>
    c0002a06:	583c                	lw	a5,112(s0)
    c0002a08:	8e1d                	sub	a2,a2,a5
    c0002a0a:	643c                	ld	a5,72(s0)
    c0002a0c:	780c                	ld	a1,48(s0)
    c0002a0e:	4681                	li	a3,0
    c0002a10:	8526                	mv	a0,s1
    c0002a12:	9782                	jalr	a5
    c0002a14:	57fd                	li	a5,-1
    c0002a16:	01045683          	lhu	a3,16(s0)
    c0002a1a:	00f51d63          	bne	a0,a5,c0002a34 <__sflush_r+0x9e>
    c0002a1e:	409c                	lw	a5,0(s1)
    c0002a20:	4775                	li	a4,29
    c0002a22:	08f76563          	bltu	a4,a5,c0002aac <__sflush_r+0x116>
    c0002a26:	20400737          	lui	a4,0x20400
    c0002a2a:	0705                	addi	a4,a4,1
    c0002a2c:	00f75733          	srl	a4,a4,a5
    c0002a30:	8b05                	andi	a4,a4,1
    c0002a32:	cf2d                	beqz	a4,c0002aac <__sflush_r+0x116>
    c0002a34:	77fd                	lui	a5,0xfffff
    c0002a36:	7ff78793          	addi	a5,a5,2047 # fffffffffffff7ff <_end+0xffffffff3fff47ff>
    c0002a3a:	6c18                	ld	a4,24(s0)
    c0002a3c:	8ff5                	and	a5,a5,a3
    c0002a3e:	0107979b          	slliw	a5,a5,0x10
    c0002a42:	4107d79b          	sraiw	a5,a5,0x10
    c0002a46:	e018                	sd	a4,0(s0)
    c0002a48:	00f41823          	sh	a5,16(s0)
    c0002a4c:	00042423          	sw	zero,8(s0)
    c0002a50:	03379713          	slli	a4,a5,0x33
    c0002a54:	00075863          	bgez	a4,c0002a64 <__sflush_r+0xce>
    c0002a58:	57fd                	li	a5,-1
    c0002a5a:	00f51463          	bne	a0,a5,c0002a62 <__sflush_r+0xcc>
    c0002a5e:	409c                	lw	a5,0(s1)
    c0002a60:	e391                	bnez	a5,c0002a64 <__sflush_r+0xce>
    c0002a62:	e848                	sd	a0,144(s0)
    c0002a64:	6c2c                	ld	a1,88(s0)
    c0002a66:	0124a023          	sw	s2,0(s1)
    c0002a6a:	d1bd                	beqz	a1,c00029d0 <__sflush_r+0x3a>
    c0002a6c:	07440793          	addi	a5,s0,116
    c0002a70:	00f58763          	beq	a1,a5,c0002a7e <__sflush_r+0xe8>
    c0002a74:	8526                	mv	a0,s1
    c0002a76:	00000097          	auipc	ra,0x0
    c0002a7a:	364080e7          	jalr	868(ra) # c0002dda <_free_r>
    c0002a7e:	04043c23          	sd	zero,88(s0)
    c0002a82:	b7b9                	j	c00029d0 <__sflush_r+0x3a>
    c0002a84:	780c                	ld	a1,48(s0)
    c0002a86:	4601                	li	a2,0
    c0002a88:	4685                	li	a3,1
    c0002a8a:	8526                	mv	a0,s1
    c0002a8c:	9702                	jalr	a4
    c0002a8e:	57fd                	li	a5,-1
    c0002a90:	862a                	mv	a2,a0
    c0002a92:	f6f512e3          	bne	a0,a5,c00029f6 <__sflush_r+0x60>
    c0002a96:	409c                	lw	a5,0(s1)
    c0002a98:	dfb9                	beqz	a5,c00029f6 <__sflush_r+0x60>
    c0002a9a:	4775                	li	a4,29
    c0002a9c:	00e78563          	beq	a5,a4,c0002aa6 <__sflush_r+0x110>
    c0002aa0:	4759                	li	a4,22
    c0002aa2:	04e79463          	bne	a5,a4,c0002aea <__sflush_r+0x154>
    c0002aa6:	0124a023          	sw	s2,0(s1)
    c0002aaa:	b71d                	j	c00029d0 <__sflush_r+0x3a>
    c0002aac:	0406e793          	ori	a5,a3,64
    c0002ab0:	00f41823          	sh	a5,16(s0)
    c0002ab4:	557d                	li	a0,-1
    c0002ab6:	bf31                	j	c00029d2 <__sflush_r+0x3c>
    c0002ab8:	0185b983          	ld	s3,24(a1)
    c0002abc:	f0098ae3          	beqz	s3,c00029d0 <__sflush_r+0x3a>
    c0002ac0:	0005b903          	ld	s2,0(a1)
    c0002ac4:	8b0d                	andi	a4,a4,3
    c0002ac6:	0135b023          	sd	s3,0(a1)
    c0002aca:	4139093b          	subw	s2,s2,s3
    c0002ace:	4781                	li	a5,0
    c0002ad0:	e311                	bnez	a4,c0002ad4 <__sflush_r+0x13e>
    c0002ad2:	519c                	lw	a5,32(a1)
    c0002ad4:	c45c                	sw	a5,12(s0)
    c0002ad6:	ef205de3          	blez	s2,c00029d0 <__sflush_r+0x3a>
    c0002ada:	603c                	ld	a5,64(s0)
    c0002adc:	780c                	ld	a1,48(s0)
    c0002ade:	86ca                	mv	a3,s2
    c0002ae0:	864e                	mv	a2,s3
    c0002ae2:	8526                	mv	a0,s1
    c0002ae4:	9782                	jalr	a5
    c0002ae6:	00a04763          	bgtz	a0,c0002af4 <__sflush_r+0x15e>
    c0002aea:	01045783          	lhu	a5,16(s0)
    c0002aee:	0407e793          	ori	a5,a5,64
    c0002af2:	bf7d                	j	c0002ab0 <__sflush_r+0x11a>
    c0002af4:	99aa                	add	s3,s3,a0
    c0002af6:	40a9093b          	subw	s2,s2,a0
    c0002afa:	bff1                	j	c0002ad6 <__sflush_r+0x140>

00000000c0002afc <_fflush_r>:
    c0002afc:	7179                	addi	sp,sp,-48
    c0002afe:	f022                	sd	s0,32(sp)
    c0002b00:	ec26                	sd	s1,24(sp)
    c0002b02:	f406                	sd	ra,40(sp)
    c0002b04:	e84a                	sd	s2,16(sp)
    c0002b06:	84aa                	mv	s1,a0
    c0002b08:	842e                	mv	s0,a1
    c0002b0a:	c519                	beqz	a0,c0002b18 <_fflush_r+0x1c>
    c0002b0c:	493c                	lw	a5,80(a0)
    c0002b0e:	e789                	bnez	a5,c0002b18 <_fflush_r+0x1c>
    c0002b10:	00000097          	auipc	ra,0x0
    c0002b14:	174080e7          	jalr	372(ra) # c0002c84 <__sinit>
    c0002b18:	01041783          	lh	a5,16(s0)
    c0002b1c:	4901                	li	s2,0
    c0002b1e:	c3b5                	beqz	a5,c0002b82 <_fflush_r+0x86>
    c0002b20:	006c                	addi	a1,sp,12
    c0002b22:	4505                	li	a0,1
    c0002b24:	ffffe097          	auipc	ra,0xffffe
    c0002b28:	a16080e7          	jalr	-1514(ra) # c000053a <pthread_setcancelstate>
    c0002b2c:	0b042783          	lw	a5,176(s0)
    c0002b30:	8b85                	andi	a5,a5,1
    c0002b32:	ef81                	bnez	a5,c0002b4a <_fflush_r+0x4e>
    c0002b34:	01045783          	lhu	a5,16(s0)
    c0002b38:	2007f793          	andi	a5,a5,512
    c0002b3c:	e799                	bnez	a5,c0002b4a <_fflush_r+0x4e>
    c0002b3e:	0a040513          	addi	a0,s0,160
    c0002b42:	ffffe097          	auipc	ra,0xffffe
    c0002b46:	9f0080e7          	jalr	-1552(ra) # c0000532 <_lock_acquire_recursive>
    c0002b4a:	85a2                	mv	a1,s0
    c0002b4c:	8526                	mv	a0,s1
    c0002b4e:	00000097          	auipc	ra,0x0
    c0002b52:	e48080e7          	jalr	-440(ra) # c0002996 <__sflush_r>
    c0002b56:	0b042783          	lw	a5,176(s0)
    c0002b5a:	892a                	mv	s2,a0
    c0002b5c:	8b85                	andi	a5,a5,1
    c0002b5e:	ef81                	bnez	a5,c0002b76 <_fflush_r+0x7a>
    c0002b60:	01045783          	lhu	a5,16(s0)
    c0002b64:	2007f793          	andi	a5,a5,512
    c0002b68:	e799                	bnez	a5,c0002b76 <_fflush_r+0x7a>
    c0002b6a:	0a040513          	addi	a0,s0,160
    c0002b6e:	ffffe097          	auipc	ra,0xffffe
    c0002b72:	9c6080e7          	jalr	-1594(ra) # c0000534 <_lock_release_recursive>
    c0002b76:	4532                	lw	a0,12(sp)
    c0002b78:	006c                	addi	a1,sp,12
    c0002b7a:	ffffe097          	auipc	ra,0xffffe
    c0002b7e:	9c0080e7          	jalr	-1600(ra) # c000053a <pthread_setcancelstate>
    c0002b82:	70a2                	ld	ra,40(sp)
    c0002b84:	7402                	ld	s0,32(sp)
    c0002b86:	854a                	mv	a0,s2
    c0002b88:	64e2                	ld	s1,24(sp)
    c0002b8a:	6942                	ld	s2,16(sp)
    c0002b8c:	6145                	addi	sp,sp,48
    c0002b8e:	8082                	ret

00000000c0002b90 <fflush>:
    c0002b90:	85aa                	mv	a1,a0
    c0002b92:	ed11                	bnez	a0,c0002bae <fflush+0x1e>
    c0002b94:	00007797          	auipc	a5,0x7
    c0002b98:	e1478793          	addi	a5,a5,-492 # c00099a8 <_global_impure_ptr>
    c0002b9c:	6388                	ld	a0,0(a5)
    c0002b9e:	00000597          	auipc	a1,0x0
    c0002ba2:	f5e58593          	addi	a1,a1,-162 # c0002afc <_fflush_r>
    c0002ba6:	00000317          	auipc	t1,0x0
    c0002baa:	7a430067          	jr	1956(t1) # c000334a <_fwalk_reent>
    c0002bae:	00008797          	auipc	a5,0x8
    c0002bb2:	f2a78793          	addi	a5,a5,-214 # c000aad8 <_impure_ptr>
    c0002bb6:	6388                	ld	a0,0(a5)
    c0002bb8:	00000317          	auipc	t1,0x0
    c0002bbc:	f4430067          	jr	-188(t1) # c0002afc <_fflush_r>

00000000c0002bc0 <std>:
    c0002bc0:	1141                	addi	sp,sp,-16
    c0002bc2:	e022                	sd	s0,0(sp)
    c0002bc4:	e406                	sd	ra,8(sp)
    c0002bc6:	842a                	mv	s0,a0
    c0002bc8:	00b51823          	sh	a1,16(a0)
    c0002bcc:	00c51923          	sh	a2,18(a0)
    c0002bd0:	00053023          	sd	zero,0(a0)
    c0002bd4:	00053423          	sd	zero,8(a0)
    c0002bd8:	0a052823          	sw	zero,176(a0)
    c0002bdc:	00053c23          	sd	zero,24(a0)
    c0002be0:	02052023          	sw	zero,32(a0)
    c0002be4:	02052423          	sw	zero,40(a0)
    c0002be8:	4621                	li	a2,8
    c0002bea:	4581                	li	a1,0
    c0002bec:	0a850513          	addi	a0,a0,168
    c0002bf0:	00002097          	auipc	ra,0x2
    c0002bf4:	3fc080e7          	jalr	1020(ra) # c0004fec <memset>
    c0002bf8:	00003797          	auipc	a5,0x3
    c0002bfc:	b6e78793          	addi	a5,a5,-1170 # c0005766 <__sread>
    c0002c00:	fc1c                	sd	a5,56(s0)
    c0002c02:	00003797          	auipc	a5,0x3
    c0002c06:	b9a78793          	addi	a5,a5,-1126 # c000579c <__swrite>
    c0002c0a:	e03c                	sd	a5,64(s0)
    c0002c0c:	00003797          	auipc	a5,0x3
    c0002c10:	bea78793          	addi	a5,a5,-1046 # c00057f6 <__sseek>
    c0002c14:	e43c                	sd	a5,72(s0)
    c0002c16:	00003797          	auipc	a5,0x3
    c0002c1a:	c1c78793          	addi	a5,a5,-996 # c0005832 <__sclose>
    c0002c1e:	f800                	sd	s0,48(s0)
    c0002c20:	e83c                	sd	a5,80(s0)
    c0002c22:	0a040513          	addi	a0,s0,160
    c0002c26:	6402                	ld	s0,0(sp)
    c0002c28:	60a2                	ld	ra,8(sp)
    c0002c2a:	0141                	addi	sp,sp,16
    c0002c2c:	ffffe317          	auipc	t1,0xffffe
    c0002c30:	90a30067          	jr	-1782(t1) # c0000536 <_lock_init_recursive>

00000000c0002c34 <_cleanup_r>:
    c0002c34:	00004597          	auipc	a1,0x4
    c0002c38:	3f258593          	addi	a1,a1,1010 # c0007026 <_fclose_r>
    c0002c3c:	00000317          	auipc	t1,0x0
    c0002c40:	70e30067          	jr	1806(t1) # c000334a <_fwalk_reent>

00000000c0002c44 <__sfp_lock_acquire>:
    c0002c44:	00008517          	auipc	a0,0x8
    c0002c48:	ee450513          	addi	a0,a0,-284 # c000ab28 <__sfp_recursive_mutex>
    c0002c4c:	ffffe317          	auipc	t1,0xffffe
    c0002c50:	8e630067          	jr	-1818(t1) # c0000532 <_lock_acquire_recursive>

00000000c0002c54 <__sfp_lock_release>:
    c0002c54:	00008517          	auipc	a0,0x8
    c0002c58:	ed450513          	addi	a0,a0,-300 # c000ab28 <__sfp_recursive_mutex>
    c0002c5c:	ffffe317          	auipc	t1,0xffffe
    c0002c60:	8d830067          	jr	-1832(t1) # c0000534 <_lock_release_recursive>

00000000c0002c64 <__sinit_lock_acquire>:
    c0002c64:	00008517          	auipc	a0,0x8
    c0002c68:	ecc50513          	addi	a0,a0,-308 # c000ab30 <__sinit_recursive_mutex>
    c0002c6c:	ffffe317          	auipc	t1,0xffffe
    c0002c70:	8c630067          	jr	-1850(t1) # c0000532 <_lock_acquire_recursive>

00000000c0002c74 <__sinit_lock_release>:
    c0002c74:	00008517          	auipc	a0,0x8
    c0002c78:	ebc50513          	addi	a0,a0,-324 # c000ab30 <__sinit_recursive_mutex>
    c0002c7c:	ffffe317          	auipc	t1,0xffffe
    c0002c80:	8b830067          	jr	-1864(t1) # c0000534 <_lock_release_recursive>

00000000c0002c84 <__sinit>:
    c0002c84:	1141                	addi	sp,sp,-16
    c0002c86:	e022                	sd	s0,0(sp)
    c0002c88:	e406                	sd	ra,8(sp)
    c0002c8a:	842a                	mv	s0,a0
    c0002c8c:	00000097          	auipc	ra,0x0
    c0002c90:	fd8080e7          	jalr	-40(ra) # c0002c64 <__sinit_lock_acquire>
    c0002c94:	483c                	lw	a5,80(s0)
    c0002c96:	cb81                	beqz	a5,c0002ca6 <__sinit+0x22>
    c0002c98:	6402                	ld	s0,0(sp)
    c0002c9a:	60a2                	ld	ra,8(sp)
    c0002c9c:	0141                	addi	sp,sp,16
    c0002c9e:	00000317          	auipc	t1,0x0
    c0002ca2:	fd630067          	jr	-42(t1) # c0002c74 <__sinit_lock_release>
    c0002ca6:	00000797          	auipc	a5,0x0
    c0002caa:	f8e78793          	addi	a5,a5,-114 # c0002c34 <_cleanup_r>
    c0002cae:	ec3c                	sd	a5,88(s0)
    c0002cb0:	6408                	ld	a0,8(s0)
    c0002cb2:	478d                	li	a5,3
    c0002cb4:	52f42423          	sw	a5,1320(s0)
    c0002cb8:	53840793          	addi	a5,s0,1336
    c0002cbc:	52f43823          	sd	a5,1328(s0)
    c0002cc0:	4601                	li	a2,0
    c0002cc2:	4591                	li	a1,4
    c0002cc4:	52043023          	sd	zero,1312(s0)
    c0002cc8:	00000097          	auipc	ra,0x0
    c0002ccc:	ef8080e7          	jalr	-264(ra) # c0002bc0 <std>
    c0002cd0:	6808                	ld	a0,16(s0)
    c0002cd2:	4605                	li	a2,1
    c0002cd4:	45a5                	li	a1,9
    c0002cd6:	00000097          	auipc	ra,0x0
    c0002cda:	eea080e7          	jalr	-278(ra) # c0002bc0 <std>
    c0002cde:	6c08                	ld	a0,24(s0)
    c0002ce0:	4609                	li	a2,2
    c0002ce2:	45c9                	li	a1,18
    c0002ce4:	00000097          	auipc	ra,0x0
    c0002ce8:	edc080e7          	jalr	-292(ra) # c0002bc0 <std>
    c0002cec:	4785                	li	a5,1
    c0002cee:	c83c                	sw	a5,80(s0)
    c0002cf0:	b765                	j	c0002c98 <__sinit+0x14>

00000000c0002cf2 <_malloc_trim_r>:
    c0002cf2:	7179                	addi	sp,sp,-48
    c0002cf4:	f022                	sd	s0,32(sp)
    c0002cf6:	ec26                	sd	s1,24(sp)
    c0002cf8:	e84a                	sd	s2,16(sp)
    c0002cfa:	e44e                	sd	s3,8(sp)
    c0002cfc:	842e                	mv	s0,a1
    c0002cfe:	f406                	sd	ra,40(sp)
    c0002d00:	892a                	mv	s2,a0
    c0002d02:	00007997          	auipc	s3,0x7
    c0002d06:	41e98993          	addi	s3,s3,1054 # c000a120 <__malloc_av_>
    c0002d0a:	ffffe097          	auipc	ra,0xffffe
    c0002d0e:	f7a080e7          	jalr	-134(ra) # c0000c84 <__malloc_lock>
    c0002d12:	0109b783          	ld	a5,16(s3)
    c0002d16:	6705                	lui	a4,0x1
    c0002d18:	6784                	ld	s1,8(a5)
    c0002d1a:	fdf70793          	addi	a5,a4,-33 # fdf <main-0xbffff021>
    c0002d1e:	40878433          	sub	s0,a5,s0
    c0002d22:	98f1                	andi	s1,s1,-4
    c0002d24:	9426                	add	s0,s0,s1
    c0002d26:	8031                	srli	s0,s0,0xc
    c0002d28:	147d                	addi	s0,s0,-1
    c0002d2a:	0432                	slli	s0,s0,0xc
    c0002d2c:	00e45f63          	ble	a4,s0,c0002d4a <_malloc_trim_r+0x58>
    c0002d30:	854a                	mv	a0,s2
    c0002d32:	ffffe097          	auipc	ra,0xffffe
    c0002d36:	f62080e7          	jalr	-158(ra) # c0000c94 <__malloc_unlock>
    c0002d3a:	4501                	li	a0,0
    c0002d3c:	70a2                	ld	ra,40(sp)
    c0002d3e:	7402                	ld	s0,32(sp)
    c0002d40:	64e2                	ld	s1,24(sp)
    c0002d42:	6942                	ld	s2,16(sp)
    c0002d44:	69a2                	ld	s3,8(sp)
    c0002d46:	6145                	addi	sp,sp,48
    c0002d48:	8082                	ret
    c0002d4a:	4581                	li	a1,0
    c0002d4c:	854a                	mv	a0,s2
    c0002d4e:	ffffe097          	auipc	ra,0xffffe
    c0002d52:	198080e7          	jalr	408(ra) # c0000ee6 <_sbrk_r>
    c0002d56:	0109b783          	ld	a5,16(s3)
    c0002d5a:	97a6                	add	a5,a5,s1
    c0002d5c:	fcf51ae3          	bne	a0,a5,c0002d30 <_malloc_trim_r+0x3e>
    c0002d60:	408005b3          	neg	a1,s0
    c0002d64:	854a                	mv	a0,s2
    c0002d66:	ffffe097          	auipc	ra,0xffffe
    c0002d6a:	180080e7          	jalr	384(ra) # c0000ee6 <_sbrk_r>
    c0002d6e:	57fd                	li	a5,-1
    c0002d70:	02f51d63          	bne	a0,a5,c0002daa <_malloc_trim_r+0xb8>
    c0002d74:	4581                	li	a1,0
    c0002d76:	854a                	mv	a0,s2
    c0002d78:	ffffe097          	auipc	ra,0xffffe
    c0002d7c:	16e080e7          	jalr	366(ra) # c0000ee6 <_sbrk_r>
    c0002d80:	0109b703          	ld	a4,16(s3)
    c0002d84:	46fd                	li	a3,31
    c0002d86:	40e507b3          	sub	a5,a0,a4
    c0002d8a:	faf6d3e3          	ble	a5,a3,c0002d30 <_malloc_trim_r+0x3e>
    c0002d8e:	00008697          	auipc	a3,0x8
    c0002d92:	d5268693          	addi	a3,a3,-686 # c000aae0 <__malloc_sbrk_base>
    c0002d96:	6294                	ld	a3,0(a3)
    c0002d98:	0017e793          	ori	a5,a5,1
    c0002d9c:	e71c                	sd	a5,8(a4)
    c0002d9e:	8d15                	sub	a0,a0,a3
    c0002da0:	00008697          	auipc	a3,0x8
    c0002da4:	20a6a423          	sw	a0,520(a3) # c000afa8 <__malloc_current_mallinfo>
    c0002da8:	b761                	j	c0002d30 <_malloc_trim_r+0x3e>
    c0002daa:	0109b783          	ld	a5,16(s3)
    c0002dae:	8c81                	sub	s1,s1,s0
    c0002db0:	0014e493          	ori	s1,s1,1
    c0002db4:	e784                	sd	s1,8(a5)
    c0002db6:	00008797          	auipc	a5,0x8
    c0002dba:	1f278793          	addi	a5,a5,498 # c000afa8 <__malloc_current_mallinfo>
    c0002dbe:	439c                	lw	a5,0(a5)
    c0002dc0:	854a                	mv	a0,s2
    c0002dc2:	4087843b          	subw	s0,a5,s0
    c0002dc6:	00008797          	auipc	a5,0x8
    c0002dca:	1e87a123          	sw	s0,482(a5) # c000afa8 <__malloc_current_mallinfo>
    c0002dce:	ffffe097          	auipc	ra,0xffffe
    c0002dd2:	ec6080e7          	jalr	-314(ra) # c0000c94 <__malloc_unlock>
    c0002dd6:	4505                	li	a0,1
    c0002dd8:	b795                	j	c0002d3c <_malloc_trim_r+0x4a>

00000000c0002dda <_free_r>:
    c0002dda:	1e058663          	beqz	a1,c0002fc6 <_free_r+0x1ec>
    c0002dde:	1101                	addi	sp,sp,-32
    c0002de0:	e822                	sd	s0,16(sp)
    c0002de2:	e426                	sd	s1,8(sp)
    c0002de4:	842a                	mv	s0,a0
    c0002de6:	84ae                	mv	s1,a1
    c0002de8:	ec06                	sd	ra,24(sp)
    c0002dea:	ffffe097          	auipc	ra,0xffffe
    c0002dee:	e9a080e7          	jalr	-358(ra) # c0000c84 <__malloc_lock>
    c0002df2:	ff84b583          	ld	a1,-8(s1)
    c0002df6:	ff048693          	addi	a3,s1,-16
    c0002dfa:	00007517          	auipc	a0,0x7
    c0002dfe:	32650513          	addi	a0,a0,806 # c000a120 <__malloc_av_>
    c0002e02:	ffe5f793          	andi	a5,a1,-2
    c0002e06:	00f68633          	add	a2,a3,a5
    c0002e0a:	6618                	ld	a4,8(a2)
    c0002e0c:	01053803          	ld	a6,16(a0)
    c0002e10:	8985                	andi	a1,a1,1
    c0002e12:	9b71                	andi	a4,a4,-4
    c0002e14:	04c81d63          	bne	a6,a2,c0002e6e <_free_r+0x94>
    c0002e18:	97ba                	add	a5,a5,a4
    c0002e1a:	e989                	bnez	a1,c0002e2c <_free_r+0x52>
    c0002e1c:	ff04b703          	ld	a4,-16(s1)
    c0002e20:	8e99                	sub	a3,a3,a4
    c0002e22:	6a90                	ld	a2,16(a3)
    c0002e24:	97ba                	add	a5,a5,a4
    c0002e26:	6e98                	ld	a4,24(a3)
    c0002e28:	ee18                	sd	a4,24(a2)
    c0002e2a:	eb10                	sd	a2,16(a4)
    c0002e2c:	0017e713          	ori	a4,a5,1
    c0002e30:	e698                	sd	a4,8(a3)
    c0002e32:	00007717          	auipc	a4,0x7
    c0002e36:	2ed73f23          	sd	a3,766(a4) # c000a130 <__malloc_av_+0x10>
    c0002e3a:	00008717          	auipc	a4,0x8
    c0002e3e:	cae70713          	addi	a4,a4,-850 # c000aae8 <__malloc_trim_threshold>
    c0002e42:	6318                	ld	a4,0(a4)
    c0002e44:	00e7ec63          	bltu	a5,a4,c0002e5c <_free_r+0x82>
    c0002e48:	00008797          	auipc	a5,0x8
    c0002e4c:	cd078793          	addi	a5,a5,-816 # c000ab18 <__malloc_top_pad>
    c0002e50:	638c                	ld	a1,0(a5)
    c0002e52:	8522                	mv	a0,s0
    c0002e54:	00000097          	auipc	ra,0x0
    c0002e58:	e9e080e7          	jalr	-354(ra) # c0002cf2 <_malloc_trim_r>
    c0002e5c:	8522                	mv	a0,s0
    c0002e5e:	6442                	ld	s0,16(sp)
    c0002e60:	60e2                	ld	ra,24(sp)
    c0002e62:	64a2                	ld	s1,8(sp)
    c0002e64:	6105                	addi	sp,sp,32
    c0002e66:	ffffe317          	auipc	t1,0xffffe
    c0002e6a:	e2e30067          	jr	-466(t1) # c0000c94 <__malloc_unlock>
    c0002e6e:	e618                	sd	a4,8(a2)
    c0002e70:	4801                	li	a6,0
    c0002e72:	e195                	bnez	a1,c0002e96 <_free_r+0xbc>
    c0002e74:	ff04b583          	ld	a1,-16(s1)
    c0002e78:	00007897          	auipc	a7,0x7
    c0002e7c:	2b888893          	addi	a7,a7,696 # c000a130 <__malloc_av_+0x10>
    c0002e80:	8e8d                	sub	a3,a3,a1
    c0002e82:	97ae                	add	a5,a5,a1
    c0002e84:	6a8c                	ld	a1,16(a3)
    c0002e86:	09158a63          	beq	a1,a7,c0002f1a <_free_r+0x140>
    c0002e8a:	0186b883          	ld	a7,24(a3)
    c0002e8e:	0115bc23          	sd	a7,24(a1)
    c0002e92:	00b8b823          	sd	a1,16(a7)
    c0002e96:	00e605b3          	add	a1,a2,a4
    c0002e9a:	658c                	ld	a1,8(a1)
    c0002e9c:	8985                	andi	a1,a1,1
    c0002e9e:	e595                	bnez	a1,c0002eca <_free_r+0xf0>
    c0002ea0:	97ba                	add	a5,a5,a4
    c0002ea2:	6a18                	ld	a4,16(a2)
    c0002ea4:	06081d63          	bnez	a6,c0002f1e <_free_r+0x144>
    c0002ea8:	00007597          	auipc	a1,0x7
    c0002eac:	28858593          	addi	a1,a1,648 # c000a130 <__malloc_av_+0x10>
    c0002eb0:	06b71763          	bne	a4,a1,c0002f1e <_free_r+0x144>
    c0002eb4:	00007617          	auipc	a2,0x7
    c0002eb8:	28d63a23          	sd	a3,660(a2) # c000a148 <__malloc_av_+0x28>
    c0002ebc:	00007617          	auipc	a2,0x7
    c0002ec0:	28d63223          	sd	a3,644(a2) # c000a140 <__malloc_av_+0x20>
    c0002ec4:	ee98                	sd	a4,24(a3)
    c0002ec6:	ea98                	sd	a4,16(a3)
    c0002ec8:	4805                	li	a6,1
    c0002eca:	0017e713          	ori	a4,a5,1
    c0002ece:	e698                	sd	a4,8(a3)
    c0002ed0:	00f68733          	add	a4,a3,a5
    c0002ed4:	e31c                	sd	a5,0(a4)
    c0002ed6:	f80813e3          	bnez	a6,c0002e5c <_free_r+0x82>
    c0002eda:	1ff00713          	li	a4,511
    c0002ede:	04f76463          	bltu	a4,a5,c0002f26 <_free_r+0x14c>
    c0002ee2:	0037d713          	srli	a4,a5,0x3
    c0002ee6:	2701                	sext.w	a4,a4
    c0002ee8:	4027561b          	sraiw	a2,a4,0x2
    c0002eec:	4785                	li	a5,1
    c0002eee:	00c797b3          	sll	a5,a5,a2
    c0002ef2:	6510                	ld	a2,8(a0)
    c0002ef4:	8fd1                	or	a5,a5,a2
    c0002ef6:	00007617          	auipc	a2,0x7
    c0002efa:	22f63923          	sd	a5,562(a2) # c000a128 <__malloc_av_+0x8>
    c0002efe:	0017079b          	addiw	a5,a4,1
    c0002f02:	0017979b          	slliw	a5,a5,0x1
    c0002f06:	078e                	slli	a5,a5,0x3
    c0002f08:	97aa                	add	a5,a5,a0
    c0002f0a:	6398                	ld	a4,0(a5)
    c0002f0c:	ff078613          	addi	a2,a5,-16
    c0002f10:	ee90                	sd	a2,24(a3)
    c0002f12:	ea98                	sd	a4,16(a3)
    c0002f14:	e394                	sd	a3,0(a5)
    c0002f16:	ef14                	sd	a3,24(a4)
    c0002f18:	b791                	j	c0002e5c <_free_r+0x82>
    c0002f1a:	4805                	li	a6,1
    c0002f1c:	bfad                	j	c0002e96 <_free_r+0xbc>
    c0002f1e:	6e10                	ld	a2,24(a2)
    c0002f20:	ef10                	sd	a2,24(a4)
    c0002f22:	ea18                	sd	a4,16(a2)
    c0002f24:	b75d                	j	c0002eca <_free_r+0xf0>
    c0002f26:	0097d613          	srli	a2,a5,0x9
    c0002f2a:	4711                	li	a4,4
    c0002f2c:	04c76163          	bltu	a4,a2,c0002f6e <_free_r+0x194>
    c0002f30:	0067d713          	srli	a4,a5,0x6
    c0002f34:	0387071b          	addiw	a4,a4,56
    c0002f38:	0017061b          	addiw	a2,a4,1
    c0002f3c:	0016161b          	slliw	a2,a2,0x1
    c0002f40:	060e                	slli	a2,a2,0x3
    c0002f42:	962a                	add	a2,a2,a0
    c0002f44:	ff060593          	addi	a1,a2,-16
    c0002f48:	6210                	ld	a2,0(a2)
    c0002f4a:	06c59863          	bne	a1,a2,c0002fba <_free_r+0x1e0>
    c0002f4e:	4785                	li	a5,1
    c0002f50:	4027571b          	sraiw	a4,a4,0x2
    c0002f54:	00e79733          	sll	a4,a5,a4
    c0002f58:	651c                	ld	a5,8(a0)
    c0002f5a:	8f5d                	or	a4,a4,a5
    c0002f5c:	00007797          	auipc	a5,0x7
    c0002f60:	1ce7b623          	sd	a4,460(a5) # c000a128 <__malloc_av_+0x8>
    c0002f64:	ee8c                	sd	a1,24(a3)
    c0002f66:	ea90                	sd	a2,16(a3)
    c0002f68:	e994                	sd	a3,16(a1)
    c0002f6a:	ee14                	sd	a3,24(a2)
    c0002f6c:	bdc5                	j	c0002e5c <_free_r+0x82>
    c0002f6e:	4751                	li	a4,20
    c0002f70:	00c76563          	bltu	a4,a2,c0002f7a <_free_r+0x1a0>
    c0002f74:	05b6071b          	addiw	a4,a2,91
    c0002f78:	b7c1                	j	c0002f38 <_free_r+0x15e>
    c0002f7a:	05400713          	li	a4,84
    c0002f7e:	00c76763          	bltu	a4,a2,c0002f8c <_free_r+0x1b2>
    c0002f82:	00c7d713          	srli	a4,a5,0xc
    c0002f86:	06e7071b          	addiw	a4,a4,110
    c0002f8a:	b77d                	j	c0002f38 <_free_r+0x15e>
    c0002f8c:	15400713          	li	a4,340
    c0002f90:	00c76763          	bltu	a4,a2,c0002f9e <_free_r+0x1c4>
    c0002f94:	00f7d713          	srli	a4,a5,0xf
    c0002f98:	0777071b          	addiw	a4,a4,119
    c0002f9c:	bf71                	j	c0002f38 <_free_r+0x15e>
    c0002f9e:	55400593          	li	a1,1364
    c0002fa2:	07e00713          	li	a4,126
    c0002fa6:	f8c5e9e3          	bltu	a1,a2,c0002f38 <_free_r+0x15e>
    c0002faa:	0127d713          	srli	a4,a5,0x12
    c0002fae:	07c7071b          	addiw	a4,a4,124
    c0002fb2:	b759                	j	c0002f38 <_free_r+0x15e>
    c0002fb4:	6a10                	ld	a2,16(a2)
    c0002fb6:	00c58663          	beq	a1,a2,c0002fc2 <_free_r+0x1e8>
    c0002fba:	6618                	ld	a4,8(a2)
    c0002fbc:	9b71                	andi	a4,a4,-4
    c0002fbe:	fee7ebe3          	bltu	a5,a4,c0002fb4 <_free_r+0x1da>
    c0002fc2:	6e0c                	ld	a1,24(a2)
    c0002fc4:	b745                	j	c0002f64 <_free_r+0x18a>
    c0002fc6:	8082                	ret

00000000c0002fc8 <__sfvwrite_r>:
    c0002fc8:	6a1c                	ld	a5,16(a2)
    c0002fca:	e781                	bnez	a5,c0002fd2 <__sfvwrite_r+0xa>
    c0002fcc:	4781                	li	a5,0
    c0002fce:	853e                	mv	a0,a5
    c0002fd0:	8082                	ret
    c0002fd2:	0105d783          	lhu	a5,16(a1)
    c0002fd6:	7119                	addi	sp,sp,-128
    c0002fd8:	f8a2                	sd	s0,112(sp)
    c0002fda:	f0ca                	sd	s2,96(sp)
    c0002fdc:	e8d2                	sd	s4,80(sp)
    c0002fde:	fc86                	sd	ra,120(sp)
    c0002fe0:	f4a6                	sd	s1,104(sp)
    c0002fe2:	ecce                	sd	s3,88(sp)
    c0002fe4:	e4d6                	sd	s5,72(sp)
    c0002fe6:	e0da                	sd	s6,64(sp)
    c0002fe8:	fc5e                	sd	s7,56(sp)
    c0002fea:	f862                	sd	s8,48(sp)
    c0002fec:	f466                	sd	s9,40(sp)
    c0002fee:	f06a                	sd	s10,32(sp)
    c0002ff0:	ec6e                	sd	s11,24(sp)
    c0002ff2:	8ba1                	andi	a5,a5,8
    c0002ff4:	8a32                	mv	s4,a2
    c0002ff6:	842e                	mv	s0,a1
    c0002ff8:	892a                	mv	s2,a0
    c0002ffa:	c7d5                	beqz	a5,c00030a6 <__sfvwrite_r+0xde>
    c0002ffc:	6d9c                	ld	a5,24(a1)
    c0002ffe:	c7c5                	beqz	a5,c00030a6 <__sfvwrite_r+0xde>
    c0003000:	01045783          	lhu	a5,16(s0)
    c0003004:	000a3983          	ld	s3,0(s4)
    c0003008:	0027f713          	andi	a4,a5,2
    c000300c:	10071263          	bnez	a4,c0003110 <__sfvwrite_r+0x148>
    c0003010:	8b85                	andi	a5,a5,1
    c0003012:	4a81                	li	s5,0
    c0003014:	18078063          	beqz	a5,c0003194 <__sfvwrite_r+0x1cc>
    c0003018:	4501                	li	a0,0
    c000301a:	4b81                	li	s7,0
    c000301c:	4b01                	li	s6,0
    c000301e:	280b0063          	beqz	s6,c000329e <__sfvwrite_r+0x2d6>
    c0003022:	ed09                	bnez	a0,c000303c <__sfvwrite_r+0x74>
    c0003024:	865a                	mv	a2,s6
    c0003026:	45a9                	li	a1,10
    c0003028:	855e                	mv	a0,s7
    c000302a:	00002097          	auipc	ra,0x2
    c000302e:	ea8080e7          	jalr	-344(ra) # c0004ed2 <memchr>
    c0003032:	26050d63          	beqz	a0,c00032ac <__sfvwrite_r+0x2e4>
    c0003036:	0505                	addi	a0,a0,1
    c0003038:	41750abb          	subw	s5,a0,s7
    c000303c:	8c56                	mv	s8,s5
    c000303e:	015b7363          	bleu	s5,s6,c0003044 <__sfvwrite_r+0x7c>
    c0003042:	8c5a                	mv	s8,s6
    c0003044:	6008                	ld	a0,0(s0)
    c0003046:	6c1c                	ld	a5,24(s0)
    c0003048:	5014                	lw	a3,32(s0)
    c000304a:	26a7f463          	bleu	a0,a5,c00032b2 <__sfvwrite_r+0x2ea>
    c000304e:	4444                	lw	s1,12(s0)
    c0003050:	9cb5                	addw	s1,s1,a3
    c0003052:	2784d063          	ble	s8,s1,c00032b2 <__sfvwrite_r+0x2ea>
    c0003056:	85de                	mv	a1,s7
    c0003058:	8626                	mv	a2,s1
    c000305a:	00002097          	auipc	ra,0x2
    c000305e:	f48080e7          	jalr	-184(ra) # c0004fa2 <memmove>
    c0003062:	601c                	ld	a5,0(s0)
    c0003064:	85a2                	mv	a1,s0
    c0003066:	854a                	mv	a0,s2
    c0003068:	97a6                	add	a5,a5,s1
    c000306a:	e01c                	sd	a5,0(s0)
    c000306c:	00000097          	auipc	ra,0x0
    c0003070:	a90080e7          	jalr	-1392(ra) # c0002afc <_fflush_r>
    c0003074:	10051863          	bnez	a0,c0003184 <__sfvwrite_r+0x1bc>
    c0003078:	409a8abb          	subw	s5,s5,s1
    c000307c:	4505                	li	a0,1
    c000307e:	000a9963          	bnez	s5,c0003090 <__sfvwrite_r+0xc8>
    c0003082:	85a2                	mv	a1,s0
    c0003084:	854a                	mv	a0,s2
    c0003086:	00000097          	auipc	ra,0x0
    c000308a:	a76080e7          	jalr	-1418(ra) # c0002afc <_fflush_r>
    c000308e:	e97d                	bnez	a0,c0003184 <__sfvwrite_r+0x1bc>
    c0003090:	010a3783          	ld	a5,16(s4)
    c0003094:	9ba6                	add	s7,s7,s1
    c0003096:	409b0b33          	sub	s6,s6,s1
    c000309a:	409784b3          	sub	s1,a5,s1
    c000309e:	009a3823          	sd	s1,16(s4)
    c00030a2:	fcb5                	bnez	s1,c000301e <__sfvwrite_r+0x56>
    c00030a4:	a0a9                	j	c00030ee <__sfvwrite_r+0x126>
    c00030a6:	85a2                	mv	a1,s0
    c00030a8:	854a                	mv	a0,s2
    c00030aa:	00000097          	auipc	ra,0x0
    c00030ae:	800080e7          	jalr	-2048(ra) # c00028aa <__swsetup_r>
    c00030b2:	57fd                	li	a5,-1
    c00030b4:	d531                	beqz	a0,c0003000 <__sfvwrite_r+0x38>
    c00030b6:	a82d                	j	c00030f0 <__sfvwrite_r+0x128>
    c00030b8:	0009ba83          	ld	s5,0(s3)
    c00030bc:	0089b483          	ld	s1,8(s3)
    c00030c0:	09c1                	addi	s3,s3,16
    c00030c2:	d8fd                	beqz	s1,c00030b8 <__sfvwrite_r+0xf0>
    c00030c4:	86a6                	mv	a3,s1
    c00030c6:	009b7363          	bleu	s1,s6,c00030cc <__sfvwrite_r+0x104>
    c00030ca:	86da                	mv	a3,s6
    c00030cc:	603c                	ld	a5,64(s0)
    c00030ce:	780c                	ld	a1,48(s0)
    c00030d0:	2681                	sext.w	a3,a3
    c00030d2:	8656                	mv	a2,s5
    c00030d4:	854a                	mv	a0,s2
    c00030d6:	9782                	jalr	a5
    c00030d8:	0aa05663          	blez	a0,c0003184 <__sfvwrite_r+0x1bc>
    c00030dc:	010a3783          	ld	a5,16(s4)
    c00030e0:	9aaa                	add	s5,s5,a0
    c00030e2:	8c89                	sub	s1,s1,a0
    c00030e4:	40a78533          	sub	a0,a5,a0
    c00030e8:	00aa3823          	sd	a0,16(s4)
    c00030ec:	f979                	bnez	a0,c00030c2 <__sfvwrite_r+0xfa>
    c00030ee:	4781                	li	a5,0
    c00030f0:	70e6                	ld	ra,120(sp)
    c00030f2:	7446                	ld	s0,112(sp)
    c00030f4:	74a6                	ld	s1,104(sp)
    c00030f6:	7906                	ld	s2,96(sp)
    c00030f8:	69e6                	ld	s3,88(sp)
    c00030fa:	6a46                	ld	s4,80(sp)
    c00030fc:	6aa6                	ld	s5,72(sp)
    c00030fe:	6b06                	ld	s6,64(sp)
    c0003100:	7be2                	ld	s7,56(sp)
    c0003102:	7c42                	ld	s8,48(sp)
    c0003104:	7ca2                	ld	s9,40(sp)
    c0003106:	7d02                	ld	s10,32(sp)
    c0003108:	6de2                	ld	s11,24(sp)
    c000310a:	853e                	mv	a0,a5
    c000310c:	6109                	addi	sp,sp,128
    c000310e:	8082                	ret
    c0003110:	80000b37          	lui	s6,0x80000
    c0003114:	4a81                	li	s5,0
    c0003116:	4481                	li	s1,0
    c0003118:	c00b4b13          	xori	s6,s6,-1024
    c000311c:	b75d                	j	c00030c2 <__sfvwrite_r+0xfa>
    c000311e:	0009ba83          	ld	s5,0(s3)
    c0003122:	0089bd03          	ld	s10,8(s3)
    c0003126:	09c1                	addi	s3,s3,16
    c0003128:	4444                	lw	s1,12(s0)
    c000312a:	87a6                	mv	a5,s1
    c000312c:	fe0d09e3          	beqz	s10,c000311e <__sfvwrite_r+0x156>
    c0003130:	01045703          	lhu	a4,16(s0)
    c0003134:	6008                	ld	a0,0(s0)
    c0003136:	20077693          	andi	a3,a4,512
    c000313a:	10068263          	beqz	a3,c000323e <__sfvwrite_r+0x276>
    c000313e:	089d6d63          	bltu	s10,s1,c00031d8 <__sfvwrite_r+0x210>
    c0003142:	48077693          	andi	a3,a4,1152
    c0003146:	cac9                	beqz	a3,c00031d8 <__sfvwrite_r+0x210>
    c0003148:	5004                	lw	s1,32(s0)
    c000314a:	6c0c                	ld	a1,24(s0)
    c000314c:	029c04bb          	mulw	s1,s8,s1
    c0003150:	8d0d                	sub	a0,a0,a1
    c0003152:	00050d9b          	sext.w	s11,a0
    c0003156:	001d8793          	addi	a5,s11,1
    c000315a:	97ea                	add	a5,a5,s10
    c000315c:	0394c4bb          	divw	s1,s1,s9
    c0003160:	00f4f563          	bleu	a5,s1,c000316a <__sfvwrite_r+0x1a2>
    c0003164:	2505                	addiw	a0,a0,1
    c0003166:	01a504bb          	addw	s1,a0,s10
    c000316a:	40077713          	andi	a4,a4,1024
    c000316e:	c35d                	beqz	a4,c0003214 <__sfvwrite_r+0x24c>
    c0003170:	85a6                	mv	a1,s1
    c0003172:	854a                	mv	a0,s2
    c0003174:	ffffd097          	auipc	ra,0xffffd
    c0003178:	58e080e7          	jalr	1422(ra) # c0000702 <_malloc_r>
    c000317c:	e515                	bnez	a0,c00031a8 <__sfvwrite_r+0x1e0>
    c000317e:	47b1                	li	a5,12
    c0003180:	00f92023          	sw	a5,0(s2)
    c0003184:	01045783          	lhu	a5,16(s0)
    c0003188:	0407e793          	ori	a5,a5,64
    c000318c:	00f41823          	sh	a5,16(s0)
    c0003190:	57fd                	li	a5,-1
    c0003192:	bfb9                	j	c00030f0 <__sfvwrite_r+0x128>
    c0003194:	80000b37          	lui	s6,0x80000
    c0003198:	ffeb4b93          	xori	s7,s6,-2
    c000319c:	4d01                	li	s10,0
    c000319e:	fffb4b13          	not	s6,s6
    c00031a2:	4c0d                	li	s8,3
    c00031a4:	4c89                	li	s9,2
    c00031a6:	b749                	j	c0003128 <__sfvwrite_r+0x160>
    c00031a8:	6c0c                	ld	a1,24(s0)
    c00031aa:	866e                	mv	a2,s11
    c00031ac:	e42a                	sd	a0,8(sp)
    c00031ae:	00002097          	auipc	ra,0x2
    c00031b2:	d3e080e7          	jalr	-706(ra) # c0004eec <memcpy>
    c00031b6:	01045703          	lhu	a4,16(s0)
    c00031ba:	67a2                	ld	a5,8(sp)
    c00031bc:	b7f77713          	andi	a4,a4,-1153
    c00031c0:	08076713          	ori	a4,a4,128
    c00031c4:	00e41823          	sh	a4,16(s0)
    c00031c8:	ec1c                	sd	a5,24(s0)
    c00031ca:	d004                	sw	s1,32(s0)
    c00031cc:	97ee                	add	a5,a5,s11
    c00031ce:	41b484bb          	subw	s1,s1,s11
    c00031d2:	e01c                	sd	a5,0(s0)
    c00031d4:	c444                	sw	s1,12(s0)
    c00031d6:	87ea                	mv	a5,s10
    c00031d8:	84ea                	mv	s1,s10
    c00031da:	00fd7363          	bleu	a5,s10,c00031e0 <__sfvwrite_r+0x218>
    c00031de:	87ea                	mv	a5,s10
    c00031e0:	6008                	ld	a0,0(s0)
    c00031e2:	863e                	mv	a2,a5
    c00031e4:	85d6                	mv	a1,s5
    c00031e6:	e43e                	sd	a5,8(sp)
    c00031e8:	00002097          	auipc	ra,0x2
    c00031ec:	dba080e7          	jalr	-582(ra) # c0004fa2 <memmove>
    c00031f0:	4458                	lw	a4,12(s0)
    c00031f2:	67a2                	ld	a5,8(sp)
    c00031f4:	9f1d                	subw	a4,a4,a5
    c00031f6:	c458                	sw	a4,12(s0)
    c00031f8:	6018                	ld	a4,0(s0)
    c00031fa:	97ba                	add	a5,a5,a4
    c00031fc:	e01c                	sd	a5,0(s0)
    c00031fe:	010a3783          	ld	a5,16(s4)
    c0003202:	9aa6                	add	s5,s5,s1
    c0003204:	409d0d33          	sub	s10,s10,s1
    c0003208:	409784b3          	sub	s1,a5,s1
    c000320c:	009a3823          	sd	s1,16(s4)
    c0003210:	fc81                	bnez	s1,c0003128 <__sfvwrite_r+0x160>
    c0003212:	bdf1                	j	c00030ee <__sfvwrite_r+0x126>
    c0003214:	8626                	mv	a2,s1
    c0003216:	854a                	mv	a0,s2
    c0003218:	00002097          	auipc	ra,0x2
    c000321c:	efe080e7          	jalr	-258(ra) # c0005116 <_realloc_r>
    c0003220:	87aa                	mv	a5,a0
    c0003222:	f15d                	bnez	a0,c00031c8 <__sfvwrite_r+0x200>
    c0003224:	6c0c                	ld	a1,24(s0)
    c0003226:	854a                	mv	a0,s2
    c0003228:	00000097          	auipc	ra,0x0
    c000322c:	bb2080e7          	jalr	-1102(ra) # c0002dda <_free_r>
    c0003230:	01045783          	lhu	a5,16(s0)
    c0003234:	f7f7f793          	andi	a5,a5,-129
    c0003238:	00f41823          	sh	a5,16(s0)
    c000323c:	b789                	j	c000317e <__sfvwrite_r+0x1b6>
    c000323e:	6c1c                	ld	a5,24(s0)
    c0003240:	00a7e563          	bltu	a5,a0,c000324a <__sfvwrite_r+0x282>
    c0003244:	5014                	lw	a3,32(s0)
    c0003246:	02dd7b63          	bleu	a3,s10,c000327c <__sfvwrite_r+0x2b4>
    c000324a:	009d7363          	bleu	s1,s10,c0003250 <__sfvwrite_r+0x288>
    c000324e:	84ea                	mv	s1,s10
    c0003250:	8626                	mv	a2,s1
    c0003252:	85d6                	mv	a1,s5
    c0003254:	00002097          	auipc	ra,0x2
    c0003258:	d4e080e7          	jalr	-690(ra) # c0004fa2 <memmove>
    c000325c:	445c                	lw	a5,12(s0)
    c000325e:	4097873b          	subw	a4,a5,s1
    c0003262:	601c                	ld	a5,0(s0)
    c0003264:	c458                	sw	a4,12(s0)
    c0003266:	97a6                	add	a5,a5,s1
    c0003268:	e01c                	sd	a5,0(s0)
    c000326a:	fb51                	bnez	a4,c00031fe <__sfvwrite_r+0x236>
    c000326c:	85a2                	mv	a1,s0
    c000326e:	854a                	mv	a0,s2
    c0003270:	00000097          	auipc	ra,0x0
    c0003274:	88c080e7          	jalr	-1908(ra) # c0002afc <_fflush_r>
    c0003278:	d159                	beqz	a0,c00031fe <__sfvwrite_r+0x236>
    c000327a:	b729                	j	c0003184 <__sfvwrite_r+0x1bc>
    c000327c:	87ea                	mv	a5,s10
    c000327e:	01abf363          	bleu	s10,s7,c0003284 <__sfvwrite_r+0x2bc>
    c0003282:	87da                	mv	a5,s6
    c0003284:	02d7c7bb          	divw	a5,a5,a3
    c0003288:	6038                	ld	a4,64(s0)
    c000328a:	780c                	ld	a1,48(s0)
    c000328c:	8656                	mv	a2,s5
    c000328e:	854a                	mv	a0,s2
    c0003290:	02d786bb          	mulw	a3,a5,a3
    c0003294:	9702                	jalr	a4
    c0003296:	84aa                	mv	s1,a0
    c0003298:	f6a043e3          	bgtz	a0,c00031fe <__sfvwrite_r+0x236>
    c000329c:	b5e5                	j	c0003184 <__sfvwrite_r+0x1bc>
    c000329e:	0009bb83          	ld	s7,0(s3)
    c00032a2:	0089bb03          	ld	s6,8(s3)
    c00032a6:	4501                	li	a0,0
    c00032a8:	09c1                	addi	s3,s3,16
    c00032aa:	bb95                	j	c000301e <__sfvwrite_r+0x56>
    c00032ac:	001b0a9b          	addiw	s5,s6,1
    c00032b0:	b371                	j	c000303c <__sfvwrite_r+0x74>
    c00032b2:	00dc4b63          	blt	s8,a3,c00032c8 <__sfvwrite_r+0x300>
    c00032b6:	603c                	ld	a5,64(s0)
    c00032b8:	780c                	ld	a1,48(s0)
    c00032ba:	865e                	mv	a2,s7
    c00032bc:	854a                	mv	a0,s2
    c00032be:	9782                	jalr	a5
    c00032c0:	84aa                	mv	s1,a0
    c00032c2:	daa04be3          	bgtz	a0,c0003078 <__sfvwrite_r+0xb0>
    c00032c6:	bd7d                	j	c0003184 <__sfvwrite_r+0x1bc>
    c00032c8:	8662                	mv	a2,s8
    c00032ca:	85de                	mv	a1,s7
    c00032cc:	00002097          	auipc	ra,0x2
    c00032d0:	cd6080e7          	jalr	-810(ra) # c0004fa2 <memmove>
    c00032d4:	445c                	lw	a5,12(s0)
    c00032d6:	84e2                	mv	s1,s8
    c00032d8:	418787bb          	subw	a5,a5,s8
    c00032dc:	c45c                	sw	a5,12(s0)
    c00032de:	601c                	ld	a5,0(s0)
    c00032e0:	97e2                	add	a5,a5,s8
    c00032e2:	e01c                	sd	a5,0(s0)
    c00032e4:	bb51                	j	c0003078 <__sfvwrite_r+0xb0>

00000000c00032e6 <_fwalk>:
    c00032e6:	715d                	addi	sp,sp,-80
    c00032e8:	e0a2                	sd	s0,64(sp)
    c00032ea:	fc26                	sd	s1,56(sp)
    c00032ec:	f052                	sd	s4,32(sp)
    c00032ee:	ec56                	sd	s5,24(sp)
    c00032f0:	e486                	sd	ra,72(sp)
    c00032f2:	f84a                	sd	s2,48(sp)
    c00032f4:	f44e                	sd	s3,40(sp)
    c00032f6:	52050493          	addi	s1,a0,1312
    c00032fa:	4401                	li	s0,0
    c00032fc:	4a05                	li	s4,1
    c00032fe:	5afd                	li	s5,-1
    c0003300:	e899                	bnez	s1,c0003316 <_fwalk+0x30>
    c0003302:	8522                	mv	a0,s0
    c0003304:	60a6                	ld	ra,72(sp)
    c0003306:	6406                	ld	s0,64(sp)
    c0003308:	74e2                	ld	s1,56(sp)
    c000330a:	7942                	ld	s2,48(sp)
    c000330c:	79a2                	ld	s3,40(sp)
    c000330e:	7a02                	ld	s4,32(sp)
    c0003310:	6ae2                	ld	s5,24(sp)
    c0003312:	6161                	addi	sp,sp,80
    c0003314:	8082                	ret
    c0003316:	0104b903          	ld	s2,16(s1)
    c000331a:	0084a983          	lw	s3,8(s1)
    c000331e:	39fd                	addiw	s3,s3,-1
    c0003320:	0009d463          	bgez	s3,c0003328 <_fwalk+0x42>
    c0003324:	6084                	ld	s1,0(s1)
    c0003326:	bfe9                	j	c0003300 <_fwalk+0x1a>
    c0003328:	01095783          	lhu	a5,16(s2)
    c000332c:	00fa7c63          	bleu	a5,s4,c0003344 <_fwalk+0x5e>
    c0003330:	01291783          	lh	a5,18(s2)
    c0003334:	01578863          	beq	a5,s5,c0003344 <_fwalk+0x5e>
    c0003338:	854a                	mv	a0,s2
    c000333a:	e42e                	sd	a1,8(sp)
    c000333c:	9582                	jalr	a1
    c000333e:	65a2                	ld	a1,8(sp)
    c0003340:	8c49                	or	s0,s0,a0
    c0003342:	2401                	sext.w	s0,s0
    c0003344:	0b890913          	addi	s2,s2,184
    c0003348:	bfd9                	j	c000331e <_fwalk+0x38>

00000000c000334a <_fwalk_reent>:
    c000334a:	715d                	addi	sp,sp,-80
    c000334c:	e0a2                	sd	s0,64(sp)
    c000334e:	fc26                	sd	s1,56(sp)
    c0003350:	f052                	sd	s4,32(sp)
    c0003352:	ec56                	sd	s5,24(sp)
    c0003354:	e85a                	sd	s6,16(sp)
    c0003356:	e45e                	sd	s7,8(sp)
    c0003358:	e486                	sd	ra,72(sp)
    c000335a:	f84a                	sd	s2,48(sp)
    c000335c:	f44e                	sd	s3,40(sp)
    c000335e:	8a2a                	mv	s4,a0
    c0003360:	8aae                	mv	s5,a1
    c0003362:	52050493          	addi	s1,a0,1312
    c0003366:	4401                	li	s0,0
    c0003368:	4b05                	li	s6,1
    c000336a:	5bfd                	li	s7,-1
    c000336c:	ec89                	bnez	s1,c0003386 <_fwalk_reent+0x3c>
    c000336e:	8522                	mv	a0,s0
    c0003370:	60a6                	ld	ra,72(sp)
    c0003372:	6406                	ld	s0,64(sp)
    c0003374:	74e2                	ld	s1,56(sp)
    c0003376:	7942                	ld	s2,48(sp)
    c0003378:	79a2                	ld	s3,40(sp)
    c000337a:	7a02                	ld	s4,32(sp)
    c000337c:	6ae2                	ld	s5,24(sp)
    c000337e:	6b42                	ld	s6,16(sp)
    c0003380:	6ba2                	ld	s7,8(sp)
    c0003382:	6161                	addi	sp,sp,80
    c0003384:	8082                	ret
    c0003386:	0104b903          	ld	s2,16(s1)
    c000338a:	0084a983          	lw	s3,8(s1)
    c000338e:	39fd                	addiw	s3,s3,-1
    c0003390:	0009d463          	bgez	s3,c0003398 <_fwalk_reent+0x4e>
    c0003394:	6084                	ld	s1,0(s1)
    c0003396:	bfd9                	j	c000336c <_fwalk_reent+0x22>
    c0003398:	01095783          	lhu	a5,16(s2)
    c000339c:	00fb7b63          	bleu	a5,s6,c00033b2 <_fwalk_reent+0x68>
    c00033a0:	01291783          	lh	a5,18(s2)
    c00033a4:	01778763          	beq	a5,s7,c00033b2 <_fwalk_reent+0x68>
    c00033a8:	85ca                	mv	a1,s2
    c00033aa:	8552                	mv	a0,s4
    c00033ac:	9a82                	jalr	s5
    c00033ae:	8c49                	or	s0,s0,a0
    c00033b0:	2401                	sext.w	s0,s0
    c00033b2:	0b890913          	addi	s2,s2,184
    c00033b6:	bfe1                	j	c000338e <_fwalk_reent+0x44>

00000000c00033b8 <eclear>:
    c00033b8:	01450793          	addi	a5,a0,20
    c00033bc:	0509                	addi	a0,a0,2
    c00033be:	fe051f23          	sh	zero,-2(a0)
    c00033c2:	fef51de3          	bne	a0,a5,c00033bc <eclear+0x4>
    c00033c6:	8082                	ret

00000000c00033c8 <emov>:
    c00033c8:	4781                	li	a5,0
    c00033ca:	4751                	li	a4,20
    c00033cc:	00f506b3          	add	a3,a0,a5
    c00033d0:	0006d603          	lhu	a2,0(a3)
    c00033d4:	00f586b3          	add	a3,a1,a5
    c00033d8:	0789                	addi	a5,a5,2
    c00033da:	00c69023          	sh	a2,0(a3)
    c00033de:	fee797e3          	bne	a5,a4,c00033cc <emov+0x4>
    c00033e2:	8082                	ret

00000000c00033e4 <ecleaz>:
    c00033e4:	01a50793          	addi	a5,a0,26
    c00033e8:	0509                	addi	a0,a0,2
    c00033ea:	fe051f23          	sh	zero,-2(a0)
    c00033ee:	fef51de3          	bne	a0,a5,c00033e8 <ecleaz+0x4>
    c00033f2:	8082                	ret

00000000c00033f4 <emovz>:
    c00033f4:	4781                	li	a5,0
    c00033f6:	4761                	li	a4,24
    c00033f8:	00f506b3          	add	a3,a0,a5
    c00033fc:	0006d603          	lhu	a2,0(a3)
    c0003400:	00f586b3          	add	a3,a1,a5
    c0003404:	0789                	addi	a5,a5,2
    c0003406:	00c69023          	sh	a2,0(a3)
    c000340a:	fee797e3          	bne	a5,a4,c00033f8 <emovz+0x4>
    c000340e:	00059c23          	sh	zero,24(a1)
    c0003412:	8082                	ret

00000000c0003414 <ecmpm>:
    c0003414:	4791                	li	a5,4
    c0003416:	4669                	li	a2,26
    c0003418:	00f506b3          	add	a3,a0,a5
    c000341c:	00f58733          	add	a4,a1,a5
    c0003420:	0006d683          	lhu	a3,0(a3)
    c0003424:	00075703          	lhu	a4,0(a4)
    c0003428:	00e68763          	beq	a3,a4,c0003436 <ecmpm+0x22>
    c000342c:	4505                	li	a0,1
    c000342e:	00d76863          	bltu	a4,a3,c000343e <ecmpm+0x2a>
    c0003432:	557d                	li	a0,-1
    c0003434:	8082                	ret
    c0003436:	0789                	addi	a5,a5,2
    c0003438:	fec790e3          	bne	a5,a2,c0003418 <ecmpm+0x4>
    c000343c:	4501                	li	a0,0
    c000343e:	8082                	ret

00000000c0003440 <eshdn1>:
    c0003440:	00450693          	addi	a3,a0,4
    c0003444:	4781                	li	a5,0
    c0003446:	0569                	addi	a0,a0,26
    c0003448:	7661                	lui	a2,0xffff8
    c000344a:	0006d703          	lhu	a4,0(a3)
    c000344e:	00177593          	andi	a1,a4,1
    c0003452:	c199                	beqz	a1,c0003458 <eshdn1+0x18>
    c0003454:	0017e793          	ori	a5,a5,1
    c0003458:	0027f593          	andi	a1,a5,2
    c000345c:	8305                	srli	a4,a4,0x1
    c000345e:	e999                	bnez	a1,c0003474 <eshdn1+0x34>
    c0003460:	0017979b          	slliw	a5,a5,0x1
    c0003464:	00e69023          	sh	a4,0(a3)
    c0003468:	17c2                	slli	a5,a5,0x30
    c000346a:	0689                	addi	a3,a3,2
    c000346c:	93c1                	srli	a5,a5,0x30
    c000346e:	fcd51ee3          	bne	a0,a3,c000344a <eshdn1+0xa>
    c0003472:	8082                	ret
    c0003474:	8f51                	or	a4,a4,a2
    c0003476:	b7ed                	j	c0003460 <eshdn1+0x20>

00000000c0003478 <eshup1>:
    c0003478:	01650693          	addi	a3,a0,22
    c000347c:	4701                	li	a4,0
    c000347e:	0026d783          	lhu	a5,2(a3)
    c0003482:	0107961b          	slliw	a2,a5,0x10
    c0003486:	4106561b          	sraiw	a2,a2,0x10
    c000348a:	02061593          	slli	a1,a2,0x20
    c000348e:	0005d463          	bgez	a1,c0003496 <eshup1+0x1e>
    c0003492:	00176713          	ori	a4,a4,1
    c0003496:	0017979b          	slliw	a5,a5,0x1
    c000349a:	17c2                	slli	a5,a5,0x30
    c000349c:	00277613          	andi	a2,a4,2
    c00034a0:	93c1                	srli	a5,a5,0x30
    c00034a2:	ea19                	bnez	a2,c00034b8 <eshup1+0x40>
    c00034a4:	0017171b          	slliw	a4,a4,0x1
    c00034a8:	00f69123          	sh	a5,2(a3)
    c00034ac:	1742                	slli	a4,a4,0x30
    c00034ae:	16f9                	addi	a3,a3,-2
    c00034b0:	9341                	srli	a4,a4,0x30
    c00034b2:	fcd516e3          	bne	a0,a3,c000347e <eshup1+0x6>
    c00034b6:	8082                	ret
    c00034b8:	0017e793          	ori	a5,a5,1
    c00034bc:	b7e5                	j	c00034a4 <eshup1+0x2c>

00000000c00034be <eshdn8>:
    c00034be:	00450793          	addi	a5,a0,4
    c00034c2:	4701                	li	a4,0
    c00034c4:	0569                	addi	a0,a0,26
    c00034c6:	0007d683          	lhu	a3,0(a5)
    c00034ca:	0789                	addi	a5,a5,2
    c00034cc:	0086d61b          	srliw	a2,a3,0x8
    c00034d0:	8f51                	or	a4,a4,a2
    c00034d2:	fee79f23          	sh	a4,-2(a5)
    c00034d6:	0086971b          	slliw	a4,a3,0x8
    c00034da:	1742                	slli	a4,a4,0x30
    c00034dc:	9341                	srli	a4,a4,0x30
    c00034de:	fef514e3          	bne	a0,a5,c00034c6 <eshdn8+0x8>
    c00034e2:	8082                	ret

00000000c00034e4 <eshup8>:
    c00034e4:	01650793          	addi	a5,a0,22
    c00034e8:	4701                	li	a4,0
    c00034ea:	0027d683          	lhu	a3,2(a5)
    c00034ee:	17f9                	addi	a5,a5,-2
    c00034f0:	00869613          	slli	a2,a3,0x8
    c00034f4:	8f51                	or	a4,a4,a2
    c00034f6:	00e79223          	sh	a4,4(a5)
    c00034fa:	0086d713          	srli	a4,a3,0x8
    c00034fe:	fef516e3          	bne	a0,a5,c00034ea <eshup8+0x6>
    c0003502:	8082                	ret

00000000c0003504 <eshup6>:
    c0003504:	00450793          	addi	a5,a0,4
    c0003508:	01850713          	addi	a4,a0,24
    c000350c:	0789                	addi	a5,a5,2
    c000350e:	0007d683          	lhu	a3,0(a5)
    c0003512:	fed79f23          	sh	a3,-2(a5)
    c0003516:	fef71be3          	bne	a4,a5,c000350c <eshup6+0x8>
    c000351a:	00051c23          	sh	zero,24(a0)
    c000351e:	8082                	ret

00000000c0003520 <eshdn6>:
    c0003520:	01850793          	addi	a5,a0,24
    c0003524:	00450713          	addi	a4,a0,4
    c0003528:	17f9                	addi	a5,a5,-2
    c000352a:	0007d683          	lhu	a3,0(a5)
    c000352e:	00d79123          	sh	a3,2(a5)
    c0003532:	fef71be3          	bne	a4,a5,c0003528 <eshdn6+0x8>
    c0003536:	00051223          	sh	zero,4(a0)
    c000353a:	8082                	ret

00000000c000353c <eaddm>:
    c000353c:	05e1                	addi	a1,a1,24
    c000353e:	01650713          	addi	a4,a0,22
    c0003542:	4681                	li	a3,0
    c0003544:	0005d783          	lhu	a5,0(a1)
    c0003548:	1779                	addi	a4,a4,-2
    c000354a:	15f9                	addi	a1,a1,-2
    c000354c:	97b6                	add	a5,a5,a3
    c000354e:	00475683          	lhu	a3,4(a4)
    c0003552:	97b6                	add	a5,a5,a3
    c0003554:	00f59123          	sh	a5,2(a1)
    c0003558:	83c1                	srli	a5,a5,0x10
    c000355a:	0017f693          	andi	a3,a5,1
    c000355e:	fee513e3          	bne	a0,a4,c0003544 <eaddm+0x8>
    c0003562:	8082                	ret

00000000c0003564 <esubm>:
    c0003564:	05e1                	addi	a1,a1,24
    c0003566:	01650713          	addi	a4,a0,22
    c000356a:	4681                	li	a3,0
    c000356c:	0005d783          	lhu	a5,0(a1)
    c0003570:	1779                	addi	a4,a4,-2
    c0003572:	15f9                	addi	a1,a1,-2
    c0003574:	8f95                	sub	a5,a5,a3
    c0003576:	00475683          	lhu	a3,4(a4)
    c000357a:	8f95                	sub	a5,a5,a3
    c000357c:	00f59123          	sh	a5,2(a1)
    c0003580:	83c1                	srli	a5,a5,0x10
    c0003582:	0017f693          	andi	a3,a5,1
    c0003586:	fee513e3          	bne	a0,a4,c000356c <esubm+0x8>
    c000358a:	8082                	ret

00000000c000358c <m16m>:
    c000358c:	1101                	addi	sp,sp,-32
    c000358e:	6341                	lui	t1,0x10
    c0003590:	01858893          	addi	a7,a1,24
    c0003594:	00011b23          	sh	zero,22(sp)
    c0003598:	00011c23          	sh	zero,24(sp)
    c000359c:	0591                	addi	a1,a1,4
    c000359e:	0834                	addi	a3,sp,24
    c00035a0:	137d                	addi	t1,t1,-1
    c00035a2:	0008d703          	lhu	a4,0(a7)
    c00035a6:	16f9                	addi	a3,a3,-2
    c00035a8:	18f9                	addi	a7,a7,-2
    c00035aa:	e705                	bnez	a4,c00035d2 <m16m+0x46>
    c00035ac:	fe069f23          	sh	zero,-2(a3)
    c00035b0:	ff1599e3          	bne	a1,a7,c00035a2 <m16m+0x16>
    c00035b4:	4791                	li	a5,4
    c00035b6:	4769                	li	a4,26
    c00035b8:	00f105b3          	add	a1,sp,a5
    c00035bc:	0005d583          	lhu	a1,0(a1)
    c00035c0:	00f606b3          	add	a3,a2,a5
    c00035c4:	0789                	addi	a5,a5,2
    c00035c6:	00b69023          	sh	a1,0(a3)
    c00035ca:	fee797e3          	bne	a5,a4,c00035b8 <m16m+0x2c>
    c00035ce:	6105                	addi	sp,sp,32
    c00035d0:	8082                	ret
    c00035d2:	02a70733          	mul	a4,a4,a0
    c00035d6:	0026d803          	lhu	a6,2(a3)
    c00035da:	006777b3          	and	a5,a4,t1
    c00035de:	97c2                	add	a5,a5,a6
    c00035e0:	0107d813          	srli	a6,a5,0x10
    c00035e4:	00f69123          	sh	a5,2(a3)
    c00035e8:	01075793          	srli	a5,a4,0x10
    c00035ec:	0006d703          	lhu	a4,0(a3)
    c00035f0:	97ba                	add	a5,a5,a4
    c00035f2:	97c2                	add	a5,a5,a6
    c00035f4:	00f69023          	sh	a5,0(a3)
    c00035f8:	83c1                	srli	a5,a5,0x10
    c00035fa:	fef69f23          	sh	a5,-2(a3)
    c00035fe:	bf4d                	j	c00035b0 <m16m+0x24>

00000000c0003600 <eisnan>:
    c0003600:	01255783          	lhu	a5,18(a0)
    c0003604:	fff7c793          	not	a5,a5
    c0003608:	03179713          	slli	a4,a5,0x31
    c000360c:	eb09                	bnez	a4,c000361e <eisnan+0x1e>
    c000360e:	01250793          	addi	a5,a0,18
    c0003612:	0509                	addi	a0,a0,2
    c0003614:	ffe55703          	lhu	a4,-2(a0)
    c0003618:	e709                	bnez	a4,c0003622 <eisnan+0x22>
    c000361a:	fea79ce3          	bne	a5,a0,c0003612 <eisnan+0x12>
    c000361e:	4501                	li	a0,0
    c0003620:	8082                	ret
    c0003622:	4505                	li	a0,1
    c0003624:	8082                	ret

00000000c0003626 <eisneg>:
    c0003626:	1141                	addi	sp,sp,-16
    c0003628:	e022                	sd	s0,0(sp)
    c000362a:	e406                	sd	ra,8(sp)
    c000362c:	842a                	mv	s0,a0
    c000362e:	00000097          	auipc	ra,0x0
    c0003632:	fd2080e7          	jalr	-46(ra) # c0003600 <eisnan>
    c0003636:	e909                	bnez	a0,c0003648 <eisneg+0x22>
    c0003638:	01241503          	lh	a0,18(s0)
    c000363c:	01f5551b          	srliw	a0,a0,0x1f
    c0003640:	60a2                	ld	ra,8(sp)
    c0003642:	6402                	ld	s0,0(sp)
    c0003644:	0141                	addi	sp,sp,16
    c0003646:	8082                	ret
    c0003648:	4501                	li	a0,0
    c000364a:	bfdd                	j	c0003640 <eisneg+0x1a>

00000000c000364c <emovi>:
    c000364c:	01251783          	lh	a5,18(a0)
    c0003650:	1101                	addi	sp,sp,-32
    c0003652:	ec06                	sd	ra,24(sp)
    c0003654:	e822                	sd	s0,16(sp)
    c0003656:	e426                	sd	s1,8(sp)
    c0003658:	e04a                	sd	s2,0(sp)
    c000365a:	0407db63          	bgez	a5,c00036b0 <emovi+0x64>
    c000365e:	57fd                	li	a5,-1
    c0003660:	00f59023          	sh	a5,0(a1)
    c0003664:	01255703          	lhu	a4,18(a0)
    c0003668:	67a1                	lui	a5,0x8
    c000366a:	17fd                	addi	a5,a5,-1
    c000366c:	8f7d                	and	a4,a4,a5
    c000366e:	00e59123          	sh	a4,2(a1)
    c0003672:	01050913          	addi	s2,a0,16
    c0003676:	04f71a63          	bne	a4,a5,c00036ca <emovi+0x7e>
    c000367a:	842e                	mv	s0,a1
    c000367c:	84aa                	mv	s1,a0
    c000367e:	00000097          	auipc	ra,0x0
    c0003682:	f82080e7          	jalr	-126(ra) # c0003600 <eisnan>
    c0003686:	c905                	beqz	a0,c00036b6 <emovi+0x6a>
    c0003688:	00640793          	addi	a5,s0,6
    c000368c:	00041223          	sh	zero,4(s0)
    c0003690:	ffc48513          	addi	a0,s1,-4
    c0003694:	1979                	addi	s2,s2,-2
    c0003696:	00295703          	lhu	a4,2(s2)
    c000369a:	0789                	addi	a5,a5,2
    c000369c:	fee79f23          	sh	a4,-2(a5) # 7ffe <main-0xbfff8002>
    c00036a0:	fea91ae3          	bne	s2,a0,c0003694 <emovi+0x48>
    c00036a4:	60e2                	ld	ra,24(sp)
    c00036a6:	6442                	ld	s0,16(sp)
    c00036a8:	64a2                	ld	s1,8(sp)
    c00036aa:	6902                	ld	s2,0(sp)
    c00036ac:	6105                	addi	sp,sp,32
    c00036ae:	8082                	ret
    c00036b0:	00059023          	sh	zero,0(a1)
    c00036b4:	bf45                	j	c0003664 <emovi+0x18>
    c00036b6:	00440793          	addi	a5,s0,4
    c00036ba:	01a40593          	addi	a1,s0,26
    c00036be:	0789                	addi	a5,a5,2
    c00036c0:	fe079f23          	sh	zero,-2(a5)
    c00036c4:	feb79de3          	bne	a5,a1,c00036be <emovi+0x72>
    c00036c8:	bff1                	j	c00036a4 <emovi+0x58>
    c00036ca:	00658793          	addi	a5,a1,6
    c00036ce:	00059223          	sh	zero,4(a1)
    c00036d2:	1579                	addi	a0,a0,-2
    c00036d4:	1979                	addi	s2,s2,-2
    c00036d6:	00295703          	lhu	a4,2(s2)
    c00036da:	0789                	addi	a5,a5,2
    c00036dc:	fee79f23          	sh	a4,-2(a5)
    c00036e0:	fea91ae3          	bne	s2,a0,c00036d4 <emovi+0x88>
    c00036e4:	00059c23          	sh	zero,24(a1)
    c00036e8:	bf75                	j	c00036a4 <emovi+0x58>

00000000c00036ea <ecmp>:
    c00036ea:	711d                	addi	sp,sp,-96
    c00036ec:	e4a6                	sd	s1,72(sp)
    c00036ee:	e0ca                	sd	s2,64(sp)
    c00036f0:	ec86                	sd	ra,88(sp)
    c00036f2:	e8a2                	sd	s0,80(sp)
    c00036f4:	892a                	mv	s2,a0
    c00036f6:	84ae                	mv	s1,a1
    c00036f8:	00000097          	auipc	ra,0x0
    c00036fc:	f08080e7          	jalr	-248(ra) # c0003600 <eisnan>
    c0003700:	ed49                	bnez	a0,c000379a <ecmp+0xb0>
    c0003702:	8526                	mv	a0,s1
    c0003704:	00000097          	auipc	ra,0x0
    c0003708:	efc080e7          	jalr	-260(ra) # c0003600 <eisnan>
    c000370c:	842a                	mv	s0,a0
    c000370e:	e551                	bnez	a0,c000379a <ecmp+0xb0>
    c0003710:	858a                	mv	a1,sp
    c0003712:	854a                	mv	a0,s2
    c0003714:	00000097          	auipc	ra,0x0
    c0003718:	f38080e7          	jalr	-200(ra) # c000364c <emovi>
    c000371c:	100c                	addi	a1,sp,32
    c000371e:	8526                	mv	a0,s1
    c0003720:	00000097          	auipc	ra,0x0
    c0003724:	f2c080e7          	jalr	-212(ra) # c000364c <emovi>
    c0003728:	00015703          	lhu	a4,0(sp)
    c000372c:	02015783          	lhu	a5,32(sp)
    c0003730:	02e78c63          	beq	a5,a4,c0003768 <ecmp+0x7e>
    c0003734:	4789                	li	a5,2
    c0003736:	46e1                	li	a3,24
    c0003738:	00f10633          	add	a2,sp,a5
    c000373c:	00065603          	lhu	a2,0(a2) # ffffffffffff8000 <_end+0xffffffff3ffed000>
    c0003740:	e205                	bnez	a2,c0003760 <ecmp+0x76>
    c0003742:	1010                	addi	a2,sp,32
    c0003744:	963e                	add	a2,a2,a5
    c0003746:	00065603          	lhu	a2,0(a2)
    c000374a:	ea19                	bnez	a2,c0003760 <ecmp+0x76>
    c000374c:	0789                	addi	a5,a5,2
    c000374e:	fed795e3          	bne	a5,a3,c0003738 <ecmp+0x4e>
    c0003752:	8522                	mv	a0,s0
    c0003754:	60e6                	ld	ra,88(sp)
    c0003756:	6446                	ld	s0,80(sp)
    c0003758:	64a6                	ld	s1,72(sp)
    c000375a:	6906                	ld	s2,64(sp)
    c000375c:	6125                	addi	sp,sp,96
    c000375e:	8082                	ret
    c0003760:	4405                	li	s0,1
    c0003762:	db65                	beqz	a4,c0003752 <ecmp+0x68>
    c0003764:	547d                	li	s0,-1
    c0003766:	b7f5                	j	c0003752 <ecmp+0x68>
    c0003768:	4685                	li	a3,1
    c000376a:	c311                	beqz	a4,c000376e <ecmp+0x84>
    c000376c:	56fd                	li	a3,-1
    c000376e:	4781                	li	a5,0
    c0003770:	45e1                	li	a1,24
    c0003772:	00f10733          	add	a4,sp,a5
    c0003776:	00075603          	lhu	a2,0(a4)
    c000377a:	1018                	addi	a4,sp,32
    c000377c:	973e                	add	a4,a4,a5
    c000377e:	00075703          	lhu	a4,0(a4)
    c0003782:	00e60863          	beq	a2,a4,c0003792 <ecmp+0xa8>
    c0003786:	8436                	mv	s0,a3
    c0003788:	fcc765e3          	bltu	a4,a2,c0003752 <ecmp+0x68>
    c000378c:	40d0043b          	negw	s0,a3
    c0003790:	b7c9                	j	c0003752 <ecmp+0x68>
    c0003792:	0789                	addi	a5,a5,2
    c0003794:	fcb79fe3          	bne	a5,a1,c0003772 <ecmp+0x88>
    c0003798:	bf6d                	j	c0003752 <ecmp+0x68>
    c000379a:	5479                	li	s0,-2
    c000379c:	bf5d                	j	c0003752 <ecmp+0x68>

00000000c000379e <eisinf>:
    c000379e:	01255783          	lhu	a5,18(a0)
    c00037a2:	fff7c793          	not	a5,a5
    c00037a6:	03179713          	slli	a4,a5,0x31
    c00037aa:	ef01                	bnez	a4,c00037c2 <eisinf+0x24>
    c00037ac:	1141                	addi	sp,sp,-16
    c00037ae:	e406                	sd	ra,8(sp)
    c00037b0:	00000097          	auipc	ra,0x0
    c00037b4:	e50080e7          	jalr	-432(ra) # c0003600 <eisnan>
    c00037b8:	60a2                	ld	ra,8(sp)
    c00037ba:	00153513          	seqz	a0,a0
    c00037be:	0141                	addi	sp,sp,16
    c00037c0:	8082                	ret
    c00037c2:	4501                	li	a0,0
    c00037c4:	8082                	ret

00000000c00037c6 <einfin.isra.2>:
    c00037c6:	01250713          	addi	a4,a0,18
    c00037ca:	87aa                	mv	a5,a0
    c00037cc:	0789                	addi	a5,a5,2
    c00037ce:	fe079f23          	sh	zero,-2(a5)
    c00037d2:	fee79de3          	bne	a5,a4,c00037cc <einfin.isra.2+0x6>
    c00037d6:	01255783          	lhu	a5,18(a0)
    c00037da:	6721                	lui	a4,0x8
    c00037dc:	177d                	addi	a4,a4,-1
    c00037de:	8fd9                	or	a5,a5,a4
    c00037e0:	00f51923          	sh	a5,18(a0)
    c00037e4:	8082                	ret

00000000c00037e6 <eshift.part.3>:
    c00037e6:	7139                	addi	sp,sp,-64
    c00037e8:	f822                	sd	s0,48(sp)
    c00037ea:	ec4e                	sd	s3,24(sp)
    c00037ec:	fc06                	sd	ra,56(sp)
    c00037ee:	f426                	sd	s1,40(sp)
    c00037f0:	f04a                	sd	s2,32(sp)
    c00037f2:	e852                	sd	s4,16(sp)
    c00037f4:	e456                	sd	s5,8(sp)
    c00037f6:	89aa                	mv	s3,a0
    c00037f8:	842e                	mv	s0,a1
    c00037fa:	0c05d163          	bgez	a1,c00038bc <eshift.part.3+0xd6>
    c00037fe:	40b00a3b          	negw	s4,a1
    c0003802:	8952                	mv	s2,s4
    c0003804:	4481                	li	s1,0
    c0003806:	4abd                	li	s5,15
    c0003808:	034ac763          	blt	s5,s4,c0003836 <eshift.part.3+0x50>
    c000380c:	0049591b          	srliw	s2,s2,0x4
    c0003810:	55c1                	li	a1,-16
    c0003812:	02b905bb          	mulw	a1,s2,a1
    c0003816:	4a1d                	li	s4,7
    c0003818:	4085893b          	subw	s2,a1,s0
    c000381c:	844a                	mv	s0,s2
    c000381e:	032a4663          	blt	s4,s2,c000384a <eshift.part.3+0x64>
    c0003822:	0034559b          	srliw	a1,s0,0x3
    c0003826:	57e1                	li	a5,-8
    c0003828:	02f585bb          	mulw	a1,a1,a5
    c000382c:	9c2d                	addw	s0,s0,a1
    c000382e:	e805                	bnez	s0,c000385e <eshift.part.3+0x78>
    c0003830:	00903533          	snez	a0,s1
    c0003834:	a89d                	j	c00038aa <eshift.part.3+0xc4>
    c0003836:	0189d783          	lhu	a5,24(s3)
    c000383a:	854e                	mv	a0,s3
    c000383c:	3a41                	addiw	s4,s4,-16
    c000383e:	8cdd                	or	s1,s1,a5
    c0003840:	00000097          	auipc	ra,0x0
    c0003844:	ce0080e7          	jalr	-800(ra) # c0003520 <eshdn6>
    c0003848:	b7c1                	j	c0003808 <eshift.part.3+0x22>
    c000384a:	0189c783          	lbu	a5,24(s3)
    c000384e:	854e                	mv	a0,s3
    c0003850:	3961                	addiw	s2,s2,-8
    c0003852:	8cdd                	or	s1,s1,a5
    c0003854:	00000097          	auipc	ra,0x0
    c0003858:	c6a080e7          	jalr	-918(ra) # c00034be <eshdn8>
    c000385c:	b7c9                	j	c000381e <eshift.part.3+0x38>
    c000385e:	0189d783          	lhu	a5,24(s3)
    c0003862:	854e                	mv	a0,s3
    c0003864:	347d                	addiw	s0,s0,-1
    c0003866:	8b85                	andi	a5,a5,1
    c0003868:	8cdd                	or	s1,s1,a5
    c000386a:	00000097          	auipc	ra,0x0
    c000386e:	bd6080e7          	jalr	-1066(ra) # c0003440 <eshdn1>
    c0003872:	bf75                	j	c000382e <eshift.part.3+0x48>
    c0003874:	854e                	mv	a0,s3
    c0003876:	00000097          	auipc	ra,0x0
    c000387a:	c8e080e7          	jalr	-882(ra) # c0003504 <eshup6>
    c000387e:	34c1                	addiw	s1,s1,-16
    c0003880:	fe994ae3          	blt	s2,s1,c0003874 <eshift.part.3+0x8e>
    c0003884:	0044559b          	srliw	a1,s0,0x4
    c0003888:	57c1                	li	a5,-16
    c000388a:	02f585bb          	mulw	a1,a1,a5
    c000388e:	491d                	li	s2,7
    c0003890:	00b404bb          	addw	s1,s0,a1
    c0003894:	8426                	mv	s0,s1
    c0003896:	02994663          	blt	s2,s1,c00038c2 <eshift.part.3+0xdc>
    c000389a:	0034559b          	srliw	a1,s0,0x3
    c000389e:	57e1                	li	a5,-8
    c00038a0:	02f585bb          	mulw	a1,a1,a5
    c00038a4:	9c2d                	addw	s0,s0,a1
    c00038a6:	e40d                	bnez	s0,c00038d0 <eshift.part.3+0xea>
    c00038a8:	4501                	li	a0,0
    c00038aa:	70e2                	ld	ra,56(sp)
    c00038ac:	7442                	ld	s0,48(sp)
    c00038ae:	74a2                	ld	s1,40(sp)
    c00038b0:	7902                	ld	s2,32(sp)
    c00038b2:	69e2                	ld	s3,24(sp)
    c00038b4:	6a42                	ld	s4,16(sp)
    c00038b6:	6aa2                	ld	s5,8(sp)
    c00038b8:	6121                	addi	sp,sp,64
    c00038ba:	8082                	ret
    c00038bc:	84ae                	mv	s1,a1
    c00038be:	493d                	li	s2,15
    c00038c0:	b7c1                	j	c0003880 <eshift.part.3+0x9a>
    c00038c2:	854e                	mv	a0,s3
    c00038c4:	00000097          	auipc	ra,0x0
    c00038c8:	c20080e7          	jalr	-992(ra) # c00034e4 <eshup8>
    c00038cc:	34e1                	addiw	s1,s1,-8
    c00038ce:	b7e1                	j	c0003896 <eshift.part.3+0xb0>
    c00038d0:	854e                	mv	a0,s3
    c00038d2:	00000097          	auipc	ra,0x0
    c00038d6:	ba6080e7          	jalr	-1114(ra) # c0003478 <eshup1>
    c00038da:	347d                	addiw	s0,s0,-1
    c00038dc:	b7e9                	j	c00038a6 <eshift.part.3+0xc0>

00000000c00038de <enormlz>:
    c00038de:	00455783          	lhu	a5,4(a0)
    c00038e2:	1101                	addi	sp,sp,-32
    c00038e4:	e426                	sd	s1,8(sp)
    c00038e6:	ec06                	sd	ra,24(sp)
    c00038e8:	e822                	sd	s0,16(sp)
    c00038ea:	e04a                	sd	s2,0(sp)
    c00038ec:	84aa                	mv	s1,a0
    c00038ee:	cf89                	beqz	a5,c0003908 <enormlz+0x2a>
    c00038f0:	f007f793          	andi	a5,a5,-256
    c00038f4:	4401                	li	s0,0
    c00038f6:	c791                	beqz	a5,c0003902 <enormlz+0x24>
    c00038f8:	00000097          	auipc	ra,0x0
    c00038fc:	bc6080e7          	jalr	-1082(ra) # c00034be <eshdn8>
    c0003900:	5461                	li	s0,-8
    c0003902:	f6f00913          	li	s2,-145
    c0003906:	a8ad                	j	c0003980 <enormlz+0xa2>
    c0003908:	00651783          	lh	a5,6(a0)
    c000390c:	4401                	li	s0,0
    c000390e:	0a000913          	li	s2,160
    c0003912:	0207d163          	bgez	a5,c0003934 <enormlz+0x56>
    c0003916:	8522                	mv	a0,s0
    c0003918:	60e2                	ld	ra,24(sp)
    c000391a:	6442                	ld	s0,16(sp)
    c000391c:	64a2                	ld	s1,8(sp)
    c000391e:	6902                	ld	s2,0(sp)
    c0003920:	6105                	addi	sp,sp,32
    c0003922:	8082                	ret
    c0003924:	8526                	mv	a0,s1
    c0003926:	2441                	addiw	s0,s0,16
    c0003928:	00000097          	auipc	ra,0x0
    c000392c:	bdc080e7          	jalr	-1060(ra) # c0003504 <eshup6>
    c0003930:	ff2403e3          	beq	s0,s2,c0003916 <enormlz+0x38>
    c0003934:	0064d783          	lhu	a5,6(s1)
    c0003938:	d7f5                	beqz	a5,c0003924 <enormlz+0x46>
    c000393a:	0064d783          	lhu	a5,6(s1)
    c000393e:	f007f793          	andi	a5,a5,-256
    c0003942:	c385                	beqz	a5,c0003962 <enormlz+0x84>
    c0003944:	0a000913          	li	s2,160
    c0003948:	00649783          	lh	a5,6(s1)
    c000394c:	fc07c5e3          	bltz	a5,c0003916 <enormlz+0x38>
    c0003950:	8526                	mv	a0,s1
    c0003952:	2405                	addiw	s0,s0,1
    c0003954:	00000097          	auipc	ra,0x0
    c0003958:	b24080e7          	jalr	-1244(ra) # c0003478 <eshup1>
    c000395c:	fe8956e3          	ble	s0,s2,c0003948 <enormlz+0x6a>
    c0003960:	bf5d                	j	c0003916 <enormlz+0x38>
    c0003962:	8526                	mv	a0,s1
    c0003964:	00000097          	auipc	ra,0x0
    c0003968:	b80080e7          	jalr	-1152(ra) # c00034e4 <eshup8>
    c000396c:	2421                	addiw	s0,s0,8
    c000396e:	b7f1                	j	c000393a <enormlz+0x5c>
    c0003970:	8526                	mv	a0,s1
    c0003972:	347d                	addiw	s0,s0,-1
    c0003974:	00000097          	auipc	ra,0x0
    c0003978:	acc080e7          	jalr	-1332(ra) # c0003440 <eshdn1>
    c000397c:	f9240de3          	beq	s0,s2,c0003916 <enormlz+0x38>
    c0003980:	0044d783          	lhu	a5,4(s1)
    c0003984:	f7f5                	bnez	a5,c0003970 <enormlz+0x92>
    c0003986:	bf41                	j	c0003916 <enormlz+0x38>

00000000c0003988 <enan.constprop.12>:
    c0003988:	01050713          	addi	a4,a0,16
    c000398c:	87aa                	mv	a5,a0
    c000398e:	0789                	addi	a5,a5,2
    c0003990:	fe079f23          	sh	zero,-2(a5)
    c0003994:	fee79de3          	bne	a5,a4,c000398e <enan.constprop.12+0x6>
    c0003998:	7fffc7b7          	lui	a5,0x7fffc
    c000399c:	c91c                	sw	a5,16(a0)
    c000399e:	8082                	ret

00000000c00039a0 <emovo.isra.6>:
    c00039a0:	872a                	mv	a4,a0
    c00039a2:	00075683          	lhu	a3,0(a4) # 8000 <main-0xbfff8000>
    c00039a6:	852e                	mv	a0,a1
    c00039a8:	00275783          	lhu	a5,2(a4)
    c00039ac:	c299                	beqz	a3,c00039b2 <emovo.isra.6+0x12>
    c00039ae:	76e1                	lui	a3,0xffff8
    c00039b0:	8fd5                	or	a5,a5,a3
    c00039b2:	00f51923          	sh	a5,18(a0)
    c00039b6:	00275603          	lhu	a2,2(a4)
    c00039ba:	66a1                	lui	a3,0x8
    c00039bc:	16fd                	addi	a3,a3,-1
    c00039be:	00670793          	addi	a5,a4,6
    c00039c2:	00d61d63          	bne	a2,a3,c00039dc <emovo.isra.6+0x3c>
    c00039c6:	0769                	addi	a4,a4,26
    c00039c8:	0007d683          	lhu	a3,0(a5) # 7fffc000 <main-0x40004000>
    c00039cc:	e29d                	bnez	a3,c00039f2 <emovo.isra.6+0x52>
    c00039ce:	0789                	addi	a5,a5,2
    c00039d0:	fee79ce3          	bne	a5,a4,c00039c8 <emovo.isra.6+0x28>
    c00039d4:	00000317          	auipc	t1,0x0
    c00039d8:	df230067          	jr	-526(t1) # c00037c6 <einfin.isra.2>
    c00039dc:	0541                	addi	a0,a0,16
    c00039de:	0761                	addi	a4,a4,24
    c00039e0:	0789                	addi	a5,a5,2
    c00039e2:	ffe7d683          	lhu	a3,-2(a5)
    c00039e6:	1579                	addi	a0,a0,-2
    c00039e8:	00d51123          	sh	a3,2(a0)
    c00039ec:	fee79ae3          	bne	a5,a4,c00039e0 <emovo.isra.6+0x40>
    c00039f0:	8082                	ret
    c00039f2:	00000317          	auipc	t1,0x0
    c00039f6:	f9630067          	jr	-106(t1) # c0003988 <enan.constprop.12>

00000000c00039fa <e113toe.isra.8>:
    c00039fa:	7139                	addi	sp,sp,-64
    c00039fc:	f426                	sd	s1,40(sp)
    c00039fe:	84aa                	mv	s1,a0
    c0003a00:	850a                	mv	a0,sp
    c0003a02:	f822                	sd	s0,48(sp)
    c0003a04:	fc06                	sd	ra,56(sp)
    c0003a06:	842e                	mv	s0,a1
    c0003a08:	00000097          	auipc	ra,0x0
    c0003a0c:	9dc080e7          	jalr	-1572(ra) # c00033e4 <ecleaz>
    c0003a10:	00e4d703          	lhu	a4,14(s1)
    c0003a14:	0107179b          	slliw	a5,a4,0x10
    c0003a18:	4107d79b          	sraiw	a5,a5,0x10
    c0003a1c:	02079693          	slli	a3,a5,0x20
    c0003a20:	0206c963          	bltz	a3,c0003a52 <e113toe.isra.8+0x58>
    c0003a24:	00011023          	sh	zero,0(sp)
    c0003a28:	66a1                	lui	a3,0x8
    c0003a2a:	16fd                	addi	a3,a3,-1
    c0003a2c:	8f75                	and	a4,a4,a3
    c0003a2e:	00e48793          	addi	a5,s1,14
    c0003a32:	06d71263          	bne	a4,a3,c0003a96 <e113toe.isra.8+0x9c>
    c0003a36:	8726                	mv	a4,s1
    c0003a38:	00075683          	lhu	a3,0(a4)
    c0003a3c:	ce99                	beqz	a3,c0003a5a <e113toe.isra.8+0x60>
    c0003a3e:	8522                	mv	a0,s0
    c0003a40:	00000097          	auipc	ra,0x0
    c0003a44:	f48080e7          	jalr	-184(ra) # c0003988 <enan.constprop.12>
    c0003a48:	70e2                	ld	ra,56(sp)
    c0003a4a:	7442                	ld	s0,48(sp)
    c0003a4c:	74a2                	ld	s1,40(sp)
    c0003a4e:	6121                	addi	sp,sp,64
    c0003a50:	8082                	ret
    c0003a52:	57fd                	li	a5,-1
    c0003a54:	00f11023          	sh	a5,0(sp)
    c0003a58:	bfc1                	j	c0003a28 <e113toe.isra.8+0x2e>
    c0003a5a:	0709                	addi	a4,a4,2
    c0003a5c:	fce79ee3          	bne	a5,a4,c0003a38 <e113toe.isra.8+0x3e>
    c0003a60:	8522                	mv	a0,s0
    c0003a62:	00000097          	auipc	ra,0x0
    c0003a66:	956080e7          	jalr	-1706(ra) # c00033b8 <eclear>
    c0003a6a:	8522                	mv	a0,s0
    c0003a6c:	00000097          	auipc	ra,0x0
    c0003a70:	d5a080e7          	jalr	-678(ra) # c00037c6 <einfin.isra.2>
    c0003a74:	00e49783          	lh	a5,14(s1)
    c0003a78:	fc07d8e3          	bgez	a5,c0003a48 <e113toe.isra.8+0x4e>
    c0003a7c:	8522                	mv	a0,s0
    c0003a7e:	00000097          	auipc	ra,0x0
    c0003a82:	b82080e7          	jalr	-1150(ra) # c0003600 <eisnan>
    c0003a86:	f169                	bnez	a0,c0003a48 <e113toe.isra.8+0x4e>
    c0003a88:	01245783          	lhu	a5,18(s0)
    c0003a8c:	7761                	lui	a4,0xffff8
    c0003a8e:	8fb9                	xor	a5,a5,a4
    c0003a90:	00f41923          	sh	a5,18(s0)
    c0003a94:	bf55                	j	c0003a48 <e113toe.isra.8+0x4e>
    c0003a96:	00e11123          	sh	a4,2(sp)
    c0003a9a:	868a                	mv	a3,sp
    c0003a9c:	17f9                	addi	a5,a5,-2
    c0003a9e:	0007d603          	lhu	a2,0(a5)
    c0003aa2:	0689                	addi	a3,a3,2
    c0003aa4:	00c69223          	sh	a2,4(a3) # 8004 <main-0xbfff7ffc>
    c0003aa8:	fef49ae3          	bne	s1,a5,c0003a9c <e113toe.isra.8+0xa2>
    c0003aac:	eb11                	bnez	a4,c0003ac0 <e113toe.isra.8+0xc6>
    c0003aae:	00011223          	sh	zero,4(sp)
    c0003ab2:	85a2                	mv	a1,s0
    c0003ab4:	850a                	mv	a0,sp
    c0003ab6:	00000097          	auipc	ra,0x0
    c0003aba:	eea080e7          	jalr	-278(ra) # c00039a0 <emovo.isra.6>
    c0003abe:	b769                	j	c0003a48 <e113toe.isra.8+0x4e>
    c0003ac0:	4785                	li	a5,1
    c0003ac2:	55fd                	li	a1,-1
    c0003ac4:	850a                	mv	a0,sp
    c0003ac6:	00f11223          	sh	a5,4(sp)
    c0003aca:	00000097          	auipc	ra,0x0
    c0003ace:	d1c080e7          	jalr	-740(ra) # c00037e6 <eshift.part.3>
    c0003ad2:	b7c5                	j	c0003ab2 <e113toe.isra.8+0xb8>

00000000c0003ad4 <emdnorm>:
    c0003ad4:	7139                	addi	sp,sp,-64
    c0003ad6:	f822                	sd	s0,48(sp)
    c0003ad8:	f426                	sd	s1,40(sp)
    c0003ada:	f04a                	sd	s2,32(sp)
    c0003adc:	ec4e                	sd	s3,24(sp)
    c0003ade:	e852                	sd	s4,16(sp)
    c0003ae0:	e456                	sd	s5,8(sp)
    c0003ae2:	8936                	mv	s2,a3
    c0003ae4:	843e                	mv	s0,a5
    c0003ae6:	fc06                	sd	ra,56(sp)
    c0003ae8:	84aa                	mv	s1,a0
    c0003aea:	89ae                	mv	s3,a1
    c0003aec:	8a32                	mv	s4,a2
    c0003aee:	8aba                	mv	s5,a4
    c0003af0:	00000097          	auipc	ra,0x0
    c0003af4:	dee080e7          	jalr	-530(ra) # c00038de <enormlz>
    c0003af8:	09000793          	li	a5,144
    c0003afc:	40a90933          	sub	s2,s2,a0
    c0003b00:	02a7d763          	ble	a0,a5,c0003b2e <emdnorm+0x5a>
    c0003b04:	67a1                	lui	a5,0x8
    c0003b06:	17f9                	addi	a5,a5,-2
    c0003b08:	0527c263          	blt	a5,s2,c0003b4c <emdnorm+0x78>
    c0003b0c:	00248793          	addi	a5,s1,2
    c0003b10:	04e9                	addi	s1,s1,26
    c0003b12:	0789                	addi	a5,a5,2
    c0003b14:	fe079f23          	sh	zero,-2(a5) # 7ffe <main-0xbfff8002>
    c0003b18:	fe979de3          	bne	a5,s1,c0003b12 <emdnorm+0x3e>
    c0003b1c:	70e2                	ld	ra,56(sp)
    c0003b1e:	7442                	ld	s0,48(sp)
    c0003b20:	74a2                	ld	s1,40(sp)
    c0003b22:	7902                	ld	s2,32(sp)
    c0003b24:	69e2                	ld	s3,24(sp)
    c0003b26:	6a42                	ld	s4,16(sp)
    c0003b28:	6aa2                	ld	s5,8(sp)
    c0003b2a:	6121                	addi	sp,sp,64
    c0003b2c:	8082                	ret
    c0003b2e:	00095f63          	bgez	s2,c0003b4c <emdnorm+0x78>
    c0003b32:	f7000793          	li	a5,-144
    c0003b36:	14f94363          	blt	s2,a5,c0003c7c <emdnorm+0x1a8>
    c0003b3a:	0009059b          	sext.w	a1,s2
    c0003b3e:	8526                	mv	a0,s1
    c0003b40:	00000097          	auipc	ra,0x0
    c0003b44:	ca6080e7          	jalr	-858(ra) # c00037e6 <eshift.part.3>
    c0003b48:	14051363          	bnez	a0,c0003c8e <emdnorm+0x1ba>
    c0003b4c:	100a8463          	beqz	s5,c0003c54 <emdnorm+0x180>
    c0003b50:	4058                	lw	a4,4(s0)
    c0003b52:	401c                	lw	a5,0(s0)
    c0003b54:	04f70a63          	beq	a4,a5,c0003ba8 <emdnorm+0xd4>
    c0003b58:	01a40513          	addi	a0,s0,26
    c0003b5c:	00000097          	auipc	ra,0x0
    c0003b60:	888080e7          	jalr	-1912(ra) # c00033e4 <ecleaz>
    c0003b64:	405c                	lw	a5,4(s0)
    c0003b66:	03800713          	li	a4,56
    c0003b6a:	16e78263          	beq	a5,a4,c0003cce <emdnorm+0x1fa>
    c0003b6e:	12f74263          	blt	a4,a5,c0003c92 <emdnorm+0x1be>
    c0003b72:	4761                	li	a4,24
    c0003b74:	18e78363          	beq	a5,a4,c0003cfa <emdnorm+0x226>
    c0003b78:	03500713          	li	a4,53
    c0003b7c:	16e78663          	beq	a5,a4,c0003ce8 <emdnorm+0x214>
    c0003b80:	80010737          	lui	a4,0x80010
    c0003b84:	377d                	addiw	a4,a4,-1
    c0003b86:	c858                	sw	a4,20(s0)
    c0003b88:	4705                	li	a4,1
    c0003b8a:	00e41c23          	sh	a4,24(s0)
    c0003b8e:	472d                	li	a4,11
    c0003b90:	1702                	slli	a4,a4,0x20
    c0003b92:	0731                	addi	a4,a4,12
    c0003b94:	e418                	sd	a4,8(s0)
    c0003b96:	4458                	lw	a4,12(s0)
    c0003b98:	01845683          	lhu	a3,24(s0)
    c0003b9c:	0721                	addi	a4,a4,8
    c0003b9e:	0706                	slli	a4,a4,0x1
    c0003ba0:	9722                	add	a4,a4,s0
    c0003ba2:	00d71523          	sh	a3,10(a4) # ffffffff8001000a <_end+0xfffffffec000500a>
    c0003ba6:	c01c                	sw	a5,0(s0)
    c0003ba8:	03204163          	bgtz	s2,c0003bca <emdnorm+0xf6>
    c0003bac:	4058                	lw	a4,4(s0)
    c0003bae:	09000793          	li	a5,144
    c0003bb2:	00f70c63          	beq	a4,a5,c0003bca <emdnorm+0xf6>
    c0003bb6:	0184d783          	lhu	a5,24(s1)
    c0003bba:	8526                	mv	a0,s1
    c0003bbc:	8b85                	andi	a5,a5,1
    c0003bbe:	00f9e9b3          	or	s3,s3,a5
    c0003bc2:	00000097          	auipc	ra,0x0
    c0003bc6:	87e080e7          	jalr	-1922(ra) # c0003440 <eshdn1>
    c0003bca:	441c                	lw	a5,8(s0)
    c0003bcc:	01445603          	lhu	a2,20(s0)
    c0003bd0:	404c                	lw	a1,4(s0)
    c0003bd2:	00179693          	slli	a3,a5,0x1
    c0003bd6:	96a6                	add	a3,a3,s1
    c0003bd8:	0006d703          	lhu	a4,0(a3)
    c0003bdc:	8f71                	and	a4,a4,a2
    c0003bde:	08f00613          	li	a2,143
    c0003be2:	00b64863          	blt	a2,a1,c0003bf2 <emdnorm+0x11e>
    c0003be6:	2785                	addiw	a5,a5,1
    c0003be8:	45b1                	li	a1,12
    c0003bea:	0007861b          	sext.w	a2,a5
    c0003bee:	12c5d363          	ble	a2,a1,c0003d14 <emdnorm+0x240>
    c0003bf2:	01445783          	lhu	a5,20(s0)
    c0003bf6:	0006d603          	lhu	a2,0(a3)
    c0003bfa:	fff7c793          	not	a5,a5
    c0003bfe:	8ff1                	and	a5,a5,a2
    c0003c00:	00f69023          	sh	a5,0(a3)
    c0003c04:	01645783          	lhu	a5,22(s0)
    c0003c08:	00e7f6b3          	and	a3,a5,a4
    c0003c0c:	ce99                	beqz	a3,c0003c2a <emdnorm+0x156>
    c0003c0e:	12e79163          	bne	a5,a4,c0003d30 <emdnorm+0x25c>
    c0003c12:	10099d63          	bnez	s3,c0003d2c <emdnorm+0x258>
    c0003c16:	445c                	lw	a5,12(s0)
    c0003c18:	01845703          	lhu	a4,24(s0)
    c0003c1c:	0786                	slli	a5,a5,0x1
    c0003c1e:	97a6                	add	a5,a5,s1
    c0003c20:	0007d783          	lhu	a5,0(a5)
    c0003c24:	8ff9                	and	a5,a5,a4
    c0003c26:	10079563          	bnez	a5,c0003d30 <emdnorm+0x25c>
    c0003c2a:	01204c63          	bgtz	s2,c0003c42 <emdnorm+0x16e>
    c0003c2e:	4058                	lw	a4,4(s0)
    c0003c30:	09000793          	li	a5,144
    c0003c34:	00f70763          	beq	a4,a5,c0003c42 <emdnorm+0x16e>
    c0003c38:	8526                	mv	a0,s1
    c0003c3a:	00000097          	auipc	ra,0x0
    c0003c3e:	83e080e7          	jalr	-1986(ra) # c0003478 <eshup1>
    c0003c42:	0044d783          	lhu	a5,4(s1)
    c0003c46:	c799                	beqz	a5,c0003c54 <emdnorm+0x180>
    c0003c48:	8526                	mv	a0,s1
    c0003c4a:	fffff097          	auipc	ra,0xfffff
    c0003c4e:	7f6080e7          	jalr	2038(ra) # c0003440 <eshdn1>
    c0003c52:	0905                	addi	s2,s2,1
    c0003c54:	67a1                	lui	a5,0x8
    c0003c56:	00049c23          	sh	zero,24(s1)
    c0003c5a:	17f9                	addi	a5,a5,-2
    c0003c5c:	0f27d263          	ble	s2,a5,c0003d40 <emdnorm+0x26c>
    c0003c60:	77e1                	lui	a5,0xffff8
    c0003c62:	fff7c793          	not	a5,a5
    c0003c66:	00f49123          	sh	a5,2(s1)
    c0003c6a:	00448793          	addi	a5,s1,4
    c0003c6e:	04e1                	addi	s1,s1,24
    c0003c70:	00079023          	sh	zero,0(a5) # ffffffffffff8000 <_end+0xffffffff3ffed000>
    c0003c74:	0789                	addi	a5,a5,2
    c0003c76:	fef49de3          	bne	s1,a5,c0003c70 <emdnorm+0x19c>
    c0003c7a:	b54d                	j	c0003b1c <emdnorm+0x48>
    c0003c7c:	00248793          	addi	a5,s1,2
    c0003c80:	04e9                	addi	s1,s1,26
    c0003c82:	0789                	addi	a5,a5,2
    c0003c84:	fe079f23          	sh	zero,-2(a5)
    c0003c88:	fe979de3          	bne	a5,s1,c0003c82 <emdnorm+0x1ae>
    c0003c8c:	bd41                	j	c0003b1c <emdnorm+0x48>
    c0003c8e:	4985                	li	s3,1
    c0003c90:	bd75                	j	c0003b4c <emdnorm+0x78>
    c0003c92:	04000713          	li	a4,64
    c0003c96:	02e78163          	beq	a5,a4,c0003cb8 <emdnorm+0x1e4>
    c0003c9a:	07100713          	li	a4,113
    c0003c9e:	eee791e3          	bne	a5,a4,c0003b80 <emdnorm+0xac>
    c0003ca2:	40008737          	lui	a4,0x40008
    c0003ca6:	377d                	addiw	a4,a4,-1
    c0003ca8:	c858                	sw	a4,20(s0)
    c0003caa:	7761                	lui	a4,0xffff8
    c0003cac:	00e41c23          	sh	a4,24(s0)
    c0003cb0:	4729                	li	a4,10
    c0003cb2:	1702                	slli	a4,a4,0x20
    c0003cb4:	0729                	addi	a4,a4,10
    c0003cb6:	bdf9                	j	c0003b94 <emdnorm+0xc0>
    c0003cb8:	80010737          	lui	a4,0x80010
    c0003cbc:	377d                	addiw	a4,a4,-1
    c0003cbe:	c858                	sw	a4,20(s0)
    c0003cc0:	4705                	li	a4,1
    c0003cc2:	00e41c23          	sh	a4,24(s0)
    c0003cc6:	470d                	li	a4,3
    c0003cc8:	1706                	slli	a4,a4,0x21
    c0003cca:	071d                	addi	a4,a4,7
    c0003ccc:	b5e1                	j	c0003b94 <emdnorm+0xc0>
    c0003cce:	00800737          	lui	a4,0x800
    c0003cd2:	0ff7071b          	addiw	a4,a4,255
    c0003cd6:	c858                	sw	a4,20(s0)
    c0003cd8:	10000713          	li	a4,256
    c0003cdc:	00e41c23          	sh	a4,24(s0)
    c0003ce0:	4719                	li	a4,6
    c0003ce2:	1702                	slli	a4,a4,0x20
    c0003ce4:	0719                	addi	a4,a4,6
    c0003ce6:	b57d                	j	c0003b94 <emdnorm+0xc0>
    c0003ce8:	04000737          	lui	a4,0x4000
    c0003cec:	7ff7071b          	addiw	a4,a4,2047
    c0003cf0:	c858                	sw	a4,20(s0)
    c0003cf2:	6705                	lui	a4,0x1
    c0003cf4:	8007071b          	addiw	a4,a4,-2048
    c0003cf8:	b7d5                	j	c0003cdc <emdnorm+0x208>
    c0003cfa:	00800737          	lui	a4,0x800
    c0003cfe:	0ff7071b          	addiw	a4,a4,255
    c0003d02:	c858                	sw	a4,20(s0)
    c0003d04:	10000713          	li	a4,256
    c0003d08:	00e41c23          	sh	a4,24(s0)
    c0003d0c:	4711                	li	a4,4
    c0003d0e:	1702                	slli	a4,a4,0x20
    c0003d10:	0711                	addi	a4,a4,4
    c0003d12:	b549                	j	c0003b94 <emdnorm+0xc0>
    c0003d14:	00179613          	slli	a2,a5,0x1
    c0003d18:	9626                	add	a2,a2,s1
    c0003d1a:	00065503          	lhu	a0,0(a2)
    c0003d1e:	c119                	beqz	a0,c0003d24 <emdnorm+0x250>
    c0003d20:	00176713          	ori	a4,a4,1
    c0003d24:	00061023          	sh	zero,0(a2)
    c0003d28:	0785                	addi	a5,a5,1
    c0003d2a:	b5c1                	j	c0003bea <emdnorm+0x116>
    c0003d2c:	ee0a1fe3          	bnez	s4,c0003c2a <emdnorm+0x156>
    c0003d30:	85a6                	mv	a1,s1
    c0003d32:	01a40513          	addi	a0,s0,26
    c0003d36:	00000097          	auipc	ra,0x0
    c0003d3a:	806080e7          	jalr	-2042(ra) # c000353c <eaddm>
    c0003d3e:	b5f5                	j	c0003c2a <emdnorm+0x156>
    c0003d40:	00095563          	bgez	s2,c0003d4a <emdnorm+0x276>
    c0003d44:	00049123          	sh	zero,2(s1)
    c0003d48:	bbd1                	j	c0003b1c <emdnorm+0x48>
    c0003d4a:	01249123          	sh	s2,2(s1)
    c0003d4e:	b3f9                	j	c0003b1c <emdnorm+0x48>

00000000c0003d50 <eiremain>:
    c0003d50:	7139                	addi	sp,sp,-64
    c0003d52:	e852                	sd	s4,16(sp)
    c0003d54:	00255a03          	lhu	s4,2(a0)
    c0003d58:	f822                	sd	s0,48(sp)
    c0003d5a:	842e                	mv	s0,a1
    c0003d5c:	fc06                	sd	ra,56(sp)
    c0003d5e:	f426                	sd	s1,40(sp)
    c0003d60:	f04a                	sd	s2,32(sp)
    c0003d62:	e456                	sd	s5,8(sp)
    c0003d64:	e05a                	sd	s6,0(sp)
    c0003d66:	8932                	mv	s2,a2
    c0003d68:	03460b13          	addi	s6,a2,52
    c0003d6c:	ec4e                	sd	s3,24(sp)
    c0003d6e:	8aaa                	mv	s5,a0
    c0003d70:	00000097          	auipc	ra,0x0
    c0003d74:	b6e080e7          	jalr	-1170(ra) # c00038de <enormlz>
    c0003d78:	00245483          	lhu	s1,2(s0)
    c0003d7c:	40aa0a33          	sub	s4,s4,a0
    c0003d80:	8522                	mv	a0,s0
    c0003d82:	00000097          	auipc	ra,0x0
    c0003d86:	b5c080e7          	jalr	-1188(ra) # c00038de <enormlz>
    c0003d8a:	8c89                	sub	s1,s1,a0
    c0003d8c:	855a                	mv	a0,s6
    c0003d8e:	fffff097          	auipc	ra,0xfffff
    c0003d92:	656080e7          	jalr	1622(ra) # c00033e4 <ecleaz>
    c0003d96:	0344d563          	ble	s4,s1,c0003dc0 <eiremain+0x70>
    c0003d9a:	8522                	mv	a0,s0
    c0003d9c:	7442                	ld	s0,48(sp)
    c0003d9e:	70e2                	ld	ra,56(sp)
    c0003da0:	69e2                	ld	s3,24(sp)
    c0003da2:	6a42                	ld	s4,16(sp)
    c0003da4:	6aa2                	ld	s5,8(sp)
    c0003da6:	6b02                	ld	s6,0(sp)
    c0003da8:	87ca                	mv	a5,s2
    c0003daa:	86a6                	mv	a3,s1
    c0003dac:	7902                	ld	s2,32(sp)
    c0003dae:	74a2                	ld	s1,40(sp)
    c0003db0:	4701                	li	a4,0
    c0003db2:	4601                	li	a2,0
    c0003db4:	4581                	li	a1,0
    c0003db6:	6121                	addi	sp,sp,64
    c0003db8:	00000317          	auipc	t1,0x0
    c0003dbc:	d1c30067          	jr	-740(t1) # c0003ad4 <emdnorm>
    c0003dc0:	85a2                	mv	a1,s0
    c0003dc2:	8556                	mv	a0,s5
    c0003dc4:	fffff097          	auipc	ra,0xfffff
    c0003dc8:	650080e7          	jalr	1616(ra) # c0003414 <ecmpm>
    c0003dcc:	4981                	li	s3,0
    c0003dce:	00a04963          	bgtz	a0,c0003de0 <eiremain+0x90>
    c0003dd2:	85a2                	mv	a1,s0
    c0003dd4:	8556                	mv	a0,s5
    c0003dd6:	fffff097          	auipc	ra,0xfffff
    c0003dda:	78e080e7          	jalr	1934(ra) # c0003564 <esubm>
    c0003dde:	4985                	li	s3,1
    c0003de0:	855a                	mv	a0,s6
    c0003de2:	fffff097          	auipc	ra,0xfffff
    c0003de6:	696080e7          	jalr	1686(ra) # c0003478 <eshup1>
    c0003dea:	04c95783          	lhu	a5,76(s2)
    c0003dee:	8522                	mv	a0,s0
    c0003df0:	14fd                	addi	s1,s1,-1
    c0003df2:	00f9e9b3          	or	s3,s3,a5
    c0003df6:	05391623          	sh	s3,76(s2)
    c0003dfa:	fffff097          	auipc	ra,0xfffff
    c0003dfe:	67e080e7          	jalr	1662(ra) # c0003478 <eshup1>
    c0003e02:	bf51                	j	c0003d96 <eiremain+0x46>

00000000c0003e04 <emul>:
    c0003e04:	7171                	addi	sp,sp,-176
    c0003e06:	f122                	sd	s0,160(sp)
    c0003e08:	ed26                	sd	s1,152(sp)
    c0003e0a:	e54e                	sd	s3,136(sp)
    c0003e0c:	e152                	sd	s4,128(sp)
    c0003e0e:	f506                	sd	ra,168(sp)
    c0003e10:	e94a                	sd	s2,144(sp)
    c0003e12:	fcd6                	sd	s5,120(sp)
    c0003e14:	f8da                	sd	s6,112(sp)
    c0003e16:	f4de                	sd	s7,104(sp)
    c0003e18:	f0e2                	sd	s8,96(sp)
    c0003e1a:	84aa                	mv	s1,a0
    c0003e1c:	842e                	mv	s0,a1
    c0003e1e:	89b2                	mv	s3,a2
    c0003e20:	8a36                	mv	s4,a3
    c0003e22:	fffff097          	auipc	ra,0xfffff
    c0003e26:	7de080e7          	jalr	2014(ra) # c0003600 <eisnan>
    c0003e2a:	c11d                	beqz	a0,c0003e50 <emul+0x4c>
    c0003e2c:	85ce                	mv	a1,s3
    c0003e2e:	8526                	mv	a0,s1
    c0003e30:	fffff097          	auipc	ra,0xfffff
    c0003e34:	598080e7          	jalr	1432(ra) # c00033c8 <emov>
    c0003e38:	70aa                	ld	ra,168(sp)
    c0003e3a:	740a                	ld	s0,160(sp)
    c0003e3c:	64ea                	ld	s1,152(sp)
    c0003e3e:	694a                	ld	s2,144(sp)
    c0003e40:	69aa                	ld	s3,136(sp)
    c0003e42:	6a0a                	ld	s4,128(sp)
    c0003e44:	7ae6                	ld	s5,120(sp)
    c0003e46:	7b46                	ld	s6,112(sp)
    c0003e48:	7ba6                	ld	s7,104(sp)
    c0003e4a:	7c06                	ld	s8,96(sp)
    c0003e4c:	614d                	addi	sp,sp,176
    c0003e4e:	8082                	ret
    c0003e50:	8522                	mv	a0,s0
    c0003e52:	fffff097          	auipc	ra,0xfffff
    c0003e56:	7ae080e7          	jalr	1966(ra) # c0003600 <eisnan>
    c0003e5a:	c501                	beqz	a0,c0003e62 <emul+0x5e>
    c0003e5c:	85ce                	mv	a1,s3
    c0003e5e:	8522                	mv	a0,s0
    c0003e60:	bfc1                	j	c0003e30 <emul+0x2c>
    c0003e62:	8526                	mv	a0,s1
    c0003e64:	00000097          	auipc	ra,0x0
    c0003e68:	93a080e7          	jalr	-1734(ra) # c000379e <eisinf>
    c0003e6c:	e13d                	bnez	a0,c0003ed2 <emul+0xce>
    c0003e6e:	8522                	mv	a0,s0
    c0003e70:	00000097          	auipc	ra,0x0
    c0003e74:	92e080e7          	jalr	-1746(ra) # c000379e <eisinf>
    c0003e78:	c919                	beqz	a0,c0003e8e <emul+0x8a>
    c0003e7a:	00005597          	auipc	a1,0x5
    c0003e7e:	6e658593          	addi	a1,a1,1766 # c0009560 <ezero>
    c0003e82:	8526                	mv	a0,s1
    c0003e84:	00000097          	auipc	ra,0x0
    c0003e88:	866080e7          	jalr	-1946(ra) # c00036ea <ecmp>
    c0003e8c:	cd29                	beqz	a0,c0003ee6 <emul+0xe2>
    c0003e8e:	8526                	mv	a0,s1
    c0003e90:	00000097          	auipc	ra,0x0
    c0003e94:	90e080e7          	jalr	-1778(ra) # c000379e <eisinf>
    c0003e98:	e519                	bnez	a0,c0003ea6 <emul+0xa2>
    c0003e9a:	8522                	mv	a0,s0
    c0003e9c:	00000097          	auipc	ra,0x0
    c0003ea0:	902080e7          	jalr	-1790(ra) # c000379e <eisinf>
    c0003ea4:	c931                	beqz	a0,c0003ef8 <emul+0xf4>
    c0003ea6:	8526                	mv	a0,s1
    c0003ea8:	fffff097          	auipc	ra,0xfffff
    c0003eac:	77e080e7          	jalr	1918(ra) # c0003626 <eisneg>
    c0003eb0:	84aa                	mv	s1,a0
    c0003eb2:	8522                	mv	a0,s0
    c0003eb4:	fffff097          	auipc	ra,0xfffff
    c0003eb8:	772080e7          	jalr	1906(ra) # c0003626 <eisneg>
    c0003ebc:	02a48b63          	beq	s1,a0,c0003ef2 <emul+0xee>
    c0003ec0:	77e1                	lui	a5,0xffff8
    c0003ec2:	00f99923          	sh	a5,18(s3)
    c0003ec6:	854e                	mv	a0,s3
    c0003ec8:	00000097          	auipc	ra,0x0
    c0003ecc:	8fe080e7          	jalr	-1794(ra) # c00037c6 <einfin.isra.2>
    c0003ed0:	b7a5                	j	c0003e38 <emul+0x34>
    c0003ed2:	00005597          	auipc	a1,0x5
    c0003ed6:	68e58593          	addi	a1,a1,1678 # c0009560 <ezero>
    c0003eda:	8522                	mv	a0,s0
    c0003edc:	00000097          	auipc	ra,0x0
    c0003ee0:	80e080e7          	jalr	-2034(ra) # c00036ea <ecmp>
    c0003ee4:	f549                	bnez	a0,c0003e6e <emul+0x6a>
    c0003ee6:	854e                	mv	a0,s3
    c0003ee8:	00000097          	auipc	ra,0x0
    c0003eec:	aa0080e7          	jalr	-1376(ra) # c0003988 <enan.constprop.12>
    c0003ef0:	b7a1                	j	c0003e38 <emul+0x34>
    c0003ef2:	00099923          	sh	zero,18(s3)
    c0003ef6:	bfc1                	j	c0003ec6 <emul+0xc2>
    c0003ef8:	8526                	mv	a0,s1
    c0003efa:	858a                	mv	a1,sp
    c0003efc:	fffff097          	auipc	ra,0xfffff
    c0003f00:	750080e7          	jalr	1872(ra) # c000364c <emovi>
    c0003f04:	8522                	mv	a0,s0
    c0003f06:	100c                	addi	a1,sp,32
    c0003f08:	fffff097          	auipc	ra,0xfffff
    c0003f0c:	744080e7          	jalr	1860(ra) # c000364c <emovi>
    c0003f10:	00215403          	lhu	s0,2(sp)
    c0003f14:	02215483          	lhu	s1,34(sp)
    c0003f18:	c469                	beqz	s0,c0003fe2 <emul+0x1de>
    c0003f1a:	02215783          	lhu	a5,34(sp)
    c0003f1e:	8b26                	mv	s6,s1
    c0003f20:	cbf9                	beqz	a5,c0003ff6 <emul+0x1f2>
    c0003f22:	5782                	lw	a5,32(sp)
    c0003f24:	034a0913          	addi	s2,s4,52
    c0003f28:	04ea0b93          	addi	s7,s4,78
    c0003f2c:	02fa2a23          	sw	a5,52(s4)
    c0003f30:	038a0793          	addi	a5,s4,56
    c0003f34:	00079023          	sh	zero,0(a5) # ffffffffffff8000 <_end+0xffffffff3ffed000>
    c0003f38:	0789                	addi	a5,a5,2
    c0003f3a:	ff779de3          	bne	a5,s7,c0003f34 <emul+0x130>
    c0003f3e:	848a                	mv	s1,sp
    c0003f40:	fec10c13          	addi	s8,sp,-20
    c0003f44:	4a81                	li	s5,0
    c0003f46:	0184d503          	lhu	a0,24(s1)
    c0003f4a:	cd09                	beqz	a0,c0003f64 <emul+0x160>
    c0003f4c:	100c                	addi	a1,sp,32
    c0003f4e:	0090                	addi	a2,sp,64
    c0003f50:	fffff097          	auipc	ra,0xfffff
    c0003f54:	63c080e7          	jalr	1596(ra) # c000358c <m16m>
    c0003f58:	85ca                	mv	a1,s2
    c0003f5a:	0088                	addi	a0,sp,64
    c0003f5c:	fffff097          	auipc	ra,0xfffff
    c0003f60:	5e0080e7          	jalr	1504(ra) # c000353c <eaddm>
    c0003f64:	04ca5783          	lhu	a5,76(s4)
    c0003f68:	854a                	mv	a0,s2
    c0003f6a:	14f9                	addi	s1,s1,-2
    c0003f6c:	00faeab3          	or	s5,s5,a5
    c0003f70:	fffff097          	auipc	ra,0xfffff
    c0003f74:	5b0080e7          	jalr	1456(ra) # c0003520 <eshdn6>
    c0003f78:	fc9c17e3          	bne	s8,s1,c0003f46 <emul+0x142>
    c0003f7c:	85ca                	mv	a1,s2
    c0003f7e:	101c                	addi	a5,sp,32
    c0003f80:	0005d703          	lhu	a4,0(a1)
    c0003f84:	0589                	addi	a1,a1,2
    c0003f86:	0789                	addi	a5,a5,2
    c0003f88:	fee79f23          	sh	a4,-2(a5)
    c0003f8c:	ff759ae3          	bne	a1,s7,c0003f80 <emul+0x17c>
    c0003f90:	76f1                	lui	a3,0xffffc
    c0003f92:	945a                	add	s0,s0,s6
    c0003f94:	0689                	addi	a3,a3,2
    c0003f96:	87d2                	mv	a5,s4
    c0003f98:	04000713          	li	a4,64
    c0003f9c:	96a2                	add	a3,a3,s0
    c0003f9e:	4601                	li	a2,0
    c0003fa0:	85d6                	mv	a1,s5
    c0003fa2:	1008                	addi	a0,sp,32
    c0003fa4:	00000097          	auipc	ra,0x0
    c0003fa8:	b30080e7          	jalr	-1232(ra) # c0003ad4 <emdnorm>
    c0003fac:	00015703          	lhu	a4,0(sp)
    c0003fb0:	02015783          	lhu	a5,32(sp)
    c0003fb4:	06f71163          	bne	a4,a5,c0004016 <emul+0x212>
    c0003fb8:	02011023          	sh	zero,32(sp)
    c0003fbc:	85ce                	mv	a1,s3
    c0003fbe:	1008                	addi	a0,sp,32
    c0003fc0:	00000097          	auipc	ra,0x0
    c0003fc4:	9e0080e7          	jalr	-1568(ra) # c00039a0 <emovo.isra.6>
    c0003fc8:	bd85                	j	c0003e38 <emul+0x34>
    c0003fca:	0789                	addi	a5,a5,2
    c0003fcc:	0027d683          	lhu	a3,2(a5)
    c0003fd0:	ca99                	beqz	a3,c0003fe6 <emul+0x1e2>
    c0003fd2:	850a                	mv	a0,sp
    c0003fd4:	00000097          	auipc	ra,0x0
    c0003fd8:	90a080e7          	jalr	-1782(ra) # c00038de <enormlz>
    c0003fdc:	40a00433          	neg	s0,a0
    c0003fe0:	bf2d                	j	c0003f1a <emul+0x116>
    c0003fe2:	878a                	mv	a5,sp
    c0003fe4:	0858                	addi	a4,sp,20
    c0003fe6:	fee792e3          	bne	a5,a4,c0003fca <emul+0x1c6>
    c0003fea:	854e                	mv	a0,s3
    c0003fec:	fffff097          	auipc	ra,0xfffff
    c0003ff0:	3cc080e7          	jalr	972(ra) # c00033b8 <eclear>
    c0003ff4:	b591                	j	c0003e38 <emul+0x34>
    c0003ff6:	101c                	addi	a5,sp,32
    c0003ff8:	1858                	addi	a4,sp,52
    c0003ffa:	fee788e3          	beq	a5,a4,c0003fea <emul+0x1e6>
    c0003ffe:	0789                	addi	a5,a5,2
    c0004000:	0027d683          	lhu	a3,2(a5)
    c0004004:	dafd                	beqz	a3,c0003ffa <emul+0x1f6>
    c0004006:	1008                	addi	a0,sp,32
    c0004008:	00000097          	auipc	ra,0x0
    c000400c:	8d6080e7          	jalr	-1834(ra) # c00038de <enormlz>
    c0004010:	40a48b33          	sub	s6,s1,a0
    c0004014:	b739                	j	c0003f22 <emul+0x11e>
    c0004016:	57fd                	li	a5,-1
    c0004018:	02f11023          	sh	a5,32(sp)
    c000401c:	b745                	j	c0003fbc <emul+0x1b8>

00000000c000401e <ediv>:
    c000401e:	7131                	addi	sp,sp,-192
    c0004020:	f922                	sd	s0,176(sp)
    c0004022:	f526                	sd	s1,168(sp)
    c0004024:	f14a                	sd	s2,160(sp)
    c0004026:	e556                	sd	s5,136(sp)
    c0004028:	fd06                	sd	ra,184(sp)
    c000402a:	ed4e                	sd	s3,152(sp)
    c000402c:	e952                	sd	s4,144(sp)
    c000402e:	e15a                	sd	s6,128(sp)
    c0004030:	fcde                	sd	s7,120(sp)
    c0004032:	f8e2                	sd	s8,112(sp)
    c0004034:	f4e6                	sd	s9,104(sp)
    c0004036:	84aa                	mv	s1,a0
    c0004038:	842e                	mv	s0,a1
    c000403a:	8932                	mv	s2,a2
    c000403c:	8ab6                	mv	s5,a3
    c000403e:	fffff097          	auipc	ra,0xfffff
    c0004042:	5c2080e7          	jalr	1474(ra) # c0003600 <eisnan>
    c0004046:	c505                	beqz	a0,c000406e <ediv+0x50>
    c0004048:	85ca                	mv	a1,s2
    c000404a:	8526                	mv	a0,s1
    c000404c:	fffff097          	auipc	ra,0xfffff
    c0004050:	37c080e7          	jalr	892(ra) # c00033c8 <emov>
    c0004054:	70ea                	ld	ra,184(sp)
    c0004056:	744a                	ld	s0,176(sp)
    c0004058:	74aa                	ld	s1,168(sp)
    c000405a:	790a                	ld	s2,160(sp)
    c000405c:	69ea                	ld	s3,152(sp)
    c000405e:	6a4a                	ld	s4,144(sp)
    c0004060:	6aaa                	ld	s5,136(sp)
    c0004062:	6b0a                	ld	s6,128(sp)
    c0004064:	7be6                	ld	s7,120(sp)
    c0004066:	7c46                	ld	s8,112(sp)
    c0004068:	7ca6                	ld	s9,104(sp)
    c000406a:	6129                	addi	sp,sp,192
    c000406c:	8082                	ret
    c000406e:	8522                	mv	a0,s0
    c0004070:	fffff097          	auipc	ra,0xfffff
    c0004074:	590080e7          	jalr	1424(ra) # c0003600 <eisnan>
    c0004078:	c501                	beqz	a0,c0004080 <ediv+0x62>
    c000407a:	85ca                	mv	a1,s2
    c000407c:	8522                	mv	a0,s0
    c000407e:	b7f9                	j	c000404c <ediv+0x2e>
    c0004080:	00005597          	auipc	a1,0x5
    c0004084:	4e058593          	addi	a1,a1,1248 # c0009560 <ezero>
    c0004088:	8526                	mv	a0,s1
    c000408a:	fffff097          	auipc	ra,0xfffff
    c000408e:	660080e7          	jalr	1632(ra) # c00036ea <ecmp>
    c0004092:	c529                	beqz	a0,c00040dc <ediv+0xbe>
    c0004094:	8526                	mv	a0,s1
    c0004096:	fffff097          	auipc	ra,0xfffff
    c000409a:	708080e7          	jalr	1800(ra) # c000379e <eisinf>
    c000409e:	89aa                	mv	s3,a0
    c00040a0:	8522                	mv	a0,s0
    c00040a2:	fffff097          	auipc	ra,0xfffff
    c00040a6:	6fc080e7          	jalr	1788(ra) # c000379e <eisinf>
    c00040aa:	04099963          	bnez	s3,c00040fc <ediv+0xde>
    c00040ae:	cd31                	beqz	a0,c000410a <ediv+0xec>
    c00040b0:	8526                	mv	a0,s1
    c00040b2:	fffff097          	auipc	ra,0xfffff
    c00040b6:	574080e7          	jalr	1396(ra) # c0003626 <eisneg>
    c00040ba:	84aa                	mv	s1,a0
    c00040bc:	8522                	mv	a0,s0
    c00040be:	fffff097          	auipc	ra,0xfffff
    c00040c2:	568080e7          	jalr	1384(ra) # c0003626 <eisneg>
    c00040c6:	1ca48963          	beq	s1,a0,c0004298 <ediv+0x27a>
    c00040ca:	77e1                	lui	a5,0xffff8
    c00040cc:	00f91923          	sh	a5,18(s2)
    c00040d0:	854a                	mv	a0,s2
    c00040d2:	fffff097          	auipc	ra,0xfffff
    c00040d6:	6f4080e7          	jalr	1780(ra) # c00037c6 <einfin.isra.2>
    c00040da:	bfad                	j	c0004054 <ediv+0x36>
    c00040dc:	00005597          	auipc	a1,0x5
    c00040e0:	48458593          	addi	a1,a1,1156 # c0009560 <ezero>
    c00040e4:	8522                	mv	a0,s0
    c00040e6:	fffff097          	auipc	ra,0xfffff
    c00040ea:	604080e7          	jalr	1540(ra) # c00036ea <ecmp>
    c00040ee:	f15d                	bnez	a0,c0004094 <ediv+0x76>
    c00040f0:	854a                	mv	a0,s2
    c00040f2:	00000097          	auipc	ra,0x0
    c00040f6:	896080e7          	jalr	-1898(ra) # c0003988 <enan.constprop.12>
    c00040fa:	bfa9                	j	c0004054 <ediv+0x36>
    c00040fc:	f975                	bnez	a0,c00040f0 <ediv+0xd2>
    c00040fe:	854a                	mv	a0,s2
    c0004100:	fffff097          	auipc	ra,0xfffff
    c0004104:	2b8080e7          	jalr	696(ra) # c00033b8 <eclear>
    c0004108:	b7b1                	j	c0004054 <ediv+0x36>
    c000410a:	8526                	mv	a0,s1
    c000410c:	858a                	mv	a1,sp
    c000410e:	fffff097          	auipc	ra,0xfffff
    c0004112:	53e080e7          	jalr	1342(ra) # c000364c <emovi>
    c0004116:	8522                	mv	a0,s0
    c0004118:	100c                	addi	a1,sp,32
    c000411a:	fffff097          	auipc	ra,0xfffff
    c000411e:	532080e7          	jalr	1330(ra) # c000364c <emovi>
    c0004122:	02215483          	lhu	s1,34(sp)
    c0004126:	00215403          	lhu	s0,2(sp)
    c000412a:	12048163          	beqz	s1,c000424c <ediv+0x22e>
    c000412e:	00215783          	lhu	a5,2(sp)
    c0004132:	8ba2                	mv	s7,s0
    c0004134:	14078863          	beqz	a5,c0004284 <ediv+0x266>
    c0004138:	5702                	lw	a4,32(sp)
    c000413a:	038a8793          	addi	a5,s5,56
    c000413e:	04ea8b13          	addi	s6,s5,78
    c0004142:	02eaaa23          	sw	a4,52(s5)
    c0004146:	89be                	mv	s3,a5
    c0004148:	0789                	addi	a5,a5,2
    c000414a:	fe079f23          	sh	zero,-2(a5) # ffffffffffff7ffe <_end+0xffffffff3ffecffe>
    c000414e:	ff679de3          	bne	a5,s6,c0004148 <ediv+0x12a>
    c0004152:	1008                	addi	a0,sp,32
    c0004154:	fffff097          	auipc	ra,0xfffff
    c0004158:	2ec080e7          	jalr	748(ra) # c0003440 <eshdn1>
    c000415c:	00615c03          	lhu	s8,6(sp)
    c0004160:	6a41                	lui	s4,0x10
    c0004162:	1a7d                	addi	s4,s4,-1
    c0004164:	034c0cb3          	mul	s9,s8,s4
    c0004168:	02415783          	lhu	a5,36(sp)
    c000416c:	02615403          	lhu	s0,38(sp)
    c0004170:	07c2                	slli	a5,a5,0x10
    c0004172:	97a2                	add	a5,a5,s0
    c0004174:	8452                	mv	s0,s4
    c0004176:	00fce663          	bltu	s9,a5,c0004182 <ediv+0x164>
    c000417a:	0387d433          	divu	s0,a5,s8
    c000417e:	1442                	slli	s0,s0,0x30
    c0004180:	9041                	srli	s0,s0,0x30
    c0004182:	858a                	mv	a1,sp
    c0004184:	8522                	mv	a0,s0
    c0004186:	0090                	addi	a2,sp,64
    c0004188:	fffff097          	auipc	ra,0xfffff
    c000418c:	404080e7          	jalr	1028(ra) # c000358c <m16m>
    c0004190:	100c                	addi	a1,sp,32
    c0004192:	0088                	addi	a0,sp,64
    c0004194:	fffff097          	auipc	ra,0xfffff
    c0004198:	280080e7          	jalr	640(ra) # c0003414 <ecmpm>
    c000419c:	02a05363          	blez	a0,c00041c2 <ediv+0x1a4>
    c00041a0:	008c                	addi	a1,sp,64
    c00041a2:	850a                	mv	a0,sp
    c00041a4:	fffff097          	auipc	ra,0xfffff
    c00041a8:	3c0080e7          	jalr	960(ra) # c0003564 <esubm>
    c00041ac:	100c                	addi	a1,sp,32
    c00041ae:	0088                	addi	a0,sp,64
    c00041b0:	fffff097          	auipc	ra,0xfffff
    c00041b4:	264080e7          	jalr	612(ra) # c0003414 <ecmpm>
    c00041b8:	0ea04363          	bgtz	a0,c000429e <ediv+0x280>
    c00041bc:	347d                	addiw	s0,s0,-1
    c00041be:	1442                	slli	s0,s0,0x30
    c00041c0:	9041                	srli	s0,s0,0x30
    c00041c2:	100c                	addi	a1,sp,32
    c00041c4:	0088                	addi	a0,sp,64
    c00041c6:	fffff097          	auipc	ra,0xfffff
    c00041ca:	39e080e7          	jalr	926(ra) # c0003564 <esubm>
    c00041ce:	1008                	addi	a0,sp,32
    c00041d0:	00899023          	sh	s0,0(s3)
    c00041d4:	0989                	addi	s3,s3,2
    c00041d6:	fffff097          	auipc	ra,0xfffff
    c00041da:	32e080e7          	jalr	814(ra) # c0003504 <eshup6>
    c00041de:	f93b15e3          	bne	s6,s3,c0004168 <ediv+0x14a>
    c00041e2:	1018                	addi	a4,sp,32
    c00041e4:	03610693          	addi	a3,sp,54
    c00041e8:	87ba                	mv	a5,a4
    c00041ea:	4581                	li	a1,0
    c00041ec:	0047d603          	lhu	a2,4(a5)
    c00041f0:	0789                	addi	a5,a5,2
    c00041f2:	8dd1                	or	a1,a1,a2
    c00041f4:	fef69ce3          	bne	a3,a5,c00041ec <ediv+0x1ce>
    c00041f8:	2581                	sext.w	a1,a1
    c00041fa:	00b035b3          	snez	a1,a1
    c00041fe:	034a8793          	addi	a5,s5,52
    c0004202:	0007d683          	lhu	a3,0(a5)
    c0004206:	0789                	addi	a5,a5,2
    c0004208:	0709                	addi	a4,a4,2
    c000420a:	fed71f23          	sh	a3,-2(a4) # 7ffffe <main-0xbf800002>
    c000420e:	fefb1ae3          	bne	s6,a5,c0004202 <ediv+0x1e4>
    c0004212:	6691                	lui	a3,0x4
    c0004214:	417484b3          	sub	s1,s1,s7
    c0004218:	16fd                	addi	a3,a3,-1
    c000421a:	87d6                	mv	a5,s5
    c000421c:	04000713          	li	a4,64
    c0004220:	96a6                	add	a3,a3,s1
    c0004222:	4601                	li	a2,0
    c0004224:	1008                	addi	a0,sp,32
    c0004226:	00000097          	auipc	ra,0x0
    c000422a:	8ae080e7          	jalr	-1874(ra) # c0003ad4 <emdnorm>
    c000422e:	00015703          	lhu	a4,0(sp)
    c0004232:	02015783          	lhu	a5,32(sp)
    c0004236:	06f71e63          	bne	a4,a5,c00042b2 <ediv+0x294>
    c000423a:	02011023          	sh	zero,32(sp)
    c000423e:	85ca                	mv	a1,s2
    c0004240:	1008                	addi	a0,sp,32
    c0004242:	fffff097          	auipc	ra,0xfffff
    c0004246:	75e080e7          	jalr	1886(ra) # c00039a0 <emovo.isra.6>
    c000424a:	b529                	j	c0004054 <ediv+0x36>
    c000424c:	101c                	addi	a5,sp,32
    c000424e:	1858                	addi	a4,sp,52
    c0004250:	eae787e3          	beq	a5,a4,c00040fe <ediv+0xe0>
    c0004254:	0789                	addi	a5,a5,2
    c0004256:	0027d683          	lhu	a3,2(a5)
    c000425a:	dafd                	beqz	a3,c0004250 <ediv+0x232>
    c000425c:	1008                	addi	a0,sp,32
    c000425e:	fffff097          	auipc	ra,0xfffff
    c0004262:	680080e7          	jalr	1664(ra) # c00038de <enormlz>
    c0004266:	40a004b3          	neg	s1,a0
    c000426a:	b5d1                	j	c000412e <ediv+0x110>
    c000426c:	0789                	addi	a5,a5,2
    c000426e:	0027d683          	lhu	a3,2(a5)
    c0004272:	ca99                	beqz	a3,c0004288 <ediv+0x26a>
    c0004274:	850a                	mv	a0,sp
    c0004276:	fffff097          	auipc	ra,0xfffff
    c000427a:	668080e7          	jalr	1640(ra) # c00038de <enormlz>
    c000427e:	40a40bb3          	sub	s7,s0,a0
    c0004282:	bd5d                	j	c0004138 <ediv+0x11a>
    c0004284:	878a                	mv	a5,sp
    c0004286:	0858                	addi	a4,sp,20
    c0004288:	fee792e3          	bne	a5,a4,c000426c <ediv+0x24e>
    c000428c:	00015703          	lhu	a4,0(sp)
    c0004290:	02015783          	lhu	a5,32(sp)
    c0004294:	e2f71be3          	bne	a4,a5,c00040ca <ediv+0xac>
    c0004298:	00091923          	sh	zero,18(s2)
    c000429c:	bd15                	j	c00040d0 <ediv+0xb2>
    c000429e:	3479                	addiw	s0,s0,-2
    c00042a0:	1442                	slli	s0,s0,0x30
    c00042a2:	008c                	addi	a1,sp,64
    c00042a4:	850a                	mv	a0,sp
    c00042a6:	9041                	srli	s0,s0,0x30
    c00042a8:	fffff097          	auipc	ra,0xfffff
    c00042ac:	2bc080e7          	jalr	700(ra) # c0003564 <esubm>
    c00042b0:	bf09                	j	c00041c2 <ediv+0x1a4>
    c00042b2:	57fd                	li	a5,-1
    c00042b4:	02f11023          	sh	a5,32(sp)
    c00042b8:	b759                	j	c000423e <ediv+0x220>

00000000c00042ba <_ldtoa_r>:
    c00042ba:	dd010113          	addi	sp,sp,-560
    c00042be:	f7de                	sd	s7,488(sp)
    c00042c0:	8bbe                	mv	s7,a5
    c00042c2:	09100793          	li	a5,145
    c00042c6:	f02e                	sd	a1,32(sp)
    c00042c8:	1782                	slli	a5,a5,0x20
    c00042ca:	712c                	ld	a1,96(a0)
    c00042cc:	17fd                	addi	a5,a5,-1
    c00042ce:	22813023          	sd	s0,544(sp)
    c00042d2:	21213823          	sd	s2,528(sp)
    c00042d6:	ffd6                	sd	s5,504(sp)
    c00042d8:	fbda                	sd	s6,496(sp)
    c00042da:	22113423          	sd	ra,552(sp)
    c00042de:	20913c23          	sd	s1,536(sp)
    c00042e2:	21313423          	sd	s3,520(sp)
    c00042e6:	21413023          	sd	s4,512(sp)
    c00042ea:	f3e2                	sd	s8,480(sp)
    c00042ec:	efe6                	sd	s9,472(sp)
    c00042ee:	ebea                	sd	s10,464(sp)
    c00042f0:	e7ee                	sd	s11,456(sp)
    c00042f2:	e046                	sd	a7,0(sp)
    c00042f4:	f432                	sd	a2,40(sp)
    c00042f6:	fabe                	sd	a5,368(sp)
    c00042f8:	892a                	mv	s2,a0
    c00042fa:	8ab6                	mv	s5,a3
    c00042fc:	8b3a                	mv	s6,a4
    c00042fe:	8442                	mv	s0,a6
    c0004300:	cd89                	beqz	a1,c000431a <_ldtoa_r+0x60>
    c0004302:	5538                	lw	a4,104(a0)
    c0004304:	4785                	li	a5,1
    c0004306:	00e797bb          	sllw	a5,a5,a4
    c000430a:	c598                	sw	a4,8(a1)
    c000430c:	c5dc                	sw	a5,12(a1)
    c000430e:	00001097          	auipc	ra,0x1
    c0004312:	df4080e7          	jalr	-524(ra) # c0005102 <_Bfree>
    c0004316:	06093023          	sd	zero,96(s2)
    c000431a:	1008                	addi	a0,sp,32
    c000431c:	088c                	addi	a1,sp,80
    c000431e:	fffff097          	auipc	ra,0xfffff
    c0004322:	6dc080e7          	jalr	1756(ra) # c00039fa <e113toe.isra.8>
    c0004326:	0888                	addi	a0,sp,80
    c0004328:	fffff097          	auipc	ra,0xfffff
    c000432c:	2fe080e7          	jalr	766(ra) # c0003626 <eisneg>
    c0004330:	16050e63          	beqz	a0,c00044ac <_ldtoa_r+0x1f2>
    c0004334:	4785                	li	a5,1
    c0004336:	c01c                	sw	a5,0(s0)
    c0004338:	478d                	li	a5,3
    c000433a:	16fa8c63          	beq	s5,a5,c00044b2 <_ldtoa_r+0x1f8>
    c000433e:	44d1                	li	s1,20
    c0004340:	000a8c63          	beqz	s5,c0004358 <_ldtoa_r+0x9e>
    c0004344:	fffb079b          	addiw	a5,s6,-1
    c0004348:	02a00713          	li	a4,42
    c000434c:	0007849b          	sext.w	s1,a5
    c0004350:	00f75463          	ble	a5,a4,c0004358 <_ldtoa_r+0x9e>
    c0004354:	02a00493          	li	s1,42
    c0004358:	17412783          	lw	a5,372(sp)
    c000435c:	0888                	addi	a0,sp,80
    c000435e:	e43e                	sd	a5,8(sp)
    c0004360:	fffff097          	auipc	ra,0xfffff
    c0004364:	2a0080e7          	jalr	672(ra) # c0003600 <eisnan>
    c0004368:	842a                	mv	s0,a0
    c000436a:	00005597          	auipc	a1,0x5
    c000436e:	f6e58593          	addi	a1,a1,-146 # c00092d8 <zeroes.4827+0x10>
    c0004372:	12051be3          	bnez	a0,c0004ca8 <_ldtoa_r+0x9ee>
    c0004376:	09000793          	li	a5,144
    c000437a:	188c                	addi	a1,sp,112
    c000437c:	0888                	addi	a0,sp,80
    c000437e:	16f12a23          	sw	a5,372(sp)
    c0004382:	fffff097          	auipc	ra,0xfffff
    c0004386:	046080e7          	jalr	70(ra) # c00033c8 <emov>
    c000438a:	08215783          	lhu	a5,130(sp)
    c000438e:	4a01                	li	s4,0
    c0004390:	0107971b          	slliw	a4,a5,0x10
    c0004394:	4107571b          	sraiw	a4,a4,0x10
    c0004398:	02071693          	slli	a3,a4,0x20
    c000439c:	0006d963          	bgez	a3,c00043ae <_ldtoa_r+0xf4>
    c00043a0:	6721                	lui	a4,0x8
    c00043a2:	177d                	addi	a4,a4,-1
    c00043a4:	8ff9                	and	a5,a5,a4
    c00043a6:	6a41                	lui	s4,0x10
    c00043a8:	08f11123          	sh	a5,130(sp)
    c00043ac:	1a7d                	addi	s4,s4,-1
    c00043ae:	090c                	addi	a1,sp,144
    c00043b0:	00005517          	auipc	a0,0x5
    c00043b4:	09050513          	addi	a0,a0,144 # c0009440 <eone>
    c00043b8:	fffff097          	auipc	ra,0xfffff
    c00043bc:	010080e7          	jalr	16(ra) # c00033c8 <emov>
    c00043c0:	08215703          	lhu	a4,130(sp)
    c00043c4:	0c0714e3          	bnez	a4,c0004c8c <_ldtoa_r+0x9d2>
    c00043c8:	189c                	addi	a5,sp,112
    c00043ca:	08210713          	addi	a4,sp,130
    c00043ce:	0007d683          	lhu	a3,0(a5)
    c00043d2:	eaf5                	bnez	a3,c00044c6 <_ldtoa_r+0x20c>
    c00043d4:	0789                	addi	a5,a5,2
    c00043d6:	fef71ce3          	bne	a4,a5,c00043ce <_ldtoa_r+0x114>
    c00043da:	098c                	addi	a1,sp,208
    c00043dc:	0908                	addi	a0,sp,144
    c00043de:	fffff097          	auipc	ra,0xfffff
    c00043e2:	26e080e7          	jalr	622(ra) # c000364c <emovi>
    c00043e6:	090c                	addi	a1,sp,144
    c00043e8:	0988                	addi	a0,sp,208
    c00043ea:	fffff097          	auipc	ra,0xfffff
    c00043ee:	00a080e7          	jalr	10(ra) # c00033f4 <emovz>
    c00043f2:	098c                	addi	a1,sp,208
    c00043f4:	1888                	addi	a0,sp,112
    c00043f6:	fffff097          	auipc	ra,0xfffff
    c00043fa:	256080e7          	jalr	598(ra) # c000364c <emovi>
    c00043fe:	188c                	addi	a1,sp,112
    c0004400:	0988                	addi	a0,sp,208
    c0004402:	fffff097          	auipc	ra,0xfffff
    c0004406:	ff2080e7          	jalr	-14(ra) # c00033f4 <emovz>
    c000440a:	1a90                	addi	a2,sp,368
    c000440c:	188c                	addi	a1,sp,112
    c000440e:	0908                	addi	a0,sp,144
    c0004410:	00000097          	auipc	ra,0x0
    c0004414:	940080e7          	jalr	-1728(ra) # c0003d50 <eiremain>
    c0004418:	1bc15983          	lhu	s3,444(sp)
    c000441c:	00005c17          	auipc	s8,0x5
    c0004420:	144c0c13          	addi	s8,s8,324 # c0009560 <ezero>
    c0004424:	00099a63          	bnez	s3,c0004438 <_ldtoa_r+0x17e>
    c0004428:	85e2                	mv	a1,s8
    c000442a:	1888                	addi	a0,sp,112
    c000442c:	fffff097          	auipc	ra,0xfffff
    c0004430:	2be080e7          	jalr	702(ra) # c00036ea <ecmp>
    c0004434:	5e051763          	bnez	a0,c0004a22 <_ldtoa_r+0x768>
    c0004438:	02d00793          	li	a5,45
    c000443c:	000a1463          	bnez	s4,c0004444 <_ldtoa_r+0x18a>
    c0004440:	02000793          	li	a5,32
    c0004444:	12f10823          	sb	a5,304(sp)
    c0004448:	478d                	li	a5,3
    c000444a:	8a26                	mv	s4,s1
    c000444c:	00fa9b63          	bne	s5,a5,c0004462 <_ldtoa_r+0x1a8>
    c0004450:	0084873b          	addw	a4,s1,s0
    c0004454:	02a00793          	li	a5,42
    c0004458:	8a3a                	mv	s4,a4
    c000445a:	00e7d463          	ble	a4,a5,c0004462 <_ldtoa_r+0x1a8>
    c000445e:	02a00a13          	li	s4,42
    c0004462:	47a9                	li	a5,10
    c0004464:	60f99563          	bne	s3,a5,c0004a6e <_ldtoa_r+0x7b4>
    c0004468:	03100793          	li	a5,49
    c000446c:	12f108a3          	sb	a5,305(sp)
    c0004470:	02e00793          	li	a5,46
    c0004474:	12f10923          	sb	a5,306(sp)
    c0004478:	13310c13          	addi	s8,sp,307
    c000447c:	01405963          	blez	s4,c000448e <_ldtoa_r+0x1d4>
    c0004480:	03000793          	li	a5,48
    c0004484:	12f109a3          	sb	a5,307(sp)
    c0004488:	3a7d                	addiw	s4,s4,-1
    c000448a:	13410c13          	addi	s8,sp,308
    c000448e:	2405                	addiw	s0,s0,1
    c0004490:	5e0a5963          	bgez	s4,c0004a82 <_ldtoa_r+0x7c8>
    c0004494:	8622                	mv	a2,s0
    c0004496:	00005597          	auipc	a1,0x5
    c000449a:	e7258593          	addi	a1,a1,-398 # c0009308 <zeroes.4827+0x40>
    c000449e:	8562                	mv	a0,s8
    c00044a0:	00001097          	auipc	ra,0x1
    c00044a4:	278080e7          	jalr	632(ra) # c0005718 <sprintf>
    c00044a8:	0110006f          	j	c0004cb8 <_ldtoa_r+0x9fe>
    c00044ac:	00042023          	sw	zero,0(s0)
    c00044b0:	b561                	j	c0004338 <_ldtoa_r+0x7e>
    c00044b2:	87da                	mv	a5,s6
    c00044b4:	bd51                	j	c0004348 <_ldtoa_r+0x8e>
    c00044b6:	08011783          	lh	a5,128(sp)
    c00044ba:	00005597          	auipc	a1,0x5
    c00044be:	e4658593          	addi	a1,a1,-442 # c0009300 <zeroes.4827+0x38>
    c00044c2:	7e07d363          	bgez	a5,c0004ca8 <_ldtoa_r+0x9ee>
    c00044c6:	188c                	addi	a1,sp,112
    c00044c8:	00005517          	auipc	a0,0x5
    c00044cc:	f7850513          	addi	a0,a0,-136 # c0009440 <eone>
    c00044d0:	fffff097          	auipc	ra,0xfffff
    c00044d4:	21a080e7          	jalr	538(ra) # c00036ea <ecmp>
    c00044d8:	d109                	beqz	a0,c00043da <_ldtoa_r+0x120>
    c00044da:	3c055c63          	bgez	a0,c00048b2 <_ldtoa_r+0x5f8>
    c00044de:	190c                	addi	a1,sp,176
    c00044e0:	1888                	addi	a0,sp,112
    c00044e2:	fffff097          	auipc	ra,0xfffff
    c00044e6:	ee6080e7          	jalr	-282(ra) # c00033c8 <emov>
    c00044ea:	6791                	lui	a5,0x4
    c00044ec:	08e7879b          	addiw	a5,a5,142
    c00044f0:	0cf11123          	sh	a5,194(sp)
    c00044f4:	67a1                	lui	a5,0x8
    c00044f6:	17fd                	addi	a5,a5,-1
    c00044f8:	e83e                	sd	a5,16(sp)
    c00044fa:	77f1                	lui	a5,0xffffc
    c00044fc:	2789                	addiw	a5,a5,2
    c00044fe:	4d41                	li	s10,16
    c0004500:	00005c17          	auipc	s8,0x5
    c0004504:	ff8c0c13          	addi	s8,s8,-8 # c00094f8 <etens+0xa0>
    c0004508:	ce3e                	sw	a5,28(sp)
    c000450a:	1a94                	addi	a3,sp,368
    c000450c:	0910                	addi	a2,sp,144
    c000450e:	190c                	addi	a1,sp,176
    c0004510:	8562                	mv	a0,s8
    c0004512:	00000097          	auipc	ra,0x0
    c0004516:	b0c080e7          	jalr	-1268(ra) # c000401e <ediv>
    c000451a:	182c                	addi	a1,sp,56
    c000451c:	0908                	addi	a0,sp,144
    c000451e:	fffff097          	auipc	ra,0xfffff
    c0004522:	eaa080e7          	jalr	-342(ra) # c00033c8 <emov>
    c0004526:	67c2                	ld	a5,16(sp)
    c0004528:	04a15983          	lhu	s3,74(sp)
    c000452c:	00f9fdb3          	and	s11,s3,a5
    c0004530:	47f2                	lw	a5,28(sp)
    c0004532:	00fd87bb          	addw	a5,s11,a5
    c0004536:	8dbe                	mv	s11,a5
    c0004538:	04f04d63          	bgtz	a5,c0004592 <_ldtoa_r+0x2d8>
    c000453c:	0988                	addi	a0,sp,208
    c000453e:	fffff097          	auipc	ra,0xfffff
    c0004542:	e7a080e7          	jalr	-390(ra) # c00033b8 <eclear>
    c0004546:	0109999b          	slliw	s3,s3,0x10
    c000454a:	4109d99b          	sraiw	s3,s3,0x10
    c000454e:	02099793          	slli	a5,s3,0x20
    c0004552:	1007d263          	bgez	a5,c0004656 <_ldtoa_r+0x39c>
    c0004556:	4781                	li	a5,0
    c0004558:	1838                	addi	a4,sp,56
    c000455a:	973e                	add	a4,a4,a5
    c000455c:	00075683          	lhu	a3,0(a4) # 8000 <main-0xbfff8000>
    c0004560:	0998                	addi	a4,sp,208
    c0004562:	973e                	add	a4,a4,a5
    c0004564:	00075703          	lhu	a4,0(a4)
    c0004568:	34e68063          	beq	a3,a4,c00048a8 <_ldtoa_r+0x5ee>
    c000456c:	00005517          	auipc	a0,0x5
    c0004570:	ed450513          	addi	a0,a0,-300 # c0009440 <eone>
    c0004574:	fffff097          	auipc	ra,0xfffff
    c0004578:	08c080e7          	jalr	140(ra) # c0003600 <eisnan>
    c000457c:	cd25                	beqz	a0,c00045f4 <_ldtoa_r+0x33a>
    c000457e:	098c                	addi	a1,sp,208
    c0004580:	00005517          	auipc	a0,0x5
    c0004584:	ec050513          	addi	a0,a0,-320 # c0009440 <eone>
    c0004588:	fffff097          	auipc	ra,0xfffff
    c000458c:	e40080e7          	jalr	-448(ra) # c00033c8 <emov>
    c0004590:	a0d9                	j	c0004656 <_ldtoa_r+0x39c>
    c0004592:	09000793          	li	a5,144
    c0004596:	41b78cbb          	subw	s9,a5,s11
    c000459a:	098c                	addi	a1,sp,208
    c000459c:	1828                	addi	a0,sp,56
    c000459e:	8de6                	mv	s11,s9
    c00045a0:	fffff097          	auipc	ra,0xfffff
    c00045a4:	e28080e7          	jalr	-472(ra) # c00033c8 <emov>
    c00045a8:	0b905763          	blez	s9,c0004656 <_ldtoa_r+0x39c>
    c00045ac:	099c                	addi	a5,sp,208
    c00045ae:	8766                	mv	a4,s9
    c00045b0:	46bd                	li	a3,15
    c00045b2:	02e6cc63          	blt	a3,a4,c00045ea <_ldtoa_r+0x330>
    c00045b6:	004dd69b          	srliw	a3,s11,0x4
    c00045ba:	02069713          	slli	a4,a3,0x20
    c00045be:	099c                	addi	a5,sp,208
    c00045c0:	837d                	srli	a4,a4,0x1f
    c00045c2:	973e                	add	a4,a4,a5
    c00045c4:	57c1                	li	a5,-16
    c00045c6:	02d787bb          	mulw	a5,a5,a3
    c00045ca:	00005697          	auipc	a3,0x5
    c00045ce:	d4668693          	addi	a3,a3,-698 # c0009310 <bmask>
    c00045d2:	01b787bb          	addw	a5,a5,s11
    c00045d6:	0786                	slli	a5,a5,0x1
    c00045d8:	97b6                	add	a5,a5,a3
    c00045da:	0007d783          	lhu	a5,0(a5) # ffffffffffffc000 <_end+0xffffffff3fff1000>
    c00045de:	00075683          	lhu	a3,0(a4)
    c00045e2:	8ff5                	and	a5,a5,a3
    c00045e4:	00f71023          	sh	a5,0(a4)
    c00045e8:	bfb9                	j	c0004546 <_ldtoa_r+0x28c>
    c00045ea:	00079023          	sh	zero,0(a5)
    c00045ee:	3741                	addiw	a4,a4,-16
    c00045f0:	0789                	addi	a5,a5,2
    c00045f2:	b7c1                	j	c00045b2 <_ldtoa_r+0x2f8>
    c00045f4:	0988                	addi	a0,sp,208
    c00045f6:	fffff097          	auipc	ra,0xfffff
    c00045fa:	00a080e7          	jalr	10(ra) # c0003600 <eisnan>
    c00045fe:	c501                	beqz	a0,c0004606 <_ldtoa_r+0x34c>
    c0004600:	098c                	addi	a1,sp,208
    c0004602:	852e                	mv	a0,a1
    c0004604:	b751                	j	c0004588 <_ldtoa_r+0x2ce>
    c0004606:	00005517          	auipc	a0,0x5
    c000460a:	e3a50513          	addi	a0,a0,-454 # c0009440 <eone>
    c000460e:	fffff097          	auipc	ra,0xfffff
    c0004612:	190080e7          	jalr	400(ra) # c000379e <eisinf>
    c0004616:	89aa                	mv	s3,a0
    c0004618:	0988                	addi	a0,sp,208
    c000461a:	fffff097          	auipc	ra,0xfffff
    c000461e:	184080e7          	jalr	388(ra) # c000379e <eisinf>
    c0004622:	8caa                	mv	s9,a0
    c0004624:	12098a63          	beqz	s3,c0004758 <_ldtoa_r+0x49e>
    c0004628:	10050263          	beqz	a0,c000472c <_ldtoa_r+0x472>
    c000462c:	00005517          	auipc	a0,0x5
    c0004630:	e1450513          	addi	a0,a0,-492 # c0009440 <eone>
    c0004634:	fffff097          	auipc	ra,0xfffff
    c0004638:	ff2080e7          	jalr	-14(ra) # c0003626 <eisneg>
    c000463c:	89aa                	mv	s3,a0
    c000463e:	0988                	addi	a0,sp,208
    c0004640:	fffff097          	auipc	ra,0xfffff
    c0004644:	fe6080e7          	jalr	-26(ra) # c0003626 <eisneg>
    c0004648:	0ea99263          	bne	s3,a0,c000472c <_ldtoa_r+0x472>
    c000464c:	0988                	addi	a0,sp,208
    c000464e:	fffff097          	auipc	ra,0xfffff
    c0004652:	33a080e7          	jalr	826(ra) # c0003988 <enan.constprop.12>
    c0004656:	4781                	li	a5,0
    c0004658:	0918                	addi	a4,sp,144
    c000465a:	973e                	add	a4,a4,a5
    c000465c:	00075683          	lhu	a3,0(a4)
    c0004660:	0998                	addi	a4,sp,208
    c0004662:	973e                	add	a4,a4,a5
    c0004664:	00075703          	lhu	a4,0(a4)
    c0004668:	00e69e63          	bne	a3,a4,c0004684 <_ldtoa_r+0x3ca>
    c000466c:	0789                	addi	a5,a5,2
    c000466e:	4749                	li	a4,18
    c0004670:	fee794e3          	bne	a5,a4,c0004658 <_ldtoa_r+0x39e>
    c0004674:	190c                	addi	a1,sp,176
    c0004676:	0908                	addi	a0,sp,144
    c0004678:	fffff097          	auipc	ra,0xfffff
    c000467c:	d50080e7          	jalr	-688(ra) # c00033c8 <emov>
    c0004680:	008d043b          	addw	s0,s10,s0
    c0004684:	0c51                	addi	s8,s8,20
    c0004686:	00005797          	auipc	a5,0x5
    c000468a:	ed678793          	addi	a5,a5,-298 # c000955c <etens+0x104>
    c000468e:	001d5d13          	srli	s10,s10,0x1
    c0004692:	e6fc1ce3          	bne	s8,a5,c000450a <_ldtoa_r+0x250>
    c0004696:	0c215783          	lhu	a5,194(sp)
    c000469a:	08215703          	lhu	a4,130(sp)
    c000469e:	188c                	addi	a1,sp,112
    c00046a0:	1908                	addi	a0,sp,176
    c00046a2:	9fb9                	addw	a5,a5,a4
    c00046a4:	7771                	lui	a4,0xffffc
    c00046a6:	f727071b          	addiw	a4,a4,-142
    c00046aa:	9fb9                	addw	a5,a5,a4
    c00046ac:	0cf11123          	sh	a5,194(sp)
    c00046b0:	fffff097          	auipc	ra,0xfffff
    c00046b4:	d18080e7          	jalr	-744(ra) # c00033c8 <emov>
    c00046b8:	090c                	addi	a1,sp,144
    c00046ba:	00005517          	auipc	a0,0x5
    c00046be:	d8650513          	addi	a0,a0,-634 # c0009440 <eone>
    c00046c2:	fffff097          	auipc	ra,0xfffff
    c00046c6:	d06080e7          	jalr	-762(ra) # c00033c8 <emov>
    c00046ca:	6c05                	lui	s8,0x1
    c00046cc:	00005997          	auipc	s3,0x5
    c00046d0:	d8c98993          	addi	s3,s3,-628 # c0009458 <etens>
    c00046d4:	00005c97          	auipc	s9,0x5
    c00046d8:	e74c8c93          	addi	s9,s9,-396 # c0009548 <etens+0xf0>
    c00046dc:	190c                	addi	a1,sp,176
    c00046de:	8566                	mv	a0,s9
    c00046e0:	fffff097          	auipc	ra,0xfffff
    c00046e4:	00a080e7          	jalr	10(ra) # c00036ea <ecmp>
    c00046e8:	cea049e3          	bgtz	a0,c00043da <_ldtoa_r+0x120>
    c00046ec:	190c                	addi	a1,sp,176
    c00046ee:	854e                	mv	a0,s3
    c00046f0:	fffff097          	auipc	ra,0xfffff
    c00046f4:	ffa080e7          	jalr	-6(ra) # c00036ea <ecmp>
    c00046f8:	02a04463          	bgtz	a0,c0004720 <_ldtoa_r+0x466>
    c00046fc:	1910                	addi	a2,sp,176
    c00046fe:	85b2                	mv	a1,a2
    c0004700:	1a94                	addi	a3,sp,368
    c0004702:	854e                	mv	a0,s3
    c0004704:	00000097          	auipc	ra,0x0
    c0004708:	91a080e7          	jalr	-1766(ra) # c000401e <ediv>
    c000470c:	0910                	addi	a2,sp,144
    c000470e:	1a94                	addi	a3,sp,368
    c0004710:	85b2                	mv	a1,a2
    c0004712:	854e                	mv	a0,s3
    c0004714:	fffff097          	auipc	ra,0xfffff
    c0004718:	6f0080e7          	jalr	1776(ra) # c0003e04 <emul>
    c000471c:	008c043b          	addw	s0,s8,s0
    c0004720:	001c5c13          	srli	s8,s8,0x1
    c0004724:	cb998be3          	beq	s3,s9,c00043da <_ldtoa_r+0x120>
    c0004728:	09d1                	addi	s3,s3,20
    c000472a:	bf4d                	j	c00046dc <_ldtoa_r+0x422>
    c000472c:	00005517          	auipc	a0,0x5
    c0004730:	d1450513          	addi	a0,a0,-748 # c0009440 <eone>
    c0004734:	098c                	addi	a1,sp,208
    c0004736:	fffff097          	auipc	ra,0xfffff
    c000473a:	c92080e7          	jalr	-878(ra) # c00033c8 <emov>
    c000473e:	0988                	addi	a0,sp,208
    c0004740:	fffff097          	auipc	ra,0xfffff
    c0004744:	ec0080e7          	jalr	-320(ra) # c0003600 <eisnan>
    c0004748:	f519                	bnez	a0,c0004656 <_ldtoa_r+0x39c>
    c000474a:	0e215783          	lhu	a5,226(sp)
    c000474e:	7761                	lui	a4,0xffff8
    c0004750:	8fb9                	xor	a5,a5,a4
    c0004752:	0ef11123          	sh	a5,226(sp)
    c0004756:	b701                	j	c0004656 <_ldtoa_r+0x39c>
    c0004758:	ea0514e3          	bnez	a0,c0004600 <_ldtoa_r+0x346>
    c000475c:	198c                	addi	a1,sp,240
    c000475e:	00005517          	auipc	a0,0x5
    c0004762:	ce250513          	addi	a0,a0,-798 # c0009440 <eone>
    c0004766:	fffff097          	auipc	ra,0xfffff
    c000476a:	ee6080e7          	jalr	-282(ra) # c000364c <emovi>
    c000476e:	0a0c                	addi	a1,sp,272
    c0004770:	0988                	addi	a0,sp,208
    c0004772:	fffff097          	auipc	ra,0xfffff
    c0004776:	eda080e7          	jalr	-294(ra) # c000364c <emovi>
    c000477a:	0f015783          	lhu	a5,240(sp)
    c000477e:	0f215d83          	lhu	s11,242(sp)
    c0004782:	11215983          	lhu	s3,274(sp)
    c0004786:	fff7c793          	not	a5,a5
    c000478a:	0ef11823          	sh	a5,240(sp)
    c000478e:	413d85b3          	sub	a1,s11,s3
    c0004792:	02b05863          	blez	a1,c00047c2 <_ldtoa_r+0x508>
    c0004796:	1a0c                	addi	a1,sp,304
    c0004798:	0a08                	addi	a0,sp,272
    c000479a:	fffff097          	auipc	ra,0xfffff
    c000479e:	c5a080e7          	jalr	-934(ra) # c00033f4 <emovz>
    c00047a2:	0a0c                	addi	a1,sp,272
    c00047a4:	1988                	addi	a0,sp,240
    c00047a6:	fffff097          	auipc	ra,0xfffff
    c00047aa:	c4e080e7          	jalr	-946(ra) # c00033f4 <emovz>
    c00047ae:	198c                	addi	a1,sp,240
    c00047b0:	1a08                	addi	a0,sp,304
    c00047b2:	fffff097          	auipc	ra,0xfffff
    c00047b6:	c42080e7          	jalr	-958(ra) # c00033f4 <emovz>
    c00047ba:	41b985b3          	sub	a1,s3,s11
    c00047be:	11215983          	lhu	s3,274(sp)
    c00047c2:	c1b9                	beqz	a1,c0004808 <_ldtoa_r+0x54e>
    c00047c4:	f6f00793          	li	a5,-145
    c00047c8:	06f5cf63          	blt	a1,a5,c0004846 <_ldtoa_r+0x58c>
    c00047cc:	1988                	addi	a0,sp,240
    c00047ce:	fffff097          	auipc	ra,0xfffff
    c00047d2:	018080e7          	jalr	24(ra) # c00037e6 <eshift.part.3>
    c00047d6:	8daa                	mv	s11,a0
    c00047d8:	0f015703          	lhu	a4,240(sp)
    c00047dc:	11015783          	lhu	a5,272(sp)
    c00047e0:	0a0c                	addi	a1,sp,272
    c00047e2:	1988                	addi	a0,sp,240
    c00047e4:	0af71c63          	bne	a4,a5,c000489c <_ldtoa_r+0x5e2>
    c00047e8:	fffff097          	auipc	ra,0xfffff
    c00047ec:	d54080e7          	jalr	-684(ra) # c000353c <eaddm>
    c00047f0:	1a9c                	addi	a5,sp,368
    c00047f2:	04000713          	li	a4,64
    c00047f6:	86ce                	mv	a3,s3
    c00047f8:	8666                	mv	a2,s9
    c00047fa:	85ee                	mv	a1,s11
    c00047fc:	0a08                	addi	a0,sp,272
    c00047fe:	fffff097          	auipc	ra,0xfffff
    c0004802:	2d6080e7          	jalr	726(ra) # c0003ad4 <emdnorm>
    c0004806:	a081                	j	c0004846 <_ldtoa_r+0x58c>
    c0004808:	0a0c                	addi	a1,sp,272
    c000480a:	1988                	addi	a0,sp,240
    c000480c:	fffff097          	auipc	ra,0xfffff
    c0004810:	c08080e7          	jalr	-1016(ra) # c0003414 <ecmpm>
    c0004814:	ed31                	bnez	a0,c0004870 <_ldtoa_r+0x5b6>
    c0004816:	0f015703          	lhu	a4,240(sp)
    c000481a:	11015783          	lhu	a5,272(sp)
    c000481e:	00f70863          	beq	a4,a5,c000482e <_ldtoa_r+0x574>
    c0004822:	0988                	addi	a0,sp,208
    c0004824:	fffff097          	auipc	ra,0xfffff
    c0004828:	b94080e7          	jalr	-1132(ra) # c00033b8 <eclear>
    c000482c:	b52d                	j	c0004656 <_ldtoa_r+0x39c>
    c000482e:	11215783          	lhu	a5,274(sp)
    c0004832:	e38d                	bnez	a5,c0004854 <_ldtoa_r+0x59a>
    c0004834:	11611783          	lh	a5,278(sp)
    c0004838:	0007ce63          	bltz	a5,c0004854 <_ldtoa_r+0x59a>
    c000483c:	0a08                	addi	a0,sp,272
    c000483e:	fffff097          	auipc	ra,0xfffff
    c0004842:	c3a080e7          	jalr	-966(ra) # c0003478 <eshup1>
    c0004846:	098c                	addi	a1,sp,208
    c0004848:	0a08                	addi	a0,sp,272
    c000484a:	fffff097          	auipc	ra,0xfffff
    c000484e:	156080e7          	jalr	342(ra) # c00039a0 <emovo.isra.6>
    c0004852:	b511                	j	c0004656 <_ldtoa_r+0x39c>
    c0004854:	0a1c                	addi	a5,sp,272
    c0004856:	12610713          	addi	a4,sp,294
    c000485a:	0027d683          	lhu	a3,2(a5)
    c000485e:	c689                	beqz	a3,c0004868 <_ldtoa_r+0x5ae>
    c0004860:	0985                	addi	s3,s3,1
    c0004862:	11311923          	sh	s3,274(sp)
    c0004866:	b7c5                	j	c0004846 <_ldtoa_r+0x58c>
    c0004868:	0789                	addi	a5,a5,2
    c000486a:	fef718e3          	bne	a4,a5,c000485a <_ldtoa_r+0x5a0>
    c000486e:	bfd5                	j	c0004862 <_ldtoa_r+0x5a8>
    c0004870:	4d81                	li	s11,0
    c0004872:	f6a053e3          	blez	a0,c00047d8 <_ldtoa_r+0x51e>
    c0004876:	1a0c                	addi	a1,sp,304
    c0004878:	0a08                	addi	a0,sp,272
    c000487a:	fffff097          	auipc	ra,0xfffff
    c000487e:	b7a080e7          	jalr	-1158(ra) # c00033f4 <emovz>
    c0004882:	0a0c                	addi	a1,sp,272
    c0004884:	1988                	addi	a0,sp,240
    c0004886:	fffff097          	auipc	ra,0xfffff
    c000488a:	b6e080e7          	jalr	-1170(ra) # c00033f4 <emovz>
    c000488e:	198c                	addi	a1,sp,240
    c0004890:	1a08                	addi	a0,sp,304
    c0004892:	fffff097          	auipc	ra,0xfffff
    c0004896:	b62080e7          	jalr	-1182(ra) # c00033f4 <emovz>
    c000489a:	bf3d                	j	c00047d8 <_ldtoa_r+0x51e>
    c000489c:	fffff097          	auipc	ra,0xfffff
    c00048a0:	cc8080e7          	jalr	-824(ra) # c0003564 <esubm>
    c00048a4:	4c85                	li	s9,1
    c00048a6:	b7a9                	j	c00047f0 <_ldtoa_r+0x536>
    c00048a8:	0789                	addi	a5,a5,2
    c00048aa:	4749                	li	a4,18
    c00048ac:	cae796e3          	bne	a5,a4,c0004558 <_ldtoa_r+0x29e>
    c00048b0:	b35d                	j	c0004656 <_ldtoa_r+0x39c>
    c00048b2:	08215783          	lhu	a5,130(sp)
    c00048b6:	00005997          	auipc	s3,0x5
    c00048ba:	c9298993          	addi	s3,s3,-878 # c0009548 <etens+0xf0>
    c00048be:	cfc9                	beqz	a5,c0004958 <_ldtoa_r+0x69e>
    c00048c0:	098c                	addi	a1,sp,208
    c00048c2:	1888                	addi	a0,sp,112
    c00048c4:	6991                	lui	s3,0x4
    c00048c6:	fffff097          	auipc	ra,0xfffff
    c00048ca:	d86080e7          	jalr	-634(ra) # c000364c <emovi>
    c00048ce:	19f9                	addi	s3,s3,-2
    c00048d0:	fd500c13          	li	s8,-43
    c00048d4:	0e815783          	lhu	a5,232(sp)
    c00048d8:	8b9d                	andi	a5,a5,7
    c00048da:	efb9                	bnez	a5,c0004938 <_ldtoa_r+0x67e>
    c00048dc:	190c                	addi	a1,sp,176
    c00048de:	0988                	addi	a0,sp,208
    c00048e0:	fffff097          	auipc	ra,0xfffff
    c00048e4:	b14080e7          	jalr	-1260(ra) # c00033f4 <emovz>
    c00048e8:	1908                	addi	a0,sp,176
    c00048ea:	fffff097          	auipc	ra,0xfffff
    c00048ee:	b56080e7          	jalr	-1194(ra) # c0003440 <eshdn1>
    c00048f2:	1908                	addi	a0,sp,176
    c00048f4:	fffff097          	auipc	ra,0xfffff
    c00048f8:	b4c080e7          	jalr	-1204(ra) # c0003440 <eshdn1>
    c00048fc:	190c                	addi	a1,sp,176
    c00048fe:	0988                	addi	a0,sp,208
    c0004900:	fffff097          	auipc	ra,0xfffff
    c0004904:	c3c080e7          	jalr	-964(ra) # c000353c <eaddm>
    c0004908:	0b215783          	lhu	a5,178(sp)
    c000490c:	278d                	addiw	a5,a5,3
    c000490e:	0af11923          	sh	a5,178(sp)
    c0004912:	0b415783          	lhu	a5,180(sp)
    c0004916:	efed                	bnez	a5,c0004a10 <_ldtoa_r+0x756>
    c0004918:	0c815783          	lhu	a5,200(sp)
    c000491c:	ef91                	bnez	a5,c0004938 <_ldtoa_r+0x67e>
    c000491e:	0b215783          	lhu	a5,178(sp)
    c0004922:	00f9eb63          	bltu	s3,a5,c0004938 <_ldtoa_r+0x67e>
    c0004926:	098c                	addi	a1,sp,208
    c0004928:	1908                	addi	a0,sp,176
    c000492a:	347d                	addiw	s0,s0,-1
    c000492c:	fffff097          	auipc	ra,0xfffff
    c0004930:	ac8080e7          	jalr	-1336(ra) # c00033f4 <emovz>
    c0004934:	fb8410e3          	bne	s0,s8,c00048d4 <_ldtoa_r+0x61a>
    c0004938:	188c                	addi	a1,sp,112
    c000493a:	0988                	addi	a0,sp,208
    c000493c:	fffff097          	auipc	ra,0xfffff
    c0004940:	064080e7          	jalr	100(ra) # c00039a0 <emovo.isra.6>
    c0004944:	a831                	j	c0004960 <_ldtoa_r+0x6a6>
    c0004946:	1890                	addi	a2,sp,112
    c0004948:	1a94                	addi	a3,sp,368
    c000494a:	85b2                	mv	a1,a2
    c000494c:	854e                	mv	a0,s3
    c000494e:	fffff097          	auipc	ra,0xfffff
    c0004952:	4b6080e7          	jalr	1206(ra) # c0003e04 <emul>
    c0004956:	347d                	addiw	s0,s0,-1
    c0004958:	08011783          	lh	a5,128(sp)
    c000495c:	fe07d5e3          	bgez	a5,c0004946 <_ldtoa_r+0x68c>
    c0004960:	098c                	addi	a1,sp,208
    c0004962:	1888                	addi	a0,sp,112
    c0004964:	fffff097          	auipc	ra,0xfffff
    c0004968:	a64080e7          	jalr	-1436(ra) # c00033c8 <emov>
    c000496c:	090c                	addi	a1,sp,144
    c000496e:	00005517          	auipc	a0,0x5
    c0004972:	ad250513          	addi	a0,a0,-1326 # c0009440 <eone>
    c0004976:	fffff097          	auipc	ra,0xfffff
    c000497a:	a52080e7          	jalr	-1454(ra) # c00033c8 <emov>
    c000497e:	4c81                	li	s9,0
    c0004980:	79fd                	lui	s3,0xfffff
    c0004982:	00005d97          	auipc	s11,0x5
    c0004986:	9b6d8d93          	addi	s11,s11,-1610 # c0009338 <emtens>
    c000498a:	10400d13          	li	s10,260
    c000498e:	019d8733          	add	a4,s11,s9
    c0004992:	00005797          	auipc	a5,0x5
    c0004996:	ac678793          	addi	a5,a5,-1338 # c0009458 <etens>
    c000499a:	098c                	addi	a1,sp,208
    c000499c:	00005517          	auipc	a0,0x5
    c00049a0:	aa450513          	addi	a0,a0,-1372 # c0009440 <eone>
    c00049a4:	e83a                	sd	a4,16(sp)
    c00049a6:	01978c33          	add	s8,a5,s9
    c00049aa:	fffff097          	auipc	ra,0xfffff
    c00049ae:	d40080e7          	jalr	-704(ra) # c00036ea <ecmp>
    c00049b2:	6742                	ld	a4,16(sp)
    c00049b4:	04a05263          	blez	a0,c00049f8 <_ldtoa_r+0x73e>
    c00049b8:	098c                	addi	a1,sp,208
    c00049ba:	853a                	mv	a0,a4
    c00049bc:	fffff097          	auipc	ra,0xfffff
    c00049c0:	d2e080e7          	jalr	-722(ra) # c00036ea <ecmp>
    c00049c4:	02054463          	bltz	a0,c00049ec <_ldtoa_r+0x732>
    c00049c8:	0990                	addi	a2,sp,208
    c00049ca:	85b2                	mv	a1,a2
    c00049cc:	1a94                	addi	a3,sp,368
    c00049ce:	8562                	mv	a0,s8
    c00049d0:	fffff097          	auipc	ra,0xfffff
    c00049d4:	434080e7          	jalr	1076(ra) # c0003e04 <emul>
    c00049d8:	0910                	addi	a2,sp,144
    c00049da:	1a94                	addi	a3,sp,368
    c00049dc:	85b2                	mv	a1,a2
    c00049de:	8562                	mv	a0,s8
    c00049e0:	fffff097          	auipc	ra,0xfffff
    c00049e4:	424080e7          	jalr	1060(ra) # c0003e04 <emul>
    c00049e8:	0089843b          	addw	s0,s3,s0
    c00049ec:	4789                	li	a5,2
    c00049ee:	0cd1                	addi	s9,s9,20
    c00049f0:	02f9c9bb          	divw	s3,s3,a5
    c00049f4:	f9ac9de3          	bne	s9,s10,c000498e <_ldtoa_r+0x6d4>
    c00049f8:	0910                	addi	a2,sp,144
    c00049fa:	1a94                	addi	a3,sp,368
    c00049fc:	00005597          	auipc	a1,0x5
    c0004a00:	a4458593          	addi	a1,a1,-1468 # c0009440 <eone>
    c0004a04:	8532                	mv	a0,a2
    c0004a06:	fffff097          	auipc	ra,0xfffff
    c0004a0a:	618080e7          	jalr	1560(ra) # c000401e <ediv>
    c0004a0e:	b2f1                	j	c00043da <_ldtoa_r+0x120>
    c0004a10:	1908                	addi	a0,sp,176
    c0004a12:	fffff097          	auipc	ra,0xfffff
    c0004a16:	a2e080e7          	jalr	-1490(ra) # c0003440 <eshdn1>
    c0004a1a:	0b215783          	lhu	a5,178(sp)
    c0004a1e:	2785                	addiw	a5,a5,1
    c0004a20:	b5fd                	j	c000490e <_ldtoa_r+0x654>
    c0004a22:	1888                	addi	a0,sp,112
    c0004a24:	fffff097          	auipc	ra,0xfffff
    c0004a28:	a54080e7          	jalr	-1452(ra) # c0003478 <eshup1>
    c0004a2c:	190c                	addi	a1,sp,176
    c0004a2e:	1888                	addi	a0,sp,112
    c0004a30:	fffff097          	auipc	ra,0xfffff
    c0004a34:	9c4080e7          	jalr	-1596(ra) # c00033f4 <emovz>
    c0004a38:	1908                	addi	a0,sp,176
    c0004a3a:	fffff097          	auipc	ra,0xfffff
    c0004a3e:	a3e080e7          	jalr	-1474(ra) # c0003478 <eshup1>
    c0004a42:	1908                	addi	a0,sp,176
    c0004a44:	fffff097          	auipc	ra,0xfffff
    c0004a48:	a34080e7          	jalr	-1484(ra) # c0003478 <eshup1>
    c0004a4c:	188c                	addi	a1,sp,112
    c0004a4e:	1908                	addi	a0,sp,176
    c0004a50:	fffff097          	auipc	ra,0xfffff
    c0004a54:	aec080e7          	jalr	-1300(ra) # c000353c <eaddm>
    c0004a58:	1a90                	addi	a2,sp,368
    c0004a5a:	188c                	addi	a1,sp,112
    c0004a5c:	0908                	addi	a0,sp,144
    c0004a5e:	fffff097          	auipc	ra,0xfffff
    c0004a62:	2f2080e7          	jalr	754(ra) # c0003d50 <eiremain>
    c0004a66:	347d                	addiw	s0,s0,-1
    c0004a68:	1bc15983          	lhu	s3,444(sp)
    c0004a6c:	ba65                	j	c0004424 <_ldtoa_r+0x16a>
    c0004a6e:	0309899b          	addiw	s3,s3,48
    c0004a72:	02e00793          	li	a5,46
    c0004a76:	133108a3          	sb	s3,305(sp)
    c0004a7a:	12f10923          	sb	a5,306(sp)
    c0004a7e:	13310c13          	addi	s8,sp,307
    c0004a82:	89e2                	mv	s3,s8
    c0004a84:	418987bb          	subw	a5,s3,s8
    c0004a88:	04fa5063          	ble	a5,s4,c0004ac8 <_ldtoa_r+0x80e>
    c0004a8c:	1bc15783          	lhu	a5,444(sp)
    c0004a90:	4711                	li	a4,4
    c0004a92:	fff98c13          	addi	s8,s3,-1 # ffffffffffffefff <_end+0xffffffff3fff3fff>
    c0004a96:	9ef75fe3          	ble	a5,a4,c0004494 <_ldtoa_r+0x1da>
    c0004a9a:	4715                	li	a4,5
    c0004a9c:	08e78063          	beq	a5,a4,c0004b1c <_ldtoa_r+0x862>
    c0004aa0:	87e2                	mv	a5,s8
    c0004aa2:	02e00613          	li	a2,46
    c0004aa6:	03800593          	li	a1,56
    c0004aaa:	03000693          	li	a3,48
    c0004aae:	17fd                	addi	a5,a5,-1
    c0004ab0:	0007c703          	lbu	a4,0(a5)
    c0004ab4:	07f77713          	andi	a4,a4,127
    c0004ab8:	0a0a5263          	bgez	s4,c0004b5c <_ldtoa_r+0x8a2>
    c0004abc:	03100713          	li	a4,49
    c0004ac0:	00e78023          	sb	a4,0(a5)
    c0004ac4:	2405                	addiw	s0,s0,1
    c0004ac6:	b2f9                	j	c0004494 <_ldtoa_r+0x1da>
    c0004ac8:	1888                	addi	a0,sp,112
    c0004aca:	fffff097          	auipc	ra,0xfffff
    c0004ace:	9ae080e7          	jalr	-1618(ra) # c0003478 <eshup1>
    c0004ad2:	190c                	addi	a1,sp,176
    c0004ad4:	1888                	addi	a0,sp,112
    c0004ad6:	fffff097          	auipc	ra,0xfffff
    c0004ada:	91e080e7          	jalr	-1762(ra) # c00033f4 <emovz>
    c0004ade:	1908                	addi	a0,sp,176
    c0004ae0:	fffff097          	auipc	ra,0xfffff
    c0004ae4:	998080e7          	jalr	-1640(ra) # c0003478 <eshup1>
    c0004ae8:	1908                	addi	a0,sp,176
    c0004aea:	fffff097          	auipc	ra,0xfffff
    c0004aee:	98e080e7          	jalr	-1650(ra) # c0003478 <eshup1>
    c0004af2:	188c                	addi	a1,sp,112
    c0004af4:	1908                	addi	a0,sp,176
    c0004af6:	fffff097          	auipc	ra,0xfffff
    c0004afa:	a46080e7          	jalr	-1466(ra) # c000353c <eaddm>
    c0004afe:	1a90                	addi	a2,sp,368
    c0004b00:	188c                	addi	a1,sp,112
    c0004b02:	0908                	addi	a0,sp,144
    c0004b04:	fffff097          	auipc	ra,0xfffff
    c0004b08:	24c080e7          	jalr	588(ra) # c0003d50 <eiremain>
    c0004b0c:	1bc14783          	lbu	a5,444(sp)
    c0004b10:	0985                	addi	s3,s3,1
    c0004b12:	0307879b          	addiw	a5,a5,48
    c0004b16:	fef98fa3          	sb	a5,-1(s3)
    c0004b1a:	b7ad                	j	c0004a84 <_ldtoa_r+0x7ca>
    c0004b1c:	090c                	addi	a1,sp,144
    c0004b1e:	1888                	addi	a0,sp,112
    c0004b20:	fffff097          	auipc	ra,0xfffff
    c0004b24:	e80080e7          	jalr	-384(ra) # c00039a0 <emovo.isra.6>
    c0004b28:	00005597          	auipc	a1,0x5
    c0004b2c:	a3858593          	addi	a1,a1,-1480 # c0009560 <ezero>
    c0004b30:	0908                	addi	a0,sp,144
    c0004b32:	fffff097          	auipc	ra,0xfffff
    c0004b36:	bb8080e7          	jalr	-1096(ra) # c00036ea <ecmp>
    c0004b3a:	f13d                	bnez	a0,c0004aa0 <_ldtoa_r+0x7e6>
    c0004b3c:	940a4ce3          	bltz	s4,c0004494 <_ldtoa_r+0x1da>
    c0004b40:	ffe9c783          	lbu	a5,-2(s3)
    c0004b44:	fd278793          	addi	a5,a5,-46
    c0004b48:	0017b793          	seqz	a5,a5
    c0004b4c:	fff7c793          	not	a5,a5
    c0004b50:	97e2                	add	a5,a5,s8
    c0004b52:	0007c783          	lbu	a5,0(a5)
    c0004b56:	8b85                	andi	a5,a5,1
    c0004b58:	f7a1                	bnez	a5,c0004aa0 <_ldtoa_r+0x7e6>
    c0004b5a:	ba2d                	j	c0004494 <_ldtoa_r+0x1da>
    c0004b5c:	02c71063          	bne	a4,a2,c0004b7c <_ldtoa_r+0x8c2>
    c0004b60:	fff7c703          	lbu	a4,-1(a5)
    c0004b64:	03800693          	li	a3,56
    c0004b68:	00e6e663          	bltu	a3,a4,c0004b74 <_ldtoa_r+0x8ba>
    c0004b6c:	2705                	addiw	a4,a4,1
    c0004b6e:	fee78fa3          	sb	a4,-1(a5)
    c0004b72:	b20d                	j	c0004494 <_ldtoa_r+0x1da>
    c0004b74:	2405                	addiw	s0,s0,1
    c0004b76:	03100713          	li	a4,49
    c0004b7a:	bfd5                	j	c0004b6e <_ldtoa_r+0x8b4>
    c0004b7c:	00e5e663          	bltu	a1,a4,c0004b88 <_ldtoa_r+0x8ce>
    c0004b80:	2705                	addiw	a4,a4,1
    c0004b82:	00e78023          	sb	a4,0(a5)
    c0004b86:	b239                	j	c0004494 <_ldtoa_r+0x1da>
    c0004b88:	00d78023          	sb	a3,0(a5)
    c0004b8c:	b70d                	j	c0004aae <_ldtoa_r+0x7f4>
    c0004b8e:	0014079b          	addiw	a5,s0,1
    c0004b92:	00fba023          	sw	a5,0(s7)
    c0004b96:	02e00693          	li	a3,46
    c0004b9a:	87d2                	mv	a5,s4
    c0004b9c:	0007c703          	lbu	a4,0(a5)
    c0004ba0:	e701                	bnez	a4,c0004ba8 <_ldtoa_r+0x8ee>
    c0004ba2:	04500713          	li	a4,69
    c0004ba6:	a839                	j	c0004bc4 <_ldtoa_r+0x90a>
    c0004ba8:	00178613          	addi	a2,a5,1
    c0004bac:	00d70463          	beq	a4,a3,c0004bb4 <_ldtoa_r+0x8fa>
    c0004bb0:	87b2                	mv	a5,a2
    c0004bb2:	b7ed                	j	c0004b9c <_ldtoa_r+0x8e2>
    c0004bb4:	0017c703          	lbu	a4,1(a5)
    c0004bb8:	0785                	addi	a5,a5,1
    c0004bba:	fee78fa3          	sb	a4,-1(a5)
    c0004bbe:	fb7d                	bnez	a4,c0004bb4 <_ldtoa_r+0x8fa>
    c0004bc0:	b7cd                	j	c0004ba2 <_ldtoa_r+0x8e8>
    c0004bc2:	17fd                	addi	a5,a5,-1
    c0004bc4:	0007c683          	lbu	a3,0(a5)
    c0004bc8:	00e68463          	beq	a3,a4,c0004bd0 <_ldtoa_r+0x916>
    c0004bcc:	fefa6be3          	bltu	s4,a5,c0004bc2 <_ldtoa_r+0x908>
    c0004bd0:	00078023          	sb	zero,0(a5)
    c0004bd4:	aa19                	j	c0004cea <_ldtoa_r+0xa30>
    c0004bd6:	0785                	addi	a5,a5,1
    c0004bd8:	aa31                	j	c0004cf4 <_ldtoa_r+0xa3a>
    c0004bda:	89b6                	mv	s3,a3
    c0004bdc:	a21d                	j	c0004d02 <_ldtoa_r+0xa48>
    c0004bde:	19fd                	addi	s3,s3,-1
    c0004be0:	00098023          	sb	zero,0(s3)
    c0004be4:	fff9c703          	lbu	a4,-1(s3)
    c0004be8:	00d71663          	bne	a4,a3,c0004bf4 <_ldtoa_r+0x93a>
    c0004bec:	41498733          	sub	a4,s3,s4
    c0004bf0:	fee7c7e3          	blt	a5,a4,c0004bde <_ldtoa_r+0x924>
    c0004bf4:	478d                	li	a5,3
    c0004bf6:	08fa9963          	bne	s5,a5,c0004c88 <_ldtoa_r+0x9ce>
    c0004bfa:	9c25                	addw	s0,s0,s1
    c0004bfc:	00045763          	bgez	s0,c0004c0a <_ldtoa_r+0x950>
    c0004c00:	12010823          	sb	zero,304(sp)
    c0004c04:	000ba023          	sw	zero,0(s7)
    c0004c08:	89d2                	mv	s3,s4
    c0004c0a:	000ba783          	lw	a5,0(s7)
    c0004c0e:	01678b3b          	addw	s6,a5,s6
    c0004c12:	2b0d                	addiw	s6,s6,3
    c0004c14:	06092423          	sw	zero,104(s2)
    c0004c18:	4791                	li	a5,4
    c0004c1a:	01c78713          	addi	a4,a5,28
    c0004c1e:	06892583          	lw	a1,104(s2)
    c0004c22:	04eb7d63          	bleu	a4,s6,c0004c7c <_ldtoa_r+0x9c2>
    c0004c26:	854a                	mv	a0,s2
    c0004c28:	00000097          	auipc	ra,0x0
    c0004c2c:	46e080e7          	jalr	1134(ra) # c0005096 <_Balloc>
    c0004c30:	06a93023          	sd	a0,96(s2)
    c0004c34:	85d2                	mv	a1,s4
    c0004c36:	842a                	mv	s0,a0
    c0004c38:	ffffc097          	auipc	ra,0xffffc
    c0004c3c:	3ce080e7          	jalr	974(ra) # c0001006 <strcpy>
    c0004c40:	6782                	ld	a5,0(sp)
    c0004c42:	c791                	beqz	a5,c0004c4e <_ldtoa_r+0x994>
    c0004c44:	414989b3          	sub	s3,s3,s4
    c0004c48:	99a2                	add	s3,s3,s0
    c0004c4a:	0137b023          	sd	s3,0(a5)
    c0004c4e:	8522                	mv	a0,s0
    c0004c50:	22813083          	ld	ra,552(sp)
    c0004c54:	22013403          	ld	s0,544(sp)
    c0004c58:	21813483          	ld	s1,536(sp)
    c0004c5c:	21013903          	ld	s2,528(sp)
    c0004c60:	20813983          	ld	s3,520(sp)
    c0004c64:	20013a03          	ld	s4,512(sp)
    c0004c68:	7afe                	ld	s5,504(sp)
    c0004c6a:	7b5e                	ld	s6,496(sp)
    c0004c6c:	7bbe                	ld	s7,488(sp)
    c0004c6e:	7c1e                	ld	s8,480(sp)
    c0004c70:	6cfe                	ld	s9,472(sp)
    c0004c72:	6d5e                	ld	s10,464(sp)
    c0004c74:	6dbe                	ld	s11,456(sp)
    c0004c76:	23010113          	addi	sp,sp,560
    c0004c7a:	8082                	ret
    c0004c7c:	2585                	addiw	a1,a1,1
    c0004c7e:	06b92423          	sw	a1,104(s2)
    c0004c82:	0017979b          	slliw	a5,a5,0x1
    c0004c86:	bf51                	j	c0004c1a <_ldtoa_r+0x960>
    c0004c88:	2b25                	addiw	s6,s6,9
    c0004c8a:	b769                	j	c0004c14 <_ldtoa_r+0x95a>
    c0004c8c:	67a1                	lui	a5,0x8
    c0004c8e:	17fd                	addi	a5,a5,-1
    c0004c90:	82f713e3          	bne	a4,a5,c00044b6 <_ldtoa_r+0x1fc>
    c0004c94:	00004597          	auipc	a1,0x4
    c0004c98:	65c58593          	addi	a1,a1,1628 # c00092f0 <zeroes.4827+0x28>
    c0004c9c:	000a0663          	beqz	s4,c0004ca8 <_ldtoa_r+0x9ee>
    c0004ca0:	00004597          	auipc	a1,0x4
    c0004ca4:	64058593          	addi	a1,a1,1600 # c00092e0 <zeroes.4827+0x18>
    c0004ca8:	1a08                	addi	a0,sp,304
    c0004caa:	6409                	lui	s0,0x2
    c0004cac:	00001097          	auipc	ra,0x1
    c0004cb0:	a6c080e7          	jalr	-1428(ra) # c0005718 <sprintf>
    c0004cb4:	70f40413          	addi	s0,s0,1807 # 270f <main-0xbfffd8f1>
    c0004cb8:	67a2                	ld	a5,8(sp)
    c0004cba:	0888                	addi	a0,sp,80
    c0004cbc:	18812023          	sw	s0,384(sp)
    c0004cc0:	16f12a23          	sw	a5,372(sp)
    c0004cc4:	fffff097          	auipc	ra,0xfffff
    c0004cc8:	ada080e7          	jalr	-1318(ra) # c000379e <eisinf>
    c0004ccc:	13010a13          	addi	s4,sp,304
    c0004cd0:	e901                	bnez	a0,c0004ce0 <_ldtoa_r+0xa26>
    c0004cd2:	0888                	addi	a0,sp,80
    c0004cd4:	fffff097          	auipc	ra,0xfffff
    c0004cd8:	92c080e7          	jalr	-1748(ra) # c0003600 <eisnan>
    c0004cdc:	ea0509e3          	beqz	a0,c0004b8e <_ldtoa_r+0x8d4>
    c0004ce0:	6789                	lui	a5,0x2
    c0004ce2:	70f7879b          	addiw	a5,a5,1807
    c0004ce6:	00fba023          	sw	a5,0(s7)
    c0004cea:	87d2                	mv	a5,s4
    c0004cec:	02000613          	li	a2,32
    c0004cf0:	02d00693          	li	a3,45
    c0004cf4:	0007c703          	lbu	a4,0(a5) # 2000 <main-0xbfffe000>
    c0004cf8:	ecc70fe3          	beq	a4,a2,c0004bd6 <_ldtoa_r+0x91c>
    c0004cfc:	ecd70de3          	beq	a4,a3,c0004bd6 <_ldtoa_r+0x91c>
    c0004d00:	89d2                	mv	s3,s4
    c0004d02:	0785                	addi	a5,a5,1
    c0004d04:	fff7c703          	lbu	a4,-1(a5)
    c0004d08:	00198693          	addi	a3,s3,1
    c0004d0c:	fee68fa3          	sb	a4,-1(a3)
    c0004d10:	ec0715e3          	bnez	a4,c0004bda <_ldtoa_r+0x920>
    c0004d14:	4709                	li	a4,2
    c0004d16:	4785                	li	a5,1
    c0004d18:	00ea8863          	beq	s5,a4,c0004d28 <_ldtoa_r+0xa6e>
    c0004d1c:	0004879b          	sext.w	a5,s1
    c0004d20:	0084d463          	ble	s0,s1,c0004d28 <_ldtoa_r+0xa6e>
    c0004d24:	0004079b          	sext.w	a5,s0
    c0004d28:	03000693          	li	a3,48
    c0004d2c:	bd65                	j	c0004be4 <_ldtoa_r+0x92a>

00000000c0004d2e <_ldcheck>:
    c0004d2e:	611c                	ld	a5,0(a0)
    c0004d30:	7139                	addi	sp,sp,-64
    c0004d32:	080c                	addi	a1,sp,16
    c0004d34:	e03e                	sd	a5,0(sp)
    c0004d36:	651c                	ld	a5,8(a0)
    c0004d38:	850a                	mv	a0,sp
    c0004d3a:	fc06                	sd	ra,56(sp)
    c0004d3c:	e43e                	sd	a5,8(sp)
    c0004d3e:	fffff097          	auipc	ra,0xfffff
    c0004d42:	cbc080e7          	jalr	-836(ra) # c00039fa <e113toe.isra.8>
    c0004d46:	02215783          	lhu	a5,34(sp)
    c0004d4a:	4501                	li	a0,0
    c0004d4c:	fff7c793          	not	a5,a5
    c0004d50:	03179713          	slli	a4,a5,0x31
    c0004d54:	eb09                	bnez	a4,c0004d66 <_ldcheck+0x38>
    c0004d56:	0808                	addi	a0,sp,16
    c0004d58:	fffff097          	auipc	ra,0xfffff
    c0004d5c:	8a8080e7          	jalr	-1880(ra) # c0003600 <eisnan>
    c0004d60:	00153513          	seqz	a0,a0
    c0004d64:	0505                	addi	a0,a0,1
    c0004d66:	70e2                	ld	ra,56(sp)
    c0004d68:	6121                	addi	sp,sp,64
    c0004d6a:	8082                	ret

00000000c0004d6c <_localeconv_r>:
    c0004d6c:	00006517          	auipc	a0,0x6
    c0004d70:	cc450513          	addi	a0,a0,-828 # c000aa30 <__global_locale+0x100>
    c0004d74:	8082                	ret

00000000c0004d76 <__locale_mb_cur_max>:
    c0004d76:	00006517          	auipc	a0,0x6
    c0004d7a:	d1a54503          	lbu	a0,-742(a0) # c000aa90 <__global_locale+0x160>
    c0004d7e:	8082                	ret

00000000c0004d80 <__swhatbuf_r>:
    c0004d80:	7135                	addi	sp,sp,-160
    c0004d82:	e526                	sd	s1,136(sp)
    c0004d84:	84ae                	mv	s1,a1
    c0004d86:	01259583          	lh	a1,18(a1)
    c0004d8a:	e922                	sd	s0,144(sp)
    c0004d8c:	ed06                	sd	ra,152(sp)
    c0004d8e:	8432                	mv	s0,a2
    c0004d90:	0005dc63          	bgez	a1,c0004da8 <__swhatbuf_r+0x28>
    c0004d94:	0104d783          	lhu	a5,16(s1)
    c0004d98:	0006a023          	sw	zero,0(a3)
    c0004d9c:	0807f793          	andi	a5,a5,128
    c0004da0:	ef85                	bnez	a5,c0004dd8 <__swhatbuf_r+0x58>
    c0004da2:	40000793          	li	a5,1024
    c0004da6:	a81d                	j	c0004ddc <__swhatbuf_r+0x5c>
    c0004da8:	0830                	addi	a2,sp,24
    c0004daa:	e436                	sd	a3,8(sp)
    c0004dac:	00002097          	auipc	ra,0x2
    c0004db0:	502080e7          	jalr	1282(ra) # c00072ae <_fstat_r>
    c0004db4:	66a2                	ld	a3,8(sp)
    c0004db6:	fc054fe3          	bltz	a0,c0004d94 <__swhatbuf_r+0x14>
    c0004dba:	47f2                	lw	a5,28(sp)
    c0004dbc:	673d                	lui	a4,0xf
    c0004dbe:	6505                	lui	a0,0x1
    c0004dc0:	8ff9                	and	a5,a5,a4
    c0004dc2:	6709                	lui	a4,0x2
    c0004dc4:	8f99                	sub	a5,a5,a4
    c0004dc6:	0017b793          	seqz	a5,a5
    c0004dca:	c29c                	sw	a5,0(a3)
    c0004dcc:	40000793          	li	a5,1024
    c0004dd0:	e01c                	sd	a5,0(s0)
    c0004dd2:	80050513          	addi	a0,a0,-2048 # 800 <main-0xbffff800>
    c0004dd6:	a029                	j	c0004de0 <__swhatbuf_r+0x60>
    c0004dd8:	04000793          	li	a5,64
    c0004ddc:	e01c                	sd	a5,0(s0)
    c0004dde:	4501                	li	a0,0
    c0004de0:	60ea                	ld	ra,152(sp)
    c0004de2:	644a                	ld	s0,144(sp)
    c0004de4:	64aa                	ld	s1,136(sp)
    c0004de6:	610d                	addi	sp,sp,160
    c0004de8:	8082                	ret

00000000c0004dea <__smakebuf_r>:
    c0004dea:	0105d783          	lhu	a5,16(a1)
    c0004dee:	7179                	addi	sp,sp,-48
    c0004df0:	f022                	sd	s0,32(sp)
    c0004df2:	f406                	sd	ra,40(sp)
    c0004df4:	ec26                	sd	s1,24(sp)
    c0004df6:	e84a                	sd	s2,16(sp)
    c0004df8:	8b89                	andi	a5,a5,2
    c0004dfa:	842e                	mv	s0,a1
    c0004dfc:	cf89                	beqz	a5,c0004e16 <__smakebuf_r+0x2c>
    c0004dfe:	07740793          	addi	a5,s0,119
    c0004e02:	e01c                	sd	a5,0(s0)
    c0004e04:	ec1c                	sd	a5,24(s0)
    c0004e06:	4785                	li	a5,1
    c0004e08:	d01c                	sw	a5,32(s0)
    c0004e0a:	70a2                	ld	ra,40(sp)
    c0004e0c:	7402                	ld	s0,32(sp)
    c0004e0e:	64e2                	ld	s1,24(sp)
    c0004e10:	6942                	ld	s2,16(sp)
    c0004e12:	6145                	addi	sp,sp,48
    c0004e14:	8082                	ret
    c0004e16:	0054                	addi	a3,sp,4
    c0004e18:	0030                	addi	a2,sp,8
    c0004e1a:	84aa                	mv	s1,a0
    c0004e1c:	00000097          	auipc	ra,0x0
    c0004e20:	f64080e7          	jalr	-156(ra) # c0004d80 <__swhatbuf_r>
    c0004e24:	65a2                	ld	a1,8(sp)
    c0004e26:	892a                	mv	s2,a0
    c0004e28:	8526                	mv	a0,s1
    c0004e2a:	ffffc097          	auipc	ra,0xffffc
    c0004e2e:	8d8080e7          	jalr	-1832(ra) # c0000702 <_malloc_r>
    c0004e32:	ed01                	bnez	a0,c0004e4a <__smakebuf_r+0x60>
    c0004e34:	01041783          	lh	a5,16(s0)
    c0004e38:	2007f713          	andi	a4,a5,512
    c0004e3c:	f779                	bnez	a4,c0004e0a <__smakebuf_r+0x20>
    c0004e3e:	9bf1                	andi	a5,a5,-4
    c0004e40:	0027e793          	ori	a5,a5,2
    c0004e44:	00f41823          	sh	a5,16(s0)
    c0004e48:	bf5d                	j	c0004dfe <__smakebuf_r+0x14>
    c0004e4a:	ffffe797          	auipc	a5,0xffffe
    c0004e4e:	dea78793          	addi	a5,a5,-534 # c0002c34 <_cleanup_r>
    c0004e52:	ecbc                	sd	a5,88(s1)
    c0004e54:	01045783          	lhu	a5,16(s0)
    c0004e58:	e008                	sd	a0,0(s0)
    c0004e5a:	ec08                	sd	a0,24(s0)
    c0004e5c:	0807e793          	ori	a5,a5,128
    c0004e60:	00f41823          	sh	a5,16(s0)
    c0004e64:	67a2                	ld	a5,8(sp)
    c0004e66:	d01c                	sw	a5,32(s0)
    c0004e68:	4792                	lw	a5,4(sp)
    c0004e6a:	c385                	beqz	a5,c0004e8a <__smakebuf_r+0xa0>
    c0004e6c:	01241583          	lh	a1,18(s0)
    c0004e70:	8526                	mv	a0,s1
    c0004e72:	00002097          	auipc	ra,0x2
    c0004e76:	474080e7          	jalr	1140(ra) # c00072e6 <_isatty_r>
    c0004e7a:	c901                	beqz	a0,c0004e8a <__smakebuf_r+0xa0>
    c0004e7c:	01045783          	lhu	a5,16(s0)
    c0004e80:	9bf1                	andi	a5,a5,-4
    c0004e82:	0017e793          	ori	a5,a5,1
    c0004e86:	00f41823          	sh	a5,16(s0)
    c0004e8a:	01045783          	lhu	a5,16(s0)
    c0004e8e:	00f96933          	or	s2,s2,a5
    c0004e92:	01241823          	sh	s2,16(s0)
    c0004e96:	bf95                	j	c0004e0a <__smakebuf_r+0x20>

00000000c0004e98 <__ascii_mbtowc>:
    c0004e98:	e185                	bnez	a1,c0004eb8 <__ascii_mbtowc+0x20>
    c0004e9a:	1141                	addi	sp,sp,-16
    c0004e9c:	006c                	addi	a1,sp,12
    c0004e9e:	4501                	li	a0,0
    c0004ea0:	ca11                	beqz	a2,c0004eb4 <__ascii_mbtowc+0x1c>
    c0004ea2:	5579                	li	a0,-2
    c0004ea4:	ca81                	beqz	a3,c0004eb4 <__ascii_mbtowc+0x1c>
    c0004ea6:	00064783          	lbu	a5,0(a2)
    c0004eaa:	c19c                	sw	a5,0(a1)
    c0004eac:	00064503          	lbu	a0,0(a2)
    c0004eb0:	00a03533          	snez	a0,a0
    c0004eb4:	0141                	addi	sp,sp,16
    c0004eb6:	8082                	ret
    c0004eb8:	4501                	li	a0,0
    c0004eba:	ca19                	beqz	a2,c0004ed0 <__ascii_mbtowc+0x38>
    c0004ebc:	5579                	li	a0,-2
    c0004ebe:	ca89                	beqz	a3,c0004ed0 <__ascii_mbtowc+0x38>
    c0004ec0:	00064783          	lbu	a5,0(a2)
    c0004ec4:	c19c                	sw	a5,0(a1)
    c0004ec6:	00064503          	lbu	a0,0(a2)
    c0004eca:	00a03533          	snez	a0,a0
    c0004ece:	8082                	ret
    c0004ed0:	8082                	ret

00000000c0004ed2 <memchr>:
    c0004ed2:	0ff5f593          	andi	a1,a1,255
    c0004ed6:	962a                	add	a2,a2,a0
    c0004ed8:	00c51463          	bne	a0,a2,c0004ee0 <memchr+0xe>
    c0004edc:	4501                	li	a0,0
    c0004ede:	8082                	ret
    c0004ee0:	00054783          	lbu	a5,0(a0)
    c0004ee4:	feb78de3          	beq	a5,a1,c0004ede <memchr+0xc>
    c0004ee8:	0505                	addi	a0,a0,1
    c0004eea:	b7fd                	j	c0004ed8 <memchr+0x6>

00000000c0004eec <memcpy>:
    c0004eec:	00a5c7b3          	xor	a5,a1,a0
    c0004ef0:	8b9d                	andi	a5,a5,7
    c0004ef2:	00c50733          	add	a4,a0,a2
    c0004ef6:	e781                	bnez	a5,c0004efe <memcpy+0x12>
    c0004ef8:	479d                	li	a5,7
    c0004efa:	00c7ee63          	bltu	a5,a2,c0004f16 <memcpy+0x2a>
    c0004efe:	87aa                	mv	a5,a0
    c0004f00:	0ae57063          	bleu	a4,a0,c0004fa0 <memcpy+0xb4>
    c0004f04:	0005c683          	lbu	a3,0(a1)
    c0004f08:	0785                	addi	a5,a5,1
    c0004f0a:	0585                	addi	a1,a1,1
    c0004f0c:	fed78fa3          	sb	a3,-1(a5)
    c0004f10:	fee7eae3          	bltu	a5,a4,c0004f04 <memcpy+0x18>
    c0004f14:	8082                	ret
    c0004f16:	00757693          	andi	a3,a0,7
    c0004f1a:	87aa                	mv	a5,a0
    c0004f1c:	ca91                	beqz	a3,c0004f30 <memcpy+0x44>
    c0004f1e:	0005c683          	lbu	a3,0(a1)
    c0004f22:	0785                	addi	a5,a5,1
    c0004f24:	0585                	addi	a1,a1,1
    c0004f26:	fed78fa3          	sb	a3,-1(a5)
    c0004f2a:	0077f693          	andi	a3,a5,7
    c0004f2e:	b7fd                	j	c0004f1c <memcpy+0x30>
    c0004f30:	ff877693          	andi	a3,a4,-8
    c0004f34:	fc068613          	addi	a2,a3,-64
    c0004f38:	06c7f063          	bleu	a2,a5,c0004f98 <memcpy+0xac>
    c0004f3c:	0005b383          	ld	t2,0(a1)
    c0004f40:	0085b283          	ld	t0,8(a1)
    c0004f44:	0105bf83          	ld	t6,16(a1)
    c0004f48:	0185bf03          	ld	t5,24(a1)
    c0004f4c:	0205be83          	ld	t4,32(a1)
    c0004f50:	0285be03          	ld	t3,40(a1)
    c0004f54:	0305b303          	ld	t1,48(a1)
    c0004f58:	0385b883          	ld	a7,56(a1)
    c0004f5c:	04858593          	addi	a1,a1,72
    c0004f60:	0077b023          	sd	t2,0(a5)
    c0004f64:	ff85b803          	ld	a6,-8(a1)
    c0004f68:	0057b423          	sd	t0,8(a5)
    c0004f6c:	01f7b823          	sd	t6,16(a5)
    c0004f70:	01e7bc23          	sd	t5,24(a5)
    c0004f74:	03d7b023          	sd	t4,32(a5)
    c0004f78:	03c7b423          	sd	t3,40(a5)
    c0004f7c:	0267b823          	sd	t1,48(a5)
    c0004f80:	0317bc23          	sd	a7,56(a5)
    c0004f84:	04878793          	addi	a5,a5,72
    c0004f88:	ff07bc23          	sd	a6,-8(a5)
    c0004f8c:	b775                	j	c0004f38 <memcpy+0x4c>
    c0004f8e:	6190                	ld	a2,0(a1)
    c0004f90:	07a1                	addi	a5,a5,8
    c0004f92:	05a1                	addi	a1,a1,8
    c0004f94:	fec7bc23          	sd	a2,-8(a5)
    c0004f98:	fed7ebe3          	bltu	a5,a3,c0004f8e <memcpy+0xa2>
    c0004f9c:	f6e7e4e3          	bltu	a5,a4,c0004f04 <memcpy+0x18>
    c0004fa0:	8082                	ret

00000000c0004fa2 <memmove>:
    c0004fa2:	04a5f363          	bleu	a0,a1,c0004fe8 <memmove+0x46>
    c0004fa6:	00c586b3          	add	a3,a1,a2
    c0004faa:	02d57f63          	bleu	a3,a0,c0004fe8 <memmove+0x46>
    c0004fae:	fff64593          	not	a1,a2
    c0004fb2:	4781                	li	a5,0
    c0004fb4:	17fd                	addi	a5,a5,-1
    c0004fb6:	00f59363          	bne	a1,a5,c0004fbc <memmove+0x1a>
    c0004fba:	8082                	ret
    c0004fbc:	00f68733          	add	a4,a3,a5
    c0004fc0:	00074803          	lbu	a6,0(a4) # 2000 <main-0xbfffe000>
    c0004fc4:	00c78733          	add	a4,a5,a2
    c0004fc8:	972a                	add	a4,a4,a0
    c0004fca:	01070023          	sb	a6,0(a4)
    c0004fce:	b7dd                	j	c0004fb4 <memmove+0x12>
    c0004fd0:	00f58733          	add	a4,a1,a5
    c0004fd4:	00074683          	lbu	a3,0(a4)
    c0004fd8:	00f50733          	add	a4,a0,a5
    c0004fdc:	0785                	addi	a5,a5,1
    c0004fde:	00d70023          	sb	a3,0(a4)
    c0004fe2:	fef617e3          	bne	a2,a5,c0004fd0 <memmove+0x2e>
    c0004fe6:	8082                	ret
    c0004fe8:	4781                	li	a5,0
    c0004fea:	bfe5                	j	c0004fe2 <memmove+0x40>

00000000c0004fec <memset>:
    c0004fec:	433d                	li	t1,15
    c0004fee:	872a                	mv	a4,a0
    c0004ff0:	02c37163          	bleu	a2,t1,c0005012 <memset+0x26>
    c0004ff4:	00f77793          	andi	a5,a4,15
    c0004ff8:	e3c1                	bnez	a5,c0005078 <memset+0x8c>
    c0004ffa:	e1bd                	bnez	a1,c0005060 <memset+0x74>
    c0004ffc:	ff067693          	andi	a3,a2,-16
    c0005000:	8a3d                	andi	a2,a2,15
    c0005002:	96ba                	add	a3,a3,a4
    c0005004:	e30c                	sd	a1,0(a4)
    c0005006:	e70c                	sd	a1,8(a4)
    c0005008:	0741                	addi	a4,a4,16
    c000500a:	fed76de3          	bltu	a4,a3,c0005004 <memset+0x18>
    c000500e:	e211                	bnez	a2,c0005012 <memset+0x26>
    c0005010:	8082                	ret
    c0005012:	40c306b3          	sub	a3,t1,a2
    c0005016:	068a                	slli	a3,a3,0x2
    c0005018:	00000297          	auipc	t0,0x0
    c000501c:	9696                	add	a3,a3,t0
    c000501e:	00a68067          	jr	10(a3)
    c0005022:	00b70723          	sb	a1,14(a4)
    c0005026:	00b706a3          	sb	a1,13(a4)
    c000502a:	00b70623          	sb	a1,12(a4)
    c000502e:	00b705a3          	sb	a1,11(a4)
    c0005032:	00b70523          	sb	a1,10(a4)
    c0005036:	00b704a3          	sb	a1,9(a4)
    c000503a:	00b70423          	sb	a1,8(a4)
    c000503e:	00b703a3          	sb	a1,7(a4)
    c0005042:	00b70323          	sb	a1,6(a4)
    c0005046:	00b702a3          	sb	a1,5(a4)
    c000504a:	00b70223          	sb	a1,4(a4)
    c000504e:	00b701a3          	sb	a1,3(a4)
    c0005052:	00b70123          	sb	a1,2(a4)
    c0005056:	00b700a3          	sb	a1,1(a4)
    c000505a:	00b70023          	sb	a1,0(a4)
    c000505e:	8082                	ret
    c0005060:	0ff5f593          	andi	a1,a1,255
    c0005064:	00859693          	slli	a3,a1,0x8
    c0005068:	8dd5                	or	a1,a1,a3
    c000506a:	01059693          	slli	a3,a1,0x10
    c000506e:	8dd5                	or	a1,a1,a3
    c0005070:	02059693          	slli	a3,a1,0x20
    c0005074:	8dd5                	or	a1,a1,a3
    c0005076:	b759                	j	c0004ffc <memset+0x10>
    c0005078:	00279693          	slli	a3,a5,0x2
    c000507c:	00000297          	auipc	t0,0x0
    c0005080:	9696                	add	a3,a3,t0
    c0005082:	8286                	mv	t0,ra
    c0005084:	fa2680e7          	jalr	-94(a3)
    c0005088:	8096                	mv	ra,t0
    c000508a:	17c1                	addi	a5,a5,-16
    c000508c:	8f1d                	sub	a4,a4,a5
    c000508e:	963e                	add	a2,a2,a5
    c0005090:	f8c371e3          	bleu	a2,t1,c0005012 <memset+0x26>
    c0005094:	b79d                	j	c0004ffa <memset+0xe>

00000000c0005096 <_Balloc>:
    c0005096:	7d3c                	ld	a5,120(a0)
    c0005098:	1101                	addi	sp,sp,-32
    c000509a:	e426                	sd	s1,8(sp)
    c000509c:	e04a                	sd	s2,0(sp)
    c000509e:	ec06                	sd	ra,24(sp)
    c00050a0:	e822                	sd	s0,16(sp)
    c00050a2:	84aa                	mv	s1,a0
    c00050a4:	892e                	mv	s2,a1
    c00050a6:	cb8d                	beqz	a5,c00050d8 <_Balloc+0x42>
    c00050a8:	7cb8                	ld	a4,120(s1)
    c00050aa:	00391793          	slli	a5,s2,0x3
    c00050ae:	97ba                	add	a5,a5,a4
    c00050b0:	6388                	ld	a0,0(a5)
    c00050b2:	e139                	bnez	a0,c00050f8 <_Balloc+0x62>
    c00050b4:	4405                	li	s0,1
    c00050b6:	0124143b          	sllw	s0,s0,s2
    c00050ba:	fff4061b          	addiw	a2,s0,-1
    c00050be:	0621                	addi	a2,a2,8
    c00050c0:	060a                	slli	a2,a2,0x2
    c00050c2:	4585                	li	a1,1
    c00050c4:	8526                	mv	a0,s1
    c00050c6:	00002097          	auipc	ra,0x2
    c00050ca:	ea6080e7          	jalr	-346(ra) # c0006f6c <_calloc_r>
    c00050ce:	cd11                	beqz	a0,c00050ea <_Balloc+0x54>
    c00050d0:	01252423          	sw	s2,8(a0)
    c00050d4:	c540                	sw	s0,12(a0)
    c00050d6:	a01d                	j	c00050fc <_Balloc+0x66>
    c00050d8:	04100613          	li	a2,65
    c00050dc:	45a1                	li	a1,8
    c00050de:	00002097          	auipc	ra,0x2
    c00050e2:	e8e080e7          	jalr	-370(ra) # c0006f6c <_calloc_r>
    c00050e6:	fca8                	sd	a0,120(s1)
    c00050e8:	f161                	bnez	a0,c00050a8 <_Balloc+0x12>
    c00050ea:	4501                	li	a0,0
    c00050ec:	60e2                	ld	ra,24(sp)
    c00050ee:	6442                	ld	s0,16(sp)
    c00050f0:	64a2                	ld	s1,8(sp)
    c00050f2:	6902                	ld	s2,0(sp)
    c00050f4:	6105                	addi	sp,sp,32
    c00050f6:	8082                	ret
    c00050f8:	6118                	ld	a4,0(a0)
    c00050fa:	e398                	sd	a4,0(a5)
    c00050fc:	00053823          	sd	zero,16(a0)
    c0005100:	b7f5                	j	c00050ec <_Balloc+0x56>

00000000c0005102 <_Bfree>:
    c0005102:	c989                	beqz	a1,c0005114 <_Bfree+0x12>
    c0005104:	459c                	lw	a5,8(a1)
    c0005106:	00379713          	slli	a4,a5,0x3
    c000510a:	7d3c                	ld	a5,120(a0)
    c000510c:	97ba                	add	a5,a5,a4
    c000510e:	6398                	ld	a4,0(a5)
    c0005110:	e198                	sd	a4,0(a1)
    c0005112:	e38c                	sd	a1,0(a5)
    c0005114:	8082                	ret

00000000c0005116 <_realloc_r>:
    c0005116:	711d                	addi	sp,sp,-96
    c0005118:	e8a2                	sd	s0,80(sp)
    c000511a:	ec86                	sd	ra,88(sp)
    c000511c:	842e                	mv	s0,a1
    c000511e:	e4a6                	sd	s1,72(sp)
    c0005120:	e0ca                	sd	s2,64(sp)
    c0005122:	fc4e                	sd	s3,56(sp)
    c0005124:	f852                	sd	s4,48(sp)
    c0005126:	f456                	sd	s5,40(sp)
    c0005128:	f05a                	sd	s6,32(sp)
    c000512a:	ec5e                	sd	s7,24(sp)
    c000512c:	85b2                	mv	a1,a2
    c000512e:	ec19                	bnez	s0,c000514c <_realloc_r+0x36>
    c0005130:	6446                	ld	s0,80(sp)
    c0005132:	60e6                	ld	ra,88(sp)
    c0005134:	64a6                	ld	s1,72(sp)
    c0005136:	6906                	ld	s2,64(sp)
    c0005138:	79e2                	ld	s3,56(sp)
    c000513a:	7a42                	ld	s4,48(sp)
    c000513c:	7aa2                	ld	s5,40(sp)
    c000513e:	7b02                	ld	s6,32(sp)
    c0005140:	6be2                	ld	s7,24(sp)
    c0005142:	6125                	addi	sp,sp,96
    c0005144:	ffffb317          	auipc	t1,0xffffb
    c0005148:	5be30067          	jr	1470(t1) # c0000702 <_malloc_r>
    c000514c:	8aaa                	mv	s5,a0
    c000514e:	e432                	sd	a2,8(sp)
    c0005150:	ffffc097          	auipc	ra,0xffffc
    c0005154:	b34080e7          	jalr	-1228(ra) # c0000c84 <__malloc_lock>
    c0005158:	65a2                	ld	a1,8(sp)
    c000515a:	ff843683          	ld	a3,-8(s0)
    c000515e:	02e00793          	li	a5,46
    c0005162:	01758993          	addi	s3,a1,23
    c0005166:	ff040b93          	addi	s7,s0,-16
    c000516a:	ffc6f913          	andi	s2,a3,-4
    c000516e:	0337fa63          	bleu	s3,a5,c00051a2 <_realloc_r+0x8c>
    c0005172:	800007b7          	lui	a5,0x80000
    c0005176:	ff09fb13          	andi	s6,s3,-16
    c000517a:	fff7c793          	not	a5,a5
    c000517e:	0367f463          	bleu	s6,a5,c00051a6 <_realloc_r+0x90>
    c0005182:	47b1                	li	a5,12
    c0005184:	00faa023          	sw	a5,0(s5)
    c0005188:	4a01                	li	s4,0
    c000518a:	60e6                	ld	ra,88(sp)
    c000518c:	6446                	ld	s0,80(sp)
    c000518e:	8552                	mv	a0,s4
    c0005190:	64a6                	ld	s1,72(sp)
    c0005192:	6906                	ld	s2,64(sp)
    c0005194:	79e2                	ld	s3,56(sp)
    c0005196:	7a42                	ld	s4,48(sp)
    c0005198:	7aa2                	ld	s5,40(sp)
    c000519a:	7b02                	ld	s6,32(sp)
    c000519c:	6be2                	ld	s7,24(sp)
    c000519e:	6125                	addi	sp,sp,96
    c00051a0:	8082                	ret
    c00051a2:	02000b13          	li	s6,32
    c00051a6:	fcbb6ee3          	bltu	s6,a1,c0005182 <_realloc_r+0x6c>
    c00051aa:	35695763          	ble	s6,s2,c00054f8 <_realloc_r+0x3e2>
    c00051ae:	00005717          	auipc	a4,0x5
    c00051b2:	f7270713          	addi	a4,a4,-142 # c000a120 <__malloc_av_>
    c00051b6:	6b10                	ld	a2,16(a4)
    c00051b8:	012b87b3          	add	a5,s7,s2
    c00051bc:	6798                	ld	a4,8(a5)
    c00051be:	00f60863          	beq	a2,a5,c00051ce <_realloc_r+0xb8>
    c00051c2:	ffe77513          	andi	a0,a4,-2
    c00051c6:	953e                	add	a0,a0,a5
    c00051c8:	6508                	ld	a0,8(a0)
    c00051ca:	8905                	andi	a0,a0,1
    c00051cc:	ed21                	bnez	a0,c0005224 <_realloc_r+0x10e>
    c00051ce:	9b71                	andi	a4,a4,-4
    c00051d0:	00e909b3          	add	s3,s2,a4
    c00051d4:	04f61063          	bne	a2,a5,c0005214 <_realloc_r+0xfe>
    c00051d8:	020b0513          	addi	a0,s6,32 # ffffffff80000020 <_end+0xfffffffebfff5020>
    c00051dc:	04a9c663          	blt	s3,a0,c0005228 <_realloc_r+0x112>
    c00051e0:	9bda                	add	s7,s7,s6
    c00051e2:	416989b3          	sub	s3,s3,s6
    c00051e6:	00005797          	auipc	a5,0x5
    c00051ea:	f577b523          	sd	s7,-182(a5) # c000a130 <__malloc_av_+0x10>
    c00051ee:	0019e993          	ori	s3,s3,1
    c00051f2:	013bb423          	sd	s3,8(s7)
    c00051f6:	ff843983          	ld	s3,-8(s0)
    c00051fa:	8556                	mv	a0,s5
    c00051fc:	8a22                	mv	s4,s0
    c00051fe:	0019f993          	andi	s3,s3,1
    c0005202:	0169e9b3          	or	s3,s3,s6
    c0005206:	ff343c23          	sd	s3,-8(s0)
    c000520a:	ffffc097          	auipc	ra,0xffffc
    c000520e:	a8a080e7          	jalr	-1398(ra) # c0000c94 <__malloc_unlock>
    c0005212:	bfa5                	j	c000518a <_realloc_r+0x74>
    c0005214:	0169ca63          	blt	s3,s6,c0005228 <_realloc_r+0x112>
    c0005218:	6f98                	ld	a4,24(a5)
    c000521a:	6b9c                	ld	a5,16(a5)
    c000521c:	ef98                	sd	a4,24(a5)
    c000521e:	eb1c                	sd	a5,16(a4)
    c0005220:	84de                	mv	s1,s7
    c0005222:	a235                	j	c000534e <_realloc_r+0x238>
    c0005224:	4701                	li	a4,0
    c0005226:	4781                	li	a5,0
    c0005228:	8a85                	andi	a3,a3,1
    c000522a:	22069163          	bnez	a3,c000544c <_realloc_r+0x336>
    c000522e:	ff043483          	ld	s1,-16(s0)
    c0005232:	409b84b3          	sub	s1,s7,s1
    c0005236:	0084ba03          	ld	s4,8(s1)
    c000523a:	ffca7a13          	andi	s4,s4,-4
    c000523e:	9a4a                	add	s4,s4,s2
    c0005240:	18078663          	beqz	a5,c00053cc <_realloc_r+0x2b6>
    c0005244:	014709b3          	add	s3,a4,s4
    c0005248:	0af61c63          	bne	a2,a5,c0005300 <_realloc_r+0x1ea>
    c000524c:	020b0793          	addi	a5,s6,32
    c0005250:	16f9ce63          	blt	s3,a5,c00053cc <_realloc_r+0x2b6>
    c0005254:	6898                	ld	a4,16(s1)
    c0005256:	6c9c                	ld	a5,24(s1)
    c0005258:	ff890613          	addi	a2,s2,-8
    c000525c:	01048a13          	addi	s4,s1,16
    c0005260:	ef1c                	sd	a5,24(a4)
    c0005262:	eb98                	sd	a4,16(a5)
    c0005264:	04800713          	li	a4,72
    c0005268:	08c76563          	bltu	a4,a2,c00052f2 <_realloc_r+0x1dc>
    c000526c:	02700693          	li	a3,39
    c0005270:	87d2                	mv	a5,s4
    c0005272:	00c6fd63          	bleu	a2,a3,c000528c <_realloc_r+0x176>
    c0005276:	601c                	ld	a5,0(s0)
    c0005278:	e89c                	sd	a5,16(s1)
    c000527a:	641c                	ld	a5,8(s0)
    c000527c:	ec9c                	sd	a5,24(s1)
    c000527e:	03700793          	li	a5,55
    c0005282:	04c7e363          	bltu	a5,a2,c00052c8 <_realloc_r+0x1b2>
    c0005286:	0441                	addi	s0,s0,16
    c0005288:	02048793          	addi	a5,s1,32
    c000528c:	6018                	ld	a4,0(s0)
    c000528e:	e398                	sd	a4,0(a5)
    c0005290:	6418                	ld	a4,8(s0)
    c0005292:	e798                	sd	a4,8(a5)
    c0005294:	6818                	ld	a4,16(s0)
    c0005296:	eb98                	sd	a4,16(a5)
    c0005298:	016487b3          	add	a5,s1,s6
    c000529c:	416989b3          	sub	s3,s3,s6
    c00052a0:	00005717          	auipc	a4,0x5
    c00052a4:	e8f73823          	sd	a5,-368(a4) # c000a130 <__malloc_av_+0x10>
    c00052a8:	0019e993          	ori	s3,s3,1
    c00052ac:	0137b423          	sd	s3,8(a5)
    c00052b0:	649c                	ld	a5,8(s1)
    c00052b2:	8b85                	andi	a5,a5,1
    c00052b4:	0167e9b3          	or	s3,a5,s6
    c00052b8:	0134b423          	sd	s3,8(s1)
    c00052bc:	8556                	mv	a0,s5
    c00052be:	ffffc097          	auipc	ra,0xffffc
    c00052c2:	9d6080e7          	jalr	-1578(ra) # c0000c94 <__malloc_unlock>
    c00052c6:	b5d1                	j	c000518a <_realloc_r+0x74>
    c00052c8:	681c                	ld	a5,16(s0)
    c00052ca:	f09c                	sd	a5,32(s1)
    c00052cc:	6c1c                	ld	a5,24(s0)
    c00052ce:	f49c                	sd	a5,40(s1)
    c00052d0:	00e60763          	beq	a2,a4,c00052de <_realloc_r+0x1c8>
    c00052d4:	02040413          	addi	s0,s0,32
    c00052d8:	03048793          	addi	a5,s1,48
    c00052dc:	bf45                	j	c000528c <_realloc_r+0x176>
    c00052de:	701c                	ld	a5,32(s0)
    c00052e0:	03040413          	addi	s0,s0,48
    c00052e4:	f89c                	sd	a5,48(s1)
    c00052e6:	ff843703          	ld	a4,-8(s0)
    c00052ea:	04048793          	addi	a5,s1,64
    c00052ee:	fc98                	sd	a4,56(s1)
    c00052f0:	bf71                	j	c000528c <_realloc_r+0x176>
    c00052f2:	85a2                	mv	a1,s0
    c00052f4:	8552                	mv	a0,s4
    c00052f6:	00000097          	auipc	ra,0x0
    c00052fa:	cac080e7          	jalr	-852(ra) # c0004fa2 <memmove>
    c00052fe:	bf69                	j	c0005298 <_realloc_r+0x182>
    c0005300:	0d69c663          	blt	s3,s6,c00053cc <_realloc_r+0x2b6>
    c0005304:	6f98                	ld	a4,24(a5)
    c0005306:	6b9c                	ld	a5,16(a5)
    c0005308:	ff890613          	addi	a2,s2,-8
    c000530c:	01048513          	addi	a0,s1,16
    c0005310:	ef98                	sd	a4,24(a5)
    c0005312:	eb1c                	sd	a5,16(a4)
    c0005314:	6898                	ld	a4,16(s1)
    c0005316:	6c9c                	ld	a5,24(s1)
    c0005318:	ef1c                	sd	a5,24(a4)
    c000531a:	eb98                	sd	a4,16(a5)
    c000531c:	04800793          	li	a5,72
    c0005320:	0ac7e063          	bltu	a5,a2,c00053c0 <_realloc_r+0x2aa>
    c0005324:	02700713          	li	a4,39
    c0005328:	00c77d63          	bleu	a2,a4,c0005342 <_realloc_r+0x22c>
    c000532c:	6018                	ld	a4,0(s0)
    c000532e:	e898                	sd	a4,16(s1)
    c0005330:	6418                	ld	a4,8(s0)
    c0005332:	ec98                	sd	a4,24(s1)
    c0005334:	03700713          	li	a4,55
    c0005338:	04c76f63          	bltu	a4,a2,c0005396 <_realloc_r+0x280>
    c000533c:	0441                	addi	s0,s0,16
    c000533e:	02048513          	addi	a0,s1,32
    c0005342:	601c                	ld	a5,0(s0)
    c0005344:	e11c                	sd	a5,0(a0)
    c0005346:	641c                	ld	a5,8(s0)
    c0005348:	e51c                	sd	a5,8(a0)
    c000534a:	681c                	ld	a5,16(s0)
    c000534c:	e91c                	sd	a5,16(a0)
    c000534e:	6498                	ld	a4,8(s1)
    c0005350:	416986b3          	sub	a3,s3,s6
    c0005354:	467d                	li	a2,31
    c0005356:	8b05                	andi	a4,a4,1
    c0005358:	013487b3          	add	a5,s1,s3
    c000535c:	1ad67063          	bleu	a3,a2,c00054fc <_realloc_r+0x3e6>
    c0005360:	00eb69b3          	or	s3,s6,a4
    c0005364:	0134b423          	sd	s3,8(s1)
    c0005368:	016485b3          	add	a1,s1,s6
    c000536c:	0016e693          	ori	a3,a3,1
    c0005370:	e594                	sd	a3,8(a1)
    c0005372:	6798                	ld	a4,8(a5)
    c0005374:	05c1                	addi	a1,a1,16
    c0005376:	8556                	mv	a0,s5
    c0005378:	00176713          	ori	a4,a4,1
    c000537c:	e798                	sd	a4,8(a5)
    c000537e:	ffffe097          	auipc	ra,0xffffe
    c0005382:	a5c080e7          	jalr	-1444(ra) # c0002dda <_free_r>
    c0005386:	8556                	mv	a0,s5
    c0005388:	ffffc097          	auipc	ra,0xffffc
    c000538c:	90c080e7          	jalr	-1780(ra) # c0000c94 <__malloc_unlock>
    c0005390:	01048a13          	addi	s4,s1,16
    c0005394:	bbdd                	j	c000518a <_realloc_r+0x74>
    c0005396:	6818                	ld	a4,16(s0)
    c0005398:	f098                	sd	a4,32(s1)
    c000539a:	6c18                	ld	a4,24(s0)
    c000539c:	f498                	sd	a4,40(s1)
    c000539e:	00f60763          	beq	a2,a5,c00053ac <_realloc_r+0x296>
    c00053a2:	02040413          	addi	s0,s0,32
    c00053a6:	03048513          	addi	a0,s1,48
    c00053aa:	bf61                	j	c0005342 <_realloc_r+0x22c>
    c00053ac:	701c                	ld	a5,32(s0)
    c00053ae:	04048513          	addi	a0,s1,64
    c00053b2:	03040413          	addi	s0,s0,48
    c00053b6:	f89c                	sd	a5,48(s1)
    c00053b8:	ff843783          	ld	a5,-8(s0)
    c00053bc:	fc9c                	sd	a5,56(s1)
    c00053be:	b751                	j	c0005342 <_realloc_r+0x22c>
    c00053c0:	85a2                	mv	a1,s0
    c00053c2:	00000097          	auipc	ra,0x0
    c00053c6:	be0080e7          	jalr	-1056(ra) # c0004fa2 <memmove>
    c00053ca:	b751                	j	c000534e <_realloc_r+0x238>
    c00053cc:	096a4063          	blt	s4,s6,c000544c <_realloc_r+0x336>
    c00053d0:	6c9c                	ld	a5,24(s1)
    c00053d2:	6898                	ld	a4,16(s1)
    c00053d4:	ff890613          	addi	a2,s2,-8
    c00053d8:	01048513          	addi	a0,s1,16
    c00053dc:	ef1c                	sd	a5,24(a4)
    c00053de:	eb98                	sd	a4,16(a5)
    c00053e0:	04800793          	li	a5,72
    c00053e4:	04c7ee63          	bltu	a5,a2,c0005440 <_realloc_r+0x32a>
    c00053e8:	02700713          	li	a4,39
    c00053ec:	00c77d63          	bleu	a2,a4,c0005406 <_realloc_r+0x2f0>
    c00053f0:	6018                	ld	a4,0(s0)
    c00053f2:	e898                	sd	a4,16(s1)
    c00053f4:	6418                	ld	a4,8(s0)
    c00053f6:	ec98                	sd	a4,24(s1)
    c00053f8:	03700713          	li	a4,55
    c00053fc:	00c76d63          	bltu	a4,a2,c0005416 <_realloc_r+0x300>
    c0005400:	0441                	addi	s0,s0,16
    c0005402:	02048513          	addi	a0,s1,32
    c0005406:	601c                	ld	a5,0(s0)
    c0005408:	e11c                	sd	a5,0(a0)
    c000540a:	641c                	ld	a5,8(s0)
    c000540c:	e51c                	sd	a5,8(a0)
    c000540e:	681c                	ld	a5,16(s0)
    c0005410:	e91c                	sd	a5,16(a0)
    c0005412:	89d2                	mv	s3,s4
    c0005414:	bf2d                	j	c000534e <_realloc_r+0x238>
    c0005416:	6818                	ld	a4,16(s0)
    c0005418:	f098                	sd	a4,32(s1)
    c000541a:	6c18                	ld	a4,24(s0)
    c000541c:	f498                	sd	a4,40(s1)
    c000541e:	00f60763          	beq	a2,a5,c000542c <_realloc_r+0x316>
    c0005422:	02040413          	addi	s0,s0,32
    c0005426:	03048513          	addi	a0,s1,48
    c000542a:	bff1                	j	c0005406 <_realloc_r+0x2f0>
    c000542c:	701c                	ld	a5,32(s0)
    c000542e:	04048513          	addi	a0,s1,64
    c0005432:	03040413          	addi	s0,s0,48
    c0005436:	f89c                	sd	a5,48(s1)
    c0005438:	ff843783          	ld	a5,-8(s0)
    c000543c:	fc9c                	sd	a5,56(s1)
    c000543e:	b7e1                	j	c0005406 <_realloc_r+0x2f0>
    c0005440:	85a2                	mv	a1,s0
    c0005442:	00000097          	auipc	ra,0x0
    c0005446:	b60080e7          	jalr	-1184(ra) # c0004fa2 <memmove>
    c000544a:	b7e1                	j	c0005412 <_realloc_r+0x2fc>
    c000544c:	8556                	mv	a0,s5
    c000544e:	ffffb097          	auipc	ra,0xffffb
    c0005452:	2b4080e7          	jalr	692(ra) # c0000702 <_malloc_r>
    c0005456:	8a2a                	mv	s4,a0
    c0005458:	e60502e3          	beqz	a0,c00052bc <_realloc_r+0x1a6>
    c000545c:	ff843783          	ld	a5,-8(s0)
    c0005460:	ff050713          	addi	a4,a0,-16
    c0005464:	9bf9                	andi	a5,a5,-2
    c0005466:	97de                	add	a5,a5,s7
    c0005468:	00e79863          	bne	a5,a4,c0005478 <_realloc_r+0x362>
    c000546c:	ff853983          	ld	s3,-8(a0)
    c0005470:	ffc9f993          	andi	s3,s3,-4
    c0005474:	99ca                	add	s3,s3,s2
    c0005476:	b36d                	j	c0005220 <_realloc_r+0x10a>
    c0005478:	ff890613          	addi	a2,s2,-8
    c000547c:	04800793          	li	a5,72
    c0005480:	06c7e663          	bltu	a5,a2,c00054ec <_realloc_r+0x3d6>
    c0005484:	02700713          	li	a4,39
    c0005488:	04c77f63          	bleu	a2,a4,c00054e6 <_realloc_r+0x3d0>
    c000548c:	6018                	ld	a4,0(s0)
    c000548e:	e118                	sd	a4,0(a0)
    c0005490:	6418                	ld	a4,8(s0)
    c0005492:	e518                	sd	a4,8(a0)
    c0005494:	03700713          	li	a4,55
    c0005498:	02c76363          	bltu	a4,a2,c00054be <_realloc_r+0x3a8>
    c000549c:	01040713          	addi	a4,s0,16
    c00054a0:	01050793          	addi	a5,a0,16
    c00054a4:	6314                	ld	a3,0(a4)
    c00054a6:	e394                	sd	a3,0(a5)
    c00054a8:	6714                	ld	a3,8(a4)
    c00054aa:	e794                	sd	a3,8(a5)
    c00054ac:	6b18                	ld	a4,16(a4)
    c00054ae:	eb98                	sd	a4,16(a5)
    c00054b0:	85a2                	mv	a1,s0
    c00054b2:	8556                	mv	a0,s5
    c00054b4:	ffffe097          	auipc	ra,0xffffe
    c00054b8:	926080e7          	jalr	-1754(ra) # c0002dda <_free_r>
    c00054bc:	b501                	j	c00052bc <_realloc_r+0x1a6>
    c00054be:	6818                	ld	a4,16(s0)
    c00054c0:	e918                	sd	a4,16(a0)
    c00054c2:	6c18                	ld	a4,24(s0)
    c00054c4:	ed18                	sd	a4,24(a0)
    c00054c6:	00f60763          	beq	a2,a5,c00054d4 <_realloc_r+0x3be>
    c00054ca:	02040713          	addi	a4,s0,32
    c00054ce:	02050793          	addi	a5,a0,32
    c00054d2:	bfc9                	j	c00054a4 <_realloc_r+0x38e>
    c00054d4:	701c                	ld	a5,32(s0)
    c00054d6:	03040713          	addi	a4,s0,48
    c00054da:	f11c                	sd	a5,32(a0)
    c00054dc:	7414                	ld	a3,40(s0)
    c00054de:	03050793          	addi	a5,a0,48
    c00054e2:	f514                	sd	a3,40(a0)
    c00054e4:	b7c1                	j	c00054a4 <_realloc_r+0x38e>
    c00054e6:	87aa                	mv	a5,a0
    c00054e8:	8722                	mv	a4,s0
    c00054ea:	bf6d                	j	c00054a4 <_realloc_r+0x38e>
    c00054ec:	85a2                	mv	a1,s0
    c00054ee:	00000097          	auipc	ra,0x0
    c00054f2:	ab4080e7          	jalr	-1356(ra) # c0004fa2 <memmove>
    c00054f6:	bf6d                	j	c00054b0 <_realloc_r+0x39a>
    c00054f8:	89ca                	mv	s3,s2
    c00054fa:	b31d                	j	c0005220 <_realloc_r+0x10a>
    c00054fc:	00e9e9b3          	or	s3,s3,a4
    c0005500:	0134b423          	sd	s3,8(s1)
    c0005504:	6798                	ld	a4,8(a5)
    c0005506:	00176713          	ori	a4,a4,1
    c000550a:	e798                	sd	a4,8(a5)
    c000550c:	bdad                	j	c0005386 <_realloc_r+0x270>

00000000c000550e <lflush>:
    c000550e:	01055783          	lhu	a5,16(a0)
    c0005512:	4725                	li	a4,9
    c0005514:	8ba5                	andi	a5,a5,9
    c0005516:	00e79663          	bne	a5,a4,c0005522 <lflush+0x14>
    c000551a:	ffffd317          	auipc	t1,0xffffd
    c000551e:	67630067          	jr	1654(t1) # c0002b90 <fflush>
    c0005522:	4501                	li	a0,0
    c0005524:	8082                	ret

00000000c0005526 <__srefill_r>:
    c0005526:	7179                	addi	sp,sp,-48
    c0005528:	f022                	sd	s0,32(sp)
    c000552a:	ec26                	sd	s1,24(sp)
    c000552c:	f406                	sd	ra,40(sp)
    c000552e:	e84a                	sd	s2,16(sp)
    c0005530:	e44e                	sd	s3,8(sp)
    c0005532:	84aa                	mv	s1,a0
    c0005534:	842e                	mv	s0,a1
    c0005536:	c519                	beqz	a0,c0005544 <__srefill_r+0x1e>
    c0005538:	493c                	lw	a5,80(a0)
    c000553a:	e789                	bnez	a5,c0005544 <__srefill_r+0x1e>
    c000553c:	ffffd097          	auipc	ra,0xffffd
    c0005540:	748080e7          	jalr	1864(ra) # c0002c84 <__sinit>
    c0005544:	01041783          	lh	a5,16(s0)
    c0005548:	03279713          	slli	a4,a5,0x32
    c000554c:	00074d63          	bltz	a4,c0005566 <__srefill_r+0x40>
    c0005550:	6709                	lui	a4,0x2
    c0005552:	8fd9                	or	a5,a5,a4
    c0005554:	00f41823          	sh	a5,16(s0)
    c0005558:	0b042783          	lw	a5,176(s0)
    c000555c:	7779                	lui	a4,0xffffe
    c000555e:	177d                	addi	a4,a4,-1
    c0005560:	8ff9                	and	a5,a5,a4
    c0005562:	0af42823          	sw	a5,176(s0)
    c0005566:	01041703          	lh	a4,16(s0)
    c000556a:	00042423          	sw	zero,8(s0)
    c000556e:	03071793          	slli	a5,a4,0x30
    c0005572:	93c1                	srli	a5,a5,0x30
    c0005574:	0207f693          	andi	a3,a5,32
    c0005578:	c299                	beqz	a3,c000557e <__srefill_r+0x58>
    c000557a:	557d                	li	a0,-1
    c000557c:	a8e5                	j	c0005674 <__srefill_r+0x14e>
    c000557e:	0047f693          	andi	a3,a5,4
    c0005582:	e6f1                	bnez	a3,c000564e <__srefill_r+0x128>
    c0005584:	0107f693          	andi	a3,a5,16
    c0005588:	ea81                	bnez	a3,c0005598 <__srefill_r+0x72>
    c000558a:	47a5                	li	a5,9
    c000558c:	c09c                	sw	a5,0(s1)
    c000558e:	04076713          	ori	a4,a4,64
    c0005592:	00e41823          	sh	a4,16(s0)
    c0005596:	b7d5                	j	c000557a <__srefill_r+0x54>
    c0005598:	8ba1                	andi	a5,a5,8
    c000559a:	c38d                	beqz	a5,c00055bc <__srefill_r+0x96>
    c000559c:	85a2                	mv	a1,s0
    c000559e:	8526                	mv	a0,s1
    c00055a0:	ffffd097          	auipc	ra,0xffffd
    c00055a4:	55c080e7          	jalr	1372(ra) # c0002afc <_fflush_r>
    c00055a8:	f969                	bnez	a0,c000557a <__srefill_r+0x54>
    c00055aa:	01045783          	lhu	a5,16(s0)
    c00055ae:	00042623          	sw	zero,12(s0)
    c00055b2:	02042423          	sw	zero,40(s0)
    c00055b6:	9bdd                	andi	a5,a5,-9
    c00055b8:	00f41823          	sh	a5,16(s0)
    c00055bc:	01045783          	lhu	a5,16(s0)
    c00055c0:	0047e793          	ori	a5,a5,4
    c00055c4:	00f41823          	sh	a5,16(s0)
    c00055c8:	6c1c                	ld	a5,24(s0)
    c00055ca:	e799                	bnez	a5,c00055d8 <__srefill_r+0xb2>
    c00055cc:	85a2                	mv	a1,s0
    c00055ce:	8526                	mv	a0,s1
    c00055d0:	00000097          	auipc	ra,0x0
    c00055d4:	81a080e7          	jalr	-2022(ra) # c0004dea <__smakebuf_r>
    c00055d8:	01041983          	lh	s3,16(s0)
    c00055dc:	03099913          	slli	s2,s3,0x30
    c00055e0:	03095913          	srli	s2,s2,0x30
    c00055e4:	00397793          	andi	a5,s2,3
    c00055e8:	cf95                	beqz	a5,c0005624 <__srefill_r+0xfe>
    c00055ea:	4785                	li	a5,1
    c00055ec:	00f41823          	sh	a5,16(s0)
    c00055f0:	00004797          	auipc	a5,0x4
    c00055f4:	3b878793          	addi	a5,a5,952 # c00099a8 <_global_impure_ptr>
    c00055f8:	6388                	ld	a0,0(a5)
    c00055fa:	00000597          	auipc	a1,0x0
    c00055fe:	f1458593          	addi	a1,a1,-236 # c000550e <lflush>
    c0005602:	00997913          	andi	s2,s2,9
    c0005606:	ffffe097          	auipc	ra,0xffffe
    c000560a:	ce0080e7          	jalr	-800(ra) # c00032e6 <_fwalk>
    c000560e:	47a5                	li	a5,9
    c0005610:	01341823          	sh	s3,16(s0)
    c0005614:	00f91863          	bne	s2,a5,c0005624 <__srefill_r+0xfe>
    c0005618:	85a2                	mv	a1,s0
    c000561a:	8526                	mv	a0,s1
    c000561c:	ffffd097          	auipc	ra,0xffffd
    c0005620:	37a080e7          	jalr	890(ra) # c0002996 <__sflush_r>
    c0005624:	6c10                	ld	a2,24(s0)
    c0005626:	7c1c                	ld	a5,56(s0)
    c0005628:	5014                	lw	a3,32(s0)
    c000562a:	780c                	ld	a1,48(s0)
    c000562c:	e010                	sd	a2,0(s0)
    c000562e:	8526                	mv	a0,s1
    c0005630:	9782                	jalr	a5
    c0005632:	0005071b          	sext.w	a4,a0
    c0005636:	c418                	sw	a4,8(s0)
    c0005638:	4501                	li	a0,0
    c000563a:	02e04d63          	bgtz	a4,c0005674 <__srefill_r+0x14e>
    c000563e:	01041783          	lh	a5,16(s0)
    c0005642:	e321                	bnez	a4,c0005682 <__srefill_r+0x15c>
    c0005644:	0207e793          	ori	a5,a5,32
    c0005648:	00f41823          	sh	a5,16(s0)
    c000564c:	b73d                	j	c000557a <__srefill_r+0x54>
    c000564e:	6c2c                	ld	a1,88(s0)
    c0005650:	dda5                	beqz	a1,c00055c8 <__srefill_r+0xa2>
    c0005652:	07440793          	addi	a5,s0,116
    c0005656:	00f58763          	beq	a1,a5,c0005664 <__srefill_r+0x13e>
    c000565a:	8526                	mv	a0,s1
    c000565c:	ffffd097          	auipc	ra,0xffffd
    c0005660:	77e080e7          	jalr	1918(ra) # c0002dda <_free_r>
    c0005664:	583c                	lw	a5,112(s0)
    c0005666:	04043c23          	sd	zero,88(s0)
    c000566a:	c41c                	sw	a5,8(s0)
    c000566c:	dfb1                	beqz	a5,c00055c8 <__srefill_r+0xa2>
    c000566e:	743c                	ld	a5,104(s0)
    c0005670:	4501                	li	a0,0
    c0005672:	e01c                	sd	a5,0(s0)
    c0005674:	70a2                	ld	ra,40(sp)
    c0005676:	7402                	ld	s0,32(sp)
    c0005678:	64e2                	ld	s1,24(sp)
    c000567a:	6942                	ld	s2,16(sp)
    c000567c:	69a2                	ld	s3,8(sp)
    c000567e:	6145                	addi	sp,sp,48
    c0005680:	8082                	ret
    c0005682:	00042423          	sw	zero,8(s0)
    c0005686:	0407e793          	ori	a5,a5,64
    c000568a:	bf7d                	j	c0005648 <__srefill_r+0x122>

00000000c000568c <frexp>:
    c000568c:	1101                	addi	sp,sp,-32
    c000568e:	e426                	sd	s1,8(sp)
    c0005690:	800004b7          	lui	s1,0x80000
    c0005694:	ec06                	sd	ra,24(sp)
    c0005696:	e822                	sd	s0,16(sp)
    c0005698:	42055793          	srai	a5,a0,0x20
    c000569c:	fff4c493          	not	s1,s1
    c00056a0:	0097f6b3          	and	a3,a5,s1
    c00056a4:	0005a023          	sw	zero,0(a1)
    c00056a8:	7ff00637          	lui	a2,0x7ff00
    c00056ac:	872a                	mv	a4,a0
    c00056ae:	04c6df63          	ble	a2,a3,c000570c <frexp+0x80>
    c00056b2:	00a6e633          	or	a2,a3,a0
    c00056b6:	2601                	sext.w	a2,a2
    c00056b8:	ca31                	beqz	a2,c000570c <frexp+0x80>
    c00056ba:	7ff00637          	lui	a2,0x7ff00
    c00056be:	8e7d                	and	a2,a2,a5
    c00056c0:	842e                	mv	s0,a1
    c00056c2:	e215                	bnez	a2,c00056e6 <frexp+0x5a>
    c00056c4:	00004797          	auipc	a5,0x4
    c00056c8:	ecc78793          	addi	a5,a5,-308 # c0009590 <ezero+0x30>
    c00056cc:	638c                	ld	a1,0(a5)
    c00056ce:	00002097          	auipc	ra,0x2
    c00056d2:	05c080e7          	jalr	92(ra) # c000772a <__muldf3>
    c00056d6:	42055793          	srai	a5,a0,0x20
    c00056da:	fca00613          	li	a2,-54
    c00056de:	872a                	mv	a4,a0
    c00056e0:	0097f6b3          	and	a3,a5,s1
    c00056e4:	c010                	sw	a2,0(s0)
    c00056e6:	4010                	lw	a2,0(s0)
    c00056e8:	4146d69b          	sraiw	a3,a3,0x14
    c00056ec:	c026869b          	addiw	a3,a3,-1022
    c00056f0:	9eb1                	addw	a3,a3,a2
    c00056f2:	c014                	sw	a3,0(s0)
    c00056f4:	801006b7          	lui	a3,0x80100
    c00056f8:	16fd                	addi	a3,a3,-1
    c00056fa:	8ff5                	and	a5,a5,a3
    c00056fc:	3fe006b7          	lui	a3,0x3fe00
    c0005700:	8fd5                	or	a5,a5,a3
    c0005702:	56fd                	li	a3,-1
    c0005704:	9281                	srli	a3,a3,0x20
    c0005706:	1782                	slli	a5,a5,0x20
    c0005708:	8f75                	and	a4,a4,a3
    c000570a:	8f5d                	or	a4,a4,a5
    c000570c:	60e2                	ld	ra,24(sp)
    c000570e:	6442                	ld	s0,16(sp)
    c0005710:	64a2                	ld	s1,8(sp)
    c0005712:	853a                	mv	a0,a4
    c0005714:	6105                	addi	sp,sp,32
    c0005716:	8082                	ret

00000000c0005718 <sprintf>:
    c0005718:	7111                	addi	sp,sp,-256
    c000571a:	f5be                	sd	a5,232(sp)
    c000571c:	800007b7          	lui	a5,0x80000
    c0005720:	fff7c793          	not	a5,a5
    c0005724:	d43e                	sw	a5,40(sp)
    c0005726:	ca3e                	sw	a5,20(sp)
    c0005728:	77c1                	lui	a5,0xffff0
    c000572a:	2087879b          	addiw	a5,a5,520
    c000572e:	e9b2                	sd	a2,208(sp)
    c0005730:	edb6                	sd	a3,216(sp)
    c0005732:	f1ba                	sd	a4,224(sp)
    c0005734:	f9c2                	sd	a6,240(sp)
    c0005736:	fdc6                	sd	a7,248(sp)
    c0005738:	cc3e                	sw	a5,24(sp)
    c000573a:	00005797          	auipc	a5,0x5
    c000573e:	39e78793          	addi	a5,a5,926 # c000aad8 <_impure_ptr>
    c0005742:	e42a                	sd	a0,8(sp)
    c0005744:	f02a                	sd	a0,32(sp)
    c0005746:	6388                	ld	a0,0(a5)
    c0005748:	0994                	addi	a3,sp,208
    c000574a:	862e                	mv	a2,a1
    c000574c:	002c                	addi	a1,sp,8
    c000574e:	e586                	sd	ra,200(sp)
    c0005750:	e036                	sd	a3,0(sp)
    c0005752:	00000097          	auipc	ra,0x0
    c0005756:	110080e7          	jalr	272(ra) # c0005862 <_svfprintf_r>
    c000575a:	67a2                	ld	a5,8(sp)
    c000575c:	00078023          	sb	zero,0(a5)
    c0005760:	60ae                	ld	ra,200(sp)
    c0005762:	6111                	addi	sp,sp,256
    c0005764:	8082                	ret

00000000c0005766 <__sread>:
    c0005766:	1141                	addi	sp,sp,-16
    c0005768:	e022                	sd	s0,0(sp)
    c000576a:	842e                	mv	s0,a1
    c000576c:	01259583          	lh	a1,18(a1)
    c0005770:	e406                	sd	ra,8(sp)
    c0005772:	00002097          	auipc	ra,0x2
    c0005776:	be4080e7          	jalr	-1052(ra) # c0007356 <_read_r>
    c000577a:	00054963          	bltz	a0,c000578c <__sread+0x26>
    c000577e:	685c                	ld	a5,144(s0)
    c0005780:	97aa                	add	a5,a5,a0
    c0005782:	e85c                	sd	a5,144(s0)
    c0005784:	60a2                	ld	ra,8(sp)
    c0005786:	6402                	ld	s0,0(sp)
    c0005788:	0141                	addi	sp,sp,16
    c000578a:	8082                	ret
    c000578c:	01045783          	lhu	a5,16(s0)
    c0005790:	777d                	lui	a4,0xfffff
    c0005792:	177d                	addi	a4,a4,-1
    c0005794:	8ff9                	and	a5,a5,a4
    c0005796:	00f41823          	sh	a5,16(s0)
    c000579a:	b7ed                	j	c0005784 <__sread+0x1e>

00000000c000579c <__swrite>:
    c000579c:	0105d783          	lhu	a5,16(a1)
    c00057a0:	7179                	addi	sp,sp,-48
    c00057a2:	f022                	sd	s0,32(sp)
    c00057a4:	ec26                	sd	s1,24(sp)
    c00057a6:	e84a                	sd	s2,16(sp)
    c00057a8:	e44e                	sd	s3,8(sp)
    c00057aa:	f406                	sd	ra,40(sp)
    c00057ac:	1007f793          	andi	a5,a5,256
    c00057b0:	84aa                	mv	s1,a0
    c00057b2:	842e                	mv	s0,a1
    c00057b4:	8932                	mv	s2,a2
    c00057b6:	89b6                	mv	s3,a3
    c00057b8:	cb89                	beqz	a5,c00057ca <__swrite+0x2e>
    c00057ba:	01259583          	lh	a1,18(a1)
    c00057be:	4689                	li	a3,2
    c00057c0:	4601                	li	a2,0
    c00057c2:	00002097          	auipc	ra,0x2
    c00057c6:	b5a080e7          	jalr	-1190(ra) # c000731c <_lseek_r>
    c00057ca:	01045783          	lhu	a5,16(s0)
    c00057ce:	777d                	lui	a4,0xfffff
    c00057d0:	177d                	addi	a4,a4,-1
    c00057d2:	8ff9                	and	a5,a5,a4
    c00057d4:	00f41823          	sh	a5,16(s0)
    c00057d8:	01241583          	lh	a1,18(s0)
    c00057dc:	7402                	ld	s0,32(sp)
    c00057de:	70a2                	ld	ra,40(sp)
    c00057e0:	86ce                	mv	a3,s3
    c00057e2:	864a                	mv	a2,s2
    c00057e4:	69a2                	ld	s3,8(sp)
    c00057e6:	6942                	ld	s2,16(sp)
    c00057e8:	8526                	mv	a0,s1
    c00057ea:	64e2                	ld	s1,24(sp)
    c00057ec:	6145                	addi	sp,sp,48
    c00057ee:	00001317          	auipc	t1,0x1
    c00057f2:	74430067          	jr	1860(t1) # c0006f32 <_write_r>

00000000c00057f6 <__sseek>:
    c00057f6:	1141                	addi	sp,sp,-16
    c00057f8:	e022                	sd	s0,0(sp)
    c00057fa:	842e                	mv	s0,a1
    c00057fc:	01259583          	lh	a1,18(a1)
    c0005800:	e406                	sd	ra,8(sp)
    c0005802:	00002097          	auipc	ra,0x2
    c0005806:	b1a080e7          	jalr	-1254(ra) # c000731c <_lseek_r>
    c000580a:	57fd                	li	a5,-1
    c000580c:	01045703          	lhu	a4,16(s0)
    c0005810:	00f51b63          	bne	a0,a5,c0005826 <__sseek+0x30>
    c0005814:	77fd                	lui	a5,0xfffff
    c0005816:	17fd                	addi	a5,a5,-1
    c0005818:	8ff9                	and	a5,a5,a4
    c000581a:	00f41823          	sh	a5,16(s0)
    c000581e:	60a2                	ld	ra,8(sp)
    c0005820:	6402                	ld	s0,0(sp)
    c0005822:	0141                	addi	sp,sp,16
    c0005824:	8082                	ret
    c0005826:	6785                	lui	a5,0x1
    c0005828:	8fd9                	or	a5,a5,a4
    c000582a:	00f41823          	sh	a5,16(s0)
    c000582e:	e848                	sd	a0,144(s0)
    c0005830:	b7fd                	j	c000581e <__sseek+0x28>

00000000c0005832 <__sclose>:
    c0005832:	01259583          	lh	a1,18(a1)
    c0005836:	00001317          	auipc	t1,0x1
    c000583a:	7ba30067          	jr	1978(t1) # c0006ff0 <_close_r>

00000000c000583e <strncpy>:
    c000583e:	87aa                	mv	a5,a0
    c0005840:	ca09                	beqz	a2,c0005852 <strncpy+0x14>
    c0005842:	0585                	addi	a1,a1,1
    c0005844:	fff5c703          	lbu	a4,-1(a1)
    c0005848:	0785                	addi	a5,a5,1
    c000584a:	167d                	addi	a2,a2,-1
    c000584c:	fee78fa3          	sb	a4,-1(a5) # fff <main-0xbffff001>
    c0005850:	fb65                	bnez	a4,c0005840 <strncpy+0x2>
    c0005852:	963e                	add	a2,a2,a5
    c0005854:	00c79363          	bne	a5,a2,c000585a <strncpy+0x1c>
    c0005858:	8082                	ret
    c000585a:	0785                	addi	a5,a5,1
    c000585c:	fe078fa3          	sb	zero,-1(a5)
    c0005860:	bfd5                	j	c0005854 <strncpy+0x16>

00000000c0005862 <_svfprintf_r>:
    c0005862:	db010113          	addi	sp,sp,-592
    c0005866:	24113423          	sd	ra,584(sp)
    c000586a:	22913c23          	sd	s1,568(sp)
    c000586e:	23213823          	sd	s2,560(sp)
    c0005872:	23313423          	sd	s3,552(sp)
    c0005876:	21613823          	sd	s6,528(sp)
    c000587a:	89ae                	mv	s3,a1
    c000587c:	84b2                	mv	s1,a2
    c000587e:	8b36                	mv	s6,a3
    c0005880:	24813023          	sd	s0,576(sp)
    c0005884:	23413023          	sd	s4,544(sp)
    c0005888:	21513c23          	sd	s5,536(sp)
    c000588c:	21713423          	sd	s7,520(sp)
    c0005890:	21813023          	sd	s8,512(sp)
    c0005894:	ffe6                	sd	s9,504(sp)
    c0005896:	fbea                	sd	s10,496(sp)
    c0005898:	f7ee                	sd	s11,488(sp)
    c000589a:	892a                	mv	s2,a0
    c000589c:	fffff097          	auipc	ra,0xfffff
    c00058a0:	4d0080e7          	jalr	1232(ra) # c0004d6c <_localeconv_r>
    c00058a4:	611c                	ld	a5,0(a0)
    c00058a6:	853e                	mv	a0,a5
    c00058a8:	e0be                	sd	a5,64(sp)
    c00058aa:	ffffb097          	auipc	ra,0xffffb
    c00058ae:	76e080e7          	jalr	1902(ra) # c0001018 <strlen>
    c00058b2:	0109d783          	lhu	a5,16(s3)
    c00058b6:	e82a                	sd	a0,16(sp)
    c00058b8:	e982                	sd	zero,208(sp)
    c00058ba:	ed82                	sd	zero,216(sp)
    c00058bc:	0807f793          	andi	a5,a5,128
    c00058c0:	cb95                	beqz	a5,c00058f4 <_svfprintf_r+0x92>
    c00058c2:	0189b783          	ld	a5,24(s3)
    c00058c6:	e79d                	bnez	a5,c00058f4 <_svfprintf_r+0x92>
    c00058c8:	04000593          	li	a1,64
    c00058cc:	854a                	mv	a0,s2
    c00058ce:	ffffb097          	auipc	ra,0xffffb
    c00058d2:	e34080e7          	jalr	-460(ra) # c0000702 <_malloc_r>
    c00058d6:	00a9b023          	sd	a0,0(s3)
    c00058da:	00a9bc23          	sd	a0,24(s3)
    c00058de:	e519                	bnez	a0,c00058ec <_svfprintf_r+0x8a>
    c00058e0:	47b1                	li	a5,12
    c00058e2:	00f92023          	sw	a5,0(s2)
    c00058e6:	57fd                	li	a5,-1
    c00058e8:	f03e                	sd	a5,32(sp)
    c00058ea:	ab5d                	j	c0005ea0 <_svfprintf_r+0x63e>
    c00058ec:	04000793          	li	a5,64
    c00058f0:	02f9a023          	sw	a5,32(s3)
    c00058f4:	129c                	addi	a5,sp,352
    c00058f6:	f1be                	sd	a5,224(sp)
    c00058f8:	f982                	sd	zero,240(sp)
    c00058fa:	d582                	sw	zero,232(sp)
    c00058fc:	4a01                	li	s4,0
    c00058fe:	8c3e                	mv	s8,a5
    c0005900:	ec82                	sd	zero,88(sp)
    c0005902:	e882                	sd	zero,80(sp)
    c0005904:	e002                	sd	zero,0(sp)
    c0005906:	fc02                	sd	zero,56(sp)
    c0005908:	e482                	sd	zero,72(sp)
    c000590a:	f002                	sd	zero,32(sp)
    c000590c:	8426                	mv	s0,s1
    c000590e:	02500713          	li	a4,37
    c0005912:	00044783          	lbu	a5,0(s0)
    c0005916:	c399                	beqz	a5,c000591c <_svfprintf_r+0xba>
    c0005918:	08e79b63          	bne	a5,a4,c00059ae <_svfprintf_r+0x14c>
    c000591c:	40940abb          	subw	s5,s0,s1
    c0005920:	040a8063          	beqz	s5,c0005960 <_svfprintf_r+0xfe>
    c0005924:	77ce                	ld	a5,240(sp)
    c0005926:	009c3023          	sd	s1,0(s8) # 1000 <main-0xbffff000>
    c000592a:	015c3423          	sd	s5,8(s8)
    c000592e:	97d6                	add	a5,a5,s5
    c0005930:	f9be                	sd	a5,240(sp)
    c0005932:	57ae                	lw	a5,232(sp)
    c0005934:	0c41                	addi	s8,s8,16
    c0005936:	0017871b          	addiw	a4,a5,1
    c000593a:	d5ba                	sw	a4,232(sp)
    c000593c:	479d                	li	a5,7
    c000593e:	00e7dd63          	ble	a4,a5,c0005958 <_svfprintf_r+0xf6>
    c0005942:	1190                	addi	a2,sp,224
    c0005944:	85ce                	mv	a1,s3
    c0005946:	854a                	mv	a0,s2
    c0005948:	00002097          	auipc	ra,0x2
    c000594c:	a48080e7          	jalr	-1464(ra) # c0007390 <__ssprint_r>
    c0005950:	54051263          	bnez	a0,c0005e94 <_svfprintf_r+0x632>
    c0005954:	16010c13          	addi	s8,sp,352
    c0005958:	7782                	ld	a5,32(sp)
    c000595a:	015787bb          	addw	a5,a5,s5
    c000595e:	f03e                	sd	a5,32(sp)
    c0005960:	00044783          	lbu	a5,0(s0)
    c0005964:	e399                	bnez	a5,c000596a <_svfprintf_r+0x108>
    c0005966:	4ce0106f          	j	c0006e34 <_svfprintf_r+0x15d2>
    c000596a:	00140793          	addi	a5,s0,1
    c000596e:	0a0107a3          	sb	zero,175(sp)
    c0005972:	5dfd                	li	s11,-1
    c0005974:	ec02                	sd	zero,24(sp)
    c0005976:	4401                	li	s0,0
    c0005978:	4ba9                	li	s7,10
    c000597a:	4d25                	li	s10,9
    c000597c:	0007ca83          	lbu	s5,0(a5)
    c0005980:	00178713          	addi	a4,a5,1
    c0005984:	e43a                	sd	a4,8(sp)
    c0005986:	05a00693          	li	a3,90
    c000598a:	02a00613          	li	a2,42
    c000598e:	fe0a879b          	addiw	a5,s5,-32
    c0005992:	0007871b          	sext.w	a4,a5
    c0005996:	44e6ebe3          	bltu	a3,a4,c00065ec <_svfprintf_r+0xd8a>
    c000599a:	1782                	slli	a5,a5,0x20
    c000599c:	00004717          	auipc	a4,0x4
    c00059a0:	bfc70713          	addi	a4,a4,-1028 # c0009598 <ezero+0x38>
    c00059a4:	83f9                	srli	a5,a5,0x1e
    c00059a6:	97ba                	add	a5,a5,a4
    c00059a8:	439c                	lw	a5,0(a5)
    c00059aa:	97ba                	add	a5,a5,a4
    c00059ac:	8782                	jr	a5
    c00059ae:	0405                	addi	s0,s0,1
    c00059b0:	b78d                	j	c0005912 <_svfprintf_r+0xb0>
    c00059b2:	854a                	mv	a0,s2
    c00059b4:	fffff097          	auipc	ra,0xfffff
    c00059b8:	3b8080e7          	jalr	952(ra) # c0004d6c <_localeconv_r>
    c00059bc:	651c                	ld	a5,8(a0)
    c00059be:	853e                	mv	a0,a5
    c00059c0:	e4be                	sd	a5,72(sp)
    c00059c2:	ffffb097          	auipc	ra,0xffffb
    c00059c6:	656080e7          	jalr	1622(ra) # c0001018 <strlen>
    c00059ca:	fc2a                	sd	a0,56(sp)
    c00059cc:	854a                	mv	a0,s2
    c00059ce:	fffff097          	auipc	ra,0xfffff
    c00059d2:	39e080e7          	jalr	926(ra) # c0004d6c <_localeconv_r>
    c00059d6:	691c                	ld	a5,16(a0)
    c00059d8:	e03e                	sd	a5,0(sp)
    c00059da:	77e2                	ld	a5,56(sp)
    c00059dc:	c38d                	beqz	a5,c00059fe <_svfprintf_r+0x19c>
    c00059de:	6782                	ld	a5,0(sp)
    c00059e0:	cf99                	beqz	a5,c00059fe <_svfprintf_r+0x19c>
    c00059e2:	0007c783          	lbu	a5,0(a5)
    c00059e6:	cf81                	beqz	a5,c00059fe <_svfprintf_r+0x19c>
    c00059e8:	40046413          	ori	s0,s0,1024
    c00059ec:	2401                	sext.w	s0,s0
    c00059ee:	a801                	j	c00059fe <_svfprintf_r+0x19c>
    c00059f0:	0af14783          	lbu	a5,175(sp)
    c00059f4:	e789                	bnez	a5,c00059fe <_svfprintf_r+0x19c>
    c00059f6:	02000793          	li	a5,32
    c00059fa:	0af107a3          	sb	a5,175(sp)
    c00059fe:	67a2                	ld	a5,8(sp)
    c0005a00:	bfb5                	j	c000597c <_svfprintf_r+0x11a>
    c0005a02:	00146413          	ori	s0,s0,1
    c0005a06:	b7dd                	j	c00059ec <_svfprintf_r+0x18a>
    c0005a08:	000b2783          	lw	a5,0(s6)
    c0005a0c:	0b21                	addi	s6,s6,8
    c0005a0e:	ec3e                	sd	a5,24(sp)
    c0005a10:	fe07d7e3          	bgez	a5,c00059fe <_svfprintf_r+0x19c>
    c0005a14:	40f007bb          	negw	a5,a5
    c0005a18:	ec3e                	sd	a5,24(sp)
    c0005a1a:	00446413          	ori	s0,s0,4
    c0005a1e:	b7f9                	j	c00059ec <_svfprintf_r+0x18a>
    c0005a20:	02b00793          	li	a5,43
    c0005a24:	bfd9                	j	c00059fa <_svfprintf_r+0x198>
    c0005a26:	6722                	ld	a4,8(sp)
    c0005a28:	67a2                	ld	a5,8(sp)
    c0005a2a:	00074a83          	lbu	s5,0(a4)
    c0005a2e:	0785                	addi	a5,a5,1
    c0005a30:	02ca9e63          	bne	s5,a2,c0005a6c <_svfprintf_r+0x20a>
    c0005a34:	000b2e03          	lw	t3,0(s6)
    c0005a38:	008b0713          	addi	a4,s6,8
    c0005a3c:	020e1693          	slli	a3,t3,0x20
    c0005a40:	0006d363          	bgez	a3,c0005a46 <_svfprintf_r+0x1e4>
    c0005a44:	5e7d                	li	t3,-1
    c0005a46:	000e0d9b          	sext.w	s11,t3
    c0005a4a:	8b3a                	mv	s6,a4
    c0005a4c:	e43e                	sd	a5,8(sp)
    c0005a4e:	bf45                	j	c00059fe <_svfprintf_r+0x19c>
    c0005a50:	03bb8e3b          	mulw	t3,s7,s11
    c0005a54:	0785                	addi	a5,a5,1
    c0005a56:	fff7ca83          	lbu	s5,-1(a5)
    c0005a5a:	00ee0dbb          	addw	s11,t3,a4
    c0005a5e:	fd0a859b          	addiw	a1,s5,-48
    c0005a62:	872e                	mv	a4,a1
    c0005a64:	febd76e3          	bleu	a1,s10,c0005a50 <_svfprintf_r+0x1ee>
    c0005a68:	e43e                	sd	a5,8(sp)
    c0005a6a:	b715                	j	c000598e <_svfprintf_r+0x12c>
    c0005a6c:	4d81                	li	s11,0
    c0005a6e:	bfc5                	j	c0005a5e <_svfprintf_r+0x1fc>
    c0005a70:	08046413          	ori	s0,s0,128
    c0005a74:	bfa5                	j	c00059ec <_svfprintf_r+0x18a>
    c0005a76:	67a2                	ld	a5,8(sp)
    c0005a78:	ec02                	sd	zero,24(sp)
    c0005a7a:	6762                	ld	a4,24(sp)
    c0005a7c:	fd0a8a9b          	addiw	s5,s5,-48
    c0005a80:	0785                	addi	a5,a5,1
    c0005a82:	02eb873b          	mulw	a4,s7,a4
    c0005a86:	00ea873b          	addw	a4,s5,a4
    c0005a8a:	fff7ca83          	lbu	s5,-1(a5)
    c0005a8e:	ec3a                	sd	a4,24(sp)
    c0005a90:	fd0a871b          	addiw	a4,s5,-48
    c0005a94:	feed73e3          	bleu	a4,s10,c0005a7a <_svfprintf_r+0x218>
    c0005a98:	bfc1                	j	c0005a68 <_svfprintf_r+0x206>
    c0005a9a:	00846413          	ori	s0,s0,8
    c0005a9e:	b7b9                	j	c00059ec <_svfprintf_r+0x18a>
    c0005aa0:	67a2                	ld	a5,8(sp)
    c0005aa2:	0007c703          	lbu	a4,0(a5)
    c0005aa6:	06800793          	li	a5,104
    c0005aaa:	00f71863          	bne	a4,a5,c0005aba <_svfprintf_r+0x258>
    c0005aae:	67a2                	ld	a5,8(sp)
    c0005ab0:	20046413          	ori	s0,s0,512
    c0005ab4:	0785                	addi	a5,a5,1
    c0005ab6:	e43e                	sd	a5,8(sp)
    c0005ab8:	bf15                	j	c00059ec <_svfprintf_r+0x18a>
    c0005aba:	04046413          	ori	s0,s0,64
    c0005abe:	b73d                	j	c00059ec <_svfprintf_r+0x18a>
    c0005ac0:	67a2                	ld	a5,8(sp)
    c0005ac2:	0007c703          	lbu	a4,0(a5)
    c0005ac6:	06c00793          	li	a5,108
    c0005aca:	00f71863          	bne	a4,a5,c0005ada <_svfprintf_r+0x278>
    c0005ace:	67a2                	ld	a5,8(sp)
    c0005ad0:	0785                	addi	a5,a5,1
    c0005ad2:	e43e                	sd	a5,8(sp)
    c0005ad4:	02046413          	ori	s0,s0,32
    c0005ad8:	bf11                	j	c00059ec <_svfprintf_r+0x18a>
    c0005ada:	01046413          	ori	s0,s0,16
    c0005ade:	b739                	j	c00059ec <_svfprintf_r+0x18a>
    c0005ae0:	008b0793          	addi	a5,s6,8
    c0005ae4:	f43e                	sd	a5,40(sp)
    c0005ae6:	000b2783          	lw	a5,0(s6)
    c0005aea:	0a0107a3          	sb	zero,175(sp)
    c0005aee:	0ef10c23          	sb	a5,248(sp)
    c0005af2:	4b01                	li	s6,0
    c0005af4:	4d85                	li	s11,1
    c0005af6:	4701                	li	a4,0
    c0005af8:	4d01                	li	s10,0
    c0005afa:	4b81                	li	s7,0
    c0005afc:	4c81                	li	s9,0
    c0005afe:	19a4                	addi	s1,sp,248
    c0005b00:	86ba                	mv	a3,a4
    c0005b02:	01b75363          	ble	s11,a4,c0005b08 <_svfprintf_r+0x2a6>
    c0005b06:	86ee                	mv	a3,s11
    c0005b08:	0af14603          	lbu	a2,175(sp)
    c0005b0c:	0006879b          	sext.w	a5,a3
    c0005b10:	f83e                	sd	a5,48(sp)
    c0005b12:	c601                	beqz	a2,c0005b1a <_svfprintf_r+0x2b8>
    c0005b14:	0016879b          	addiw	a5,a3,1
    c0005b18:	f83e                	sd	a5,48(sp)
    c0005b1a:	00247693          	andi	a3,s0,2
    c0005b1e:	0006879b          	sext.w	a5,a3
    c0005b22:	f0be                	sd	a5,96(sp)
    c0005b24:	c781                	beqz	a5,c0005b2c <_svfprintf_r+0x2ca>
    c0005b26:	77c2                	ld	a5,48(sp)
    c0005b28:	2789                	addiw	a5,a5,2
    c0005b2a:	f83e                	sd	a5,48(sp)
    c0005b2c:	08447793          	andi	a5,s0,132
    c0005b30:	f4be                	sd	a5,104(sp)
    c0005b32:	efb9                	bnez	a5,c0005b90 <_svfprintf_r+0x32e>
    c0005b34:	67e2                	ld	a5,24(sp)
    c0005b36:	76c2                	ld	a3,48(sp)
    c0005b38:	40d786bb          	subw	a3,a5,a3
    c0005b3c:	04d05a63          	blez	a3,c0005b90 <_svfprintf_r+0x32e>
    c0005b40:	48c1                	li	a7,16
    c0005b42:	00004817          	auipc	a6,0x4
    c0005b46:	bc680813          	addi	a6,a6,-1082 # c0009708 <blanks.4811>
    c0005b4a:	4e9d                	li	t4,7
    c0005b4c:	55ae                	lw	a1,232(sp)
    c0005b4e:	010c3023          	sd	a6,0(s8)
    c0005b52:	764e                	ld	a2,240(sp)
    c0005b54:	0015851b          	addiw	a0,a1,1
    c0005b58:	85aa                	mv	a1,a0
    c0005b5a:	010c0f13          	addi	t5,s8,16
    c0005b5e:	2ad8c0e3          	blt	a7,a3,c00065fe <_svfprintf_r+0xd9c>
    c0005b62:	00dc3423          	sd	a3,8(s8)
    c0005b66:	96b2                	add	a3,a3,a2
    c0005b68:	f9b6                	sd	a3,240(sp)
    c0005b6a:	d5aa                	sw	a0,232(sp)
    c0005b6c:	469d                	li	a3,7
    c0005b6e:	8c7a                	mv	s8,t5
    c0005b70:	02a6d063          	ble	a0,a3,c0005b90 <_svfprintf_r+0x32e>
    c0005b74:	1190                	addi	a2,sp,224
    c0005b76:	85ce                	mv	a1,s3
    c0005b78:	854a                	mv	a0,s2
    c0005b7a:	f8ba                	sd	a4,112(sp)
    c0005b7c:	00002097          	auipc	ra,0x2
    c0005b80:	814080e7          	jalr	-2028(ra) # c0007390 <__ssprint_r>
    c0005b84:	c119                	beqz	a0,c0005b8a <_svfprintf_r+0x328>
    c0005b86:	2640106f          	j	c0006dea <_svfprintf_r+0x1588>
    c0005b8a:	7746                	ld	a4,112(sp)
    c0005b8c:	16010c13          	addi	s8,sp,352
    c0005b90:	0af14683          	lbu	a3,175(sp)
    c0005b94:	c2a9                	beqz	a3,c0005bd6 <_svfprintf_r+0x374>
    c0005b96:	0af10693          	addi	a3,sp,175
    c0005b9a:	00dc3023          	sd	a3,0(s8)
    c0005b9e:	4685                	li	a3,1
    c0005ba0:	00dc3423          	sd	a3,8(s8)
    c0005ba4:	76ce                	ld	a3,240(sp)
    c0005ba6:	0c41                	addi	s8,s8,16
    c0005ba8:	0685                	addi	a3,a3,1
    c0005baa:	f9b6                	sd	a3,240(sp)
    c0005bac:	56ae                	lw	a3,232(sp)
    c0005bae:	0016861b          	addiw	a2,a3,1
    c0005bb2:	d5b2                	sw	a2,232(sp)
    c0005bb4:	469d                	li	a3,7
    c0005bb6:	02c6d063          	ble	a2,a3,c0005bd6 <_svfprintf_r+0x374>
    c0005bba:	1190                	addi	a2,sp,224
    c0005bbc:	85ce                	mv	a1,s3
    c0005bbe:	854a                	mv	a0,s2
    c0005bc0:	f8ba                	sd	a4,112(sp)
    c0005bc2:	00001097          	auipc	ra,0x1
    c0005bc6:	7ce080e7          	jalr	1998(ra) # c0007390 <__ssprint_r>
    c0005bca:	c119                	beqz	a0,c0005bd0 <_svfprintf_r+0x36e>
    c0005bcc:	21e0106f          	j	c0006dea <_svfprintf_r+0x1588>
    c0005bd0:	7746                	ld	a4,112(sp)
    c0005bd2:	16010c13          	addi	s8,sp,352
    c0005bd6:	7786                	ld	a5,96(sp)
    c0005bd8:	c3a1                	beqz	a5,c0005c18 <_svfprintf_r+0x3b6>
    c0005bda:	1914                	addi	a3,sp,176
    c0005bdc:	00dc3023          	sd	a3,0(s8)
    c0005be0:	4689                	li	a3,2
    c0005be2:	00dc3423          	sd	a3,8(s8)
    c0005be6:	76ce                	ld	a3,240(sp)
    c0005be8:	0c41                	addi	s8,s8,16
    c0005bea:	0689                	addi	a3,a3,2
    c0005bec:	f9b6                	sd	a3,240(sp)
    c0005bee:	56ae                	lw	a3,232(sp)
    c0005bf0:	0016861b          	addiw	a2,a3,1
    c0005bf4:	d5b2                	sw	a2,232(sp)
    c0005bf6:	469d                	li	a3,7
    c0005bf8:	02c6d063          	ble	a2,a3,c0005c18 <_svfprintf_r+0x3b6>
    c0005bfc:	1190                	addi	a2,sp,224
    c0005bfe:	85ce                	mv	a1,s3
    c0005c00:	854a                	mv	a0,s2
    c0005c02:	f0ba                	sd	a4,96(sp)
    c0005c04:	00001097          	auipc	ra,0x1
    c0005c08:	78c080e7          	jalr	1932(ra) # c0007390 <__ssprint_r>
    c0005c0c:	c119                	beqz	a0,c0005c12 <_svfprintf_r+0x3b0>
    c0005c0e:	1dc0106f          	j	c0006dea <_svfprintf_r+0x1588>
    c0005c12:	7706                	ld	a4,96(sp)
    c0005c14:	16010c13          	addi	s8,sp,352
    c0005c18:	77a6                	ld	a5,104(sp)
    c0005c1a:	08000693          	li	a3,128
    c0005c1e:	06d79063          	bne	a5,a3,c0005c7e <_svfprintf_r+0x41c>
    c0005c22:	67e2                	ld	a5,24(sp)
    c0005c24:	76c2                	ld	a3,48(sp)
    c0005c26:	40d786bb          	subw	a3,a5,a3
    c0005c2a:	04d05a63          	blez	a3,c0005c7e <_svfprintf_r+0x41c>
    c0005c2e:	4841                	li	a6,16
    c0005c30:	489d                	li	a7,7
    c0005c32:	55ae                	lw	a1,232(sp)
    c0005c34:	00004797          	auipc	a5,0x4
    c0005c38:	ae478793          	addi	a5,a5,-1308 # c0009718 <zeroes.4812>
    c0005c3c:	00fc3023          	sd	a5,0(s8)
    c0005c40:	0015851b          	addiw	a0,a1,1
    c0005c44:	764e                	ld	a2,240(sp)
    c0005c46:	85aa                	mv	a1,a0
    c0005c48:	010c0e93          	addi	t4,s8,16
    c0005c4c:	1ed849e3          	blt	a6,a3,c000663e <_svfprintf_r+0xddc>
    c0005c50:	00dc3423          	sd	a3,8(s8)
    c0005c54:	96b2                	add	a3,a3,a2
    c0005c56:	f9b6                	sd	a3,240(sp)
    c0005c58:	d5aa                	sw	a0,232(sp)
    c0005c5a:	469d                	li	a3,7
    c0005c5c:	8c76                	mv	s8,t4
    c0005c5e:	02a6d063          	ble	a0,a3,c0005c7e <_svfprintf_r+0x41c>
    c0005c62:	1190                	addi	a2,sp,224
    c0005c64:	85ce                	mv	a1,s3
    c0005c66:	854a                	mv	a0,s2
    c0005c68:	f0ba                	sd	a4,96(sp)
    c0005c6a:	00001097          	auipc	ra,0x1
    c0005c6e:	726080e7          	jalr	1830(ra) # c0007390 <__ssprint_r>
    c0005c72:	c119                	beqz	a0,c0005c78 <_svfprintf_r+0x416>
    c0005c74:	1760106f          	j	c0006dea <_svfprintf_r+0x1588>
    c0005c78:	7706                	ld	a4,96(sp)
    c0005c7a:	16010c13          	addi	s8,sp,352
    c0005c7e:	41b7073b          	subw	a4,a4,s11
    c0005c82:	04e05863          	blez	a4,c0005cd2 <_svfprintf_r+0x470>
    c0005c86:	4841                	li	a6,16
    c0005c88:	489d                	li	a7,7
    c0005c8a:	562e                	lw	a2,232(sp)
    c0005c8c:	00004797          	auipc	a5,0x4
    c0005c90:	a8c78793          	addi	a5,a5,-1396 # c0009718 <zeroes.4812>
    c0005c94:	00fc3023          	sd	a5,0(s8)
    c0005c98:	0016059b          	addiw	a1,a2,1
    c0005c9c:	76ce                	ld	a3,240(sp)
    c0005c9e:	862e                	mv	a2,a1
    c0005ca0:	010c0513          	addi	a0,s8,16
    c0005ca4:	1ce849e3          	blt	a6,a4,c0006676 <_svfprintf_r+0xe14>
    c0005ca8:	00ec3423          	sd	a4,8(s8)
    c0005cac:	9736                	add	a4,a4,a3
    c0005cae:	f9ba                	sd	a4,240(sp)
    c0005cb0:	d5ae                	sw	a1,232(sp)
    c0005cb2:	471d                	li	a4,7
    c0005cb4:	8c2a                	mv	s8,a0
    c0005cb6:	00b75e63          	ble	a1,a4,c0005cd2 <_svfprintf_r+0x470>
    c0005cba:	1190                	addi	a2,sp,224
    c0005cbc:	85ce                	mv	a1,s3
    c0005cbe:	854a                	mv	a0,s2
    c0005cc0:	00001097          	auipc	ra,0x1
    c0005cc4:	6d0080e7          	jalr	1744(ra) # c0007390 <__ssprint_r>
    c0005cc8:	c119                	beqz	a0,c0005cce <_svfprintf_r+0x46c>
    c0005cca:	1200106f          	j	c0006dea <_svfprintf_r+0x1588>
    c0005cce:	16010c13          	addi	s8,sp,352
    c0005cd2:	10047693          	andi	a3,s0,256
    c0005cd6:	774e                	ld	a4,240(sp)
    c0005cd8:	1c0698e3          	bnez	a3,c00066a8 <_svfprintf_r+0xe46>
    c0005cdc:	57ae                	lw	a5,232(sp)
    c0005cde:	00ed8e33          	add	t3,s11,a4
    c0005ce2:	009c3023          	sd	s1,0(s8)
    c0005ce6:	0017871b          	addiw	a4,a5,1
    c0005cea:	01bc3423          	sd	s11,8(s8)
    c0005cee:	f9f2                	sd	t3,240(sp)
    c0005cf0:	d5ba                	sw	a4,232(sp)
    c0005cf2:	479d                	li	a5,7
    c0005cf4:	0c41                	addi	s8,s8,16
    c0005cf6:	3ce7d2e3          	ble	a4,a5,c00068ba <_svfprintf_r+0x1058>
    c0005cfa:	1190                	addi	a2,sp,224
    c0005cfc:	85ce                	mv	a1,s3
    c0005cfe:	854a                	mv	a0,s2
    c0005d00:	00001097          	auipc	ra,0x1
    c0005d04:	690080e7          	jalr	1680(ra) # c0007390 <__ssprint_r>
    c0005d08:	c119                	beqz	a0,c0005d0e <_svfprintf_r+0x4ac>
    c0005d0a:	0e00106f          	j	c0006dea <_svfprintf_r+0x1588>
    c0005d0e:	16010c13          	addi	s8,sp,352
    c0005d12:	3a90006f          	j	c00068ba <_svfprintf_r+0x1058>
    c0005d16:	01046413          	ori	s0,s0,16
    c0005d1a:	2401                	sext.w	s0,s0
    c0005d1c:	008b0793          	addi	a5,s6,8
    c0005d20:	f43e                	sd	a5,40(sp)
    c0005d22:	02047793          	andi	a5,s0,32
    c0005d26:	cf95                	beqz	a5,c0005d62 <_svfprintf_r+0x500>
    c0005d28:	000b3b03          	ld	s6,0(s6)
    c0005d2c:	000b4463          	bltz	s6,c0005d34 <_svfprintf_r+0x4d2>
    c0005d30:	11c0106f          	j	c0006e4c <_svfprintf_r+0x15ea>
    c0005d34:	02d00793          	li	a5,45
    c0005d38:	0af107a3          	sb	a5,175(sp)
    c0005d3c:	41600b33          	neg	s6,s6
    c0005d40:	4785                	li	a5,1
    c0005d42:	577d                	li	a4,-1
    c0005d44:	7aed8963          	beq	s11,a4,c00064f6 <_svfprintf_r+0xc94>
    c0005d48:	8722                	mv	a4,s0
    c0005d4a:	f7f47413          	andi	s0,s0,-129
    c0005d4e:	2401                	sext.w	s0,s0
    c0005d50:	7a0b1363          	bnez	s6,c00064f6 <_svfprintf_r+0xc94>
    c0005d54:	080d82e3          	beqz	s11,c00065d8 <_svfprintf_r+0xd76>
    c0005d58:	4705                	li	a4,1
    c0005d5a:	7ae79163          	bne	a5,a4,c00064fc <_svfprintf_r+0xc9a>
    c0005d5e:	0fa0106f          	j	c0006e58 <_svfprintf_r+0x15f6>
    c0005d62:	01047793          	andi	a5,s0,16
    c0005d66:	f3e9                	bnez	a5,c0005d28 <_svfprintf_r+0x4c6>
    c0005d68:	04047793          	andi	a5,s0,64
    c0005d6c:	c781                	beqz	a5,c0005d74 <_svfprintf_r+0x512>
    c0005d6e:	000b1b03          	lh	s6,0(s6)
    c0005d72:	bf6d                	j	c0005d2c <_svfprintf_r+0x4ca>
    c0005d74:	20047793          	andi	a5,s0,512
    c0005d78:	c781                	beqz	a5,c0005d80 <_svfprintf_r+0x51e>
    c0005d7a:	000b0b03          	lb	s6,0(s6)
    c0005d7e:	b77d                	j	c0005d2c <_svfprintf_r+0x4ca>
    c0005d80:	000b2b03          	lw	s6,0(s6)
    c0005d84:	b765                	j	c0005d2c <_svfprintf_r+0x4ca>
    c0005d86:	00847793          	andi	a5,s0,8
    c0005d8a:	c7bd                	beqz	a5,c0005df8 <_svfprintf_r+0x596>
    c0005d8c:	0b3d                	addi	s6,s6,15
    c0005d8e:	ff0b7b13          	andi	s6,s6,-16
    c0005d92:	010b0793          	addi	a5,s6,16
    c0005d96:	f43e                	sd	a5,40(sp)
    c0005d98:	000b3783          	ld	a5,0(s6)
    c0005d9c:	e9be                	sd	a5,208(sp)
    c0005d9e:	008b3783          	ld	a5,8(s6)
    c0005da2:	edbe                	sd	a5,216(sp)
    c0005da4:	0988                	addi	a0,sp,208
    c0005da6:	fffff097          	auipc	ra,0xfffff
    c0005daa:	f88080e7          	jalr	-120(ra) # c0004d2e <_ldcheck>
    c0005dae:	dd2a                	sw	a0,184(sp)
    c0005db0:	4789                	li	a5,2
    c0005db2:	04f51f63          	bne	a0,a5,c0005e10 <_svfprintf_r+0x5ae>
    c0005db6:	654e                	ld	a0,208(sp)
    c0005db8:	65ee                	ld	a1,216(sp)
    c0005dba:	4601                	li	a2,0
    c0005dbc:	4681                	li	a3,0
    c0005dbe:	00002097          	auipc	ra,0x2
    c0005dc2:	e36080e7          	jalr	-458(ra) # c0007bf4 <__letf2>
    c0005dc6:	00055663          	bgez	a0,c0005dd2 <_svfprintf_r+0x570>
    c0005dca:	02d00793          	li	a5,45
    c0005dce:	0af107a3          	sb	a5,175(sp)
    c0005dd2:	04700793          	li	a5,71
    c0005dd6:	00003497          	auipc	s1,0x3
    c0005dda:	48a48493          	addi	s1,s1,1162 # c0009260 <__clzdi2+0x34e>
    c0005dde:	0157d663          	ble	s5,a5,c0005dea <_svfprintf_r+0x588>
    c0005de2:	00003497          	auipc	s1,0x3
    c0005de6:	48648493          	addi	s1,s1,1158 # c0009268 <__clzdi2+0x356>
    c0005dea:	f7f47413          	andi	s0,s0,-129
    c0005dee:	2401                	sext.w	s0,s0
    c0005df0:	4b01                	li	s6,0
    c0005df2:	4d8d                	li	s11,3
    c0005df4:	4701                	li	a4,0
    c0005df6:	a7a1                	j	c000653e <_svfprintf_r+0xcdc>
    c0005df8:	000b3503          	ld	a0,0(s6)
    c0005dfc:	008b0793          	addi	a5,s6,8
    c0005e00:	f43e                	sd	a5,40(sp)
    c0005e02:	00003097          	auipc	ra,0x3
    c0005e06:	e18080e7          	jalr	-488(ra) # c0008c1a <__extenddftf2>
    c0005e0a:	e9aa                	sd	a0,208(sp)
    c0005e0c:	edae                	sd	a1,216(sp)
    c0005e0e:	bf59                	j	c0005da4 <_svfprintf_r+0x542>
    c0005e10:	4785                	li	a5,1
    c0005e12:	02f51663          	bne	a0,a5,c0005e3e <_svfprintf_r+0x5dc>
    c0005e16:	67ee                	ld	a5,216(sp)
    c0005e18:	0007d663          	bgez	a5,c0005e24 <_svfprintf_r+0x5c2>
    c0005e1c:	02d00793          	li	a5,45
    c0005e20:	0af107a3          	sb	a5,175(sp)
    c0005e24:	04700793          	li	a5,71
    c0005e28:	00003497          	auipc	s1,0x3
    c0005e2c:	44848493          	addi	s1,s1,1096 # c0009270 <__clzdi2+0x35e>
    c0005e30:	fb57dde3          	ble	s5,a5,c0005dea <_svfprintf_r+0x588>
    c0005e34:	00003497          	auipc	s1,0x3
    c0005e38:	44448493          	addi	s1,s1,1092 # c0009278 <__clzdi2+0x366>
    c0005e3c:	b77d                	j	c0005dea <_svfprintf_r+0x588>
    c0005e3e:	fdfafb93          	andi	s7,s5,-33
    c0005e42:	04100793          	li	a5,65
    c0005e46:	08fb9863          	bne	s7,a5,c0005ed6 <_svfprintf_r+0x674>
    c0005e4a:	03000793          	li	a5,48
    c0005e4e:	0af10823          	sb	a5,176(sp)
    c0005e52:	06100713          	li	a4,97
    c0005e56:	07800793          	li	a5,120
    c0005e5a:	00ea8463          	beq	s5,a4,c0005e62 <_svfprintf_r+0x600>
    c0005e5e:	05800793          	li	a5,88
    c0005e62:	0af108a3          	sb	a5,177(sp)
    c0005e66:	00246413          	ori	s0,s0,2
    c0005e6a:	06300793          	li	a5,99
    c0005e6e:	2401                	sext.w	s0,s0
    c0005e70:	2db7df63          	ble	s11,a5,c000614e <_svfprintf_r+0x8ec>
    c0005e74:	001d859b          	addiw	a1,s11,1
    c0005e78:	854a                	mv	a0,s2
    c0005e7a:	ffffb097          	auipc	ra,0xffffb
    c0005e7e:	888080e7          	jalr	-1912(ra) # c0000702 <_malloc_r>
    c0005e82:	84aa                	mv	s1,a0
    c0005e84:	2c051863          	bnez	a0,c0006154 <_svfprintf_r+0x8f2>
    c0005e88:	0109d783          	lhu	a5,16(s3)
    c0005e8c:	0407e793          	ori	a5,a5,64
    c0005e90:	00f99823          	sh	a5,16(s3)
    c0005e94:	0109d783          	lhu	a5,16(s3)
    c0005e98:	0407f793          	andi	a5,a5,64
    c0005e9c:	a40795e3          	bnez	a5,c00058e6 <_svfprintf_r+0x84>
    c0005ea0:	24813083          	ld	ra,584(sp)
    c0005ea4:	24013403          	ld	s0,576(sp)
    c0005ea8:	7502                	ld	a0,32(sp)
    c0005eaa:	23813483          	ld	s1,568(sp)
    c0005eae:	23013903          	ld	s2,560(sp)
    c0005eb2:	22813983          	ld	s3,552(sp)
    c0005eb6:	22013a03          	ld	s4,544(sp)
    c0005eba:	21813a83          	ld	s5,536(sp)
    c0005ebe:	21013b03          	ld	s6,528(sp)
    c0005ec2:	20813b83          	ld	s7,520(sp)
    c0005ec6:	20013c03          	ld	s8,512(sp)
    c0005eca:	7cfe                	ld	s9,504(sp)
    c0005ecc:	7d5e                	ld	s10,496(sp)
    c0005ece:	7dbe                	ld	s11,488(sp)
    c0005ed0:	25010113          	addi	sp,sp,592
    c0005ed4:	8082                	ret
    c0005ed6:	57fd                	li	a5,-1
    c0005ed8:	28fd8063          	beq	s11,a5,c0006158 <_svfprintf_r+0x8f6>
    c0005edc:	04700793          	li	a5,71
    c0005ee0:	4b01                	li	s6,0
    c0005ee2:	00fb9663          	bne	s7,a5,c0005eee <_svfprintf_r+0x68c>
    c0005ee6:	000d9463          	bnez	s11,c0005eee <_svfprintf_r+0x68c>
    c0005eea:	8b6e                	mv	s6,s11
    c0005eec:	4d85                	li	s11,1
    c0005eee:	10046793          	ori	a5,s0,256
    c0005ef2:	6a6e                	ld	s4,216(sp)
    c0005ef4:	2781                	sext.w	a5,a5
    c0005ef6:	f0be                	sd	a5,96(sp)
    c0005ef8:	fc82                	sd	zero,120(sp)
    c0005efa:	6ece                	ld	t4,208(sp)
    c0005efc:	000a5963          	bgez	s4,c0005f0e <_svfprintf_r+0x6ac>
    c0005f00:	57fd                	li	a5,-1
    c0005f02:	17fe                	slli	a5,a5,0x3f
    c0005f04:	00fa4a33          	xor	s4,s4,a5
    c0005f08:	02d00793          	li	a5,45
    c0005f0c:	fcbe                	sd	a5,120(sp)
    c0005f0e:	04100793          	li	a5,65
    c0005f12:	26fb9f63          	bne	s7,a5,c0006190 <_svfprintf_r+0x92e>
    c0005f16:	8576                	mv	a0,t4
    c0005f18:	85d2                	mv	a1,s4
    c0005f1a:	00003097          	auipc	ra,0x3
    c0005f1e:	dcc080e7          	jalr	-564(ra) # c0008ce6 <__trunctfdf2>
    c0005f22:	192c                	addi	a1,sp,184
    c0005f24:	fffff097          	auipc	ra,0xfffff
    c0005f28:	768080e7          	jalr	1896(ra) # c000568c <frexp>
    c0005f2c:	00003097          	auipc	ra,0x3
    c0005f30:	cee080e7          	jalr	-786(ra) # c0008c1a <__extenddftf2>
    c0005f34:	00003797          	auipc	a5,0x3
    c0005f38:	2fc78793          	addi	a5,a5,764 # c0009230 <__clzdi2+0x31e>
    c0005f3c:	6794                	ld	a3,8(a5)
    c0005f3e:	4601                	li	a2,0
    c0005f40:	00002097          	auipc	ra,0x2
    c0005f44:	d66080e7          	jalr	-666(ra) # c0007ca6 <__multf3>
    c0005f48:	4601                	li	a2,0
    c0005f4a:	4681                	li	a3,0
    c0005f4c:	e12a                	sd	a0,128(sp)
    c0005f4e:	8a2e                	mv	s4,a1
    c0005f50:	00002097          	auipc	ra,0x2
    c0005f54:	b56080e7          	jalr	-1194(ra) # c0007aa6 <__eqtf2>
    c0005f58:	e119                	bnez	a0,c0005f5e <_svfprintf_r+0x6fc>
    c0005f5a:	4785                	li	a5,1
    c0005f5c:	dd3e                	sw	a5,184(sp)
    c0005f5e:	00003717          	auipc	a4,0x3
    c0005f62:	32270713          	addi	a4,a4,802 # c0009280 <__clzdi2+0x36e>
    c0005f66:	06100793          	li	a5,97
    c0005f6a:	f83a                	sd	a4,48(sp)
    c0005f6c:	00fa8763          	beq	s5,a5,c0005f7a <_svfprintf_r+0x718>
    c0005f70:	00003797          	auipc	a5,0x3
    c0005f74:	32878793          	addi	a5,a5,808 # c0009298 <__clzdi2+0x386>
    c0005f78:	f83e                	sd	a5,48(sp)
    c0005f7a:	00003697          	auipc	a3,0x3
    c0005f7e:	2c668693          	addi	a3,a3,710 # c0009240 <__clzdi2+0x32e>
    c0005f82:	669c                	ld	a5,8(a3)
    c0005f84:	fffd871b          	addiw	a4,s11,-1
    c0005f88:	8ca6                	mv	s9,s1
    c0005f8a:	e53e                	sd	a5,136(sp)
    c0005f8c:	66aa                	ld	a3,136(sp)
    c0005f8e:	650a                	ld	a0,128(sp)
    c0005f90:	4601                	li	a2,0
    c0005f92:	85d2                	mv	a1,s4
    c0005f94:	f4ba                	sd	a4,104(sp)
    c0005f96:	00002097          	auipc	ra,0x2
    c0005f9a:	d10080e7          	jalr	-752(ra) # c0007ca6 <__multf3>
    c0005f9e:	8a2e                	mv	s4,a1
    c0005fa0:	8d2a                	mv	s10,a0
    c0005fa2:	00003097          	auipc	ra,0x3
    c0005fa6:	b7a080e7          	jalr	-1158(ra) # c0008b1c <__fixtfsi>
    c0005faa:	0005079b          	sext.w	a5,a0
    c0005fae:	f8be                	sd	a5,112(sp)
    c0005fb0:	00003097          	auipc	ra,0x3
    c0005fb4:	bfc080e7          	jalr	-1028(ra) # c0008bac <__floatsitf>
    c0005fb8:	86ae                	mv	a3,a1
    c0005fba:	862a                	mv	a2,a0
    c0005fbc:	85d2                	mv	a1,s4
    c0005fbe:	856a                	mv	a0,s10
    c0005fc0:	00002097          	auipc	ra,0x2
    c0005fc4:	324080e7          	jalr	804(ra) # c00082e4 <__subtf3>
    c0005fc8:	77c2                	ld	a5,48(sp)
    c0005fca:	7746                	ld	a4,112(sp)
    c0005fcc:	0c85                	addi	s9,s9,1
    c0005fce:	e12a                	sd	a0,128(sp)
    c0005fd0:	00e786b3          	add	a3,a5,a4
    c0005fd4:	7726                	ld	a4,104(sp)
    c0005fd6:	0006c683          	lbu	a3,0(a3)
    c0005fda:	88aa                	mv	a7,a0
    c0005fdc:	0007079b          	sext.w	a5,a4
    c0005fe0:	f4be                	sd	a5,104(sp)
    c0005fe2:	fedc8fa3          	sb	a3,-1(s9)
    c0005fe6:	57fd                	li	a5,-1
    c0005fe8:	8d2e                	mv	s10,a1
    c0005fea:	8a2e                	mv	s4,a1
    c0005fec:	16f70963          	beq	a4,a5,c000615e <_svfprintf_r+0x8fc>
    c0005ff0:	377d                	addiw	a4,a4,-1
    c0005ff2:	4601                	li	a2,0
    c0005ff4:	4681                	li	a3,0
    c0005ff6:	e93a                	sd	a4,144(sp)
    c0005ff8:	ed2a                	sd	a0,152(sp)
    c0005ffa:	00002097          	auipc	ra,0x2
    c0005ffe:	aac080e7          	jalr	-1364(ra) # c0007aa6 <__eqtf2>
    c0006002:	674a                	ld	a4,144(sp)
    c0006004:	68ea                	ld	a7,152(sp)
    c0006006:	f159                	bnez	a0,c0005f8c <_svfprintf_r+0x72a>
    c0006008:	00003717          	auipc	a4,0x3
    c000600c:	24870713          	addi	a4,a4,584 # c0009250 <__clzdi2+0x33e>
    c0006010:	00873a03          	ld	s4,8(a4)
    c0006014:	4601                	li	a2,0
    c0006016:	8546                	mv	a0,a7
    c0006018:	86d2                	mv	a3,s4
    c000601a:	85ea                	mv	a1,s10
    c000601c:	e146                	sd	a7,128(sp)
    c000601e:	00002097          	auipc	ra,0x2
    c0006022:	b24080e7          	jalr	-1244(ra) # c0007b42 <__getf2>
    c0006026:	02a04263          	bgtz	a0,c000604a <_svfprintf_r+0x7e8>
    c000602a:	688a                	ld	a7,128(sp)
    c000602c:	4601                	li	a2,0
    c000602e:	86d2                	mv	a3,s4
    c0006030:	8546                	mv	a0,a7
    c0006032:	85ea                	mv	a1,s10
    c0006034:	00002097          	auipc	ra,0x2
    c0006038:	a72080e7          	jalr	-1422(ra) # c0007aa6 <__eqtf2>
    c000603c:	14051363          	bnez	a0,c0006182 <_svfprintf_r+0x920>
    c0006040:	77c6                	ld	a5,112(sp)
    c0006042:	0017f713          	andi	a4,a5,1
    c0006046:	12070e63          	beqz	a4,c0006182 <_svfprintf_r+0x920>
    c000604a:	77c2                	ld	a5,48(sp)
    c000604c:	e5e6                	sd	s9,200(sp)
    c000604e:	03000593          	li	a1,48
    c0006052:	00f7c603          	lbu	a2,15(a5)
    c0006056:	66ae                	ld	a3,200(sp)
    c0006058:	fff68713          	addi	a4,a3,-1
    c000605c:	e5ba                	sd	a4,200(sp)
    c000605e:	fff6c703          	lbu	a4,-1(a3)
    c0006062:	10c70163          	beq	a4,a2,c0006164 <_svfprintf_r+0x902>
    c0006066:	03900613          	li	a2,57
    c000606a:	10c71063          	bne	a4,a2,c000616a <_svfprintf_r+0x908>
    c000606e:	77c2                	ld	a5,48(sp)
    c0006070:	00a7c703          	lbu	a4,10(a5)
    c0006074:	fee68fa3          	sb	a4,-1(a3)
    c0006078:	8a66                	mv	s4,s9
    c000607a:	04700713          	li	a4,71
    c000607e:	409a0a3b          	subw	s4,s4,s1
    c0006082:	5cea                	lw	s9,184(sp)
    c0006084:	1ceb9163          	bne	s7,a4,c0006246 <_svfprintf_r+0x9e4>
    c0006088:	5775                	li	a4,-3
    c000608a:	00ecc463          	blt	s9,a4,c0006092 <_svfprintf_r+0x830>
    c000608e:	219ddf63          	ble	s9,s11,c00062ac <_svfprintf_r+0xa4a>
    c0006092:	3af9                	addiw	s5,s5,-2
    c0006094:	fffc869b          	addiw	a3,s9,-1
    c0006098:	dd36                	sw	a3,184(sp)
    c000609a:	fdfaf613          	andi	a2,s5,-33
    c000609e:	04100513          	li	a0,65
    c00060a2:	0ffaf713          	andi	a4,s5,255
    c00060a6:	4581                	li	a1,0
    c00060a8:	00a61663          	bne	a2,a0,c00060b4 <_svfprintf_r+0x852>
    c00060ac:	273d                	addiw	a4,a4,15
    c00060ae:	0ff77713          	andi	a4,a4,255
    c00060b2:	4585                	li	a1,1
    c00060b4:	0ce10023          	sb	a4,192(sp)
    c00060b8:	02b00793          	li	a5,43
    c00060bc:	0006d763          	bgez	a3,c00060ca <_svfprintf_r+0x868>
    c00060c0:	4685                	li	a3,1
    c00060c2:	419686bb          	subw	a3,a3,s9
    c00060c6:	02d00793          	li	a5,45
    c00060ca:	0cf100a3          	sb	a5,193(sp)
    c00060ce:	47a5                	li	a5,9
    c00060d0:	1ad7d963          	ble	a3,a5,c0006282 <_svfprintf_r+0xa20>
    c00060d4:	0cf10713          	addi	a4,sp,207
    c00060d8:	853a                	mv	a0,a4
    c00060da:	45a9                	li	a1,10
    c00060dc:	06300813          	li	a6,99
    c00060e0:	02b6e7bb          	remw	a5,a3,a1
    c00060e4:	fff70613          	addi	a2,a4,-1
    c00060e8:	0307879b          	addiw	a5,a5,48
    c00060ec:	fef70fa3          	sb	a5,-1(a4)
    c00060f0:	02b6c7bb          	divw	a5,a3,a1
    c00060f4:	16d84d63          	blt	a6,a3,c000626e <_svfprintf_r+0xa0c>
    c00060f8:	0307879b          	addiw	a5,a5,48
    c00060fc:	fef60fa3          	sb	a5,-1(a2) # 7fefffff <main-0x40100001>
    c0006100:	1779                	addi	a4,a4,-2
    c0006102:	0c210613          	addi	a2,sp,194
    c0006106:	16a76763          	bltu	a4,a0,c0006274 <_svfprintf_r+0xa12>
    c000610a:	019c                	addi	a5,sp,192
    c000610c:	40f607bb          	subw	a5,a2,a5
    c0006110:	e8be                	sd	a5,80(sp)
    c0006112:	01478dbb          	addw	s11,a5,s4
    c0006116:	4705                	li	a4,1
    c0006118:	87ee                	mv	a5,s11
    c000611a:	01474563          	blt	a4,s4,c0006124 <_svfprintf_r+0x8c2>
    c000611e:	00147713          	andi	a4,s0,1
    c0006122:	c701                	beqz	a4,c000612a <_svfprintf_r+0x8c8>
    c0006124:	6742                	ld	a4,16(sp)
    c0006126:	00e78dbb          	addw	s11,a5,a4
    c000612a:	bff47413          	andi	s0,s0,-1025
    c000612e:	2401                	sext.w	s0,s0
    c0006130:	10046793          	ori	a5,s0,256
    c0006134:	f0be                	sd	a5,96(sp)
    c0006136:	4d01                	li	s10,0
    c0006138:	4b81                	li	s7,0
    c000613a:	4c81                	li	s9,0
    c000613c:	77e6                	ld	a5,120(sp)
    c000613e:	c789                	beqz	a5,c0006148 <_svfprintf_r+0x8e6>
    c0006140:	02d00713          	li	a4,45
    c0006144:	0ae107a3          	sb	a4,175(sp)
    c0006148:	7406                	ld	s0,96(sp)
    c000614a:	4701                	li	a4,0
    c000614c:	ba55                	j	c0005b00 <_svfprintf_r+0x29e>
    c000614e:	4b01                	li	s6,0
    c0006150:	19a4                	addi	s1,sp,248
    c0006152:	bb71                	j	c0005eee <_svfprintf_r+0x68c>
    c0006154:	8b2a                	mv	s6,a0
    c0006156:	bb61                	j	c0005eee <_svfprintf_r+0x68c>
    c0006158:	4b01                	li	s6,0
    c000615a:	4d99                	li	s11,6
    c000615c:	bb49                	j	c0005eee <_svfprintf_r+0x68c>
    c000615e:	57fd                	li	a5,-1
    c0006160:	f4be                	sd	a5,104(sp)
    c0006162:	b55d                	j	c0006008 <_svfprintf_r+0x7a6>
    c0006164:	feb68fa3          	sb	a1,-1(a3)
    c0006168:	b5fd                	j	c0006056 <_svfprintf_r+0x7f4>
    c000616a:	2705                	addiw	a4,a4,1
    c000616c:	0ff77713          	andi	a4,a4,255
    c0006170:	b711                	j	c0006074 <_svfprintf_r+0x812>
    c0006172:	0a05                	addi	s4,s4,1
    c0006174:	feda0fa3          	sb	a3,-1(s4) # ffff <main-0xbfff0001>
    c0006178:	4147873b          	subw	a4,a5,s4
    c000617c:	fe075be3          	bgez	a4,c0006172 <_svfprintf_r+0x910>
    c0006180:	bded                	j	c000607a <_svfprintf_r+0x818>
    c0006182:	77a6                	ld	a5,104(sp)
    c0006184:	8a66                	mv	s4,s9
    c0006186:	03000693          	li	a3,48
    c000618a:	00fc87bb          	addw	a5,s9,a5
    c000618e:	b7ed                	j	c0006178 <_svfprintf_r+0x916>
    c0006190:	04600793          	li	a5,70
    c0006194:	00fb8b63          	beq	s7,a5,c00061aa <_svfprintf_r+0x948>
    c0006198:	04500793          	li	a5,69
    c000619c:	8d6e                	mv	s10,s11
    c000619e:	00fb9463          	bne	s7,a5,c00061a6 <_svfprintf_r+0x944>
    c00061a2:	001d8d1b          	addiw	s10,s11,1
    c00061a6:	4689                	li	a3,2
    c00061a8:	a019                	j	c00061ae <_svfprintf_r+0x94c>
    c00061aa:	8d6e                	mv	s10,s11
    c00061ac:	468d                	li	a3,3
    c00061ae:	193c                	addi	a5,sp,184
    c00061b0:	85f6                	mv	a1,t4
    c00061b2:	0c810893          	addi	a7,sp,200
    c00061b6:	0bc10813          	addi	a6,sp,188
    c00061ba:	876a                	mv	a4,s10
    c00061bc:	8652                	mv	a2,s4
    c00061be:	854a                	mv	a0,s2
    c00061c0:	f876                	sd	t4,48(sp)
    c00061c2:	ffffe097          	auipc	ra,0xffffe
    c00061c6:	0f8080e7          	jalr	248(ra) # c00042ba <_ldtoa_r>
    c00061ca:	04700793          	li	a5,71
    c00061ce:	84aa                	mv	s1,a0
    c00061d0:	7ec2                	ld	t4,48(sp)
    c00061d2:	00fb9763          	bne	s7,a5,c00061e0 <_svfprintf_r+0x97e>
    c00061d6:	00147793          	andi	a5,s0,1
    c00061da:	e399                	bnez	a5,c00061e0 <_svfprintf_r+0x97e>
    c00061dc:	6a2e                	ld	s4,200(sp)
    c00061de:	bd71                	j	c000607a <_svfprintf_r+0x818>
    c00061e0:	04600713          	li	a4,70
    c00061e4:	01a48cb3          	add	s9,s1,s10
    c00061e8:	02eb9963          	bne	s7,a4,c000621a <_svfprintf_r+0x9b8>
    c00061ec:	0004c683          	lbu	a3,0(s1)
    c00061f0:	03000713          	li	a4,48
    c00061f4:	02e69163          	bne	a3,a4,c0006216 <_svfprintf_r+0x9b4>
    c00061f8:	8576                	mv	a0,t4
    c00061fa:	4601                	li	a2,0
    c00061fc:	4681                	li	a3,0
    c00061fe:	85d2                	mv	a1,s4
    c0006200:	f876                	sd	t4,48(sp)
    c0006202:	00002097          	auipc	ra,0x2
    c0006206:	8a4080e7          	jalr	-1884(ra) # c0007aa6 <__eqtf2>
    c000620a:	7ec2                	ld	t4,48(sp)
    c000620c:	c509                	beqz	a0,c0006216 <_svfprintf_r+0x9b4>
    c000620e:	4705                	li	a4,1
    c0006210:	41a70d3b          	subw	s10,a4,s10
    c0006214:	dd6a                	sw	s10,184(sp)
    c0006216:	576a                	lw	a4,184(sp)
    c0006218:	9cba                	add	s9,s9,a4
    c000621a:	4601                	li	a2,0
    c000621c:	4681                	li	a3,0
    c000621e:	8576                	mv	a0,t4
    c0006220:	85d2                	mv	a1,s4
    c0006222:	00002097          	auipc	ra,0x2
    c0006226:	884080e7          	jalr	-1916(ra) # c0007aa6 <__eqtf2>
    c000622a:	e111                	bnez	a0,c000622e <_svfprintf_r+0x9cc>
    c000622c:	e5e6                	sd	s9,200(sp)
    c000622e:	03000693          	li	a3,48
    c0006232:	a031                	j	c000623e <_svfprintf_r+0x9dc>
    c0006234:	00170613          	addi	a2,a4,1
    c0006238:	e5b2                	sd	a2,200(sp)
    c000623a:	00d70023          	sb	a3,0(a4)
    c000623e:	672e                	ld	a4,200(sp)
    c0006240:	ff976ae3          	bltu	a4,s9,c0006234 <_svfprintf_r+0x9d2>
    c0006244:	bf61                	j	c00061dc <_svfprintf_r+0x97a>
    c0006246:	04600713          	li	a4,70
    c000624a:	e4eb95e3          	bne	s7,a4,c0006094 <_svfprintf_r+0x832>
    c000624e:	00147713          	andi	a4,s0,1
    c0006252:	00ede733          	or	a4,s11,a4
    c0006256:	2701                	sext.w	a4,a4
    c0006258:	05905563          	blez	s9,c00062a2 <_svfprintf_r+0xa40>
    c000625c:	cf41                	beqz	a4,c00062f4 <_svfprintf_r+0xa92>
    c000625e:	67c2                	ld	a5,16(sp)
    c0006260:	0197873b          	addw	a4,a5,s9
    c0006264:	01b70dbb          	addw	s11,a4,s11
    c0006268:	06600a93          	li	s5,102
    c000626c:	a0bd                	j	c00062da <_svfprintf_r+0xa78>
    c000626e:	8732                	mv	a4,a2
    c0006270:	86be                	mv	a3,a5
    c0006272:	b5bd                	j	c00060e0 <_svfprintf_r+0x87e>
    c0006274:	0705                	addi	a4,a4,1
    c0006276:	fff74783          	lbu	a5,-1(a4)
    c000627a:	0605                	addi	a2,a2,1
    c000627c:	fef60fa3          	sb	a5,-1(a2)
    c0006280:	b559                	j	c0006106 <_svfprintf_r+0x8a4>
    c0006282:	0c210713          	addi	a4,sp,194
    c0006286:	e599                	bnez	a1,c0006294 <_svfprintf_r+0xa32>
    c0006288:	03000793          	li	a5,48
    c000628c:	0cf10123          	sb	a5,194(sp)
    c0006290:	0c310713          	addi	a4,sp,195
    c0006294:	0306879b          	addiw	a5,a3,48
    c0006298:	00170613          	addi	a2,a4,1
    c000629c:	00f70023          	sb	a5,0(a4)
    c00062a0:	b5ad                	j	c000610a <_svfprintf_r+0x8a8>
    c00062a2:	cb39                	beqz	a4,c00062f8 <_svfprintf_r+0xa96>
    c00062a4:	67c2                	ld	a5,16(sp)
    c00062a6:	0017871b          	addiw	a4,a5,1
    c00062aa:	bf6d                	j	c0006264 <_svfprintf_r+0xa02>
    c00062ac:	014ccc63          	blt	s9,s4,c00062c4 <_svfprintf_r+0xa62>
    c00062b0:	00147713          	andi	a4,s0,1
    c00062b4:	8de6                	mv	s11,s9
    c00062b6:	c701                	beqz	a4,c00062be <_svfprintf_r+0xa5c>
    c00062b8:	67c2                	ld	a5,16(sp)
    c00062ba:	01978dbb          	addw	s11,a5,s9
    c00062be:	06700a93          	li	s5,103
    c00062c2:	a821                	j	c00062da <_svfprintf_r+0xa78>
    c00062c4:	67c2                	ld	a5,16(sp)
    c00062c6:	06700a93          	li	s5,103
    c00062ca:	01478dbb          	addw	s11,a5,s4
    c00062ce:	01904663          	bgtz	s9,c00062da <_svfprintf_r+0xa78>
    c00062d2:	419d8e3b          	subw	t3,s11,s9
    c00062d6:	001e0d9b          	addiw	s11,t3,1
    c00062da:	40047413          	andi	s0,s0,1024
    c00062de:	00040b9b          	sext.w	s7,s0
    c00062e2:	4d01                	li	s10,0
    c00062e4:	e40b8ce3          	beqz	s7,c000613c <_svfprintf_r+0x8da>
    c00062e8:	4b81                	li	s7,0
    c00062ea:	e59059e3          	blez	s9,c000613c <_svfprintf_r+0x8da>
    c00062ee:	0ff00693          	li	a3,255
    c00062f2:	a01d                	j	c0006318 <_svfprintf_r+0xab6>
    c00062f4:	8de6                	mv	s11,s9
    c00062f6:	bf8d                	j	c0006268 <_svfprintf_r+0xa06>
    c00062f8:	06600a93          	li	s5,102
    c00062fc:	4d85                	li	s11,1
    c00062fe:	bff1                	j	c00062da <_svfprintf_r+0xa78>
    c0006300:	2701                	sext.w	a4,a4
    c0006302:	03975063          	ble	s9,a4,c0006322 <_svfprintf_r+0xac0>
    c0006306:	6782                	ld	a5,0(sp)
    c0006308:	40ec8cbb          	subw	s9,s9,a4
    c000630c:	0017c703          	lbu	a4,1(a5)
    c0006310:	c30d                	beqz	a4,c0006332 <_svfprintf_r+0xad0>
    c0006312:	0785                	addi	a5,a5,1
    c0006314:	2b85                	addiw	s7,s7,1
    c0006316:	e03e                	sd	a5,0(sp)
    c0006318:	6782                	ld	a5,0(sp)
    c000631a:	0007c703          	lbu	a4,0(a5)
    c000631e:	fed711e3          	bne	a4,a3,c0006300 <_svfprintf_r+0xa9e>
    c0006322:	77e2                	ld	a5,56(sp)
    c0006324:	01ab873b          	addw	a4,s7,s10
    c0006328:	02f7073b          	mulw	a4,a4,a5
    c000632c:	01b70dbb          	addw	s11,a4,s11
    c0006330:	b531                	j	c000613c <_svfprintf_r+0x8da>
    c0006332:	2d05                	addiw	s10,s10,1
    c0006334:	b7d5                	j	c0006318 <_svfprintf_r+0xab6>
    c0006336:	008b0713          	addi	a4,s6,8
    c000633a:	f43a                	sd	a4,40(sp)
    c000633c:	02047713          	andi	a4,s0,32
    c0006340:	000b3783          	ld	a5,0(s6)
    c0006344:	c719                	beqz	a4,c0006352 <_svfprintf_r+0xaf0>
    c0006346:	7702                	ld	a4,32(sp)
    c0006348:	e398                	sd	a4,0(a5)
    c000634a:	7b22                	ld	s6,40(sp)
    c000634c:	64a2                	ld	s1,8(sp)
    c000634e:	dbeff06f          	j	c000590c <_svfprintf_r+0xaa>
    c0006352:	01047713          	andi	a4,s0,16
    c0006356:	fb65                	bnez	a4,c0006346 <_svfprintf_r+0xae4>
    c0006358:	04047713          	andi	a4,s0,64
    c000635c:	c709                	beqz	a4,c0006366 <_svfprintf_r+0xb04>
    c000635e:	7702                	ld	a4,32(sp)
    c0006360:	00e79023          	sh	a4,0(a5)
    c0006364:	b7dd                	j	c000634a <_svfprintf_r+0xae8>
    c0006366:	20047413          	andi	s0,s0,512
    c000636a:	7702                	ld	a4,32(sp)
    c000636c:	c401                	beqz	s0,c0006374 <_svfprintf_r+0xb12>
    c000636e:	00e78023          	sb	a4,0(a5)
    c0006372:	bfe1                	j	c000634a <_svfprintf_r+0xae8>
    c0006374:	c398                	sw	a4,0(a5)
    c0006376:	bfd1                	j	c000634a <_svfprintf_r+0xae8>
    c0006378:	01046413          	ori	s0,s0,16
    c000637c:	2401                	sext.w	s0,s0
    c000637e:	008b0793          	addi	a5,s6,8
    c0006382:	f43e                	sd	a5,40(sp)
    c0006384:	02047793          	andi	a5,s0,32
    c0006388:	cb91                	beqz	a5,c000639c <_svfprintf_r+0xb3a>
    c000638a:	000b3b03          	ld	s6,0(s6)
    c000638e:	bff47413          	andi	s0,s0,-1025
    c0006392:	2401                	sext.w	s0,s0
    c0006394:	4781                	li	a5,0
    c0006396:	0a0107a3          	sb	zero,175(sp)
    c000639a:	b265                	j	c0005d42 <_svfprintf_r+0x4e0>
    c000639c:	01047793          	andi	a5,s0,16
    c00063a0:	f7ed                	bnez	a5,c000638a <_svfprintf_r+0xb28>
    c00063a2:	04047793          	andi	a5,s0,64
    c00063a6:	000b2b03          	lw	s6,0(s6)
    c00063aa:	c789                	beqz	a5,c00063b4 <_svfprintf_r+0xb52>
    c00063ac:	1b42                	slli	s6,s6,0x30
    c00063ae:	030b5b13          	srli	s6,s6,0x30
    c00063b2:	bff1                	j	c000638e <_svfprintf_r+0xb2c>
    c00063b4:	20047793          	andi	a5,s0,512
    c00063b8:	c781                	beqz	a5,c00063c0 <_svfprintf_r+0xb5e>
    c00063ba:	0ffb7b13          	andi	s6,s6,255
    c00063be:	bfc1                	j	c000638e <_svfprintf_r+0xb2c>
    c00063c0:	1b02                	slli	s6,s6,0x20
    c00063c2:	020b5b13          	srli	s6,s6,0x20
    c00063c6:	b7e1                	j	c000638e <_svfprintf_r+0xb2c>
    c00063c8:	008b0793          	addi	a5,s6,8
    c00063cc:	f43e                	sd	a5,40(sp)
    c00063ce:	77e1                	lui	a5,0xffff8
    c00063d0:	8307c793          	xori	a5,a5,-2000
    c00063d4:	00246413          	ori	s0,s0,2
    c00063d8:	0af11823          	sh	a5,176(sp)
    c00063dc:	00003797          	auipc	a5,0x3
    c00063e0:	ea478793          	addi	a5,a5,-348 # c0009280 <__clzdi2+0x36e>
    c00063e4:	ecbe                	sd	a5,88(sp)
    c00063e6:	000b3b03          	ld	s6,0(s6)
    c00063ea:	2401                	sext.w	s0,s0
    c00063ec:	4789                	li	a5,2
    c00063ee:	07800a93          	li	s5,120
    c00063f2:	b755                	j	c0006396 <_svfprintf_r+0xb34>
    c00063f4:	008b0793          	addi	a5,s6,8
    c00063f8:	f43e                	sd	a5,40(sp)
    c00063fa:	0a0107a3          	sb	zero,175(sp)
    c00063fe:	57fd                	li	a5,-1
    c0006400:	000b3483          	ld	s1,0(s6)
    c0006404:	02fd8063          	beq	s11,a5,c0006424 <_svfprintf_r+0xbc2>
    c0006408:	866e                	mv	a2,s11
    c000640a:	4581                	li	a1,0
    c000640c:	8526                	mv	a0,s1
    c000640e:	fffff097          	auipc	ra,0xfffff
    c0006412:	ac4080e7          	jalr	-1340(ra) # c0004ed2 <memchr>
    c0006416:	8b2a                	mv	s6,a0
    c0006418:	9c050ee3          	beqz	a0,c0005df4 <_svfprintf_r+0x592>
    c000641c:	40950dbb          	subw	s11,a0,s1
    c0006420:	4b01                	li	s6,0
    c0006422:	bac9                	j	c0005df4 <_svfprintf_r+0x592>
    c0006424:	8526                	mv	a0,s1
    c0006426:	ffffb097          	auipc	ra,0xffffb
    c000642a:	bf2080e7          	jalr	-1038(ra) # c0001018 <strlen>
    c000642e:	00050d9b          	sext.w	s11,a0
    c0006432:	b7fd                	j	c0006420 <_svfprintf_r+0xbbe>
    c0006434:	01046413          	ori	s0,s0,16
    c0006438:	2401                	sext.w	s0,s0
    c000643a:	008b0793          	addi	a5,s6,8
    c000643e:	f43e                	sd	a5,40(sp)
    c0006440:	02047793          	andi	a5,s0,32
    c0006444:	c789                	beqz	a5,c000644e <_svfprintf_r+0xbec>
    c0006446:	000b3b03          	ld	s6,0(s6)
    c000644a:	4785                	li	a5,1
    c000644c:	b7a9                	j	c0006396 <_svfprintf_r+0xb34>
    c000644e:	01047793          	andi	a5,s0,16
    c0006452:	fbf5                	bnez	a5,c0006446 <_svfprintf_r+0xbe4>
    c0006454:	04047793          	andi	a5,s0,64
    c0006458:	000b2b03          	lw	s6,0(s6)
    c000645c:	c789                	beqz	a5,c0006466 <_svfprintf_r+0xc04>
    c000645e:	1b42                	slli	s6,s6,0x30
    c0006460:	030b5b13          	srli	s6,s6,0x30
    c0006464:	b7dd                	j	c000644a <_svfprintf_r+0xbe8>
    c0006466:	20047793          	andi	a5,s0,512
    c000646a:	c781                	beqz	a5,c0006472 <_svfprintf_r+0xc10>
    c000646c:	0ffb7b13          	andi	s6,s6,255
    c0006470:	bfe9                	j	c000644a <_svfprintf_r+0xbe8>
    c0006472:	1b02                	slli	s6,s6,0x20
    c0006474:	020b5b13          	srli	s6,s6,0x20
    c0006478:	bfc9                	j	c000644a <_svfprintf_r+0xbe8>
    c000647a:	00003797          	auipc	a5,0x3
    c000647e:	e1e78793          	addi	a5,a5,-482 # c0009298 <__clzdi2+0x386>
    c0006482:	ecbe                	sd	a5,88(sp)
    c0006484:	008b0793          	addi	a5,s6,8
    c0006488:	f43e                	sd	a5,40(sp)
    c000648a:	02047793          	andi	a5,s0,32
    c000648e:	cb9d                	beqz	a5,c00064c4 <_svfprintf_r+0xc62>
    c0006490:	000b3b03          	ld	s6,0(s6)
    c0006494:	00147793          	andi	a5,s0,1
    c0006498:	cf81                	beqz	a5,c00064b0 <_svfprintf_r+0xc4e>
    c000649a:	000b0b63          	beqz	s6,c00064b0 <_svfprintf_r+0xc4e>
    c000649e:	03000793          	li	a5,48
    c00064a2:	00246413          	ori	s0,s0,2
    c00064a6:	0af10823          	sb	a5,176(sp)
    c00064aa:	0b5108a3          	sb	s5,177(sp)
    c00064ae:	2401                	sext.w	s0,s0
    c00064b0:	bff47413          	andi	s0,s0,-1025
    c00064b4:	2401                	sext.w	s0,s0
    c00064b6:	4789                	li	a5,2
    c00064b8:	bdf9                	j	c0006396 <_svfprintf_r+0xb34>
    c00064ba:	00003797          	auipc	a5,0x3
    c00064be:	dc678793          	addi	a5,a5,-570 # c0009280 <__clzdi2+0x36e>
    c00064c2:	b7c1                	j	c0006482 <_svfprintf_r+0xc20>
    c00064c4:	01047793          	andi	a5,s0,16
    c00064c8:	f7e1                	bnez	a5,c0006490 <_svfprintf_r+0xc2e>
    c00064ca:	04047793          	andi	a5,s0,64
    c00064ce:	000b2b03          	lw	s6,0(s6)
    c00064d2:	c789                	beqz	a5,c00064dc <_svfprintf_r+0xc7a>
    c00064d4:	1b42                	slli	s6,s6,0x30
    c00064d6:	030b5b13          	srli	s6,s6,0x30
    c00064da:	bf6d                	j	c0006494 <_svfprintf_r+0xc32>
    c00064dc:	20047793          	andi	a5,s0,512
    c00064e0:	c781                	beqz	a5,c00064e8 <_svfprintf_r+0xc86>
    c00064e2:	0ffb7b13          	andi	s6,s6,255
    c00064e6:	b77d                	j	c0006494 <_svfprintf_r+0xc32>
    c00064e8:	1b02                	slli	s6,s6,0x20
    c00064ea:	020b5b13          	srli	s6,s6,0x20
    c00064ee:	b75d                	j	c0006494 <_svfprintf_r+0xc32>
    c00064f0:	8722                	mv	a4,s0
    c00064f2:	4785                	li	a5,1
    c00064f4:	b899                	j	c0005d4a <_svfprintf_r+0x4e8>
    c00064f6:	4705                	li	a4,1
    c00064f8:	14e78de3          	beq	a5,a4,c0006e52 <_svfprintf_r+0x15f0>
    c00064fc:	4709                	li	a4,2
    c00064fe:	0ae78e63          	beq	a5,a4,c00065ba <_svfprintf_r+0xd58>
    c0006502:	0afc                	addi	a5,sp,348
    c0006504:	007b7713          	andi	a4,s6,7
    c0006508:	03070713          	addi	a4,a4,48
    c000650c:	fee78fa3          	sb	a4,-1(a5)
    c0006510:	003b5b13          	srli	s6,s6,0x3
    c0006514:	fff78493          	addi	s1,a5,-1
    c0006518:	020b1863          	bnez	s6,c0006548 <_svfprintf_r+0xce6>
    c000651c:	00147693          	andi	a3,s0,1
    c0006520:	ca89                	beqz	a3,c0006532 <_svfprintf_r+0xcd0>
    c0006522:	03000693          	li	a3,48
    c0006526:	00d70663          	beq	a4,a3,c0006532 <_svfprintf_r+0xcd0>
    c000652a:	fed48fa3          	sb	a3,-1(s1)
    c000652e:	ffe78493          	addi	s1,a5,-2
    c0006532:	15c10e13          	addi	t3,sp,348
    c0006536:	876e                	mv	a4,s11
    c0006538:	4b01                	li	s6,0
    c000653a:	409e0dbb          	subw	s11,t3,s1
    c000653e:	4d01                	li	s10,0
    c0006540:	4b81                	li	s7,0
    c0006542:	4c81                	li	s9,0
    c0006544:	dbcff06f          	j	c0005b00 <_svfprintf_r+0x29e>
    c0006548:	87a6                	mv	a5,s1
    c000654a:	bf6d                	j	c0006504 <_svfprintf_r+0xca2>
    c000654c:	40047b93          	andi	s7,s0,1024
    c0006550:	4a01                	li	s4,0
    c0006552:	0afc                	addi	a5,sp,348
    c0006554:	4ca9                	li	s9,10
    c0006556:	2b81                	sext.w	s7,s7
    c0006558:	0ff00813          	li	a6,255
    c000655c:	4d25                	li	s10,9
    c000655e:	039b7733          	remu	a4,s6,s9
    c0006562:	fff78493          	addi	s1,a5,-1
    c0006566:	2a05                	addiw	s4,s4,1
    c0006568:	0307071b          	addiw	a4,a4,48
    c000656c:	fee78fa3          	sb	a4,-1(a5)
    c0006570:	020b8e63          	beqz	s7,c00065ac <_svfprintf_r+0xd4a>
    c0006574:	6782                	ld	a5,0(sp)
    c0006576:	0007c783          	lbu	a5,0(a5)
    c000657a:	02fa1963          	bne	s4,a5,c00065ac <_svfprintf_r+0xd4a>
    c000657e:	03078763          	beq	a5,a6,c00065ac <_svfprintf_r+0xd4a>
    c0006582:	036d7563          	bleu	s6,s10,c00065ac <_svfprintf_r+0xd4a>
    c0006586:	77e2                	ld	a5,56(sp)
    c0006588:	65a6                	ld	a1,72(sp)
    c000658a:	4a01                	li	s4,0
    c000658c:	8c9d                	sub	s1,s1,a5
    c000658e:	863e                	mv	a2,a5
    c0006590:	8526                	mv	a0,s1
    c0006592:	fffff097          	auipc	ra,0xfffff
    c0006596:	2ac080e7          	jalr	684(ra) # c000583e <strncpy>
    c000659a:	6782                	ld	a5,0(sp)
    c000659c:	0ff00813          	li	a6,255
    c00065a0:	0017c783          	lbu	a5,1(a5)
    c00065a4:	c781                	beqz	a5,c00065ac <_svfprintf_r+0xd4a>
    c00065a6:	6782                	ld	a5,0(sp)
    c00065a8:	0785                	addi	a5,a5,1
    c00065aa:	e03e                	sd	a5,0(sp)
    c00065ac:	039b57b3          	divu	a5,s6,s9
    c00065b0:	f96d71e3          	bleu	s6,s10,c0006532 <_svfprintf_r+0xcd0>
    c00065b4:	8b3e                	mv	s6,a5
    c00065b6:	87a6                	mv	a5,s1
    c00065b8:	b75d                	j	c000655e <_svfprintf_r+0xcfc>
    c00065ba:	0ae4                	addi	s1,sp,348
    c00065bc:	6766                	ld	a4,88(sp)
    c00065be:	00fb7793          	andi	a5,s6,15
    c00065c2:	14fd                	addi	s1,s1,-1
    c00065c4:	97ba                	add	a5,a5,a4
    c00065c6:	0007c783          	lbu	a5,0(a5)
    c00065ca:	004b5b13          	srli	s6,s6,0x4
    c00065ce:	00f48023          	sb	a5,0(s1)
    c00065d2:	fe0b15e3          	bnez	s6,c00065bc <_svfprintf_r+0xd5a>
    c00065d6:	bfb1                	j	c0006532 <_svfprintf_r+0xcd0>
    c00065d8:	0ae4                	addi	s1,sp,348
    c00065da:	ffa1                	bnez	a5,c0006532 <_svfprintf_r+0xcd0>
    c00065dc:	8b05                	andi	a4,a4,1
    c00065de:	db31                	beqz	a4,c0006532 <_svfprintf_r+0xcd0>
    c00065e0:	03000793          	li	a5,48
    c00065e4:	14f10da3          	sb	a5,347(sp)
    c00065e8:	0790006f          	j	c0006e60 <_svfprintf_r+0x15fe>
    c00065ec:	040a84e3          	beqz	s5,c0006e34 <_svfprintf_r+0x15d2>
    c00065f0:	0f510c23          	sb	s5,248(sp)
    c00065f4:	0a0107a3          	sb	zero,175(sp)
    c00065f8:	f45a                	sd	s6,40(sp)
    c00065fa:	cf8ff06f          	j	c0005af2 <_svfprintf_r+0x290>
    c00065fe:	0641                	addi	a2,a2,16
    c0006600:	011c3423          	sd	a7,8(s8)
    c0006604:	f9b2                	sd	a2,240(sp)
    c0006606:	d5ae                	sw	a1,232(sp)
    c0006608:	02aed763          	ble	a0,t4,c0006636 <_svfprintf_r+0xdd4>
    c000660c:	1190                	addi	a2,sp,224
    c000660e:	85ce                	mv	a1,s3
    c0006610:	854a                	mv	a0,s2
    c0006612:	fcba                	sd	a4,120(sp)
    c0006614:	f8b6                	sd	a3,112(sp)
    c0006616:	00001097          	auipc	ra,0x1
    c000661a:	d7a080e7          	jalr	-646(ra) # c0007390 <__ssprint_r>
    c000661e:	7c051663          	bnez	a0,c0006dea <_svfprintf_r+0x1588>
    c0006622:	7766                	ld	a4,120(sp)
    c0006624:	76c6                	ld	a3,112(sp)
    c0006626:	16010f13          	addi	t5,sp,352
    c000662a:	4e9d                	li	t4,7
    c000662c:	00003817          	auipc	a6,0x3
    c0006630:	0dc80813          	addi	a6,a6,220 # c0009708 <blanks.4811>
    c0006634:	48c1                	li	a7,16
    c0006636:	36c1                	addiw	a3,a3,-16
    c0006638:	8c7a                	mv	s8,t5
    c000663a:	d12ff06f          	j	c0005b4c <_svfprintf_r+0x2ea>
    c000663e:	0641                	addi	a2,a2,16
    c0006640:	010c3423          	sd	a6,8(s8)
    c0006644:	f9b2                	sd	a2,240(sp)
    c0006646:	d5ae                	sw	a1,232(sp)
    c0006648:	02a8d363          	ble	a0,a7,c000666e <_svfprintf_r+0xe0c>
    c000664c:	1190                	addi	a2,sp,224
    c000664e:	85ce                	mv	a1,s3
    c0006650:	854a                	mv	a0,s2
    c0006652:	f4ba                	sd	a4,104(sp)
    c0006654:	f0b6                	sd	a3,96(sp)
    c0006656:	00001097          	auipc	ra,0x1
    c000665a:	d3a080e7          	jalr	-710(ra) # c0007390 <__ssprint_r>
    c000665e:	78051663          	bnez	a0,c0006dea <_svfprintf_r+0x1588>
    c0006662:	7726                	ld	a4,104(sp)
    c0006664:	7686                	ld	a3,96(sp)
    c0006666:	16010e93          	addi	t4,sp,352
    c000666a:	489d                	li	a7,7
    c000666c:	4841                	li	a6,16
    c000666e:	36c1                	addiw	a3,a3,-16
    c0006670:	8c76                	mv	s8,t4
    c0006672:	dc0ff06f          	j	c0005c32 <_svfprintf_r+0x3d0>
    c0006676:	06c1                	addi	a3,a3,16
    c0006678:	010c3423          	sd	a6,8(s8)
    c000667c:	f9b6                	sd	a3,240(sp)
    c000667e:	d5b2                	sw	a2,232(sp)
    c0006680:	02b8d063          	ble	a1,a7,c00066a0 <_svfprintf_r+0xe3e>
    c0006684:	1190                	addi	a2,sp,224
    c0006686:	85ce                	mv	a1,s3
    c0006688:	854a                	mv	a0,s2
    c000668a:	f0ba                	sd	a4,96(sp)
    c000668c:	00001097          	auipc	ra,0x1
    c0006690:	d04080e7          	jalr	-764(ra) # c0007390 <__ssprint_r>
    c0006694:	74051b63          	bnez	a0,c0006dea <_svfprintf_r+0x1588>
    c0006698:	7706                	ld	a4,96(sp)
    c000669a:	1288                	addi	a0,sp,352
    c000669c:	489d                	li	a7,7
    c000669e:	4841                	li	a6,16
    c00066a0:	3741                	addiw	a4,a4,-16
    c00066a2:	8c2a                	mv	s8,a0
    c00066a4:	de6ff06f          	j	c0005c8a <_svfprintf_r+0x428>
    c00066a8:	06500693          	li	a3,101
    c00066ac:	5956d563          	ble	s5,a3,c0006c36 <_svfprintf_r+0x13d4>
    c00066b0:	654e                	ld	a0,208(sp)
    c00066b2:	65ee                	ld	a1,216(sp)
    c00066b4:	4601                	li	a2,0
    c00066b6:	4681                	li	a3,0
    c00066b8:	f0ba                	sd	a4,96(sp)
    c00066ba:	00001097          	auipc	ra,0x1
    c00066be:	3ec080e7          	jalr	1004(ra) # c0007aa6 <__eqtf2>
    c00066c2:	7706                	ld	a4,96(sp)
    c00066c4:	ed6d                	bnez	a0,c00067be <_svfprintf_r+0xf5c>
    c00066c6:	00003797          	auipc	a5,0x3
    c00066ca:	bea78793          	addi	a5,a5,-1046 # c00092b0 <__clzdi2+0x39e>
    c00066ce:	00fc3023          	sd	a5,0(s8)
    c00066d2:	4785                	li	a5,1
    c00066d4:	00fc3423          	sd	a5,8(s8)
    c00066d8:	57ae                	lw	a5,232(sp)
    c00066da:	0705                	addi	a4,a4,1
    c00066dc:	f9ba                	sd	a4,240(sp)
    c00066de:	0017871b          	addiw	a4,a5,1
    c00066e2:	d5ba                	sw	a4,232(sp)
    c00066e4:	479d                	li	a5,7
    c00066e6:	0c41                	addi	s8,s8,16
    c00066e8:	00e7dd63          	ble	a4,a5,c0006702 <_svfprintf_r+0xea0>
    c00066ec:	1190                	addi	a2,sp,224
    c00066ee:	85ce                	mv	a1,s3
    c00066f0:	854a                	mv	a0,s2
    c00066f2:	00001097          	auipc	ra,0x1
    c00066f6:	c9e080e7          	jalr	-866(ra) # c0007390 <__ssprint_r>
    c00066fa:	6e051863          	bnez	a0,c0006dea <_svfprintf_r+0x1588>
    c00066fe:	16010c13          	addi	s8,sp,352
    c0006702:	57ea                	lw	a5,184(sp)
    c0006704:	0147c663          	blt	a5,s4,c0006710 <_svfprintf_r+0xeae>
    c0006708:	00147793          	andi	a5,s0,1
    c000670c:	1a078763          	beqz	a5,c00068ba <_svfprintf_r+0x1058>
    c0006710:	6786                	ld	a5,64(sp)
    c0006712:	6742                	ld	a4,16(sp)
    c0006714:	0c41                	addi	s8,s8,16
    c0006716:	fefc3823          	sd	a5,-16(s8)
    c000671a:	67c2                	ld	a5,16(sp)
    c000671c:	fefc3c23          	sd	a5,-8(s8)
    c0006720:	77ce                	ld	a5,240(sp)
    c0006722:	97ba                	add	a5,a5,a4
    c0006724:	f9be                	sd	a5,240(sp)
    c0006726:	57ae                	lw	a5,232(sp)
    c0006728:	0017871b          	addiw	a4,a5,1
    c000672c:	d5ba                	sw	a4,232(sp)
    c000672e:	479d                	li	a5,7
    c0006730:	00e7dd63          	ble	a4,a5,c000674a <_svfprintf_r+0xee8>
    c0006734:	1190                	addi	a2,sp,224
    c0006736:	85ce                	mv	a1,s3
    c0006738:	854a                	mv	a0,s2
    c000673a:	00001097          	auipc	ra,0x1
    c000673e:	c56080e7          	jalr	-938(ra) # c0007390 <__ssprint_r>
    c0006742:	6a051463          	bnez	a0,c0006dea <_svfprintf_r+0x1588>
    c0006746:	16010c13          	addi	s8,sp,352
    c000674a:	fffa049b          	addiw	s1,s4,-1
    c000674e:	16905663          	blez	s1,c00068ba <_svfprintf_r+0x1058>
    c0006752:	4ac1                	li	s5,16
    c0006754:	4b9d                	li	s7,7
    c0006756:	572e                	lw	a4,232(sp)
    c0006758:	77ce                	ld	a5,240(sp)
    c000675a:	010c0613          	addi	a2,s8,16
    c000675e:	0017069b          	addiw	a3,a4,1
    c0006762:	8736                	mv	a4,a3
    c0006764:	029ac363          	blt	s5,s1,c000678a <_svfprintf_r+0xf28>
    c0006768:	00003717          	auipc	a4,0x3
    c000676c:	fb070713          	addi	a4,a4,-80 # c0009718 <zeroes.4812>
    c0006770:	009c3423          	sd	s1,8(s8)
    c0006774:	00ec3023          	sd	a4,0(s8)
    c0006778:	94be                	add	s1,s1,a5
    c000677a:	f9a6                	sd	s1,240(sp)
    c000677c:	d5b6                	sw	a3,232(sp)
    c000677e:	479d                	li	a5,7
    c0006780:	8c32                	mv	s8,a2
    c0006782:	12d7dc63          	ble	a3,a5,c00068ba <_svfprintf_r+0x1058>
    c0006786:	d74ff06f          	j	c0005cfa <_svfprintf_r+0x498>
    c000678a:	00003597          	auipc	a1,0x3
    c000678e:	f8e58593          	addi	a1,a1,-114 # c0009718 <zeroes.4812>
    c0006792:	07c1                	addi	a5,a5,16
    c0006794:	00bc3023          	sd	a1,0(s8)
    c0006798:	015c3423          	sd	s5,8(s8)
    c000679c:	f9be                	sd	a5,240(sp)
    c000679e:	d5ba                	sw	a4,232(sp)
    c00067a0:	00dbdc63          	ble	a3,s7,c00067b8 <_svfprintf_r+0xf56>
    c00067a4:	1190                	addi	a2,sp,224
    c00067a6:	85ce                	mv	a1,s3
    c00067a8:	854a                	mv	a0,s2
    c00067aa:	00001097          	auipc	ra,0x1
    c00067ae:	be6080e7          	jalr	-1050(ra) # c0007390 <__ssprint_r>
    c00067b2:	62051c63          	bnez	a0,c0006dea <_svfprintf_r+0x1588>
    c00067b6:	1290                	addi	a2,sp,352
    c00067b8:	34c1                	addiw	s1,s1,-16
    c00067ba:	8c32                	mv	s8,a2
    c00067bc:	bf69                	j	c0006756 <_svfprintf_r+0xef4>
    c00067be:	56ea                	lw	a3,184(sp)
    c00067c0:	16d04463          	bgtz	a3,c0006928 <_svfprintf_r+0x10c6>
    c00067c4:	00003797          	auipc	a5,0x3
    c00067c8:	aec78793          	addi	a5,a5,-1300 # c00092b0 <__clzdi2+0x39e>
    c00067cc:	00fc3023          	sd	a5,0(s8)
    c00067d0:	4785                	li	a5,1
    c00067d2:	00fc3423          	sd	a5,8(s8)
    c00067d6:	57ae                	lw	a5,232(sp)
    c00067d8:	0705                	addi	a4,a4,1
    c00067da:	f9ba                	sd	a4,240(sp)
    c00067dc:	0017871b          	addiw	a4,a5,1
    c00067e0:	d5ba                	sw	a4,232(sp)
    c00067e2:	479d                	li	a5,7
    c00067e4:	0c41                	addi	s8,s8,16
    c00067e6:	00e7dd63          	ble	a4,a5,c0006800 <_svfprintf_r+0xf9e>
    c00067ea:	1190                	addi	a2,sp,224
    c00067ec:	85ce                	mv	a1,s3
    c00067ee:	854a                	mv	a0,s2
    c00067f0:	00001097          	auipc	ra,0x1
    c00067f4:	ba0080e7          	jalr	-1120(ra) # c0007390 <__ssprint_r>
    c00067f8:	5e051963          	bnez	a0,c0006dea <_svfprintf_r+0x1588>
    c00067fc:	16010c13          	addi	s8,sp,352
    c0006800:	57ea                	lw	a5,184(sp)
    c0006802:	00147693          	andi	a3,s0,1
    c0006806:	774e                	ld	a4,240(sp)
    c0006808:	00fa67b3          	or	a5,s4,a5
    c000680c:	8fd5                	or	a5,a5,a3
    c000680e:	2781                	sext.w	a5,a5
    c0006810:	c7cd                	beqz	a5,c00068ba <_svfprintf_r+0x1058>
    c0006812:	6786                	ld	a5,64(sp)
    c0006814:	010c0313          	addi	t1,s8,16
    c0006818:	00fc3023          	sd	a5,0(s8)
    c000681c:	67c2                	ld	a5,16(sp)
    c000681e:	00fc3423          	sd	a5,8(s8)
    c0006822:	97ba                	add	a5,a5,a4
    c0006824:	f9be                	sd	a5,240(sp)
    c0006826:	57ae                	lw	a5,232(sp)
    c0006828:	0017871b          	addiw	a4,a5,1
    c000682c:	d5ba                	sw	a4,232(sp)
    c000682e:	479d                	li	a5,7
    c0006830:	00e7dd63          	ble	a4,a5,c000684a <_svfprintf_r+0xfe8>
    c0006834:	1190                	addi	a2,sp,224
    c0006836:	85ce                	mv	a1,s3
    c0006838:	854a                	mv	a0,s2
    c000683a:	00001097          	auipc	ra,0x1
    c000683e:	b56080e7          	jalr	-1194(ra) # c0007390 <__ssprint_r>
    c0006842:	5a051463          	bnez	a0,c0006dea <_svfprintf_r+0x1588>
    c0006846:	16010313          	addi	t1,sp,352
    c000684a:	5aea                	lw	s5,184(sp)
    c000684c:	040ad763          	bgez	s5,c000689a <_svfprintf_r+0x1038>
    c0006850:	41500abb          	negw	s5,s5
    c0006854:	879a                	mv	a5,t1
    c0006856:	4bc1                	li	s7,16
    c0006858:	4d1d                	li	s10,7
    c000685a:	56ae                	lw	a3,232(sp)
    c000685c:	774e                	ld	a4,240(sp)
    c000685e:	0341                	addi	t1,t1,16
    c0006860:	0016861b          	addiw	a2,a3,1
    c0006864:	86b2                	mv	a3,a2
    c0006866:	095bc763          	blt	s7,s5,c00068f4 <_svfprintf_r+0x1092>
    c000686a:	0157b423          	sd	s5,8(a5)
    c000686e:	00003697          	auipc	a3,0x3
    c0006872:	eaa68693          	addi	a3,a3,-342 # c0009718 <zeroes.4812>
    c0006876:	9aba                	add	s5,s5,a4
    c0006878:	e394                	sd	a3,0(a5)
    c000687a:	f9d6                	sd	s5,240(sp)
    c000687c:	d5b2                	sw	a2,232(sp)
    c000687e:	479d                	li	a5,7
    c0006880:	00c7dd63          	ble	a2,a5,c000689a <_svfprintf_r+0x1038>
    c0006884:	1190                	addi	a2,sp,224
    c0006886:	85ce                	mv	a1,s3
    c0006888:	854a                	mv	a0,s2
    c000688a:	00001097          	auipc	ra,0x1
    c000688e:	b06080e7          	jalr	-1274(ra) # c0007390 <__ssprint_r>
    c0006892:	54051c63          	bnez	a0,c0006dea <_svfprintf_r+0x1588>
    c0006896:	16010313          	addi	t1,sp,352
    c000689a:	77ce                	ld	a5,240(sp)
    c000689c:	00933023          	sd	s1,0(t1)
    c00068a0:	01433423          	sd	s4,8(t1)
    c00068a4:	97d2                	add	a5,a5,s4
    c00068a6:	f9be                	sd	a5,240(sp)
    c00068a8:	57ae                	lw	a5,232(sp)
    c00068aa:	01030c13          	addi	s8,t1,16
    c00068ae:	0017871b          	addiw	a4,a5,1
    c00068b2:	d5ba                	sw	a4,232(sp)
    c00068b4:	479d                	li	a5,7
    c00068b6:	c4e7c263          	blt	a5,a4,c0005cfa <_svfprintf_r+0x498>
    c00068ba:	8811                	andi	s0,s0,4
    c00068bc:	4e041163          	bnez	s0,c0006d9e <_svfprintf_r+0x153c>
    c00068c0:	6762                	ld	a4,24(sp)
    c00068c2:	76c2                	ld	a3,48(sp)
    c00068c4:	47e2                	lw	a5,24(sp)
    c00068c6:	00d75363          	ble	a3,a4,c00068cc <_svfprintf_r+0x106a>
    c00068ca:	57c2                	lw	a5,48(sp)
    c00068cc:	7702                	ld	a4,32(sp)
    c00068ce:	9fb9                	addw	a5,a5,a4
    c00068d0:	f03e                	sd	a5,32(sp)
    c00068d2:	77ce                	ld	a5,240(sp)
    c00068d4:	cb91                	beqz	a5,c00068e8 <_svfprintf_r+0x1086>
    c00068d6:	1190                	addi	a2,sp,224
    c00068d8:	85ce                	mv	a1,s3
    c00068da:	854a                	mv	a0,s2
    c00068dc:	00001097          	auipc	ra,0x1
    c00068e0:	ab4080e7          	jalr	-1356(ra) # c0007390 <__ssprint_r>
    c00068e4:	50051363          	bnez	a0,c0006dea <_svfprintf_r+0x1588>
    c00068e8:	d582                	sw	zero,232(sp)
    c00068ea:	520b1e63          	bnez	s6,c0006e26 <_svfprintf_r+0x15c4>
    c00068ee:	16010c13          	addi	s8,sp,352
    c00068f2:	bca1                	j	c000634a <_svfprintf_r+0xae8>
    c00068f4:	00003597          	auipc	a1,0x3
    c00068f8:	e2458593          	addi	a1,a1,-476 # c0009718 <zeroes.4812>
    c00068fc:	0741                	addi	a4,a4,16
    c00068fe:	e38c                	sd	a1,0(a5)
    c0006900:	0177b423          	sd	s7,8(a5)
    c0006904:	f9ba                	sd	a4,240(sp)
    c0006906:	d5b6                	sw	a3,232(sp)
    c0006908:	00cd5d63          	ble	a2,s10,c0006922 <_svfprintf_r+0x10c0>
    c000690c:	1190                	addi	a2,sp,224
    c000690e:	85ce                	mv	a1,s3
    c0006910:	854a                	mv	a0,s2
    c0006912:	00001097          	auipc	ra,0x1
    c0006916:	a7e080e7          	jalr	-1410(ra) # c0007390 <__ssprint_r>
    c000691a:	4c051863          	bnez	a0,c0006dea <_svfprintf_r+0x1588>
    c000691e:	16010313          	addi	t1,sp,352
    c0006922:	3ac1                	addiw	s5,s5,-16
    c0006924:	879a                	mv	a5,t1
    c0006926:	bf15                	j	c000685a <_svfprintf_r+0xff8>
    c0006928:	86e6                	mv	a3,s9
    c000692a:	019a5363          	ble	s9,s4,c0006930 <_svfprintf_r+0x10ce>
    c000692e:	86d2                	mv	a3,s4
    c0006930:	00068d9b          	sext.w	s11,a3
    c0006934:	03b05b63          	blez	s11,c000696a <_svfprintf_r+0x1108>
    c0006938:	976e                	add	a4,a4,s11
    c000693a:	f9ba                	sd	a4,240(sp)
    c000693c:	572e                	lw	a4,232(sp)
    c000693e:	009c3023          	sd	s1,0(s8)
    c0006942:	01bc3423          	sd	s11,8(s8)
    c0006946:	0017061b          	addiw	a2,a4,1
    c000694a:	d5b2                	sw	a2,232(sp)
    c000694c:	471d                	li	a4,7
    c000694e:	0c41                	addi	s8,s8,16
    c0006950:	00c75d63          	ble	a2,a4,c000696a <_svfprintf_r+0x1108>
    c0006954:	1190                	addi	a2,sp,224
    c0006956:	85ce                	mv	a1,s3
    c0006958:	854a                	mv	a0,s2
    c000695a:	00001097          	auipc	ra,0x1
    c000695e:	a36080e7          	jalr	-1482(ra) # c0007390 <__ssprint_r>
    c0006962:	48051463          	bnez	a0,c0006dea <_svfprintf_r+0x1588>
    c0006966:	16010c13          	addi	s8,sp,352
    c000696a:	8aee                	mv	s5,s11
    c000696c:	000dd363          	bgez	s11,c0006972 <_svfprintf_r+0x1110>
    c0006970:	4a81                	li	s5,0
    c0006972:	415c8abb          	subw	s5,s9,s5
    c0006976:	05505763          	blez	s5,c00069c4 <_svfprintf_r+0x1162>
    c000697a:	4dc1                	li	s11,16
    c000697c:	489d                	li	a7,7
    c000697e:	56ae                	lw	a3,232(sp)
    c0006980:	00003797          	auipc	a5,0x3
    c0006984:	d9878793          	addi	a5,a5,-616 # c0009718 <zeroes.4812>
    c0006988:	00fc3023          	sd	a5,0(s8)
    c000698c:	0016861b          	addiw	a2,a3,1
    c0006990:	774e                	ld	a4,240(sp)
    c0006992:	86b2                	mv	a3,a2
    c0006994:	010c0593          	addi	a1,s8,16
    c0006998:	155dc163          	blt	s11,s5,c0006ada <_svfprintf_r+0x1278>
    c000699c:	015c3423          	sd	s5,8(s8)
    c00069a0:	9aba                	add	s5,s5,a4
    c00069a2:	f9d6                	sd	s5,240(sp)
    c00069a4:	d5b2                	sw	a2,232(sp)
    c00069a6:	471d                	li	a4,7
    c00069a8:	8c2e                	mv	s8,a1
    c00069aa:	00c75d63          	ble	a2,a4,c00069c4 <_svfprintf_r+0x1162>
    c00069ae:	1190                	addi	a2,sp,224
    c00069b0:	85ce                	mv	a1,s3
    c00069b2:	854a                	mv	a0,s2
    c00069b4:	00001097          	auipc	ra,0x1
    c00069b8:	9dc080e7          	jalr	-1572(ra) # c0007390 <__ssprint_r>
    c00069bc:	42051763          	bnez	a0,c0006dea <_svfprintf_r+0x1588>
    c00069c0:	16010c13          	addi	s8,sp,352
    c00069c4:	40047793          	andi	a5,s0,1024
    c00069c8:	01948ab3          	add	s5,s1,s9
    c00069cc:	cf91                	beqz	a5,c00069e8 <_svfprintf_r+0x1186>
    c00069ce:	014487b3          	add	a5,s1,s4
    c00069d2:	4d9d                	li	s11,7
    c00069d4:	8cbe                	mv	s9,a5
    c00069d6:	120b9763          	bnez	s7,c0006b04 <_svfprintf_r+0x12a2>
    c00069da:	120d1763          	bnez	s10,c0006b08 <_svfprintf_r+0x12a6>
    c00069de:	014487b3          	add	a5,s1,s4
    c00069e2:	0157f363          	bleu	s5,a5,c00069e8 <_svfprintf_r+0x1186>
    c00069e6:	8abe                	mv	s5,a5
    c00069e8:	57ea                	lw	a5,184(sp)
    c00069ea:	0147c563          	blt	a5,s4,c00069f4 <_svfprintf_r+0x1192>
    c00069ee:	00147793          	andi	a5,s0,1
    c00069f2:	cf95                	beqz	a5,c0006a2e <_svfprintf_r+0x11cc>
    c00069f4:	6786                	ld	a5,64(sp)
    c00069f6:	6742                	ld	a4,16(sp)
    c00069f8:	0c41                	addi	s8,s8,16
    c00069fa:	fefc3823          	sd	a5,-16(s8)
    c00069fe:	67c2                	ld	a5,16(sp)
    c0006a00:	fefc3c23          	sd	a5,-8(s8)
    c0006a04:	77ce                	ld	a5,240(sp)
    c0006a06:	97ba                	add	a5,a5,a4
    c0006a08:	f9be                	sd	a5,240(sp)
    c0006a0a:	57ae                	lw	a5,232(sp)
    c0006a0c:	0017871b          	addiw	a4,a5,1
    c0006a10:	d5ba                	sw	a4,232(sp)
    c0006a12:	479d                	li	a5,7
    c0006a14:	00e7dd63          	ble	a4,a5,c0006a2e <_svfprintf_r+0x11cc>
    c0006a18:	1190                	addi	a2,sp,224
    c0006a1a:	85ce                	mv	a1,s3
    c0006a1c:	854a                	mv	a0,s2
    c0006a1e:	00001097          	auipc	ra,0x1
    c0006a22:	972080e7          	jalr	-1678(ra) # c0007390 <__ssprint_r>
    c0006a26:	3c051263          	bnez	a0,c0006dea <_svfprintf_r+0x1588>
    c0006a2a:	16010c13          	addi	s8,sp,352
    c0006a2e:	5bea                	lw	s7,184(sp)
    c0006a30:	94d2                	add	s1,s1,s4
    c0006a32:	415484bb          	subw	s1,s1,s5
    c0006a36:	417a07bb          	subw	a5,s4,s7
    c0006a3a:	8bbe                	mv	s7,a5
    c0006a3c:	00f4d463          	ble	a5,s1,c0006a44 <_svfprintf_r+0x11e2>
    c0006a40:	00048b9b          	sext.w	s7,s1
    c0006a44:	03705c63          	blez	s7,c0006a7c <_svfprintf_r+0x121a>
    c0006a48:	77ce                	ld	a5,240(sp)
    c0006a4a:	015c3023          	sd	s5,0(s8)
    c0006a4e:	017c3423          	sd	s7,8(s8)
    c0006a52:	97de                	add	a5,a5,s7
    c0006a54:	f9be                	sd	a5,240(sp)
    c0006a56:	57ae                	lw	a5,232(sp)
    c0006a58:	0c41                	addi	s8,s8,16
    c0006a5a:	0017871b          	addiw	a4,a5,1
    c0006a5e:	d5ba                	sw	a4,232(sp)
    c0006a60:	479d                	li	a5,7
    c0006a62:	00e7dd63          	ble	a4,a5,c0006a7c <_svfprintf_r+0x121a>
    c0006a66:	1190                	addi	a2,sp,224
    c0006a68:	85ce                	mv	a1,s3
    c0006a6a:	854a                	mv	a0,s2
    c0006a6c:	00001097          	auipc	ra,0x1
    c0006a70:	924080e7          	jalr	-1756(ra) # c0007390 <__ssprint_r>
    c0006a74:	36051b63          	bnez	a0,c0006dea <_svfprintf_r+0x1588>
    c0006a78:	16010c13          	addi	s8,sp,352
    c0006a7c:	87de                	mv	a5,s7
    c0006a7e:	000bd363          	bgez	s7,c0006a84 <_svfprintf_r+0x1222>
    c0006a82:	4781                	li	a5,0
    c0006a84:	54ea                	lw	s1,184(sp)
    c0006a86:	409a04bb          	subw	s1,s4,s1
    c0006a8a:	9c9d                	subw	s1,s1,a5
    c0006a8c:	e29057e3          	blez	s1,c00068ba <_svfprintf_r+0x1058>
    c0006a90:	4ac1                	li	s5,16
    c0006a92:	4b9d                	li	s7,7
    c0006a94:	572e                	lw	a4,232(sp)
    c0006a96:	77ce                	ld	a5,240(sp)
    c0006a98:	010c0613          	addi	a2,s8,16
    c0006a9c:	0017069b          	addiw	a3,a4,1
    c0006aa0:	8736                	mv	a4,a3
    c0006aa2:	cc9ad3e3          	ble	s1,s5,c0006768 <_svfprintf_r+0xf06>
    c0006aa6:	00003597          	auipc	a1,0x3
    c0006aaa:	c7258593          	addi	a1,a1,-910 # c0009718 <zeroes.4812>
    c0006aae:	07c1                	addi	a5,a5,16
    c0006ab0:	00bc3023          	sd	a1,0(s8)
    c0006ab4:	015c3423          	sd	s5,8(s8)
    c0006ab8:	f9be                	sd	a5,240(sp)
    c0006aba:	d5ba                	sw	a4,232(sp)
    c0006abc:	00dbdc63          	ble	a3,s7,c0006ad4 <_svfprintf_r+0x1272>
    c0006ac0:	1190                	addi	a2,sp,224
    c0006ac2:	85ce                	mv	a1,s3
    c0006ac4:	854a                	mv	a0,s2
    c0006ac6:	00001097          	auipc	ra,0x1
    c0006aca:	8ca080e7          	jalr	-1846(ra) # c0007390 <__ssprint_r>
    c0006ace:	30051e63          	bnez	a0,c0006dea <_svfprintf_r+0x1588>
    c0006ad2:	1290                	addi	a2,sp,352
    c0006ad4:	34c1                	addiw	s1,s1,-16
    c0006ad6:	8c32                	mv	s8,a2
    c0006ad8:	bf75                	j	c0006a94 <_svfprintf_r+0x1232>
    c0006ada:	0741                	addi	a4,a4,16
    c0006adc:	01bc3423          	sd	s11,8(s8)
    c0006ae0:	f9ba                	sd	a4,240(sp)
    c0006ae2:	d5b6                	sw	a3,232(sp)
    c0006ae4:	00c8dd63          	ble	a2,a7,c0006afe <_svfprintf_r+0x129c>
    c0006ae8:	1190                	addi	a2,sp,224
    c0006aea:	85ce                	mv	a1,s3
    c0006aec:	854a                	mv	a0,s2
    c0006aee:	00001097          	auipc	ra,0x1
    c0006af2:	8a2080e7          	jalr	-1886(ra) # c0007390 <__ssprint_r>
    c0006af6:	2e051a63          	bnez	a0,c0006dea <_svfprintf_r+0x1588>
    c0006afa:	128c                	addi	a1,sp,352
    c0006afc:	489d                	li	a7,7
    c0006afe:	3ac1                	addiw	s5,s5,-16
    c0006b00:	8c2e                	mv	s8,a1
    c0006b02:	bdb5                	j	c000697e <_svfprintf_r+0x111c>
    c0006b04:	0a0d0563          	beqz	s10,c0006bae <_svfprintf_r+0x134c>
    c0006b08:	3d7d                	addiw	s10,s10,-1
    c0006b0a:	67a6                	ld	a5,72(sp)
    c0006b0c:	7762                	ld	a4,56(sp)
    c0006b0e:	0c41                	addi	s8,s8,16
    c0006b10:	fefc3823          	sd	a5,-16(s8)
    c0006b14:	77e2                	ld	a5,56(sp)
    c0006b16:	fefc3c23          	sd	a5,-8(s8)
    c0006b1a:	77ce                	ld	a5,240(sp)
    c0006b1c:	97ba                	add	a5,a5,a4
    c0006b1e:	f9be                	sd	a5,240(sp)
    c0006b20:	57ae                	lw	a5,232(sp)
    c0006b22:	0017871b          	addiw	a4,a5,1
    c0006b26:	d5ba                	sw	a4,232(sp)
    c0006b28:	00eddd63          	ble	a4,s11,c0006b42 <_svfprintf_r+0x12e0>
    c0006b2c:	1190                	addi	a2,sp,224
    c0006b2e:	85ce                	mv	a1,s3
    c0006b30:	854a                	mv	a0,s2
    c0006b32:	00001097          	auipc	ra,0x1
    c0006b36:	85e080e7          	jalr	-1954(ra) # c0007390 <__ssprint_r>
    c0006b3a:	2a051863          	bnez	a0,c0006dea <_svfprintf_r+0x1588>
    c0006b3e:	16010c13          	addi	s8,sp,352
    c0006b42:	6702                	ld	a4,0(sp)
    c0006b44:	415c87bb          	subw	a5,s9,s5
    c0006b48:	00074703          	lbu	a4,0(a4)
    c0006b4c:	00e7d463          	ble	a4,a5,c0006b54 <_svfprintf_r+0x12f2>
    c0006b50:	0007871b          	sext.w	a4,a5
    c0006b54:	02e05d63          	blez	a4,c0006b8e <_svfprintf_r+0x132c>
    c0006b58:	77ce                	ld	a5,240(sp)
    c0006b5a:	015c3023          	sd	s5,0(s8)
    c0006b5e:	00ec3423          	sd	a4,8(s8)
    c0006b62:	97ba                	add	a5,a5,a4
    c0006b64:	f9be                	sd	a5,240(sp)
    c0006b66:	57ae                	lw	a5,232(sp)
    c0006b68:	0c41                	addi	s8,s8,16
    c0006b6a:	0017869b          	addiw	a3,a5,1
    c0006b6e:	d5b6                	sw	a3,232(sp)
    c0006b70:	00dddf63          	ble	a3,s11,c0006b8e <_svfprintf_r+0x132c>
    c0006b74:	1190                	addi	a2,sp,224
    c0006b76:	85ce                	mv	a1,s3
    c0006b78:	854a                	mv	a0,s2
    c0006b7a:	f0ba                	sd	a4,96(sp)
    c0006b7c:	00001097          	auipc	ra,0x1
    c0006b80:	814080e7          	jalr	-2028(ra) # c0007390 <__ssprint_r>
    c0006b84:	26051363          	bnez	a0,c0006dea <_svfprintf_r+0x1588>
    c0006b88:	7706                	ld	a4,96(sp)
    c0006b8a:	16010c13          	addi	s8,sp,352
    c0006b8e:	86ba                	mv	a3,a4
    c0006b90:	00075363          	bgez	a4,c0006b96 <_svfprintf_r+0x1334>
    c0006b94:	4681                	li	a3,0
    c0006b96:	6782                	ld	a5,0(sp)
    c0006b98:	4841                	li	a6,16
    c0006b9a:	0007c783          	lbu	a5,0(a5)
    c0006b9e:	9f95                	subw	a5,a5,a3
    c0006ba0:	04f04863          	bgtz	a5,c0006bf0 <_svfprintf_r+0x138e>
    c0006ba4:	6782                	ld	a5,0(sp)
    c0006ba6:	0007c783          	lbu	a5,0(a5)
    c0006baa:	9abe                	add	s5,s5,a5
    c0006bac:	b52d                	j	c00069d6 <_svfprintf_r+0x1174>
    c0006bae:	6782                	ld	a5,0(sp)
    c0006bb0:	3bfd                	addiw	s7,s7,-1
    c0006bb2:	17fd                	addi	a5,a5,-1
    c0006bb4:	e03e                	sd	a5,0(sp)
    c0006bb6:	bf91                	j	c0006b0a <_svfprintf_r+0x12a8>
    c0006bb8:	00003517          	auipc	a0,0x3
    c0006bbc:	b6050513          	addi	a0,a0,-1184 # c0009718 <zeroes.4812>
    c0006bc0:	0741                	addi	a4,a4,16
    c0006bc2:	00ac3023          	sd	a0,0(s8)
    c0006bc6:	010c3423          	sd	a6,8(s8)
    c0006bca:	f9ba                	sd	a4,240(sp)
    c0006bcc:	d5b6                	sw	a3,232(sp)
    c0006bce:	00cddf63          	ble	a2,s11,c0006bec <_svfprintf_r+0x138a>
    c0006bd2:	1190                	addi	a2,sp,224
    c0006bd4:	85ce                	mv	a1,s3
    c0006bd6:	854a                	mv	a0,s2
    c0006bd8:	f0be                	sd	a5,96(sp)
    c0006bda:	00000097          	auipc	ra,0x0
    c0006bde:	7b6080e7          	jalr	1974(ra) # c0007390 <__ssprint_r>
    c0006be2:	20051463          	bnez	a0,c0006dea <_svfprintf_r+0x1588>
    c0006be6:	7786                	ld	a5,96(sp)
    c0006be8:	128c                	addi	a1,sp,352
    c0006bea:	4841                	li	a6,16
    c0006bec:	37c1                	addiw	a5,a5,-16
    c0006bee:	8c2e                	mv	s8,a1
    c0006bf0:	56ae                	lw	a3,232(sp)
    c0006bf2:	774e                	ld	a4,240(sp)
    c0006bf4:	010c0593          	addi	a1,s8,16
    c0006bf8:	0016861b          	addiw	a2,a3,1
    c0006bfc:	86b2                	mv	a3,a2
    c0006bfe:	faf84de3          	blt	a6,a5,c0006bb8 <_svfprintf_r+0x1356>
    c0006c02:	00fc3423          	sd	a5,8(s8)
    c0006c06:	00003697          	auipc	a3,0x3
    c0006c0a:	b1268693          	addi	a3,a3,-1262 # c0009718 <zeroes.4812>
    c0006c0e:	97ba                	add	a5,a5,a4
    c0006c10:	00dc3023          	sd	a3,0(s8)
    c0006c14:	f9be                	sd	a5,240(sp)
    c0006c16:	d5b2                	sw	a2,232(sp)
    c0006c18:	8c2e                	mv	s8,a1
    c0006c1a:	f8cdd5e3          	ble	a2,s11,c0006ba4 <_svfprintf_r+0x1342>
    c0006c1e:	1190                	addi	a2,sp,224
    c0006c20:	85ce                	mv	a1,s3
    c0006c22:	854a                	mv	a0,s2
    c0006c24:	00000097          	auipc	ra,0x0
    c0006c28:	76c080e7          	jalr	1900(ra) # c0007390 <__ssprint_r>
    c0006c2c:	1a051f63          	bnez	a0,c0006dea <_svfprintf_r+0x1588>
    c0006c30:	16010c13          	addi	s8,sp,352
    c0006c34:	bf85                	j	c0006ba4 <_svfprintf_r+0x1342>
    c0006c36:	57ae                	lw	a5,232(sp)
    c0006c38:	4605                	li	a2,1
    c0006c3a:	009c3023          	sd	s1,0(s8)
    c0006c3e:	0017869b          	addiw	a3,a5,1
    c0006c42:	0705                	addi	a4,a4,1
    c0006c44:	87b6                	mv	a5,a3
    c0006c46:	010c0b93          	addi	s7,s8,16
    c0006c4a:	01464663          	blt	a2,s4,c0006c56 <_svfprintf_r+0x13f4>
    c0006c4e:	00147593          	andi	a1,s0,1
    c0006c52:	14058063          	beqz	a1,c0006d92 <_svfprintf_r+0x1530>
    c0006c56:	4605                	li	a2,1
    c0006c58:	d5be                	sw	a5,232(sp)
    c0006c5a:	00cc3423          	sd	a2,8(s8)
    c0006c5e:	f9ba                	sd	a4,240(sp)
    c0006c60:	479d                	li	a5,7
    c0006c62:	00d7dd63          	ble	a3,a5,c0006c7c <_svfprintf_r+0x141a>
    c0006c66:	1190                	addi	a2,sp,224
    c0006c68:	85ce                	mv	a1,s3
    c0006c6a:	854a                	mv	a0,s2
    c0006c6c:	00000097          	auipc	ra,0x0
    c0006c70:	724080e7          	jalr	1828(ra) # c0007390 <__ssprint_r>
    c0006c74:	16051b63          	bnez	a0,c0006dea <_svfprintf_r+0x1588>
    c0006c78:	16010b93          	addi	s7,sp,352
    c0006c7c:	6786                	ld	a5,64(sp)
    c0006c7e:	6742                	ld	a4,16(sp)
    c0006c80:	0bc1                	addi	s7,s7,16
    c0006c82:	fefbb823          	sd	a5,-16(s7)
    c0006c86:	67c2                	ld	a5,16(sp)
    c0006c88:	fefbbc23          	sd	a5,-8(s7)
    c0006c8c:	77ce                	ld	a5,240(sp)
    c0006c8e:	97ba                	add	a5,a5,a4
    c0006c90:	f9be                	sd	a5,240(sp)
    c0006c92:	57ae                	lw	a5,232(sp)
    c0006c94:	0017871b          	addiw	a4,a5,1
    c0006c98:	d5ba                	sw	a4,232(sp)
    c0006c9a:	479d                	li	a5,7
    c0006c9c:	00e7dd63          	ble	a4,a5,c0006cb6 <_svfprintf_r+0x1454>
    c0006ca0:	1190                	addi	a2,sp,224
    c0006ca2:	85ce                	mv	a1,s3
    c0006ca4:	854a                	mv	a0,s2
    c0006ca6:	00000097          	auipc	ra,0x0
    c0006caa:	6ea080e7          	jalr	1770(ra) # c0007390 <__ssprint_r>
    c0006cae:	12051e63          	bnez	a0,c0006dea <_svfprintf_r+0x1588>
    c0006cb2:	16010b93          	addi	s7,sp,352
    c0006cb6:	654e                	ld	a0,208(sp)
    c0006cb8:	65ee                	ld	a1,216(sp)
    c0006cba:	4601                	li	a2,0
    c0006cbc:	4681                	li	a3,0
    c0006cbe:	fffa0a9b          	addiw	s5,s4,-1
    c0006cc2:	00001097          	auipc	ra,0x1
    c0006cc6:	de4080e7          	jalr	-540(ra) # c0007aa6 <__eqtf2>
    c0006cca:	c125                	beqz	a0,c0006d2a <_svfprintf_r+0x14c8>
    c0006ccc:	572e                	lw	a4,232(sp)
    c0006cce:	77ce                	ld	a5,240(sp)
    c0006cd0:	0485                	addi	s1,s1,1
    c0006cd2:	0017069b          	addiw	a3,a4,1
    c0006cd6:	97d6                	add	a5,a5,s5
    c0006cd8:	009bb023          	sd	s1,0(s7)
    c0006cdc:	015bb423          	sd	s5,8(s7)
    c0006ce0:	f9be                	sd	a5,240(sp)
    c0006ce2:	d5b6                	sw	a3,232(sp)
    c0006ce4:	479d                	li	a5,7
    c0006ce6:	0bc1                	addi	s7,s7,16
    c0006ce8:	00d7dc63          	ble	a3,a5,c0006d00 <_svfprintf_r+0x149e>
    c0006cec:	1190                	addi	a2,sp,224
    c0006cee:	85ce                	mv	a1,s3
    c0006cf0:	854a                	mv	a0,s2
    c0006cf2:	00000097          	auipc	ra,0x0
    c0006cf6:	69e080e7          	jalr	1694(ra) # c0007390 <__ssprint_r>
    c0006cfa:	e965                	bnez	a0,c0006dea <_svfprintf_r+0x1588>
    c0006cfc:	16010b93          	addi	s7,sp,352
    c0006d00:	019c                	addi	a5,sp,192
    c0006d02:	00fbb023          	sd	a5,0(s7)
    c0006d06:	67c6                	ld	a5,80(sp)
    c0006d08:	6746                	ld	a4,80(sp)
    c0006d0a:	010b8c13          	addi	s8,s7,16
    c0006d0e:	00fbb423          	sd	a5,8(s7)
    c0006d12:	77ce                	ld	a5,240(sp)
    c0006d14:	97ba                	add	a5,a5,a4
    c0006d16:	f9be                	sd	a5,240(sp)
    c0006d18:	57ae                	lw	a5,232(sp)
    c0006d1a:	0017871b          	addiw	a4,a5,1
    c0006d1e:	d5ba                	sw	a4,232(sp)
    c0006d20:	479d                	li	a5,7
    c0006d22:	b8e7dce3          	ble	a4,a5,c00068ba <_svfprintf_r+0x1058>
    c0006d26:	fd5fe06f          	j	c0005cfa <_svfprintf_r+0x498>
    c0006d2a:	fd505be3          	blez	s5,c0006d00 <_svfprintf_r+0x149e>
    c0006d2e:	44c1                	li	s1,16
    c0006d30:	4d1d                	li	s10,7
    c0006d32:	572e                	lw	a4,232(sp)
    c0006d34:	77ce                	ld	a5,240(sp)
    c0006d36:	010b8613          	addi	a2,s7,16
    c0006d3a:	0017069b          	addiw	a3,a4,1
    c0006d3e:	8736                	mv	a4,a3
    c0006d40:	0354c063          	blt	s1,s5,c0006d60 <_svfprintf_r+0x14fe>
    c0006d44:	97d6                	add	a5,a5,s5
    c0006d46:	00003717          	auipc	a4,0x3
    c0006d4a:	9d270713          	addi	a4,a4,-1582 # c0009718 <zeroes.4812>
    c0006d4e:	00ebb023          	sd	a4,0(s7)
    c0006d52:	015bb423          	sd	s5,8(s7)
    c0006d56:	f9be                	sd	a5,240(sp)
    c0006d58:	d5b6                	sw	a3,232(sp)
    c0006d5a:	479d                	li	a5,7
    c0006d5c:	8bb2                	mv	s7,a2
    c0006d5e:	b769                	j	c0006ce8 <_svfprintf_r+0x1486>
    c0006d60:	00003597          	auipc	a1,0x3
    c0006d64:	9b858593          	addi	a1,a1,-1608 # c0009718 <zeroes.4812>
    c0006d68:	07c1                	addi	a5,a5,16
    c0006d6a:	00bbb023          	sd	a1,0(s7)
    c0006d6e:	009bb423          	sd	s1,8(s7)
    c0006d72:	f9be                	sd	a5,240(sp)
    c0006d74:	d5ba                	sw	a4,232(sp)
    c0006d76:	00dd5b63          	ble	a3,s10,c0006d8c <_svfprintf_r+0x152a>
    c0006d7a:	1190                	addi	a2,sp,224
    c0006d7c:	85ce                	mv	a1,s3
    c0006d7e:	854a                	mv	a0,s2
    c0006d80:	00000097          	auipc	ra,0x0
    c0006d84:	610080e7          	jalr	1552(ra) # c0007390 <__ssprint_r>
    c0006d88:	e12d                	bnez	a0,c0006dea <_svfprintf_r+0x1588>
    c0006d8a:	1290                	addi	a2,sp,352
    c0006d8c:	3ac1                	addiw	s5,s5,-16
    c0006d8e:	8bb2                	mv	s7,a2
    c0006d90:	b74d                	j	c0006d32 <_svfprintf_r+0x14d0>
    c0006d92:	00cc3423          	sd	a2,8(s8)
    c0006d96:	f9ba                	sd	a4,240(sp)
    c0006d98:	d5b6                	sw	a3,232(sp)
    c0006d9a:	479d                	li	a5,7
    c0006d9c:	b7b1                	j	c0006ce8 <_svfprintf_r+0x1486>
    c0006d9e:	67e2                	ld	a5,24(sp)
    c0006da0:	7742                	ld	a4,48(sp)
    c0006da2:	40e7843b          	subw	s0,a5,a4
    c0006da6:	b0805de3          	blez	s0,c00068c0 <_svfprintf_r+0x105e>
    c0006daa:	4ac1                	li	s5,16
    c0006dac:	00003497          	auipc	s1,0x3
    c0006db0:	95c48493          	addi	s1,s1,-1700 # c0009708 <blanks.4811>
    c0006db4:	4b9d                	li	s7,7
    c0006db6:	572e                	lw	a4,232(sp)
    c0006db8:	009c3023          	sd	s1,0(s8)
    c0006dbc:	77ce                	ld	a5,240(sp)
    c0006dbe:	0017069b          	addiw	a3,a4,1
    c0006dc2:	8736                	mv	a4,a3
    c0006dc4:	028acd63          	blt	s5,s0,c0006dfe <_svfprintf_r+0x159c>
    c0006dc8:	008c3423          	sd	s0,8(s8)
    c0006dcc:	943e                	add	s0,s0,a5
    c0006dce:	f9a2                	sd	s0,240(sp)
    c0006dd0:	d5b6                	sw	a3,232(sp)
    c0006dd2:	479d                	li	a5,7
    c0006dd4:	aed7d6e3          	ble	a3,a5,c00068c0 <_svfprintf_r+0x105e>
    c0006dd8:	1190                	addi	a2,sp,224
    c0006dda:	85ce                	mv	a1,s3
    c0006ddc:	854a                	mv	a0,s2
    c0006dde:	00000097          	auipc	ra,0x0
    c0006de2:	5b2080e7          	jalr	1458(ra) # c0007390 <__ssprint_r>
    c0006de6:	ac050de3          	beqz	a0,c00068c0 <_svfprintf_r+0x105e>
    c0006dea:	8a0b0563          	beqz	s6,c0005e94 <_svfprintf_r+0x632>
    c0006dee:	85da                	mv	a1,s6
    c0006df0:	854a                	mv	a0,s2
    c0006df2:	ffffc097          	auipc	ra,0xffffc
    c0006df6:	fe8080e7          	jalr	-24(ra) # c0002dda <_free_r>
    c0006dfa:	89aff06f          	j	c0005e94 <_svfprintf_r+0x632>
    c0006dfe:	07c1                	addi	a5,a5,16
    c0006e00:	015c3423          	sd	s5,8(s8)
    c0006e04:	f9be                	sd	a5,240(sp)
    c0006e06:	d5ba                	sw	a4,232(sp)
    c0006e08:	0c41                	addi	s8,s8,16
    c0006e0a:	00dbdc63          	ble	a3,s7,c0006e22 <_svfprintf_r+0x15c0>
    c0006e0e:	1190                	addi	a2,sp,224
    c0006e10:	85ce                	mv	a1,s3
    c0006e12:	854a                	mv	a0,s2
    c0006e14:	00000097          	auipc	ra,0x0
    c0006e18:	57c080e7          	jalr	1404(ra) # c0007390 <__ssprint_r>
    c0006e1c:	f579                	bnez	a0,c0006dea <_svfprintf_r+0x1588>
    c0006e1e:	16010c13          	addi	s8,sp,352
    c0006e22:	3441                	addiw	s0,s0,-16
    c0006e24:	bf49                	j	c0006db6 <_svfprintf_r+0x1554>
    c0006e26:	85da                	mv	a1,s6
    c0006e28:	854a                	mv	a0,s2
    c0006e2a:	ffffc097          	auipc	ra,0xffffc
    c0006e2e:	fb0080e7          	jalr	-80(ra) # c0002dda <_free_r>
    c0006e32:	bc75                	j	c00068ee <_svfprintf_r+0x108c>
    c0006e34:	77ce                	ld	a5,240(sp)
    c0006e36:	84078f63          	beqz	a5,c0005e94 <_svfprintf_r+0x632>
    c0006e3a:	1190                	addi	a2,sp,224
    c0006e3c:	85ce                	mv	a1,s3
    c0006e3e:	854a                	mv	a0,s2
    c0006e40:	00000097          	auipc	ra,0x0
    c0006e44:	550080e7          	jalr	1360(ra) # c0007390 <__ssprint_r>
    c0006e48:	84cff06f          	j	c0005e94 <_svfprintf_r+0x632>
    c0006e4c:	57fd                	li	a5,-1
    c0006e4e:	eafd9163          	bne	s11,a5,c00064f0 <_svfprintf_r+0xc8e>
    c0006e52:	47a5                	li	a5,9
    c0006e54:	ef67ec63          	bltu	a5,s6,c000654c <_svfprintf_r+0xcea>
    c0006e58:	030b0b1b          	addiw	s6,s6,48
    c0006e5c:	15610da3          	sb	s6,347(sp)
    c0006e60:	15b10493          	addi	s1,sp,347
    c0006e64:	eceff06f          	j	c0006532 <_svfprintf_r+0xcd0>

00000000c0006e68 <__sprint_r>:
    c0006e68:	6a1c                	ld	a5,16(a2)
    c0006e6a:	715d                	addi	sp,sp,-80
    c0006e6c:	e0a2                	sd	s0,64(sp)
    c0006e6e:	e486                	sd	ra,72(sp)
    c0006e70:	fc26                	sd	s1,56(sp)
    c0006e72:	f84a                	sd	s2,48(sp)
    c0006e74:	f44e                	sd	s3,40(sp)
    c0006e76:	f052                	sd	s4,32(sp)
    c0006e78:	ec56                	sd	s5,24(sp)
    c0006e7a:	e85a                	sd	s6,16(sp)
    c0006e7c:	e45e                	sd	s7,8(sp)
    c0006e7e:	8432                	mv	s0,a2
    c0006e80:	ef99                	bnez	a5,c0006e9e <__sprint_r+0x36>
    c0006e82:	00062423          	sw	zero,8(a2)
    c0006e86:	4501                	li	a0,0
    c0006e88:	60a6                	ld	ra,72(sp)
    c0006e8a:	6406                	ld	s0,64(sp)
    c0006e8c:	74e2                	ld	s1,56(sp)
    c0006e8e:	7942                	ld	s2,48(sp)
    c0006e90:	79a2                	ld	s3,40(sp)
    c0006e92:	7a02                	ld	s4,32(sp)
    c0006e94:	6ae2                	ld	s5,24(sp)
    c0006e96:	6b42                	ld	s6,16(sp)
    c0006e98:	6ba2                	ld	s7,8(sp)
    c0006e9a:	6161                	addi	sp,sp,80
    c0006e9c:	8082                	ret
    c0006e9e:	0b05a783          	lw	a5,176(a1)
    c0006ea2:	89ae                	mv	s3,a1
    c0006ea4:	03279713          	slli	a4,a5,0x32
    c0006ea8:	04075e63          	bgez	a4,c0006f04 <__sprint_r+0x9c>
    c0006eac:	00063903          	ld	s2,0(a2)
    c0006eb0:	8aaa                	mv	s5,a0
    c0006eb2:	5b7d                	li	s6,-1
    c0006eb4:	00893483          	ld	s1,8(s2)
    c0006eb8:	00093b83          	ld	s7,0(s2)
    c0006ebc:	4a01                	li	s4,0
    c0006ebe:	8089                	srli	s1,s1,0x2
    c0006ec0:	2481                	sext.w	s1,s1
    c0006ec2:	000a079b          	sext.w	a5,s4
    c0006ec6:	0097cf63          	blt	a5,s1,c0006ee4 <__sprint_r+0x7c>
    c0006eca:	681c                	ld	a5,16(s0)
    c0006ecc:	048a                	slli	s1,s1,0x2
    c0006ece:	0941                	addi	s2,s2,16
    c0006ed0:	409784b3          	sub	s1,a5,s1
    c0006ed4:	e804                	sd	s1,16(s0)
    c0006ed6:	fcf9                	bnez	s1,c0006eb4 <__sprint_r+0x4c>
    c0006ed8:	4501                	li	a0,0
    c0006eda:	00043823          	sd	zero,16(s0)
    c0006ede:	00042423          	sw	zero,8(s0)
    c0006ee2:	b75d                	j	c0006e88 <__sprint_r+0x20>
    c0006ee4:	002a1793          	slli	a5,s4,0x2
    c0006ee8:	97de                	add	a5,a5,s7
    c0006eea:	438c                	lw	a1,0(a5)
    c0006eec:	864e                	mv	a2,s3
    c0006eee:	8556                	mv	a0,s5
    c0006ef0:	00000097          	auipc	ra,0x0
    c0006ef4:	31a080e7          	jalr	794(ra) # c000720a <_fputwc_r>
    c0006ef8:	2501                	sext.w	a0,a0
    c0006efa:	0a05                	addi	s4,s4,1
    c0006efc:	fd6513e3          	bne	a0,s6,c0006ec2 <__sprint_r+0x5a>
    c0006f00:	557d                	li	a0,-1
    c0006f02:	bfe1                	j	c0006eda <__sprint_r+0x72>
    c0006f04:	ffffc097          	auipc	ra,0xffffc
    c0006f08:	0c4080e7          	jalr	196(ra) # c0002fc8 <__sfvwrite_r>
    c0006f0c:	b7f9                	j	c0006eda <__sprint_r+0x72>

00000000c0006f0e <__ascii_wctomb>:
    c0006f0e:	0006071b          	sext.w	a4,a2
    c0006f12:	cd91                	beqz	a1,c0006f2e <__ascii_wctomb+0x20>
    c0006f14:	0ff00793          	li	a5,255
    c0006f18:	00e7f763          	bleu	a4,a5,c0006f26 <__ascii_wctomb+0x18>
    c0006f1c:	08a00793          	li	a5,138
    c0006f20:	c11c                	sw	a5,0(a0)
    c0006f22:	557d                	li	a0,-1
    c0006f24:	8082                	ret
    c0006f26:	00c58023          	sb	a2,0(a1)
    c0006f2a:	4505                	li	a0,1
    c0006f2c:	8082                	ret
    c0006f2e:	4501                	li	a0,0
    c0006f30:	8082                	ret

00000000c0006f32 <_write_r>:
    c0006f32:	1141                	addi	sp,sp,-16
    c0006f34:	e022                	sd	s0,0(sp)
    c0006f36:	842a                	mv	s0,a0
    c0006f38:	852e                	mv	a0,a1
    c0006f3a:	85b2                	mv	a1,a2
    c0006f3c:	8636                	mv	a2,a3
    c0006f3e:	00004797          	auipc	a5,0x4
    c0006f42:	0807a923          	sw	zero,146(a5) # c000afd0 <errno>
    c0006f46:	e406                	sd	ra,8(sp)
    c0006f48:	00000097          	auipc	ra,0x0
    c0006f4c:	760080e7          	jalr	1888(ra) # c00076a8 <_write>
    c0006f50:	57fd                	li	a5,-1
    c0006f52:	00f51963          	bne	a0,a5,c0006f64 <_write_r+0x32>
    c0006f56:	00004797          	auipc	a5,0x4
    c0006f5a:	07a78793          	addi	a5,a5,122 # c000afd0 <errno>
    c0006f5e:	439c                	lw	a5,0(a5)
    c0006f60:	c391                	beqz	a5,c0006f64 <_write_r+0x32>
    c0006f62:	c01c                	sw	a5,0(s0)
    c0006f64:	60a2                	ld	ra,8(sp)
    c0006f66:	6402                	ld	s0,0(sp)
    c0006f68:	0141                	addi	sp,sp,16
    c0006f6a:	8082                	ret

00000000c0006f6c <_calloc_r>:
    c0006f6c:	02c585b3          	mul	a1,a1,a2
    c0006f70:	1141                	addi	sp,sp,-16
    c0006f72:	e022                	sd	s0,0(sp)
    c0006f74:	e406                	sd	ra,8(sp)
    c0006f76:	ffff9097          	auipc	ra,0xffff9
    c0006f7a:	78c080e7          	jalr	1932(ra) # c0000702 <_malloc_r>
    c0006f7e:	842a                	mv	s0,a0
    c0006f80:	cd15                	beqz	a0,c0006fbc <_calloc_r+0x50>
    c0006f82:	ff853603          	ld	a2,-8(a0)
    c0006f86:	04800713          	li	a4,72
    c0006f8a:	9a71                	andi	a2,a2,-4
    c0006f8c:	1661                	addi	a2,a2,-8
    c0006f8e:	04c76b63          	bltu	a4,a2,c0006fe4 <_calloc_r+0x78>
    c0006f92:	02700693          	li	a3,39
    c0006f96:	87aa                	mv	a5,a0
    c0006f98:	00c6fc63          	bleu	a2,a3,c0006fb0 <_calloc_r+0x44>
    c0006f9c:	00053023          	sd	zero,0(a0)
    c0006fa0:	00053423          	sd	zero,8(a0)
    c0006fa4:	03700793          	li	a5,55
    c0006fa8:	00c7ef63          	bltu	a5,a2,c0006fc6 <_calloc_r+0x5a>
    c0006fac:	01050793          	addi	a5,a0,16
    c0006fb0:	0007b023          	sd	zero,0(a5)
    c0006fb4:	0007b423          	sd	zero,8(a5)
    c0006fb8:	0007b823          	sd	zero,16(a5)
    c0006fbc:	8522                	mv	a0,s0
    c0006fbe:	60a2                	ld	ra,8(sp)
    c0006fc0:	6402                	ld	s0,0(sp)
    c0006fc2:	0141                	addi	sp,sp,16
    c0006fc4:	8082                	ret
    c0006fc6:	00053823          	sd	zero,16(a0)
    c0006fca:	00053c23          	sd	zero,24(a0)
    c0006fce:	02050793          	addi	a5,a0,32
    c0006fd2:	fce61fe3          	bne	a2,a4,c0006fb0 <_calloc_r+0x44>
    c0006fd6:	02053023          	sd	zero,32(a0)
    c0006fda:	03050793          	addi	a5,a0,48
    c0006fde:	02053423          	sd	zero,40(a0)
    c0006fe2:	b7f9                	j	c0006fb0 <_calloc_r+0x44>
    c0006fe4:	4581                	li	a1,0
    c0006fe6:	ffffe097          	auipc	ra,0xffffe
    c0006fea:	006080e7          	jalr	6(ra) # c0004fec <memset>
    c0006fee:	b7f9                	j	c0006fbc <_calloc_r+0x50>

00000000c0006ff0 <_close_r>:
    c0006ff0:	1141                	addi	sp,sp,-16
    c0006ff2:	e022                	sd	s0,0(sp)
    c0006ff4:	842a                	mv	s0,a0
    c0006ff6:	852e                	mv	a0,a1
    c0006ff8:	00004797          	auipc	a5,0x4
    c0006ffc:	fc07ac23          	sw	zero,-40(a5) # c000afd0 <errno>
    c0007000:	e406                	sd	ra,8(sp)
    c0007002:	00000097          	auipc	ra,0x0
    c0007006:	51e080e7          	jalr	1310(ra) # c0007520 <_close>
    c000700a:	57fd                	li	a5,-1
    c000700c:	00f51963          	bne	a0,a5,c000701e <_close_r+0x2e>
    c0007010:	00004797          	auipc	a5,0x4
    c0007014:	fc078793          	addi	a5,a5,-64 # c000afd0 <errno>
    c0007018:	439c                	lw	a5,0(a5)
    c000701a:	c391                	beqz	a5,c000701e <_close_r+0x2e>
    c000701c:	c01c                	sw	a5,0(s0)
    c000701e:	60a2                	ld	ra,8(sp)
    c0007020:	6402                	ld	s0,0(sp)
    c0007022:	0141                	addi	sp,sp,16
    c0007024:	8082                	ret

00000000c0007026 <_fclose_r>:
    c0007026:	7179                	addi	sp,sp,-48
    c0007028:	f406                	sd	ra,40(sp)
    c000702a:	f022                	sd	s0,32(sp)
    c000702c:	ec26                	sd	s1,24(sp)
    c000702e:	e84a                	sd	s2,16(sp)
    c0007030:	c1b5                	beqz	a1,c0007094 <_fclose_r+0x6e>
    c0007032:	84aa                	mv	s1,a0
    c0007034:	842e                	mv	s0,a1
    c0007036:	c519                	beqz	a0,c0007044 <_fclose_r+0x1e>
    c0007038:	493c                	lw	a5,80(a0)
    c000703a:	e789                	bnez	a5,c0007044 <_fclose_r+0x1e>
    c000703c:	ffffc097          	auipc	ra,0xffffc
    c0007040:	c48080e7          	jalr	-952(ra) # c0002c84 <__sinit>
    c0007044:	006c                	addi	a1,sp,12
    c0007046:	4505                	li	a0,1
    c0007048:	ffff9097          	auipc	ra,0xffff9
    c000704c:	4f2080e7          	jalr	1266(ra) # c000053a <pthread_setcancelstate>
    c0007050:	0b042783          	lw	a5,176(s0)
    c0007054:	8b85                	andi	a5,a5,1
    c0007056:	ef81                	bnez	a5,c000706e <_fclose_r+0x48>
    c0007058:	01045783          	lhu	a5,16(s0)
    c000705c:	2007f793          	andi	a5,a5,512
    c0007060:	e799                	bnez	a5,c000706e <_fclose_r+0x48>
    c0007062:	0a040513          	addi	a0,s0,160
    c0007066:	ffff9097          	auipc	ra,0xffff9
    c000706a:	4cc080e7          	jalr	1228(ra) # c0000532 <_lock_acquire_recursive>
    c000706e:	01041783          	lh	a5,16(s0)
    c0007072:	e39d                	bnez	a5,c0007098 <_fclose_r+0x72>
    c0007074:	0b042783          	lw	a5,176(s0)
    c0007078:	8b85                	andi	a5,a5,1
    c000707a:	e799                	bnez	a5,c0007088 <_fclose_r+0x62>
    c000707c:	0a040513          	addi	a0,s0,160
    c0007080:	ffff9097          	auipc	ra,0xffff9
    c0007084:	4b4080e7          	jalr	1204(ra) # c0000534 <_lock_release_recursive>
    c0007088:	4532                	lw	a0,12(sp)
    c000708a:	006c                	addi	a1,sp,12
    c000708c:	ffff9097          	auipc	ra,0xffff9
    c0007090:	4ae080e7          	jalr	1198(ra) # c000053a <pthread_setcancelstate>
    c0007094:	4901                	li	s2,0
    c0007096:	a04d                	j	c0007138 <_fclose_r+0x112>
    c0007098:	85a2                	mv	a1,s0
    c000709a:	8526                	mv	a0,s1
    c000709c:	ffffc097          	auipc	ra,0xffffc
    c00070a0:	8fa080e7          	jalr	-1798(ra) # c0002996 <__sflush_r>
    c00070a4:	683c                	ld	a5,80(s0)
    c00070a6:	892a                	mv	s2,a0
    c00070a8:	c799                	beqz	a5,c00070b6 <_fclose_r+0x90>
    c00070aa:	780c                	ld	a1,48(s0)
    c00070ac:	8526                	mv	a0,s1
    c00070ae:	9782                	jalr	a5
    c00070b0:	00055363          	bgez	a0,c00070b6 <_fclose_r+0x90>
    c00070b4:	597d                	li	s2,-1
    c00070b6:	01045783          	lhu	a5,16(s0)
    c00070ba:	0807f793          	andi	a5,a5,128
    c00070be:	c799                	beqz	a5,c00070cc <_fclose_r+0xa6>
    c00070c0:	6c0c                	ld	a1,24(s0)
    c00070c2:	8526                	mv	a0,s1
    c00070c4:	ffffc097          	auipc	ra,0xffffc
    c00070c8:	d16080e7          	jalr	-746(ra) # c0002dda <_free_r>
    c00070cc:	6c2c                	ld	a1,88(s0)
    c00070ce:	cd81                	beqz	a1,c00070e6 <_fclose_r+0xc0>
    c00070d0:	07440793          	addi	a5,s0,116
    c00070d4:	00f58763          	beq	a1,a5,c00070e2 <_fclose_r+0xbc>
    c00070d8:	8526                	mv	a0,s1
    c00070da:	ffffc097          	auipc	ra,0xffffc
    c00070de:	d00080e7          	jalr	-768(ra) # c0002dda <_free_r>
    c00070e2:	04043c23          	sd	zero,88(s0)
    c00070e6:	7c2c                	ld	a1,120(s0)
    c00070e8:	c981                	beqz	a1,c00070f8 <_fclose_r+0xd2>
    c00070ea:	8526                	mv	a0,s1
    c00070ec:	ffffc097          	auipc	ra,0xffffc
    c00070f0:	cee080e7          	jalr	-786(ra) # c0002dda <_free_r>
    c00070f4:	06043c23          	sd	zero,120(s0)
    c00070f8:	ffffc097          	auipc	ra,0xffffc
    c00070fc:	b4c080e7          	jalr	-1204(ra) # c0002c44 <__sfp_lock_acquire>
    c0007100:	0b042783          	lw	a5,176(s0)
    c0007104:	00041823          	sh	zero,16(s0)
    c0007108:	0a040493          	addi	s1,s0,160
    c000710c:	8b85                	andi	a5,a5,1
    c000710e:	e791                	bnez	a5,c000711a <_fclose_r+0xf4>
    c0007110:	8526                	mv	a0,s1
    c0007112:	ffff9097          	auipc	ra,0xffff9
    c0007116:	422080e7          	jalr	1058(ra) # c0000534 <_lock_release_recursive>
    c000711a:	8526                	mv	a0,s1
    c000711c:	ffff9097          	auipc	ra,0xffff9
    c0007120:	41c080e7          	jalr	1052(ra) # c0000538 <_lock_close_recursive>
    c0007124:	ffffc097          	auipc	ra,0xffffc
    c0007128:	b30080e7          	jalr	-1232(ra) # c0002c54 <__sfp_lock_release>
    c000712c:	4532                	lw	a0,12(sp)
    c000712e:	006c                	addi	a1,sp,12
    c0007130:	ffff9097          	auipc	ra,0xffff9
    c0007134:	40a080e7          	jalr	1034(ra) # c000053a <pthread_setcancelstate>
    c0007138:	70a2                	ld	ra,40(sp)
    c000713a:	7402                	ld	s0,32(sp)
    c000713c:	854a                	mv	a0,s2
    c000713e:	64e2                	ld	s1,24(sp)
    c0007140:	6942                	ld	s2,16(sp)
    c0007142:	6145                	addi	sp,sp,48
    c0007144:	8082                	ret

00000000c0007146 <__fputwc>:
    c0007146:	715d                	addi	sp,sp,-80
    c0007148:	e0a2                	sd	s0,64(sp)
    c000714a:	fc26                	sd	s1,56(sp)
    c000714c:	f052                	sd	s4,32(sp)
    c000714e:	e486                	sd	ra,72(sp)
    c0007150:	f84a                	sd	s2,48(sp)
    c0007152:	f44e                	sd	s3,40(sp)
    c0007154:	ec56                	sd	s5,24(sp)
    c0007156:	e85a                	sd	s6,16(sp)
    c0007158:	8a2a                	mv	s4,a0
    c000715a:	84ae                	mv	s1,a1
    c000715c:	8432                	mv	s0,a2
    c000715e:	ffffe097          	auipc	ra,0xffffe
    c0007162:	c18080e7          	jalr	-1000(ra) # c0004d76 <__locale_mb_cur_max>
    c0007166:	4785                	li	a5,1
    c0007168:	02f51c63          	bne	a0,a5,c00071a0 <__fputwc+0x5a>
    c000716c:	fff4879b          	addiw	a5,s1,-1
    c0007170:	0fe00713          	li	a4,254
    c0007174:	02f76663          	bltu	a4,a5,c00071a0 <__fputwc+0x5a>
    c0007178:	00910423          	sb	s1,8(sp)
    c000717c:	4985                	li	s3,1
    c000717e:	4901                	li	s2,0
    c0007180:	5afd                	li	s5,-1
    c0007182:	4b29                	li	s6,10
    c0007184:	05391363          	bne	s2,s3,c00071ca <__fputwc+0x84>
    c0007188:	0004851b          	sext.w	a0,s1
    c000718c:	60a6                	ld	ra,72(sp)
    c000718e:	6406                	ld	s0,64(sp)
    c0007190:	74e2                	ld	s1,56(sp)
    c0007192:	7942                	ld	s2,48(sp)
    c0007194:	79a2                	ld	s3,40(sp)
    c0007196:	7a02                	ld	s4,32(sp)
    c0007198:	6ae2                	ld	s5,24(sp)
    c000719a:	6b42                	ld	s6,16(sp)
    c000719c:	6161                	addi	sp,sp,80
    c000719e:	8082                	ret
    c00071a0:	0a840693          	addi	a3,s0,168
    c00071a4:	8626                	mv	a2,s1
    c00071a6:	002c                	addi	a1,sp,8
    c00071a8:	8552                	mv	a0,s4
    c00071aa:	00000097          	auipc	ra,0x0
    c00071ae:	33e080e7          	jalr	830(ra) # c00074e8 <_wcrtomb_r>
    c00071b2:	57fd                	li	a5,-1
    c00071b4:	89aa                	mv	s3,a0
    c00071b6:	fcf514e3          	bne	a0,a5,c000717e <__fputwc+0x38>
    c00071ba:	01045783          	lhu	a5,16(s0)
    c00071be:	0407e793          	ori	a5,a5,64
    c00071c2:	00f41823          	sh	a5,16(s0)
    c00071c6:	557d                	li	a0,-1
    c00071c8:	b7d1                	j	c000718c <__fputwc+0x46>
    c00071ca:	003c                	addi	a5,sp,8
    c00071cc:	97ca                	add	a5,a5,s2
    c00071ce:	0007c583          	lbu	a1,0(a5)
    c00071d2:	445c                	lw	a5,12(s0)
    c00071d4:	fff7871b          	addiw	a4,a5,-1
    c00071d8:	c458                	sw	a4,12(s0)
    c00071da:	00075763          	bgez	a4,c00071e8 <__fputwc+0xa2>
    c00071de:	541c                	lw	a5,40(s0)
    c00071e0:	00f74c63          	blt	a4,a5,c00071f8 <__fputwc+0xb2>
    c00071e4:	01658a63          	beq	a1,s6,c00071f8 <__fputwc+0xb2>
    c00071e8:	601c                	ld	a5,0(s0)
    c00071ea:	00178713          	addi	a4,a5,1
    c00071ee:	e018                	sd	a4,0(s0)
    c00071f0:	00b78023          	sb	a1,0(a5)
    c00071f4:	0905                	addi	s2,s2,1
    c00071f6:	b779                	j	c0007184 <__fputwc+0x3e>
    c00071f8:	8622                	mv	a2,s0
    c00071fa:	8552                	mv	a0,s4
    c00071fc:	ffffb097          	auipc	ra,0xffffb
    c0007200:	5e2080e7          	jalr	1506(ra) # c00027de <__swbuf_r>
    c0007204:	ff5518e3          	bne	a0,s5,c00071f4 <__fputwc+0xae>
    c0007208:	bf7d                	j	c00071c6 <__fputwc+0x80>

00000000c000720a <_fputwc_r>:
    c000720a:	7179                	addi	sp,sp,-48
    c000720c:	ec26                	sd	s1,24(sp)
    c000720e:	e84a                	sd	s2,16(sp)
    c0007210:	84aa                	mv	s1,a0
    c0007212:	892e                	mv	s2,a1
    c0007214:	4505                	li	a0,1
    c0007216:	006c                	addi	a1,sp,12
    c0007218:	f022                	sd	s0,32(sp)
    c000721a:	f406                	sd	ra,40(sp)
    c000721c:	8432                	mv	s0,a2
    c000721e:	ffff9097          	auipc	ra,0xffff9
    c0007222:	31c080e7          	jalr	796(ra) # c000053a <pthread_setcancelstate>
    c0007226:	0b042783          	lw	a5,176(s0)
    c000722a:	8b85                	andi	a5,a5,1
    c000722c:	ef81                	bnez	a5,c0007244 <_fputwc_r+0x3a>
    c000722e:	01045783          	lhu	a5,16(s0)
    c0007232:	2007f793          	andi	a5,a5,512
    c0007236:	e799                	bnez	a5,c0007244 <_fputwc_r+0x3a>
    c0007238:	0a040513          	addi	a0,s0,160
    c000723c:	ffff9097          	auipc	ra,0xffff9
    c0007240:	2f6080e7          	jalr	758(ra) # c0000532 <_lock_acquire_recursive>
    c0007244:	01041783          	lh	a5,16(s0)
    c0007248:	03279713          	slli	a4,a5,0x32
    c000724c:	00074c63          	bltz	a4,c0007264 <_fputwc_r+0x5a>
    c0007250:	6709                	lui	a4,0x2
    c0007252:	8fd9                	or	a5,a5,a4
    c0007254:	00f41823          	sh	a5,16(s0)
    c0007258:	0b042783          	lw	a5,176(s0)
    c000725c:	6709                	lui	a4,0x2
    c000725e:	8fd9                	or	a5,a5,a4
    c0007260:	0af42823          	sw	a5,176(s0)
    c0007264:	8526                	mv	a0,s1
    c0007266:	8622                	mv	a2,s0
    c0007268:	85ca                	mv	a1,s2
    c000726a:	00000097          	auipc	ra,0x0
    c000726e:	edc080e7          	jalr	-292(ra) # c0007146 <__fputwc>
    c0007272:	0b042783          	lw	a5,176(s0)
    c0007276:	0005049b          	sext.w	s1,a0
    c000727a:	8b85                	andi	a5,a5,1
    c000727c:	ef81                	bnez	a5,c0007294 <_fputwc_r+0x8a>
    c000727e:	01045783          	lhu	a5,16(s0)
    c0007282:	2007f793          	andi	a5,a5,512
    c0007286:	e799                	bnez	a5,c0007294 <_fputwc_r+0x8a>
    c0007288:	0a040513          	addi	a0,s0,160
    c000728c:	ffff9097          	auipc	ra,0xffff9
    c0007290:	2a8080e7          	jalr	680(ra) # c0000534 <_lock_release_recursive>
    c0007294:	4532                	lw	a0,12(sp)
    c0007296:	006c                	addi	a1,sp,12
    c0007298:	ffff9097          	auipc	ra,0xffff9
    c000729c:	2a2080e7          	jalr	674(ra) # c000053a <pthread_setcancelstate>
    c00072a0:	70a2                	ld	ra,40(sp)
    c00072a2:	7402                	ld	s0,32(sp)
    c00072a4:	8526                	mv	a0,s1
    c00072a6:	6942                	ld	s2,16(sp)
    c00072a8:	64e2                	ld	s1,24(sp)
    c00072aa:	6145                	addi	sp,sp,48
    c00072ac:	8082                	ret

00000000c00072ae <_fstat_r>:
    c00072ae:	1141                	addi	sp,sp,-16
    c00072b0:	e022                	sd	s0,0(sp)
    c00072b2:	842a                	mv	s0,a0
    c00072b4:	852e                	mv	a0,a1
    c00072b6:	85b2                	mv	a1,a2
    c00072b8:	00004797          	auipc	a5,0x4
    c00072bc:	d007ac23          	sw	zero,-744(a5) # c000afd0 <errno>
    c00072c0:	e406                	sd	ra,8(sp)
    c00072c2:	00000097          	auipc	ra,0x0
    c00072c6:	298080e7          	jalr	664(ra) # c000755a <_fstat>
    c00072ca:	57fd                	li	a5,-1
    c00072cc:	00f51963          	bne	a0,a5,c00072de <_fstat_r+0x30>
    c00072d0:	00004797          	auipc	a5,0x4
    c00072d4:	d0078793          	addi	a5,a5,-768 # c000afd0 <errno>
    c00072d8:	439c                	lw	a5,0(a5)
    c00072da:	c391                	beqz	a5,c00072de <_fstat_r+0x30>
    c00072dc:	c01c                	sw	a5,0(s0)
    c00072de:	60a2                	ld	ra,8(sp)
    c00072e0:	6402                	ld	s0,0(sp)
    c00072e2:	0141                	addi	sp,sp,16
    c00072e4:	8082                	ret

00000000c00072e6 <_isatty_r>:
    c00072e6:	1141                	addi	sp,sp,-16
    c00072e8:	e022                	sd	s0,0(sp)
    c00072ea:	842a                	mv	s0,a0
    c00072ec:	852e                	mv	a0,a1
    c00072ee:	00004797          	auipc	a5,0x4
    c00072f2:	ce07a123          	sw	zero,-798(a5) # c000afd0 <errno>
    c00072f6:	e406                	sd	ra,8(sp)
    c00072f8:	00000097          	auipc	ra,0x0
    c00072fc:	2ae080e7          	jalr	686(ra) # c00075a6 <_isatty>
    c0007300:	57fd                	li	a5,-1
    c0007302:	00f51963          	bne	a0,a5,c0007314 <_isatty_r+0x2e>
    c0007306:	00004797          	auipc	a5,0x4
    c000730a:	cca78793          	addi	a5,a5,-822 # c000afd0 <errno>
    c000730e:	439c                	lw	a5,0(a5)
    c0007310:	c391                	beqz	a5,c0007314 <_isatty_r+0x2e>
    c0007312:	c01c                	sw	a5,0(s0)
    c0007314:	60a2                	ld	ra,8(sp)
    c0007316:	6402                	ld	s0,0(sp)
    c0007318:	0141                	addi	sp,sp,16
    c000731a:	8082                	ret

00000000c000731c <_lseek_r>:
    c000731c:	1141                	addi	sp,sp,-16
    c000731e:	e022                	sd	s0,0(sp)
    c0007320:	842a                	mv	s0,a0
    c0007322:	852e                	mv	a0,a1
    c0007324:	85b2                	mv	a1,a2
    c0007326:	8636                	mv	a2,a3
    c0007328:	00004797          	auipc	a5,0x4
    c000732c:	ca07a423          	sw	zero,-856(a5) # c000afd0 <errno>
    c0007330:	e406                	sd	ra,8(sp)
    c0007332:	00000097          	auipc	ra,0x0
    c0007336:	29a080e7          	jalr	666(ra) # c00075cc <_lseek>
    c000733a:	57fd                	li	a5,-1
    c000733c:	00f51963          	bne	a0,a5,c000734e <_lseek_r+0x32>
    c0007340:	00004797          	auipc	a5,0x4
    c0007344:	c9078793          	addi	a5,a5,-880 # c000afd0 <errno>
    c0007348:	439c                	lw	a5,0(a5)
    c000734a:	c391                	beqz	a5,c000734e <_lseek_r+0x32>
    c000734c:	c01c                	sw	a5,0(s0)
    c000734e:	60a2                	ld	ra,8(sp)
    c0007350:	6402                	ld	s0,0(sp)
    c0007352:	0141                	addi	sp,sp,16
    c0007354:	8082                	ret

00000000c0007356 <_read_r>:
    c0007356:	1141                	addi	sp,sp,-16
    c0007358:	e022                	sd	s0,0(sp)
    c000735a:	842a                	mv	s0,a0
    c000735c:	852e                	mv	a0,a1
    c000735e:	85b2                	mv	a1,a2
    c0007360:	8636                	mv	a2,a3
    c0007362:	00004797          	auipc	a5,0x4
    c0007366:	c607a723          	sw	zero,-914(a5) # c000afd0 <errno>
    c000736a:	e406                	sd	ra,8(sp)
    c000736c:	00000097          	auipc	ra,0x0
    c0007370:	294080e7          	jalr	660(ra) # c0007600 <_read>
    c0007374:	57fd                	li	a5,-1
    c0007376:	00f51963          	bne	a0,a5,c0007388 <_read_r+0x32>
    c000737a:	00004797          	auipc	a5,0x4
    c000737e:	c5678793          	addi	a5,a5,-938 # c000afd0 <errno>
    c0007382:	439c                	lw	a5,0(a5)
    c0007384:	c391                	beqz	a5,c0007388 <_read_r+0x32>
    c0007386:	c01c                	sw	a5,0(s0)
    c0007388:	60a2                	ld	ra,8(sp)
    c000738a:	6402                	ld	s0,0(sp)
    c000738c:	0141                	addi	sp,sp,16
    c000738e:	8082                	ret

00000000c0007390 <__ssprint_r>:
    c0007390:	6a1c                	ld	a5,16(a2)
    c0007392:	711d                	addi	sp,sp,-96
    c0007394:	fc4e                	sd	s3,56(sp)
    c0007396:	ec86                	sd	ra,88(sp)
    c0007398:	e8a2                	sd	s0,80(sp)
    c000739a:	e4a6                	sd	s1,72(sp)
    c000739c:	e0ca                	sd	s2,64(sp)
    c000739e:	f852                	sd	s4,48(sp)
    c00073a0:	f456                	sd	s5,40(sp)
    c00073a2:	f05a                	sd	s6,32(sp)
    c00073a4:	ec5e                	sd	s7,24(sp)
    c00073a6:	e862                	sd	s8,16(sp)
    c00073a8:	e466                	sd	s9,8(sp)
    c00073aa:	e06a                	sd	s10,0(sp)
    c00073ac:	89b2                	mv	s3,a2
    c00073ae:	cfed                	beqz	a5,c00074a8 <__ssprint_r+0x118>
    c00073b0:	00063b03          	ld	s6,0(a2)
    c00073b4:	8a2a                	mv	s4,a0
    c00073b6:	842e                	mv	s0,a1
    c00073b8:	4a81                	li	s5,0
    c00073ba:	4901                	li	s2,0
    c00073bc:	4b8d                	li	s7,3
    c00073be:	4c09                	li	s8,2
    c00073c0:	06090863          	beqz	s2,c0007430 <__ssprint_r+0xa0>
    c00073c4:	00c42d03          	lw	s10,12(s0)
    c00073c8:	0ba96363          	bltu	s2,s10,c000746e <__ssprint_r+0xde>
    c00073cc:	01045703          	lhu	a4,16(s0)
    c00073d0:	48077793          	andi	a5,a4,1152
    c00073d4:	cfc9                	beqz	a5,c000746e <__ssprint_r+0xde>
    c00073d6:	5004                	lw	s1,32(s0)
    c00073d8:	6c0c                	ld	a1,24(s0)
    c00073da:	601c                	ld	a5,0(s0)
    c00073dc:	029b84bb          	mulw	s1,s7,s1
    c00073e0:	8f8d                	sub	a5,a5,a1
    c00073e2:	00078c9b          	sext.w	s9,a5
    c00073e6:	001c8693          	addi	a3,s9,1
    c00073ea:	96ca                	add	a3,a3,s2
    c00073ec:	0384c4bb          	divw	s1,s1,s8
    c00073f0:	00d4f663          	bleu	a3,s1,c00073fc <__ssprint_r+0x6c>
    c00073f4:	0017849b          	addiw	s1,a5,1
    c00073f8:	012484bb          	addw	s1,s1,s2
    c00073fc:	40077713          	andi	a4,a4,1024
    c0007400:	c769                	beqz	a4,c00074ca <__ssprint_r+0x13a>
    c0007402:	85a6                	mv	a1,s1
    c0007404:	8552                	mv	a0,s4
    c0007406:	ffff9097          	auipc	ra,0xffff9
    c000740a:	2fc080e7          	jalr	764(ra) # c0000702 <_malloc_r>
    c000740e:	8d2a                	mv	s10,a0
    c0007410:	e515                	bnez	a0,c000743c <__ssprint_r+0xac>
    c0007412:	47b1                	li	a5,12
    c0007414:	00fa2023          	sw	a5,0(s4)
    c0007418:	01045783          	lhu	a5,16(s0)
    c000741c:	557d                	li	a0,-1
    c000741e:	0407e793          	ori	a5,a5,64
    c0007422:	00f41823          	sh	a5,16(s0)
    c0007426:	0009b823          	sd	zero,16(s3)
    c000742a:	0009a423          	sw	zero,8(s3)
    c000742e:	a041                	j	c00074ae <__ssprint_r+0x11e>
    c0007430:	000b3a83          	ld	s5,0(s6)
    c0007434:	008b3903          	ld	s2,8(s6)
    c0007438:	0b41                	addi	s6,s6,16
    c000743a:	b759                	j	c00073c0 <__ssprint_r+0x30>
    c000743c:	6c0c                	ld	a1,24(s0)
    c000743e:	8666                	mv	a2,s9
    c0007440:	ffffe097          	auipc	ra,0xffffe
    c0007444:	aac080e7          	jalr	-1364(ra) # c0004eec <memcpy>
    c0007448:	01045783          	lhu	a5,16(s0)
    c000744c:	b7f7f793          	andi	a5,a5,-1153
    c0007450:	0807e793          	ori	a5,a5,128
    c0007454:	00f41823          	sh	a5,16(s0)
    c0007458:	01a43c23          	sd	s10,24(s0)
    c000745c:	d004                	sw	s1,32(s0)
    c000745e:	9d66                	add	s10,s10,s9
    c0007460:	419484bb          	subw	s1,s1,s9
    c0007464:	01a43023          	sd	s10,0(s0)
    c0007468:	c444                	sw	s1,12(s0)
    c000746a:	00090d1b          	sext.w	s10,s2
    c000746e:	0009049b          	sext.w	s1,s2
    c0007472:	01a97363          	bleu	s10,s2,c0007478 <__ssprint_r+0xe8>
    c0007476:	8d26                	mv	s10,s1
    c0007478:	6008                	ld	a0,0(s0)
    c000747a:	866a                	mv	a2,s10
    c000747c:	85d6                	mv	a1,s5
    c000747e:	ffffe097          	auipc	ra,0xffffe
    c0007482:	b24080e7          	jalr	-1244(ra) # c0004fa2 <memmove>
    c0007486:	445c                	lw	a5,12(s0)
    c0007488:	9aa6                	add	s5,s5,s1
    c000748a:	40990933          	sub	s2,s2,s1
    c000748e:	41a787bb          	subw	a5,a5,s10
    c0007492:	c45c                	sw	a5,12(s0)
    c0007494:	601c                	ld	a5,0(s0)
    c0007496:	9d3e                	add	s10,s10,a5
    c0007498:	0109b783          	ld	a5,16(s3)
    c000749c:	01a43023          	sd	s10,0(s0)
    c00074a0:	8f85                	sub	a5,a5,s1
    c00074a2:	00f9b823          	sd	a5,16(s3)
    c00074a6:	ff89                	bnez	a5,c00073c0 <__ssprint_r+0x30>
    c00074a8:	0009a423          	sw	zero,8(s3)
    c00074ac:	4501                	li	a0,0
    c00074ae:	60e6                	ld	ra,88(sp)
    c00074b0:	6446                	ld	s0,80(sp)
    c00074b2:	64a6                	ld	s1,72(sp)
    c00074b4:	6906                	ld	s2,64(sp)
    c00074b6:	79e2                	ld	s3,56(sp)
    c00074b8:	7a42                	ld	s4,48(sp)
    c00074ba:	7aa2                	ld	s5,40(sp)
    c00074bc:	7b02                	ld	s6,32(sp)
    c00074be:	6be2                	ld	s7,24(sp)
    c00074c0:	6c42                	ld	s8,16(sp)
    c00074c2:	6ca2                	ld	s9,8(sp)
    c00074c4:	6d02                	ld	s10,0(sp)
    c00074c6:	6125                	addi	sp,sp,96
    c00074c8:	8082                	ret
    c00074ca:	8626                	mv	a2,s1
    c00074cc:	8552                	mv	a0,s4
    c00074ce:	ffffe097          	auipc	ra,0xffffe
    c00074d2:	c48080e7          	jalr	-952(ra) # c0005116 <_realloc_r>
    c00074d6:	8d2a                	mv	s10,a0
    c00074d8:	f141                	bnez	a0,c0007458 <__ssprint_r+0xc8>
    c00074da:	6c0c                	ld	a1,24(s0)
    c00074dc:	8552                	mv	a0,s4
    c00074de:	ffffc097          	auipc	ra,0xffffc
    c00074e2:	8fc080e7          	jalr	-1796(ra) # c0002dda <_free_r>
    c00074e6:	b735                	j	c0007412 <__ssprint_r+0x82>

00000000c00074e8 <_wcrtomb_r>:
    c00074e8:	7179                	addi	sp,sp,-48
    c00074ea:	f022                	sd	s0,32(sp)
    c00074ec:	ec26                	sd	s1,24(sp)
    c00074ee:	00003797          	auipc	a5,0x3
    c00074f2:	44278793          	addi	a5,a5,1090 # c000a930 <__global_locale>
    c00074f6:	f406                	sd	ra,40(sp)
    c00074f8:	842a                	mv	s0,a0
    c00074fa:	84b6                	mv	s1,a3
    c00074fc:	73fc                	ld	a5,224(a5)
    c00074fe:	e199                	bnez	a1,c0007504 <_wcrtomb_r+0x1c>
    c0007500:	4601                	li	a2,0
    c0007502:	858a                	mv	a1,sp
    c0007504:	9782                	jalr	a5
    c0007506:	57fd                	li	a5,-1
    c0007508:	00f51763          	bne	a0,a5,c0007516 <_wcrtomb_r+0x2e>
    c000750c:	0004a023          	sw	zero,0(s1)
    c0007510:	08a00793          	li	a5,138
    c0007514:	c01c                	sw	a5,0(s0)
    c0007516:	70a2                	ld	ra,40(sp)
    c0007518:	7402                	ld	s0,32(sp)
    c000751a:	64e2                	ld	s1,24(sp)
    c000751c:	6145                	addi	sp,sp,48
    c000751e:	8082                	ret

00000000c0007520 <_close>:
    c0007520:	1141                	addi	sp,sp,-16
    c0007522:	e406                	sd	ra,8(sp)
    c0007524:	e022                	sd	s0,0(sp)
    c0007526:	4581                	li	a1,0
    c0007528:	4601                	li	a2,0
    c000752a:	4681                	li	a3,0
    c000752c:	4701                	li	a4,0
    c000752e:	4781                	li	a5,0
    c0007530:	03900893          	li	a7,57
    c0007534:	00000073          	ecall
    c0007538:	842a                	mv	s0,a0
    c000753a:	00055a63          	bgez	a0,c000754e <_close+0x2e>
    c000753e:	4080043b          	negw	s0,s0
    c0007542:	00000097          	auipc	ra,0x0
    c0007546:	1dc080e7          	jalr	476(ra) # c000771e <__errno>
    c000754a:	c100                	sw	s0,0(a0)
    c000754c:	547d                	li	s0,-1
    c000754e:	0004051b          	sext.w	a0,s0
    c0007552:	60a2                	ld	ra,8(sp)
    c0007554:	6402                	ld	s0,0(sp)
    c0007556:	0141                	addi	sp,sp,16
    c0007558:	8082                	ret

00000000c000755a <_fstat>:
    c000755a:	7135                	addi	sp,sp,-160
    c000755c:	e526                	sd	s1,136(sp)
    c000755e:	ed06                	sd	ra,152(sp)
    c0007560:	84ae                	mv	s1,a1
    c0007562:	e922                	sd	s0,144(sp)
    c0007564:	858a                	mv	a1,sp
    c0007566:	4601                	li	a2,0
    c0007568:	4681                	li	a3,0
    c000756a:	4701                	li	a4,0
    c000756c:	4781                	li	a5,0
    c000756e:	05000893          	li	a7,80
    c0007572:	00000073          	ecall
    c0007576:	842a                	mv	s0,a0
    c0007578:	00055a63          	bgez	a0,c000758c <_fstat+0x32>
    c000757c:	4080043b          	negw	s0,s0
    c0007580:	00000097          	auipc	ra,0x0
    c0007584:	19e080e7          	jalr	414(ra) # c000771e <__errno>
    c0007588:	c100                	sw	s0,0(a0)
    c000758a:	547d                	li	s0,-1
    c000758c:	8526                	mv	a0,s1
    c000758e:	858a                	mv	a1,sp
    c0007590:	00000097          	auipc	ra,0x0
    c0007594:	14c080e7          	jalr	332(ra) # c00076dc <_conv_stat>
    c0007598:	0004051b          	sext.w	a0,s0
    c000759c:	60ea                	ld	ra,152(sp)
    c000759e:	644a                	ld	s0,144(sp)
    c00075a0:	64aa                	ld	s1,136(sp)
    c00075a2:	610d                	addi	sp,sp,160
    c00075a4:	8082                	ret

00000000c00075a6 <_isatty>:
    c00075a6:	7119                	addi	sp,sp,-128
    c00075a8:	002c                	addi	a1,sp,8
    c00075aa:	fc86                	sd	ra,120(sp)
    c00075ac:	00000097          	auipc	ra,0x0
    c00075b0:	fae080e7          	jalr	-82(ra) # c000755a <_fstat>
    c00075b4:	57fd                	li	a5,-1
    c00075b6:	00f50963          	beq	a0,a5,c00075c8 <_isatty+0x22>
    c00075ba:	4532                	lw	a0,12(sp)
    c00075bc:	40d5551b          	sraiw	a0,a0,0xd
    c00075c0:	8905                	andi	a0,a0,1
    c00075c2:	70e6                	ld	ra,120(sp)
    c00075c4:	6109                	addi	sp,sp,128
    c00075c6:	8082                	ret
    c00075c8:	4501                	li	a0,0
    c00075ca:	bfe5                	j	c00075c2 <_isatty+0x1c>

00000000c00075cc <_lseek>:
    c00075cc:	1141                	addi	sp,sp,-16
    c00075ce:	e406                	sd	ra,8(sp)
    c00075d0:	e022                	sd	s0,0(sp)
    c00075d2:	4681                	li	a3,0
    c00075d4:	4701                	li	a4,0
    c00075d6:	4781                	li	a5,0
    c00075d8:	03e00893          	li	a7,62
    c00075dc:	00000073          	ecall
    c00075e0:	842a                	mv	s0,a0
    c00075e2:	00055a63          	bgez	a0,c00075f6 <_lseek+0x2a>
    c00075e6:	4080043b          	negw	s0,s0
    c00075ea:	00000097          	auipc	ra,0x0
    c00075ee:	134080e7          	jalr	308(ra) # c000771e <__errno>
    c00075f2:	c100                	sw	s0,0(a0)
    c00075f4:	547d                	li	s0,-1
    c00075f6:	8522                	mv	a0,s0
    c00075f8:	60a2                	ld	ra,8(sp)
    c00075fa:	6402                	ld	s0,0(sp)
    c00075fc:	0141                	addi	sp,sp,16
    c00075fe:	8082                	ret

00000000c0007600 <_read>:
    c0007600:	1141                	addi	sp,sp,-16
    c0007602:	e406                	sd	ra,8(sp)
    c0007604:	e022                	sd	s0,0(sp)
    c0007606:	4681                	li	a3,0
    c0007608:	4701                	li	a4,0
    c000760a:	4781                	li	a5,0
    c000760c:	03f00893          	li	a7,63
    c0007610:	00000073          	ecall
    c0007614:	842a                	mv	s0,a0
    c0007616:	00055a63          	bgez	a0,c000762a <_read+0x2a>
    c000761a:	4080043b          	negw	s0,s0
    c000761e:	00000097          	auipc	ra,0x0
    c0007622:	100080e7          	jalr	256(ra) # c000771e <__errno>
    c0007626:	c100                	sw	s0,0(a0)
    c0007628:	547d                	li	s0,-1
    c000762a:	8522                	mv	a0,s0
    c000762c:	60a2                	ld	ra,8(sp)
    c000762e:	6402                	ld	s0,0(sp)
    c0007630:	0141                	addi	sp,sp,16
    c0007632:	8082                	ret

00000000c0007634 <_sbrk>:
    c0007634:	00003797          	auipc	a5,0x3
    c0007638:	50478793          	addi	a5,a5,1284 # c000ab38 <heap_end.1919>
    c000763c:	6398                	ld	a4,0(a5)
    c000763e:	1141                	addi	sp,sp,-16
    c0007640:	e406                	sd	ra,8(sp)
    c0007642:	832a                	mv	t1,a0
    c0007644:	883e                	mv	a6,a5
    c0007646:	eb1d                	bnez	a4,c000767c <_sbrk+0x48>
    c0007648:	4501                	li	a0,0
    c000764a:	4581                	li	a1,0
    c000764c:	4601                	li	a2,0
    c000764e:	4681                	li	a3,0
    c0007650:	4781                	li	a5,0
    c0007652:	0d600893          	li	a7,214
    c0007656:	00000073          	ecall
    c000765a:	57fd                	li	a5,-1
    c000765c:	00f51c63          	bne	a0,a5,c0007674 <_sbrk+0x40>
    c0007660:	00000097          	auipc	ra,0x0
    c0007664:	0be080e7          	jalr	190(ra) # c000771e <__errno>
    c0007668:	47b1                	li	a5,12
    c000766a:	c11c                	sw	a5,0(a0)
    c000766c:	557d                	li	a0,-1
    c000766e:	60a2                	ld	ra,8(sp)
    c0007670:	0141                	addi	sp,sp,16
    c0007672:	8082                	ret
    c0007674:	00003797          	auipc	a5,0x3
    c0007678:	4ca7b223          	sd	a0,1220(a5) # c000ab38 <heap_end.1919>
    c000767c:	00083803          	ld	a6,0(a6)
    c0007680:	4581                	li	a1,0
    c0007682:	4601                	li	a2,0
    c0007684:	01030533          	add	a0,t1,a6
    c0007688:	4681                	li	a3,0
    c000768a:	4701                	li	a4,0
    c000768c:	4781                	li	a5,0
    c000768e:	0d600893          	li	a7,214
    c0007692:	00000073          	ecall
    c0007696:	9342                	add	t1,t1,a6
    c0007698:	fc6514e3          	bne	a0,t1,c0007660 <_sbrk+0x2c>
    c000769c:	00003797          	auipc	a5,0x3
    c00076a0:	48a7be23          	sd	a0,1180(a5) # c000ab38 <heap_end.1919>
    c00076a4:	8542                	mv	a0,a6
    c00076a6:	b7e1                	j	c000766e <_sbrk+0x3a>

00000000c00076a8 <_write>:
    c00076a8:	1141                	addi	sp,sp,-16
    c00076aa:	e406                	sd	ra,8(sp)
    c00076ac:	e022                	sd	s0,0(sp)
    c00076ae:	4681                	li	a3,0
    c00076b0:	4701                	li	a4,0
    c00076b2:	4781                	li	a5,0
    c00076b4:	04000893          	li	a7,64
    c00076b8:	00000073          	ecall
    c00076bc:	842a                	mv	s0,a0
    c00076be:	00055a63          	bgez	a0,c00076d2 <_write+0x2a>
    c00076c2:	4080043b          	negw	s0,s0
    c00076c6:	00000097          	auipc	ra,0x0
    c00076ca:	058080e7          	jalr	88(ra) # c000771e <__errno>
    c00076ce:	c100                	sw	s0,0(a0)
    c00076d0:	547d                	li	s0,-1
    c00076d2:	8522                	mv	a0,s0
    c00076d4:	60a2                	ld	ra,8(sp)
    c00076d6:	6402                	ld	s0,0(sp)
    c00076d8:	0141                	addi	sp,sp,16
    c00076da:	8082                	ret

00000000c00076dc <_conv_stat>:
    c00076dc:	619c                	ld	a5,0(a1)
    c00076de:	00f51023          	sh	a5,0(a0)
    c00076e2:	659c                	ld	a5,8(a1)
    c00076e4:	00f51123          	sh	a5,2(a0)
    c00076e8:	499c                	lw	a5,16(a1)
    c00076ea:	c15c                	sw	a5,4(a0)
    c00076ec:	49dc                	lw	a5,20(a1)
    c00076ee:	00f51423          	sh	a5,8(a0)
    c00076f2:	4d9c                	lw	a5,24(a1)
    c00076f4:	00f51523          	sh	a5,10(a0)
    c00076f8:	4ddc                	lw	a5,28(a1)
    c00076fa:	00f51623          	sh	a5,12(a0)
    c00076fe:	719c                	ld	a5,32(a1)
    c0007700:	00f51723          	sh	a5,14(a0)
    c0007704:	799c                	ld	a5,48(a1)
    c0007706:	e91c                	sd	a5,16(a0)
    c0007708:	61bc                	ld	a5,64(a1)
    c000770a:	e93c                	sd	a5,80(a0)
    c000770c:	5d9c                	lw	a5,56(a1)
    c000770e:	e53c                	sd	a5,72(a0)
    c0007710:	65bc                	ld	a5,72(a1)
    c0007712:	ed1c                	sd	a5,24(a0)
    c0007714:	6dbc                	ld	a5,88(a1)
    c0007716:	f51c                	sd	a5,40(a0)
    c0007718:	75bc                	ld	a5,104(a1)
    c000771a:	fd1c                	sd	a5,56(a0)
    c000771c:	8082                	ret

00000000c000771e <__errno>:
    c000771e:	00003797          	auipc	a5,0x3
    c0007722:	3ba78793          	addi	a5,a5,954 # c000aad8 <_impure_ptr>
    c0007726:	6388                	ld	a0,0(a5)
    c0007728:	8082                	ret

00000000c000772a <__muldf3>:
    c000772a:	715d                	addi	sp,sp,-80
    c000772c:	e45e                	sd	s7,8(sp)
    c000772e:	e486                	sd	ra,72(sp)
    c0007730:	e0a2                	sd	s0,64(sp)
    c0007732:	fc26                	sd	s1,56(sp)
    c0007734:	f84a                	sd	s2,48(sp)
    c0007736:	f44e                	sd	s3,40(sp)
    c0007738:	f052                	sd	s4,32(sp)
    c000773a:	ec56                	sd	s5,24(sp)
    c000773c:	e85a                	sd	s6,16(sp)
    c000773e:	8bae                	mv	s7,a1
    c0007740:	00202af3          	frrm	s5
    c0007744:	54fd                	li	s1,-1
    c0007746:	03455913          	srli	s2,a0,0x34
    c000774a:	80b1                	srli	s1,s1,0xc
    c000774c:	7ff97913          	andi	s2,s2,2047
    c0007750:	2a81                	sext.w	s5,s5
    c0007752:	8ce9                	and	s1,s1,a0
    c0007754:	03f55993          	srli	s3,a0,0x3f
    c0007758:	00090f63          	beqz	s2,c0007776 <__muldf3+0x4c>
    c000775c:	7ff00793          	li	a5,2047
    c0007760:	02f90b63          	beq	s2,a5,c0007796 <__muldf3+0x6c>
    c0007764:	4785                	li	a5,1
    c0007766:	048e                	slli	s1,s1,0x3
    c0007768:	17de                	slli	a5,a5,0x37
    c000776a:	8cdd                	or	s1,s1,a5
    c000776c:	c0190913          	addi	s2,s2,-1023
    c0007770:	4b01                	li	s6,0
    c0007772:	4a01                	li	s4,0
    c0007774:	a815                	j	c00077a8 <__muldf3+0x7e>
    c0007776:	c4c1                	beqz	s1,c00077fe <__muldf3+0xd4>
    c0007778:	8526                	mv	a0,s1
    c000777a:	00001097          	auipc	ra,0x1
    c000777e:	798080e7          	jalr	1944(ra) # c0008f12 <__clzdi2>
    c0007782:	2501                	sext.w	a0,a0
    c0007784:	ff85079b          	addiw	a5,a0,-8
    c0007788:	c0d00913          	li	s2,-1011
    c000778c:	00f494b3          	sll	s1,s1,a5
    c0007790:	40a90933          	sub	s2,s2,a0
    c0007794:	bff1                	j	c0007770 <__muldf3+0x46>
    c0007796:	c4bd                	beqz	s1,c0007804 <__muldf3+0xda>
    c0007798:	00c49793          	slli	a5,s1,0xc
    c000779c:	7ff00913          	li	s2,2047
    c00077a0:	4b0d                	li	s6,3
    c00077a2:	4a41                	li	s4,16
    c00077a4:	fc07c7e3          	bltz	a5,c0007772 <__muldf3+0x48>
    c00077a8:	034bd793          	srli	a5,s7,0x34
    c00077ac:	547d                	li	s0,-1
    c00077ae:	8031                	srli	s0,s0,0xc
    c00077b0:	7ff7f793          	andi	a5,a5,2047
    c00077b4:	01747433          	and	s0,s0,s7
    c00077b8:	03fbdb93          	srli	s7,s7,0x3f
    c00077bc:	cba1                	beqz	a5,c000780c <__muldf3+0xe2>
    c00077be:	7ff00713          	li	a4,2047
    c00077c2:	06e78463          	beq	a5,a4,c000782a <__muldf3+0x100>
    c00077c6:	4705                	li	a4,1
    c00077c8:	040e                	slli	s0,s0,0x3
    c00077ca:	175e                	slli	a4,a4,0x37
    c00077cc:	8c59                	or	s0,s0,a4
    c00077ce:	c0178793          	addi	a5,a5,-1023
    c00077d2:	4701                	li	a4,0
    c00077d4:	002b1693          	slli	a3,s6,0x2
    c00077d8:	8ed9                	or	a3,a3,a4
    c00077da:	97ca                	add	a5,a5,s2
    c00077dc:	16fd                	addi	a3,a3,-1
    c00077de:	45b9                	li	a1,14
    c00077e0:	0179c633          	xor	a2,s3,s7
    c00077e4:	00178813          	addi	a6,a5,1
    c00077e8:	0ad5e563          	bltu	a1,a3,c0007892 <__muldf3+0x168>
    c00077ec:	00002597          	auipc	a1,0x2
    c00077f0:	04058593          	addi	a1,a1,64 # c000982c <_ctype_+0x104>
    c00077f4:	068a                	slli	a3,a3,0x2
    c00077f6:	96ae                	add	a3,a3,a1
    c00077f8:	429c                	lw	a5,0(a3)
    c00077fa:	97ae                	add	a5,a5,a1
    c00077fc:	8782                	jr	a5
    c00077fe:	4901                	li	s2,0
    c0007800:	4b05                	li	s6,1
    c0007802:	bf85                	j	c0007772 <__muldf3+0x48>
    c0007804:	7ff00913          	li	s2,2047
    c0007808:	4b09                	li	s6,2
    c000780a:	b7a5                	j	c0007772 <__muldf3+0x48>
    c000780c:	c80d                	beqz	s0,c000783e <__muldf3+0x114>
    c000780e:	8522                	mv	a0,s0
    c0007810:	00001097          	auipc	ra,0x1
    c0007814:	702080e7          	jalr	1794(ra) # c0008f12 <__clzdi2>
    c0007818:	2501                	sext.w	a0,a0
    c000781a:	ff85079b          	addiw	a5,a0,-8
    c000781e:	00f41433          	sll	s0,s0,a5
    c0007822:	c0d00793          	li	a5,-1011
    c0007826:	8f89                	sub	a5,a5,a0
    c0007828:	b76d                	j	c00077d2 <__muldf3+0xa8>
    c000782a:	cc09                	beqz	s0,c0007844 <__muldf3+0x11a>
    c000782c:	00c41793          	slli	a5,s0,0xc
    c0007830:	0007ce63          	bltz	a5,c000784c <__muldf3+0x122>
    c0007834:	7ff00793          	li	a5,2047
    c0007838:	470d                	li	a4,3
    c000783a:	4a41                	li	s4,16
    c000783c:	bf61                	j	c00077d4 <__muldf3+0xaa>
    c000783e:	4781                	li	a5,0
    c0007840:	4705                	li	a4,1
    c0007842:	bf49                	j	c00077d4 <__muldf3+0xaa>
    c0007844:	7ff00793          	li	a5,2047
    c0007848:	4709                	li	a4,2
    c000784a:	b769                	j	c00077d4 <__muldf3+0xaa>
    c000784c:	7ff00793          	li	a5,2047
    c0007850:	470d                	li	a4,3
    c0007852:	b749                	j	c00077d4 <__muldf3+0xaa>
    c0007854:	4405                	li	s0,1
    c0007856:	144e                	slli	s0,s0,0x33
    c0007858:	7ff00793          	li	a5,2047
    c000785c:	4601                	li	a2,0
    c000785e:	4a41                	li	s4,16
    c0007860:	557d                	li	a0,-1
    c0007862:	7ff7f793          	andi	a5,a5,2047
    c0007866:	8131                	srli	a0,a0,0xc
    c0007868:	8d61                	and	a0,a0,s0
    c000786a:	17d2                	slli	a5,a5,0x34
    c000786c:	03f61413          	slli	s0,a2,0x3f
    c0007870:	8d5d                	or	a0,a0,a5
    c0007872:	8d41                	or	a0,a0,s0
    c0007874:	000a0463          	beqz	s4,c000787c <__muldf3+0x152>
    c0007878:	001a2073          	csrs	fflags,s4
    c000787c:	60a6                	ld	ra,72(sp)
    c000787e:	6406                	ld	s0,64(sp)
    c0007880:	74e2                	ld	s1,56(sp)
    c0007882:	7942                	ld	s2,48(sp)
    c0007884:	79a2                	ld	s3,40(sp)
    c0007886:	7a02                	ld	s4,32(sp)
    c0007888:	6ae2                	ld	s5,24(sp)
    c000788a:	6b42                	ld	s6,16(sp)
    c000788c:	6ba2                	ld	s7,8(sp)
    c000788e:	6161                	addi	sp,sp,80
    c0007890:	8082                	ret
    c0007892:	577d                	li	a4,-1
    c0007894:	9301                	srli	a4,a4,0x20
    c0007896:	0204d693          	srli	a3,s1,0x20
    c000789a:	02045593          	srli	a1,s0,0x20
    c000789e:	8cf9                	and	s1,s1,a4
    c00078a0:	8c79                	and	s0,s0,a4
    c00078a2:	02940533          	mul	a0,s0,s1
    c00078a6:	02868433          	mul	s0,a3,s0
    c00078aa:	02b686b3          	mul	a3,a3,a1
    c00078ae:	029585b3          	mul	a1,a1,s1
    c00078b2:	02055493          	srli	s1,a0,0x20
    c00078b6:	95a2                	add	a1,a1,s0
    c00078b8:	94ae                	add	s1,s1,a1
    c00078ba:	0084f563          	bleu	s0,s1,c00078c4 <__muldf3+0x19a>
    c00078be:	4705                	li	a4,1
    c00078c0:	1702                	slli	a4,a4,0x20
    c00078c2:	96ba                	add	a3,a3,a4
    c00078c4:	547d                	li	s0,-1
    c00078c6:	9001                	srli	s0,s0,0x20
    c00078c8:	0084f733          	and	a4,s1,s0
    c00078cc:	8d61                	and	a0,a0,s0
    c00078ce:	1702                	slli	a4,a4,0x20
    c00078d0:	972a                	add	a4,a4,a0
    c00078d2:	00971413          	slli	s0,a4,0x9
    c00078d6:	9081                	srli	s1,s1,0x20
    c00078d8:	00803433          	snez	s0,s0
    c00078dc:	935d                	srli	a4,a4,0x37
    c00078de:	94b6                	add	s1,s1,a3
    c00078e0:	8f41                	or	a4,a4,s0
    c00078e2:	04a6                	slli	s1,s1,0x9
    c00078e4:	00e4e433          	or	s0,s1,a4
    c00078e8:	00741713          	slli	a4,s0,0x7
    c00078ec:	08075a63          	bgez	a4,c0007980 <__muldf3+0x256>
    c00078f0:	00145793          	srli	a5,s0,0x1
    c00078f4:	8805                	andi	s0,s0,1
    c00078f6:	8c5d                	or	s0,s0,a5
    c00078f8:	3ff80793          	addi	a5,a6,1023
    c00078fc:	0af05063          	blez	a5,c000799c <__muldf3+0x272>
    c0007900:	00747713          	andi	a4,s0,7
    c0007904:	c30d                	beqz	a4,c0007926 <__muldf3+0x1fc>
    c0007906:	4709                	li	a4,2
    c0007908:	001a6a13          	ori	s4,s4,1
    c000790c:	06ea8f63          	beq	s5,a4,c000798a <__muldf3+0x260>
    c0007910:	470d                	li	a4,3
    c0007912:	06ea8963          	beq	s5,a4,c0007984 <__muldf3+0x25a>
    c0007916:	000a9863          	bnez	s5,c0007926 <__muldf3+0x1fc>
    c000791a:	00f47713          	andi	a4,s0,15
    c000791e:	4691                	li	a3,4
    c0007920:	00d70363          	beq	a4,a3,c0007926 <__muldf3+0x1fc>
    c0007924:	0411                	addi	s0,s0,4
    c0007926:	00741713          	slli	a4,s0,0x7
    c000792a:	00075863          	bgez	a4,c000793a <__muldf3+0x210>
    c000792e:	57fd                	li	a5,-1
    c0007930:	17e2                	slli	a5,a5,0x38
    c0007932:	17fd                	addi	a5,a5,-1
    c0007934:	8c7d                	and	s0,s0,a5
    c0007936:	40080793          	addi	a5,a6,1024
    c000793a:	7fe00713          	li	a4,2046
    c000793e:	800d                	srli	s0,s0,0x3
    c0007940:	f2f750e3          	ble	a5,a4,c0007860 <__muldf3+0x136>
    c0007944:	4789                	li	a5,2
    c0007946:	04fa8963          	beq	s5,a5,c0007998 <__muldf3+0x26e>
    c000794a:	478d                	li	a5,3
    c000794c:	04fa8163          	beq	s5,a5,c000798e <__muldf3+0x264>
    c0007950:	040a8063          	beqz	s5,c0007990 <__muldf3+0x266>
    c0007954:	547d                	li	s0,-1
    c0007956:	7fe00793          	li	a5,2046
    c000795a:	005a6a13          	ori	s4,s4,5
    c000795e:	b709                	j	c0007860 <__muldf3+0x136>
    c0007960:	864e                	mv	a2,s3
    c0007962:	8426                	mv	s0,s1
    c0007964:	875a                	mv	a4,s6
    c0007966:	4789                	li	a5,2
    c0007968:	12f70563          	beq	a4,a5,c0007a92 <__muldf3+0x368>
    c000796c:	478d                	li	a5,3
    c000796e:	12f70663          	beq	a4,a5,c0007a9a <__muldf3+0x370>
    c0007972:	4785                	li	a5,1
    c0007974:	f8f712e3          	bne	a4,a5,c00078f8 <__muldf3+0x1ce>
    c0007978:	4401                	li	s0,0
    c000797a:	a239                	j	c0007a88 <__muldf3+0x35e>
    c000797c:	865e                	mv	a2,s7
    c000797e:	b7e5                	j	c0007966 <__muldf3+0x23c>
    c0007980:	883e                	mv	a6,a5
    c0007982:	bf9d                	j	c00078f8 <__muldf3+0x1ce>
    c0007984:	f24d                	bnez	a2,c0007926 <__muldf3+0x1fc>
    c0007986:	0421                	addi	s0,s0,8
    c0007988:	bf79                	j	c0007926 <__muldf3+0x1fc>
    c000798a:	de51                	beqz	a2,c0007926 <__muldf3+0x1fc>
    c000798c:	bfed                	j	c0007986 <__muldf3+0x25c>
    c000798e:	f279                	bnez	a2,c0007954 <__muldf3+0x22a>
    c0007990:	4401                	li	s0,0
    c0007992:	7ff00793          	li	a5,2047
    c0007996:	b7d1                	j	c000795a <__muldf3+0x230>
    c0007998:	fe65                	bnez	a2,c0007990 <__muldf3+0x266>
    c000799a:	bf6d                	j	c0007954 <__muldf3+0x22a>
    c000799c:	4705                	li	a4,1
    c000799e:	eb9d                	bnez	a5,c00079d4 <__muldf3+0x2aa>
    c00079a0:	00747693          	andi	a3,s0,7
    c00079a4:	8722                	mv	a4,s0
    c00079a6:	c29d                	beqz	a3,c00079cc <__muldf3+0x2a2>
    c00079a8:	4709                	li	a4,2
    c00079aa:	001a6a13          	ori	s4,s4,1
    c00079ae:	08ea8b63          	beq	s5,a4,c0007a44 <__muldf3+0x31a>
    c00079b2:	470d                	li	a4,3
    c00079b4:	08ea8363          	beq	s5,a4,c0007a3a <__muldf3+0x310>
    c00079b8:	8722                	mv	a4,s0
    c00079ba:	000a9963          	bnez	s5,c00079cc <__muldf3+0x2a2>
    c00079be:	00f47693          	andi	a3,s0,15
    c00079c2:	4591                	li	a1,4
    c00079c4:	00b68463          	beq	a3,a1,c00079cc <__muldf3+0x2a2>
    c00079c8:	00440713          	addi	a4,s0,4
    c00079cc:	9361                	srli	a4,a4,0x38
    c00079ce:	00174713          	xori	a4,a4,1
    c00079d2:	8b05                	andi	a4,a4,1
    c00079d4:	4505                	li	a0,1
    c00079d6:	40f507b3          	sub	a5,a0,a5
    c00079da:	03800693          	li	a3,56
    c00079de:	08f6c263          	blt	a3,a5,c0007a62 <__muldf3+0x338>
    c00079e2:	0007851b          	sext.w	a0,a5
    c00079e6:	04000793          	li	a5,64
    c00079ea:	9f89                	subw	a5,a5,a0
    c00079ec:	00a456b3          	srl	a3,s0,a0
    c00079f0:	00f41433          	sll	s0,s0,a5
    c00079f4:	00803433          	snez	s0,s0
    c00079f8:	8c55                	or	s0,s0,a3
    c00079fa:	00747793          	andi	a5,s0,7
    c00079fe:	c38d                	beqz	a5,c0007a20 <__muldf3+0x2f6>
    c0007a00:	4789                	li	a5,2
    c0007a02:	001a6a13          	ori	s4,s4,1
    c0007a06:	04fa8563          	beq	s5,a5,c0007a50 <__muldf3+0x326>
    c0007a0a:	478d                	li	a5,3
    c0007a0c:	02fa8f63          	beq	s5,a5,c0007a4a <__muldf3+0x320>
    c0007a10:	000a9863          	bnez	s5,c0007a20 <__muldf3+0x2f6>
    c0007a14:	00f47793          	andi	a5,s0,15
    c0007a18:	4691                	li	a3,4
    c0007a1a:	00d78363          	beq	a5,a3,c0007a20 <__muldf3+0x2f6>
    c0007a1e:	0411                	addi	s0,s0,4
    c0007a20:	00841793          	slli	a5,s0,0x8
    c0007a24:	0207d863          	bgez	a5,c0007a54 <__muldf3+0x32a>
    c0007a28:	001a6a13          	ori	s4,s4,1
    c0007a2c:	4401                	li	s0,0
    c0007a2e:	4785                	li	a5,1
    c0007a30:	e20708e3          	beqz	a4,c0007860 <__muldf3+0x136>
    c0007a34:	002a6a13          	ori	s4,s4,2
    c0007a38:	b525                	j	c0007860 <__muldf3+0x136>
    c0007a3a:	8722                	mv	a4,s0
    c0007a3c:	fa41                	bnez	a2,c00079cc <__muldf3+0x2a2>
    c0007a3e:	00840713          	addi	a4,s0,8
    c0007a42:	b769                	j	c00079cc <__muldf3+0x2a2>
    c0007a44:	8722                	mv	a4,s0
    c0007a46:	d259                	beqz	a2,c00079cc <__muldf3+0x2a2>
    c0007a48:	bfdd                	j	c0007a3e <__muldf3+0x314>
    c0007a4a:	fa79                	bnez	a2,c0007a20 <__muldf3+0x2f6>
    c0007a4c:	0421                	addi	s0,s0,8
    c0007a4e:	bfc9                	j	c0007a20 <__muldf3+0x2f6>
    c0007a50:	da61                	beqz	a2,c0007a20 <__muldf3+0x2f6>
    c0007a52:	bfed                	j	c0007a4c <__muldf3+0x322>
    c0007a54:	800d                	srli	s0,s0,0x3
    c0007a56:	4781                	li	a5,0
    c0007a58:	e00704e3          	beqz	a4,c0007860 <__muldf3+0x136>
    c0007a5c:	001a7713          	andi	a4,s4,1
    c0007a60:	bfc1                	j	c0007a30 <__muldf3+0x306>
    c0007a62:	c00d                	beqz	s0,c0007a84 <__muldf3+0x35a>
    c0007a64:	4789                	li	a5,2
    c0007a66:	001a6a13          	ori	s4,s4,1
    c0007a6a:	02fa8163          	beq	s5,a5,c0007a8c <__muldf3+0x362>
    c0007a6e:	478d                	li	a5,3
    c0007a70:	00fa8763          	beq	s5,a5,c0007a7e <__muldf3+0x354>
    c0007a74:	4415                	li	s0,5
    c0007a76:	000a8663          	beqz	s5,c0007a82 <__muldf3+0x358>
    c0007a7a:	4405                	li	s0,1
    c0007a7c:	a019                	j	c0007a82 <__muldf3+0x358>
    c0007a7e:	4425                	li	s0,9
    c0007a80:	fe6d                	bnez	a2,c0007a7a <__muldf3+0x350>
    c0007a82:	800d                	srli	s0,s0,0x3
    c0007a84:	002a6a13          	ori	s4,s4,2
    c0007a88:	4781                	li	a5,0
    c0007a8a:	bbd9                	j	c0007860 <__muldf3+0x136>
    c0007a8c:	4425                	li	s0,9
    c0007a8e:	fa75                	bnez	a2,c0007a82 <__muldf3+0x358>
    c0007a90:	b7ed                	j	c0007a7a <__muldf3+0x350>
    c0007a92:	4401                	li	s0,0
    c0007a94:	7ff00793          	li	a5,2047
    c0007a98:	b3e1                	j	c0007860 <__muldf3+0x136>
    c0007a9a:	4405                	li	s0,1
    c0007a9c:	144e                	slli	s0,s0,0x33
    c0007a9e:	7ff00793          	li	a5,2047
    c0007aa2:	4601                	li	a2,0
    c0007aa4:	bb75                	j	c0007860 <__muldf3+0x136>

00000000c0007aa6 <__eqtf2>:
    c0007aa6:	002027f3          	frrm	a5
    c0007aaa:	6721                	lui	a4,0x8
    c0007aac:	0305d893          	srli	a7,a1,0x30
    c0007ab0:	177d                	addi	a4,a4,-1
    c0007ab2:	57fd                	li	a5,-1
    c0007ab4:	83c1                	srli	a5,a5,0x10
    c0007ab6:	0306d313          	srli	t1,a3,0x30
    c0007aba:	00e8f8b3          	and	a7,a7,a4
    c0007abe:	00f5f833          	and	a6,a1,a5
    c0007ac2:	00e37333          	and	t1,t1,a4
    c0007ac6:	8ff5                	and	a5,a5,a3
    c0007ac8:	91fd                	srli	a1,a1,0x3f
    c0007aca:	92fd                	srli	a3,a3,0x3f
    c0007acc:	00e89963          	bne	a7,a4,c0007ade <__eqtf2+0x38>
    c0007ad0:	00a86733          	or	a4,a6,a0
    c0007ad4:	e739                	bnez	a4,c0007b22 <__eqtf2+0x7c>
    c0007ad6:	4705                	li	a4,1
    c0007ad8:	03131763          	bne	t1,a7,c0007b06 <__eqtf2+0x60>
    c0007adc:	a019                	j	c0007ae2 <__eqtf2+0x3c>
    c0007ade:	00e31563          	bne	t1,a4,c0007ae8 <__eqtf2+0x42>
    c0007ae2:	00c7e733          	or	a4,a5,a2
    c0007ae6:	e71d                	bnez	a4,c0007b14 <__eqtf2+0x6e>
    c0007ae8:	4705                	li	a4,1
    c0007aea:	00689e63          	bne	a7,t1,c0007b06 <__eqtf2+0x60>
    c0007aee:	00f81c63          	bne	a6,a5,c0007b06 <__eqtf2+0x60>
    c0007af2:	00c51a63          	bne	a0,a2,c0007b06 <__eqtf2+0x60>
    c0007af6:	00d58a63          	beq	a1,a3,c0007b0a <__eqtf2+0x64>
    c0007afa:	00089663          	bnez	a7,c0007b06 <__eqtf2+0x60>
    c0007afe:	00a86733          	or	a4,a6,a0
    c0007b02:	00e03733          	snez	a4,a4
    c0007b06:	853a                	mv	a0,a4
    c0007b08:	8082                	ret
    c0007b0a:	4701                	li	a4,0
    c0007b0c:	bfed                	j	c0007b06 <__eqtf2+0x60>
    c0007b0e:	00186073          	csrsi	fflags,16
    c0007b12:	a02d                	j	c0007b3c <__eqtf2+0x96>
    c0007b14:	6721                	lui	a4,0x8
    c0007b16:	177d                	addi	a4,a4,-1
    c0007b18:	02e89063          	bne	a7,a4,c0007b38 <__eqtf2+0x92>
    c0007b1c:	00a86733          	or	a4,a6,a0
    c0007b20:	cf01                	beqz	a4,c0007b38 <__eqtf2+0x92>
    c0007b22:	02f85813          	srli	a6,a6,0x2f
    c0007b26:	fe0804e3          	beqz	a6,c0007b0e <__eqtf2+0x68>
    c0007b2a:	6721                	lui	a4,0x8
    c0007b2c:	177d                	addi	a4,a4,-1
    c0007b2e:	4505                	li	a0,1
    c0007b30:	00e31863          	bne	t1,a4,c0007b40 <__eqtf2+0x9a>
    c0007b34:	8e5d                	or	a2,a2,a5
    c0007b36:	c609                	beqz	a2,c0007b40 <__eqtf2+0x9a>
    c0007b38:	93bd                	srli	a5,a5,0x2f
    c0007b3a:	dbf1                	beqz	a5,c0007b0e <__eqtf2+0x68>
    c0007b3c:	4505                	li	a0,1
    c0007b3e:	8082                	ret
    c0007b40:	8082                	ret

00000000c0007b42 <__getf2>:
    c0007b42:	002027f3          	frrm	a5
    c0007b46:	68a1                	lui	a7,0x8
    c0007b48:	0305d813          	srli	a6,a1,0x30
    c0007b4c:	18fd                	addi	a7,a7,-1
    c0007b4e:	57fd                	li	a5,-1
    c0007b50:	83c1                	srli	a5,a5,0x10
    c0007b52:	0306d713          	srli	a4,a3,0x30
    c0007b56:	01187833          	and	a6,a6,a7
    c0007b5a:	00f5f333          	and	t1,a1,a5
    c0007b5e:	01177733          	and	a4,a4,a7
    c0007b62:	8ff5                	and	a5,a5,a3
    c0007b64:	91fd                	srli	a1,a1,0x3f
    c0007b66:	92fd                	srli	a3,a3,0x3f
    c0007b68:	01181a63          	bne	a6,a7,c0007b7c <__getf2+0x3a>
    c0007b6c:	00a368b3          	or	a7,t1,a0
    c0007b70:	06088d63          	beqz	a7,c0007bea <__getf2+0xa8>
    c0007b74:	00186073          	csrsi	fflags,16
    c0007b78:	57f9                	li	a5,-2
    c0007b7a:	a81d                	j	c0007bb0 <__getf2+0x6e>
    c0007b7c:	01171663          	bne	a4,a7,c0007b88 <__getf2+0x46>
    c0007b80:	00c7e8b3          	or	a7,a5,a2
    c0007b84:	fe0898e3          	bnez	a7,c0007b74 <__getf2+0x32>
    c0007b88:	06081363          	bnez	a6,c0007bee <__getf2+0xac>
    c0007b8c:	00a368b3          	or	a7,t1,a0
    c0007b90:	0018b893          	seqz	a7,a7
    c0007b94:	e709                	bnez	a4,c0007b9e <__getf2+0x5c>
    c0007b96:	00c7ee33          	or	t3,a5,a2
    c0007b9a:	040e0063          	beqz	t3,c0007bda <__getf2+0x98>
    c0007b9e:	00089b63          	bnez	a7,c0007bb4 <__getf2+0x72>
    c0007ba2:	00d59463          	bne	a1,a3,c0007baa <__getf2+0x68>
    c0007ba6:	01075b63          	ble	a6,a4,c0007bbc <__getf2+0x7a>
    c0007baa:	4785                	li	a5,1
    c0007bac:	c191                	beqz	a1,c0007bb0 <__getf2+0x6e>
    c0007bae:	57fd                	li	a5,-1
    c0007bb0:	853e                	mv	a0,a5
    c0007bb2:	8082                	ret
    c0007bb4:	57fd                	li	a5,-1
    c0007bb6:	deed                	beqz	a3,c0007bb0 <__getf2+0x6e>
    c0007bb8:	4785                	li	a5,1
    c0007bba:	bfdd                	j	c0007bb0 <__getf2+0x6e>
    c0007bbc:	00e85563          	ble	a4,a6,c0007bc6 <__getf2+0x84>
    c0007bc0:	57fd                	li	a5,-1
    c0007bc2:	f9fd                	bnez	a1,c0007bb8 <__getf2+0x76>
    c0007bc4:	b7f5                	j	c0007bb0 <__getf2+0x6e>
    c0007bc6:	fe67e2e3          	bltu	a5,t1,c0007baa <__getf2+0x68>
    c0007bca:	00f31c63          	bne	t1,a5,c0007be2 <__getf2+0xa0>
    c0007bce:	fca66ee3          	bltu	a2,a0,c0007baa <__getf2+0x68>
    c0007bd2:	4781                	li	a5,0
    c0007bd4:	fcc57ee3          	bleu	a2,a0,c0007bb0 <__getf2+0x6e>
    c0007bd8:	b7e5                	j	c0007bc0 <__getf2+0x7e>
    c0007bda:	4781                	li	a5,0
    c0007bdc:	fc089ae3          	bnez	a7,c0007bb0 <__getf2+0x6e>
    c0007be0:	b7e9                	j	c0007baa <__getf2+0x68>
    c0007be2:	fcf36fe3          	bltu	t1,a5,c0007bc0 <__getf2+0x7e>
    c0007be6:	4781                	li	a5,0
    c0007be8:	b7e1                	j	c0007bb0 <__getf2+0x6e>
    c0007bea:	f9070be3          	beq	a4,a6,c0007b80 <__getf2+0x3e>
    c0007bee:	fb55                	bnez	a4,c0007ba2 <__getf2+0x60>
    c0007bf0:	4881                	li	a7,0
    c0007bf2:	b755                	j	c0007b96 <__getf2+0x54>

00000000c0007bf4 <__letf2>:
    c0007bf4:	002027f3          	frrm	a5
    c0007bf8:	68a1                	lui	a7,0x8
    c0007bfa:	0305d813          	srli	a6,a1,0x30
    c0007bfe:	18fd                	addi	a7,a7,-1
    c0007c00:	57fd                	li	a5,-1
    c0007c02:	83c1                	srli	a5,a5,0x10
    c0007c04:	0306d713          	srli	a4,a3,0x30
    c0007c08:	01187833          	and	a6,a6,a7
    c0007c0c:	00f5f333          	and	t1,a1,a5
    c0007c10:	01177733          	and	a4,a4,a7
    c0007c14:	8ff5                	and	a5,a5,a3
    c0007c16:	91fd                	srli	a1,a1,0x3f
    c0007c18:	92fd                	srli	a3,a3,0x3f
    c0007c1a:	01181a63          	bne	a6,a7,c0007c2e <__letf2+0x3a>
    c0007c1e:	00a368b3          	or	a7,t1,a0
    c0007c22:	06088d63          	beqz	a7,c0007c9c <__letf2+0xa8>
    c0007c26:	00186073          	csrsi	fflags,16
    c0007c2a:	4789                	li	a5,2
    c0007c2c:	a81d                	j	c0007c62 <__letf2+0x6e>
    c0007c2e:	01171663          	bne	a4,a7,c0007c3a <__letf2+0x46>
    c0007c32:	00c7e8b3          	or	a7,a5,a2
    c0007c36:	fe0898e3          	bnez	a7,c0007c26 <__letf2+0x32>
    c0007c3a:	06081363          	bnez	a6,c0007ca0 <__letf2+0xac>
    c0007c3e:	00a368b3          	or	a7,t1,a0
    c0007c42:	0018b893          	seqz	a7,a7
    c0007c46:	e709                	bnez	a4,c0007c50 <__letf2+0x5c>
    c0007c48:	00c7ee33          	or	t3,a5,a2
    c0007c4c:	040e0063          	beqz	t3,c0007c8c <__letf2+0x98>
    c0007c50:	00089b63          	bnez	a7,c0007c66 <__letf2+0x72>
    c0007c54:	00d59463          	bne	a1,a3,c0007c5c <__letf2+0x68>
    c0007c58:	01075b63          	ble	a6,a4,c0007c6e <__letf2+0x7a>
    c0007c5c:	4785                	li	a5,1
    c0007c5e:	c191                	beqz	a1,c0007c62 <__letf2+0x6e>
    c0007c60:	57fd                	li	a5,-1
    c0007c62:	853e                	mv	a0,a5
    c0007c64:	8082                	ret
    c0007c66:	57fd                	li	a5,-1
    c0007c68:	deed                	beqz	a3,c0007c62 <__letf2+0x6e>
    c0007c6a:	4785                	li	a5,1
    c0007c6c:	bfdd                	j	c0007c62 <__letf2+0x6e>
    c0007c6e:	00e85563          	ble	a4,a6,c0007c78 <__letf2+0x84>
    c0007c72:	57fd                	li	a5,-1
    c0007c74:	f9fd                	bnez	a1,c0007c6a <__letf2+0x76>
    c0007c76:	b7f5                	j	c0007c62 <__letf2+0x6e>
    c0007c78:	fe67e2e3          	bltu	a5,t1,c0007c5c <__letf2+0x68>
    c0007c7c:	00f31c63          	bne	t1,a5,c0007c94 <__letf2+0xa0>
    c0007c80:	fca66ee3          	bltu	a2,a0,c0007c5c <__letf2+0x68>
    c0007c84:	4781                	li	a5,0
    c0007c86:	fcc57ee3          	bleu	a2,a0,c0007c62 <__letf2+0x6e>
    c0007c8a:	b7e5                	j	c0007c72 <__letf2+0x7e>
    c0007c8c:	4781                	li	a5,0
    c0007c8e:	fc089ae3          	bnez	a7,c0007c62 <__letf2+0x6e>
    c0007c92:	b7e9                	j	c0007c5c <__letf2+0x68>
    c0007c94:	fcf36fe3          	bltu	t1,a5,c0007c72 <__letf2+0x7e>
    c0007c98:	4781                	li	a5,0
    c0007c9a:	b7e1                	j	c0007c62 <__letf2+0x6e>
    c0007c9c:	f9070be3          	beq	a4,a6,c0007c32 <__letf2+0x3e>
    c0007ca0:	fb55                	bnez	a4,c0007c54 <__letf2+0x60>
    c0007ca2:	4881                	li	a7,0
    c0007ca4:	b755                	j	c0007c48 <__letf2+0x54>

00000000c0007ca6 <__multf3>:
    c0007ca6:	711d                	addi	sp,sp,-96
    c0007ca8:	f456                	sd	s5,40(sp)
    c0007caa:	e466                	sd	s9,8(sp)
    c0007cac:	ec86                	sd	ra,88(sp)
    c0007cae:	e8a2                	sd	s0,80(sp)
    c0007cb0:	e4a6                	sd	s1,72(sp)
    c0007cb2:	e0ca                	sd	s2,64(sp)
    c0007cb4:	fc4e                	sd	s3,56(sp)
    c0007cb6:	f852                	sd	s4,48(sp)
    c0007cb8:	f05a                	sd	s6,32(sp)
    c0007cba:	ec5e                	sd	s7,24(sp)
    c0007cbc:	e862                	sd	s8,16(sp)
    c0007cbe:	8cb2                	mv	s9,a2
    c0007cc0:	8ab6                	mv	s5,a3
    c0007cc2:	002029f3          	frrm	s3
    c0007cc6:	6721                	lui	a4,0x8
    c0007cc8:	54fd                	li	s1,-1
    c0007cca:	0305db93          	srli	s7,a1,0x30
    c0007cce:	177d                	addi	a4,a4,-1
    c0007cd0:	80c1                	srli	s1,s1,0x10
    c0007cd2:	00ebf7b3          	and	a5,s7,a4
    c0007cd6:	2981                	sext.w	s3,s3
    c0007cd8:	8ced                	and	s1,s1,a1
    c0007cda:	03f5db13          	srli	s6,a1,0x3f
    c0007cde:	c78d                	beqz	a5,c0007d08 <__multf3+0x62>
    c0007ce0:	8a2a                	mv	s4,a0
    c0007ce2:	0007851b          	sext.w	a0,a5
    c0007ce6:	08e50463          	beq	a0,a4,c0007d6e <__multf3+0xc8>
    c0007cea:	03da5713          	srli	a4,s4,0x3d
    c0007cee:	048e                	slli	s1,s1,0x3
    c0007cf0:	8f45                	or	a4,a4,s1
    c0007cf2:	7571                	lui	a0,0xffffc
    c0007cf4:	4485                	li	s1,1
    c0007cf6:	14ce                	slli	s1,s1,0x33
    c0007cf8:	0505                	addi	a0,a0,1
    c0007cfa:	8cd9                	or	s1,s1,a4
    c0007cfc:	0a0e                	slli	s4,s4,0x3
    c0007cfe:	00a78bb3          	add	s7,a5,a0
    c0007d02:	4c01                	li	s8,0
    c0007d04:	4901                	li	s2,0
    c0007d06:	a8b5                	j	c0007d82 <__multf3+0xdc>
    c0007d08:	00a4e7b3          	or	a5,s1,a0
    c0007d0c:	842a                	mv	s0,a0
    c0007d0e:	c3e5                	beqz	a5,c0007dee <__multf3+0x148>
    c0007d10:	c0a9                	beqz	s1,c0007d52 <__multf3+0xac>
    c0007d12:	8526                	mv	a0,s1
    c0007d14:	00001097          	auipc	ra,0x1
    c0007d18:	1fe080e7          	jalr	510(ra) # c0008f12 <__clzdi2>
    c0007d1c:	2501                	sext.w	a0,a0
    c0007d1e:	ff150713          	addi	a4,a0,-15 # ffffffffffffbff1 <_end+0xffffffff3fff0ff1>
    c0007d22:	03c00693          	li	a3,60
    c0007d26:	0007079b          	sext.w	a5,a4
    c0007d2a:	02e6cc63          	blt	a3,a4,c0007d62 <__multf3+0xbc>
    c0007d2e:	03d00713          	li	a4,61
    c0007d32:	00378a1b          	addiw	s4,a5,3
    c0007d36:	40f707bb          	subw	a5,a4,a5
    c0007d3a:	014494b3          	sll	s1,s1,s4
    c0007d3e:	00f457b3          	srl	a5,s0,a5
    c0007d42:	8cdd                	or	s1,s1,a5
    c0007d44:	01441a33          	sll	s4,s0,s4
    c0007d48:	7bf1                	lui	s7,0xffffc
    c0007d4a:	0bc5                	addi	s7,s7,17
    c0007d4c:	40ab8bb3          	sub	s7,s7,a0
    c0007d50:	bf4d                	j	c0007d02 <__multf3+0x5c>
    c0007d52:	00001097          	auipc	ra,0x1
    c0007d56:	1c0080e7          	jalr	448(ra) # c0008f12 <__clzdi2>
    c0007d5a:	2501                	sext.w	a0,a0
    c0007d5c:	04050513          	addi	a0,a0,64
    c0007d60:	bf7d                	j	c0007d1e <__multf3+0x78>
    c0007d62:	fc37849b          	addiw	s1,a5,-61
    c0007d66:	009414b3          	sll	s1,s0,s1
    c0007d6a:	4a01                	li	s4,0
    c0007d6c:	bff1                	j	c0007d48 <__multf3+0xa2>
    c0007d6e:	0144e7b3          	or	a5,s1,s4
    c0007d72:	c3d9                	beqz	a5,c0007df8 <__multf3+0x152>
    c0007d74:	01049793          	slli	a5,s1,0x10
    c0007d78:	8baa                	mv	s7,a0
    c0007d7a:	4c0d                	li	s8,3
    c0007d7c:	4941                	li	s2,16
    c0007d7e:	f807c3e3          	bltz	a5,c0007d04 <__multf3+0x5e>
    c0007d82:	577d                	li	a4,-1
    c0007d84:	8341                	srli	a4,a4,0x10
    c0007d86:	00eaf433          	and	s0,s5,a4
    c0007d8a:	6721                	lui	a4,0x8
    c0007d8c:	030ad513          	srli	a0,s5,0x30
    c0007d90:	177d                	addi	a4,a4,-1
    c0007d92:	00e57633          	and	a2,a0,a4
    c0007d96:	87e6                	mv	a5,s9
    c0007d98:	03fada93          	srli	s5,s5,0x3f
    c0007d9c:	c23d                	beqz	a2,c0007e02 <__multf3+0x15c>
    c0007d9e:	0006051b          	sext.w	a0,a2
    c0007da2:	0ce50463          	beq	a0,a4,c0007e6a <__multf3+0x1c4>
    c0007da6:	00341713          	slli	a4,s0,0x3
    c0007daa:	03dcd693          	srli	a3,s9,0x3d
    c0007dae:	00e6e433          	or	s0,a3,a4
    c0007db2:	7571                	lui	a0,0xffffc
    c0007db4:	4705                	li	a4,1
    c0007db6:	174e                	slli	a4,a4,0x33
    c0007db8:	0505                	addi	a0,a0,1
    c0007dba:	8c59                	or	s0,s0,a4
    c0007dbc:	003c9793          	slli	a5,s9,0x3
    c0007dc0:	9532                	add	a0,a0,a2
    c0007dc2:	4701                	li	a4,0
    c0007dc4:	002c1693          	slli	a3,s8,0x2
    c0007dc8:	8ed9                	or	a3,a3,a4
    c0007dca:	955e                	add	a0,a0,s7
    c0007dcc:	16fd                	addi	a3,a3,-1
    c0007dce:	4639                	li	a2,14
    c0007dd0:	015b4833          	xor	a6,s6,s5
    c0007dd4:	00150893          	addi	a7,a0,1 # ffffffffffffc001 <_end+0xffffffff3fff1001>
    c0007dd8:	10d66463          	bltu	a2,a3,c0007ee0 <__multf3+0x23a>
    c0007ddc:	00002617          	auipc	a2,0x2
    c0007de0:	a8c60613          	addi	a2,a2,-1396 # c0009868 <_ctype_+0x140>
    c0007de4:	068a                	slli	a3,a3,0x2
    c0007de6:	96b2                	add	a3,a3,a2
    c0007de8:	4294                	lw	a3,0(a3)
    c0007dea:	96b2                	add	a3,a3,a2
    c0007dec:	8682                	jr	a3
    c0007dee:	4481                	li	s1,0
    c0007df0:	4a01                	li	s4,0
    c0007df2:	4b81                	li	s7,0
    c0007df4:	4c05                	li	s8,1
    c0007df6:	b739                	j	c0007d04 <__multf3+0x5e>
    c0007df8:	4481                	li	s1,0
    c0007dfa:	4a01                	li	s4,0
    c0007dfc:	8baa                	mv	s7,a0
    c0007dfe:	4c09                	li	s8,2
    c0007e00:	b711                	j	c0007d04 <__multf3+0x5e>
    c0007e02:	019467b3          	or	a5,s0,s9
    c0007e06:	cfa5                	beqz	a5,c0007e7e <__multf3+0x1d8>
    c0007e08:	c031                	beqz	s0,c0007e4c <__multf3+0x1a6>
    c0007e0a:	8522                	mv	a0,s0
    c0007e0c:	00001097          	auipc	ra,0x1
    c0007e10:	106080e7          	jalr	262(ra) # c0008f12 <__clzdi2>
    c0007e14:	2501                	sext.w	a0,a0
    c0007e16:	ff150793          	addi	a5,a0,-15
    c0007e1a:	03c00713          	li	a4,60
    c0007e1e:	0007869b          	sext.w	a3,a5
    c0007e22:	02f74e63          	blt	a4,a5,c0007e5e <__multf3+0x1b8>
    c0007e26:	03d00613          	li	a2,61
    c0007e2a:	0036879b          	addiw	a5,a3,3
    c0007e2e:	40d606bb          	subw	a3,a2,a3
    c0007e32:	00f41733          	sll	a4,s0,a5
    c0007e36:	00dcd6b3          	srl	a3,s9,a3
    c0007e3a:	00e6e433          	or	s0,a3,a4
    c0007e3e:	00fc97b3          	sll	a5,s9,a5
    c0007e42:	7771                	lui	a4,0xffffc
    c0007e44:	0745                	addi	a4,a4,17
    c0007e46:	40a70533          	sub	a0,a4,a0
    c0007e4a:	bfa5                	j	c0007dc2 <__multf3+0x11c>
    c0007e4c:	8566                	mv	a0,s9
    c0007e4e:	00001097          	auipc	ra,0x1
    c0007e52:	0c4080e7          	jalr	196(ra) # c0008f12 <__clzdi2>
    c0007e56:	2501                	sext.w	a0,a0
    c0007e58:	04050513          	addi	a0,a0,64
    c0007e5c:	bf6d                	j	c0007e16 <__multf3+0x170>
    c0007e5e:	fc36871b          	addiw	a4,a3,-61
    c0007e62:	00ec9433          	sll	s0,s9,a4
    c0007e66:	4781                	li	a5,0
    c0007e68:	bfe9                	j	c0007e42 <__multf3+0x19c>
    c0007e6a:	01946733          	or	a4,s0,s9
    c0007e6e:	cf09                	beqz	a4,c0007e88 <__multf3+0x1e2>
    c0007e70:	01041713          	slli	a4,s0,0x10
    c0007e74:	00074e63          	bltz	a4,c0007e90 <__multf3+0x1ea>
    c0007e78:	470d                	li	a4,3
    c0007e7a:	4941                	li	s2,16
    c0007e7c:	b7a1                	j	c0007dc4 <__multf3+0x11e>
    c0007e7e:	4401                	li	s0,0
    c0007e80:	4781                	li	a5,0
    c0007e82:	4501                	li	a0,0
    c0007e84:	4705                	li	a4,1
    c0007e86:	bf3d                	j	c0007dc4 <__multf3+0x11e>
    c0007e88:	4401                	li	s0,0
    c0007e8a:	4781                	li	a5,0
    c0007e8c:	4709                	li	a4,2
    c0007e8e:	bf1d                	j	c0007dc4 <__multf3+0x11e>
    c0007e90:	470d                	li	a4,3
    c0007e92:	bf0d                	j	c0007dc4 <__multf3+0x11e>
    c0007e94:	4705                	li	a4,1
    c0007e96:	66a1                	lui	a3,0x8
    c0007e98:	173e                	slli	a4,a4,0x2f
    c0007e9a:	4501                	li	a0,0
    c0007e9c:	16fd                	addi	a3,a3,-1
    c0007e9e:	4801                	li	a6,0
    c0007ea0:	4941                	li	s2,16
    c0007ea2:	6621                	lui	a2,0x8
    c0007ea4:	57fd                	li	a5,-1
    c0007ea6:	167d                	addi	a2,a2,-1
    c0007ea8:	0107d593          	srli	a1,a5,0x10
    c0007eac:	8ef1                	and	a3,a3,a2
    c0007eae:	16c2                	slli	a3,a3,0x30
    c0007eb0:	8df9                	and	a1,a1,a4
    c0007eb2:	8dd5                	or	a1,a1,a3
    c0007eb4:	8385                	srli	a5,a5,0x1
    c0007eb6:	187e                	slli	a6,a6,0x3f
    c0007eb8:	8dfd                	and	a1,a1,a5
    c0007eba:	0105e5b3          	or	a1,a1,a6
    c0007ebe:	00090463          	beqz	s2,c0007ec6 <__multf3+0x220>
    c0007ec2:	00192073          	csrs	fflags,s2
    c0007ec6:	60e6                	ld	ra,88(sp)
    c0007ec8:	6446                	ld	s0,80(sp)
    c0007eca:	64a6                	ld	s1,72(sp)
    c0007ecc:	6906                	ld	s2,64(sp)
    c0007ece:	79e2                	ld	s3,56(sp)
    c0007ed0:	7a42                	ld	s4,48(sp)
    c0007ed2:	7aa2                	ld	s5,40(sp)
    c0007ed4:	7b02                	ld	s6,32(sp)
    c0007ed6:	6be2                	ld	s7,24(sp)
    c0007ed8:	6c42                	ld	s8,16(sp)
    c0007eda:	6ca2                	ld	s9,8(sp)
    c0007edc:	6125                	addi	sp,sp,96
    c0007ede:	8082                	ret
    c0007ee0:	577d                	li	a4,-1
    c0007ee2:	9301                	srli	a4,a4,0x20
    c0007ee4:	01448ab3          	add	s5,s1,s4
    c0007ee8:	008783b3          	add	t2,a5,s0
    c0007eec:	020a5f13          	srli	t5,s4,0x20
    c0007ef0:	0207d693          	srli	a3,a5,0x20
    c0007ef4:	014abfb3          	sltu	t6,s5,s4
    c0007ef8:	00f3b2b3          	sltu	t0,t2,a5
    c0007efc:	00ea7a33          	and	s4,s4,a4
    c0007f00:	8ff9                	and	a5,a5,a4
    c0007f02:	034785b3          	mul	a1,a5,s4
    c0007f06:	000f8e9b          	sext.w	t4,t6
    c0007f0a:	0002861b          	sext.w	a2,t0
    c0007f0e:	02ff07b3          	mul	a5,t5,a5
    c0007f12:	02df0733          	mul	a4,t5,a3
    c0007f16:	034686b3          	mul	a3,a3,s4
    c0007f1a:	0205da13          	srli	s4,a1,0x20
    c0007f1e:	96be                	add	a3,a3,a5
    c0007f20:	9a36                	add	s4,s4,a3
    c0007f22:	00fa7563          	bleu	a5,s4,c0007f2c <__multf3+0x286>
    c0007f26:	4785                	li	a5,1
    c0007f28:	1782                	slli	a5,a5,0x20
    c0007f2a:	973e                	add	a4,a4,a5
    c0007f2c:	020a5f13          	srli	t5,s4,0x20
    c0007f30:	9f3a                	add	t5,t5,a4
    c0007f32:	577d                	li	a4,-1
    c0007f34:	9301                	srli	a4,a4,0x20
    c0007f36:	00ea7333          	and	t1,s4,a4
    c0007f3a:	00eaf7b3          	and	a5,s5,a4
    c0007f3e:	8df9                	and	a1,a1,a4
    c0007f40:	020ada13          	srli	s4,s5,0x20
    c0007f44:	0203d693          	srli	a3,t2,0x20
    c0007f48:	00e3f733          	and	a4,t2,a4
    c0007f4c:	1302                	slli	t1,t1,0x20
    c0007f4e:	932e                	add	t1,t1,a1
    c0007f50:	02e785b3          	mul	a1,a5,a4
    c0007f54:	02ea0733          	mul	a4,s4,a4
    c0007f58:	02da0a33          	mul	s4,s4,a3
    c0007f5c:	02f686b3          	mul	a3,a3,a5
    c0007f60:	0205d793          	srli	a5,a1,0x20
    c0007f64:	96ba                	add	a3,a3,a4
    c0007f66:	97b6                	add	a5,a5,a3
    c0007f68:	00e7f563          	bleu	a4,a5,c0007f72 <__multf3+0x2cc>
    c0007f6c:	4705                	li	a4,1
    c0007f6e:	1702                	slli	a4,a4,0x20
    c0007f70:	9a3a                	add	s4,s4,a4
    c0007f72:	56fd                	li	a3,-1
    c0007f74:	9281                	srli	a3,a3,0x20
    c0007f76:	0207de13          	srli	t3,a5,0x20
    c0007f7a:	8ff5                	and	a5,a5,a3
    c0007f7c:	00d5f733          	and	a4,a1,a3
    c0007f80:	1782                	slli	a5,a5,0x20
    c0007f82:	0204d593          	srli	a1,s1,0x20
    c0007f86:	97ba                	add	a5,a5,a4
    c0007f88:	8cf5                	and	s1,s1,a3
    c0007f8a:	02045713          	srli	a4,s0,0x20
    c0007f8e:	8c75                	and	s0,s0,a3
    c0007f90:	02940b33          	mul	s6,s0,s1
    c0007f94:	02858433          	mul	s0,a1,s0
    c0007f98:	02e585b3          	mul	a1,a1,a4
    c0007f9c:	02970733          	mul	a4,a4,s1
    c0007fa0:	020b5493          	srli	s1,s6,0x20
    c0007fa4:	9722                	add	a4,a4,s0
    c0007fa6:	94ba                	add	s1,s1,a4
    c0007fa8:	0084f563          	bleu	s0,s1,c0007fb2 <__multf3+0x30c>
    c0007fac:	4705                	li	a4,1
    c0007fae:	1702                	slli	a4,a4,0x20
    c0007fb0:	95ba                	add	a1,a1,a4
    c0007fb2:	0204d713          	srli	a4,s1,0x20
    c0007fb6:	95ba                	add	a1,a1,a4
    c0007fb8:	577d                	li	a4,-1
    c0007fba:	9301                	srli	a4,a4,0x20
    c0007fbc:	00e4f6b3          	and	a3,s1,a4
    c0007fc0:	00eb7b33          	and	s6,s6,a4
    c0007fc4:	01e78733          	add	a4,a5,t5
    c0007fc8:	01e737b3          	sltu	a5,a4,t5
    c0007fcc:	9e3e                	add	t3,t3,a5
    c0007fce:	40c0063b          	negw	a2,a2
    c0007fd2:	9a72                	add	s4,s4,t3
    c0007fd4:	01567633          	and	a2,a2,s5
    c0007fd8:	41d00e3b          	negw	t3,t4
    c0007fdc:	9652                	add	a2,a2,s4
    c0007fde:	005fffb3          	and	t6,t6,t0
    c0007fe2:	00fa37b3          	sltu	a5,s4,a5
    c0007fe6:	007e73b3          	and	t2,t3,t2
    c0007fea:	00c38e33          	add	t3,t2,a2
    c0007fee:	97fe                	add	a5,a5,t6
    c0007ff0:	01463a33          	sltu	s4,a2,s4
    c0007ff4:	40670fb3          	sub	t6,a4,t1
    c0007ff8:	97d2                	add	a5,a5,s4
    c0007ffa:	41ee0eb3          	sub	t4,t3,t5
    c0007ffe:	1682                	slli	a3,a3,0x20
    c0008000:	00ce3633          	sltu	a2,t3,a2
    c0008004:	01f732b3          	sltu	t0,a4,t6
    c0008008:	963e                	add	a2,a2,a5
    c000800a:	96da                	add	a3,a3,s6
    c000800c:	01de37b3          	sltu	a5,t3,t4
    c0008010:	4401                	li	s0,0
    c0008012:	405e8eb3          	sub	t4,t4,t0
    c0008016:	01f77663          	bleu	t6,a4,c0008022 <__multf3+0x37c>
    c000801a:	41cf0e33          	sub	t3,t5,t3
    c000801e:	001e3413          	seqz	s0,t3
    c0008022:	00b60733          	add	a4,a2,a1
    c0008026:	40df8633          	sub	a2,t6,a3
    c000802a:	00f46e33          	or	t3,s0,a5
    c000802e:	40be85b3          	sub	a1,t4,a1
    c0008032:	00cfb7b3          	sltu	a5,t6,a2
    c0008036:	00bebeb3          	sltu	t4,t4,a1
    c000803a:	40f687b3          	sub	a5,a3,a5
    c000803e:	4401                	li	s0,0
    c0008040:	00cff463          	bleu	a2,t6,c0008048 <__multf3+0x3a2>
    c0008044:	0015b413          	seqz	s0,a1
    c0008048:	95be                	add	a1,a1,a5
    c000804a:	00d5b6b3          	sltu	a3,a1,a3
    c000804e:	9736                	add	a4,a4,a3
    c0008050:	01d46eb3          	or	t4,s0,t4
    c0008054:	41c70733          	sub	a4,a4,t3
    c0008058:	00d61793          	slli	a5,a2,0xd
    c000805c:	41d70733          	sub	a4,a4,t4
    c0008060:	0736                	slli	a4,a4,0xd
    c0008062:	0335d413          	srli	s0,a1,0x33
    c0008066:	0067e7b3          	or	a5,a5,t1
    c000806a:	8c59                	or	s0,s0,a4
    c000806c:	00f037b3          	snez	a5,a5
    c0008070:	924d                	srli	a2,a2,0x33
    c0008072:	8fd1                	or	a5,a5,a2
    c0008074:	05b6                	slli	a1,a1,0xd
    c0008076:	00b41713          	slli	a4,s0,0xb
    c000807a:	8fcd                	or	a5,a5,a1
    c000807c:	06075a63          	bgez	a4,c00080f0 <__multf3+0x44a>
    c0008080:	0017d713          	srli	a4,a5,0x1
    c0008084:	8b85                	andi	a5,a5,1
    c0008086:	03f41513          	slli	a0,s0,0x3f
    c000808a:	8fd9                	or	a5,a5,a4
    c000808c:	8fc9                	or	a5,a5,a0
    c000808e:	8005                	srli	s0,s0,0x1
    c0008090:	6691                	lui	a3,0x4
    c0008092:	16fd                	addi	a3,a3,-1
    c0008094:	96c6                	add	a3,a3,a7
    c0008096:	0cd05663          	blez	a3,c0008162 <__multf3+0x4bc>
    c000809a:	0077f713          	andi	a4,a5,7
    c000809e:	c335                	beqz	a4,c0008102 <__multf3+0x45c>
    c00080a0:	4709                	li	a4,2
    c00080a2:	00196913          	ori	s2,s2,1
    c00080a6:	04e98c63          	beq	s3,a4,c00080fe <__multf3+0x458>
    c00080aa:	470d                	li	a4,3
    c00080ac:	04e98463          	beq	s3,a4,c00080f4 <__multf3+0x44e>
    c00080b0:	04099963          	bnez	s3,c0008102 <__multf3+0x45c>
    c00080b4:	00f7f713          	andi	a4,a5,15
    c00080b8:	4611                	li	a2,4
    c00080ba:	04c70463          	beq	a4,a2,c0008102 <__multf3+0x45c>
    c00080be:	00478713          	addi	a4,a5,4
    c00080c2:	00f737b3          	sltu	a5,a4,a5
    c00080c6:	943e                	add	s0,s0,a5
    c00080c8:	87ba                	mv	a5,a4
    c00080ca:	a825                	j	c0008102 <__multf3+0x45c>
    c00080cc:	885a                	mv	a6,s6
    c00080ce:	8426                	mv	s0,s1
    c00080d0:	87d2                	mv	a5,s4
    c00080d2:	8762                	mv	a4,s8
    c00080d4:	4689                	li	a3,2
    c00080d6:	1ed70b63          	beq	a4,a3,c00082cc <__multf3+0x626>
    c00080da:	468d                	li	a3,3
    c00080dc:	1ed70d63          	beq	a4,a3,c00082d6 <__multf3+0x630>
    c00080e0:	4685                	li	a3,1
    c00080e2:	fad717e3          	bne	a4,a3,c0008090 <__multf3+0x3ea>
    c00080e6:	4701                	li	a4,0
    c00080e8:	4501                	li	a0,0
    c00080ea:	aad9                	j	c00082c0 <__multf3+0x61a>
    c00080ec:	8856                	mv	a6,s5
    c00080ee:	b7dd                	j	c00080d4 <__multf3+0x42e>
    c00080f0:	88aa                	mv	a7,a0
    c00080f2:	bf79                	j	c0008090 <__multf3+0x3ea>
    c00080f4:	00081763          	bnez	a6,c0008102 <__multf3+0x45c>
    c00080f8:	00878713          	addi	a4,a5,8
    c00080fc:	b7d9                	j	c00080c2 <__multf3+0x41c>
    c00080fe:	fe081de3          	bnez	a6,c00080f8 <__multf3+0x452>
    c0008102:	00b41713          	slli	a4,s0,0xb
    c0008106:	00075863          	bgez	a4,c0008116 <__multf3+0x470>
    c000810a:	577d                	li	a4,-1
    c000810c:	1752                	slli	a4,a4,0x34
    c000810e:	177d                	addi	a4,a4,-1
    c0008110:	6691                	lui	a3,0x4
    c0008112:	8c79                	and	s0,s0,a4
    c0008114:	96c6                	add	a3,a3,a7
    c0008116:	65a1                	lui	a1,0x8
    c0008118:	ffe58713          	addi	a4,a1,-2 # 7ffe <main-0xbfff8002>
    c000811c:	00d74963          	blt	a4,a3,c000812e <__multf3+0x488>
    c0008120:	838d                	srli	a5,a5,0x3
    c0008122:	03d41513          	slli	a0,s0,0x3d
    c0008126:	8d5d                	or	a0,a0,a5
    c0008128:	00345713          	srli	a4,s0,0x3
    c000812c:	bb9d                	j	c0007ea2 <__multf3+0x1fc>
    c000812e:	4789                	li	a5,2
    c0008130:	02f98363          	beq	s3,a5,c0008156 <__multf3+0x4b0>
    c0008134:	478d                	li	a5,3
    c0008136:	fff58693          	addi	a3,a1,-1
    c000813a:	00f98a63          	beq	s3,a5,c000814e <__multf3+0x4a8>
    c000813e:	00098a63          	beqz	s3,c0008152 <__multf3+0x4ac>
    c0008142:	557d                	li	a0,-1
    c0008144:	86ba                	mv	a3,a4
    c0008146:	00596913          	ori	s2,s2,5
    c000814a:	872a                	mv	a4,a0
    c000814c:	bb99                	j	c0007ea2 <__multf3+0x1fc>
    c000814e:	fe081ae3          	bnez	a6,c0008142 <__multf3+0x49c>
    c0008152:	4501                	li	a0,0
    c0008154:	bfcd                	j	c0008146 <__multf3+0x4a0>
    c0008156:	fe0806e3          	beqz	a6,c0008142 <__multf3+0x49c>
    c000815a:	4501                	li	a0,0
    c000815c:	fff58693          	addi	a3,a1,-1
    c0008160:	b7dd                	j	c0008146 <__multf3+0x4a0>
    c0008162:	4605                	li	a2,1
    c0008164:	eaa9                	bnez	a3,c00081b6 <__multf3+0x510>
    c0008166:	0077f613          	andi	a2,a5,7
    c000816a:	8722                	mv	a4,s0
    c000816c:	c221                	beqz	a2,c00081ac <__multf3+0x506>
    c000816e:	4709                	li	a4,2
    c0008170:	00196913          	ori	s2,s2,1
    c0008174:	02e98963          	beq	s3,a4,c00081a6 <__multf3+0x500>
    c0008178:	470d                	li	a4,3
    c000817a:	02e98063          	beq	s3,a4,c000819a <__multf3+0x4f4>
    c000817e:	8722                	mv	a4,s0
    c0008180:	02099663          	bnez	s3,c00081ac <__multf3+0x506>
    c0008184:	00f7f613          	andi	a2,a5,15
    c0008188:	4591                	li	a1,4
    c000818a:	02b60163          	beq	a2,a1,c00081ac <__multf3+0x506>
    c000818e:	ffc7b713          	sltiu	a4,a5,-4
    c0008192:	00174713          	xori	a4,a4,1
    c0008196:	9722                	add	a4,a4,s0
    c0008198:	a811                	j	c00081ac <__multf3+0x506>
    c000819a:	8722                	mv	a4,s0
    c000819c:	00081863          	bnez	a6,c00081ac <__multf3+0x506>
    c00081a0:	ff87b713          	sltiu	a4,a5,-8
    c00081a4:	b7fd                	j	c0008192 <__multf3+0x4ec>
    c00081a6:	8722                	mv	a4,s0
    c00081a8:	fe081ce3          	bnez	a6,c00081a0 <__multf3+0x4fa>
    c00081ac:	03475613          	srli	a2,a4,0x34
    c00081b0:	00164613          	xori	a2,a2,1
    c00081b4:	8a05                	andi	a2,a2,1
    c00081b6:	4585                	li	a1,1
    c00081b8:	40d586b3          	sub	a3,a1,a3
    c00081bc:	07400713          	li	a4,116
    c00081c0:	0cd74863          	blt	a4,a3,c0008290 <__multf3+0x5ea>
    c00081c4:	03f00593          	li	a1,63
    c00081c8:	0006871b          	sext.w	a4,a3
    c00081cc:	04d5ca63          	blt	a1,a3,c0008220 <__multf3+0x57a>
    c00081d0:	04000693          	li	a3,64
    c00081d4:	9e99                	subw	a3,a3,a4
    c00081d6:	00e7d5b3          	srl	a1,a5,a4
    c00081da:	00d41533          	sll	a0,s0,a3
    c00081de:	00d797b3          	sll	a5,a5,a3
    c00081e2:	8d4d                	or	a0,a0,a1
    c00081e4:	00f037b3          	snez	a5,a5
    c00081e8:	8d5d                	or	a0,a0,a5
    c00081ea:	00e45733          	srl	a4,s0,a4
    c00081ee:	00757793          	andi	a5,a0,7
    c00081f2:	c7a5                	beqz	a5,c000825a <__multf3+0x5b4>
    c00081f4:	4789                	li	a5,2
    c00081f6:	00196913          	ori	s2,s2,1
    c00081fa:	04f98e63          	beq	s3,a5,c0008256 <__multf3+0x5b0>
    c00081fe:	478d                	li	a5,3
    c0008200:	04f98663          	beq	s3,a5,c000824c <__multf3+0x5a6>
    c0008204:	04099b63          	bnez	s3,c000825a <__multf3+0x5b4>
    c0008208:	00f57793          	andi	a5,a0,15
    c000820c:	4691                	li	a3,4
    c000820e:	04d78663          	beq	a5,a3,c000825a <__multf3+0x5b4>
    c0008212:	00450793          	addi	a5,a0,4
    c0008216:	00a7b533          	sltu	a0,a5,a0
    c000821a:	972a                	add	a4,a4,a0
    c000821c:	853e                	mv	a0,a5
    c000821e:	a835                	j	c000825a <__multf3+0x5b4>
    c0008220:	fc07051b          	addiw	a0,a4,-64
    c0008224:	04000593          	li	a1,64
    c0008228:	00a45533          	srl	a0,s0,a0
    c000822c:	4881                	li	a7,0
    c000822e:	00b68863          	beq	a3,a1,c000823e <__multf3+0x598>
    c0008232:	08000893          	li	a7,128
    c0008236:	40e8873b          	subw	a4,a7,a4
    c000823a:	00e418b3          	sll	a7,s0,a4
    c000823e:	00f8e7b3          	or	a5,a7,a5
    c0008242:	00f037b3          	snez	a5,a5
    c0008246:	8d5d                	or	a0,a0,a5
    c0008248:	4701                	li	a4,0
    c000824a:	b755                	j	c00081ee <__multf3+0x548>
    c000824c:	00081763          	bnez	a6,c000825a <__multf3+0x5b4>
    c0008250:	00850793          	addi	a5,a0,8
    c0008254:	b7c9                	j	c0008216 <__multf3+0x570>
    c0008256:	fe081de3          	bnez	a6,c0008250 <__multf3+0x5aa>
    c000825a:	00c71793          	slli	a5,a4,0xc
    c000825e:	0007dc63          	bgez	a5,c0008276 <__multf3+0x5d0>
    c0008262:	00196913          	ori	s2,s2,1
    c0008266:	4701                	li	a4,0
    c0008268:	4501                	li	a0,0
    c000826a:	4685                	li	a3,1
    c000826c:	c2060be3          	beqz	a2,c0007ea2 <__multf3+0x1fc>
    c0008270:	00296913          	ori	s2,s2,2
    c0008274:	b13d                	j	c0007ea2 <__multf3+0x1fc>
    c0008276:	03d71793          	slli	a5,a4,0x3d
    c000827a:	810d                	srli	a0,a0,0x3
    c000827c:	8d5d                	or	a0,a0,a5
    c000827e:	830d                	srli	a4,a4,0x3
    c0008280:	4681                	li	a3,0
    c0008282:	c20600e3          	beqz	a2,c0007ea2 <__multf3+0x1fc>
    c0008286:	00197793          	andi	a5,s2,1
    c000828a:	c0078ce3          	beqz	a5,c0007ea2 <__multf3+0x1fc>
    c000828e:	b7cd                	j	c0008270 <__multf3+0x5ca>
    c0008290:	0087e533          	or	a0,a5,s0
    c0008294:	c11d                	beqz	a0,c00082ba <__multf3+0x614>
    c0008296:	4789                	li	a5,2
    c0008298:	00196913          	ori	s2,s2,1
    c000829c:	02f98463          	beq	s3,a5,c00082c4 <__multf3+0x61e>
    c00082a0:	478d                	li	a5,3
    c00082a2:	00f98763          	beq	s3,a5,c00082b0 <__multf3+0x60a>
    c00082a6:	4795                	li	a5,5
    c00082a8:	00098763          	beqz	s3,c00082b6 <__multf3+0x610>
    c00082ac:	4785                	li	a5,1
    c00082ae:	a021                	j	c00082b6 <__multf3+0x610>
    c00082b0:	47a5                	li	a5,9
    c00082b2:	fe081de3          	bnez	a6,c00082ac <__multf3+0x606>
    c00082b6:	0037d513          	srli	a0,a5,0x3
    c00082ba:	00296913          	ori	s2,s2,2
    c00082be:	4701                	li	a4,0
    c00082c0:	4681                	li	a3,0
    c00082c2:	b6c5                	j	c0007ea2 <__multf3+0x1fc>
    c00082c4:	47a5                	li	a5,9
    c00082c6:	fe0818e3          	bnez	a6,c00082b6 <__multf3+0x610>
    c00082ca:	b7cd                	j	c00082ac <__multf3+0x606>
    c00082cc:	66a1                	lui	a3,0x8
    c00082ce:	4701                	li	a4,0
    c00082d0:	4501                	li	a0,0
    c00082d2:	16fd                	addi	a3,a3,-1
    c00082d4:	b6f9                	j	c0007ea2 <__multf3+0x1fc>
    c00082d6:	4705                	li	a4,1
    c00082d8:	66a1                	lui	a3,0x8
    c00082da:	173e                	slli	a4,a4,0x2f
    c00082dc:	4501                	li	a0,0
    c00082de:	16fd                	addi	a3,a3,-1
    c00082e0:	4801                	li	a6,0
    c00082e2:	b6c1                	j	c0007ea2 <__multf3+0x1fc>

00000000c00082e4 <__subtf3>:
    c00082e4:	7179                	addi	sp,sp,-48
    c00082e6:	f406                	sd	ra,40(sp)
    c00082e8:	f022                	sd	s0,32(sp)
    c00082ea:	ec26                	sd	s1,24(sp)
    c00082ec:	e84a                	sd	s2,16(sp)
    c00082ee:	e44e                	sd	s3,8(sp)
    c00082f0:	e052                	sd	s4,0(sp)
    c00082f2:	002024f3          	frrm	s1
    c00082f6:	52fd                	li	t0,-1
    c00082f8:	0102d293          	srli	t0,t0,0x10
    c00082fc:	6fa1                	lui	t6,0x8
    c00082fe:	0305d313          	srli	t1,a1,0x30
    c0008302:	1ffd                	addi	t6,t6,-1
    c0008304:	0306d893          	srli	a7,a3,0x30
    c0008308:	03f5d913          	srli	s2,a1,0x3f
    c000830c:	03f6de13          	srli	t3,a3,0x3f
    c0008310:	0055f5b3          	and	a1,a1,t0
    c0008314:	0056f6b3          	and	a3,a3,t0
    c0008318:	03d55413          	srli	s0,a0,0x3d
    c000831c:	01f37333          	and	t1,t1,t6
    c0008320:	058e                	slli	a1,a1,0x3
    c0008322:	00351f13          	slli	t5,a0,0x3
    c0008326:	068e                	slli	a3,a3,0x3
    c0008328:	03d65513          	srli	a0,a2,0x3d
    c000832c:	01f8f8b3          	and	a7,a7,t6
    c0008330:	2481                	sext.w	s1,s1
    c0008332:	899a                	mv	s3,t1
    c0008334:	8dc1                	or	a1,a1,s0
    c0008336:	8ec9                	or	a3,a3,a0
    c0008338:	00361e93          	slli	t4,a2,0x3
    c000833c:	01f89563          	bne	a7,t6,c0008346 <__subtf3+0x62>
    c0008340:	01d6e7b3          	or	a5,a3,t4
    c0008344:	e399                	bnez	a5,c000834a <__subtf3+0x66>
    c0008346:	001e4e13          	xori	t3,t3,1
    c000834a:	411307bb          	subw	a5,t1,a7
    c000834e:	6521                	lui	a0,0x8
    c0008350:	0007871b          	sext.w	a4,a5
    c0008354:	fff50613          	addi	a2,a0,-1 # 7fff <main-0xbfff8001>
    c0008358:	312e1c63          	bne	t3,s2,c0008670 <__subtf3+0x38c>
    c000835c:	0ee05e63          	blez	a4,c0008458 <__subtf3+0x174>
    c0008360:	08089263          	bnez	a7,c00083e4 <__subtf3+0x100>
    c0008364:	01d6e733          	or	a4,a3,t4
    c0008368:	ef19                	bnez	a4,c0008386 <__subtf3+0xa2>
    c000836a:	70c31463          	bne	t1,a2,c0008a72 <__subtf3+0x78e>
    c000836e:	01e5eeb3          	or	t4,a1,t5
    c0008372:	740e8163          	beqz	t4,c0008ab4 <__subtf3+0x7d0>
    c0008376:	00d59793          	slli	a5,a1,0xd
    c000837a:	86ae                	mv	a3,a1
    c000837c:	8efa                	mv	t4,t5
    c000837e:	0407c663          	bltz	a5,c00083ca <__subtf3+0xe6>
    c0008382:	47c1                	li	a5,16
    c0008384:	aad5                	j	c0008578 <__subtf3+0x294>
    c0008386:	fff7871b          	addiw	a4,a5,-1
    c000838a:	e331                	bnez	a4,c00083ce <__subtf3+0xea>
    c000838c:	9efa                	add	t4,t4,t5
    c000838e:	96ae                	add	a3,a3,a1
    c0008390:	01eebf33          	sltu	t5,t4,t5
    c0008394:	96fa                	add	a3,a3,t5
    c0008396:	00c69793          	slli	a5,a3,0xc
    c000839a:	6c07d763          	bgez	a5,c0008a68 <__subtf3+0x784>
    c000839e:	67a1                	lui	a5,0x8
    c00083a0:	0985                	addi	s3,s3,1
    c00083a2:	fff78713          	addi	a4,a5,-1 # 7fff <main-0xbfff8001>
    c00083a6:	2ae98063          	beq	s3,a4,c0008646 <__subtf3+0x362>
    c00083aa:	557d                	li	a0,-1
    c00083ac:	154e                	slli	a0,a0,0x33
    c00083ae:	157d                	addi	a0,a0,-1
    c00083b0:	8d75                	and	a0,a0,a3
    c00083b2:	001ed593          	srli	a1,t4,0x1
    c00083b6:	001efe93          	andi	t4,t4,1
    c00083ba:	03f51693          	slli	a3,a0,0x3f
    c00083be:	01d5eeb3          	or	t4,a1,t4
    c00083c2:	01d6eeb3          	or	t4,a3,t4
    c00083c6:	00155693          	srli	a3,a0,0x1
    c00083ca:	4701                	li	a4,0
    c00083cc:	a425                	j	c00085f4 <__subtf3+0x310>
    c00083ce:	02c31063          	bne	t1,a2,c00083ee <__subtf3+0x10a>
    c00083d2:	01e5eeb3          	or	t4,a1,t5
    c00083d6:	6c0e8f63          	beqz	t4,c0008ab4 <__subtf3+0x7d0>
    c00083da:	00d59793          	slli	a5,a1,0xd
    c00083de:	86ae                	mv	a3,a1
    c00083e0:	8efa                	mv	t4,t5
    c00083e2:	a851                	j	c0008476 <__subtf3+0x192>
    c00083e4:	fec307e3          	beq	t1,a2,c00083d2 <__subtf3+0xee>
    c00083e8:	4785                	li	a5,1
    c00083ea:	17ce                	slli	a5,a5,0x33
    c00083ec:	8edd                	or	a3,a3,a5
    c00083ee:	07400793          	li	a5,116
    c00083f2:	04e7ce63          	blt	a5,a4,c000844e <__subtf3+0x16a>
    c00083f6:	03f00793          	li	a5,63
    c00083fa:	02e7c363          	blt	a5,a4,c0008420 <__subtf3+0x13c>
    c00083fe:	04000413          	li	s0,64
    c0008402:	9c19                	subw	s0,s0,a4
    c0008404:	008697b3          	sll	a5,a3,s0
    c0008408:	00eed633          	srl	a2,t4,a4
    c000840c:	008e9eb3          	sll	t4,t4,s0
    c0008410:	8fd1                	or	a5,a5,a2
    c0008412:	01d03eb3          	snez	t4,t4
    c0008416:	01d7eeb3          	or	t4,a5,t4
    c000841a:	00e6d6b3          	srl	a3,a3,a4
    c000841e:	b7bd                	j	c000838c <__subtf3+0xa8>
    c0008420:	fc07079b          	addiw	a5,a4,-64
    c0008424:	04000613          	li	a2,64
    c0008428:	00f6d7b3          	srl	a5,a3,a5
    c000842c:	4401                	li	s0,0
    c000842e:	00c70863          	beq	a4,a2,c000843e <__subtf3+0x15a>
    c0008432:	08000413          	li	s0,128
    c0008436:	40e4073b          	subw	a4,s0,a4
    c000843a:	00e69433          	sll	s0,a3,a4
    c000843e:	01d46eb3          	or	t4,s0,t4
    c0008442:	01d03eb3          	snez	t4,t4
    c0008446:	01d7eeb3          	or	t4,a5,t4
    c000844a:	4681                	li	a3,0
    c000844c:	b781                	j	c000838c <__subtf3+0xa8>
    c000844e:	01d6eeb3          	or	t4,a3,t4
    c0008452:	01d03eb3          	snez	t4,t4
    c0008456:	bfd5                	j	c000844a <__subtf3+0x166>
    c0008458:	cf79                	beqz	a4,c0008536 <__subtf3+0x252>
    c000845a:	08031263          	bnez	t1,c00084de <__subtf3+0x1fa>
    c000845e:	01e5e533          	or	a0,a1,t5
    c0008462:	ed11                	bnez	a0,c000847e <__subtf3+0x19a>
    c0008464:	89c6                	mv	s3,a7
    c0008466:	60c89163          	bne	a7,a2,c0008a68 <__subtf3+0x784>
    c000846a:	01d6e7b3          	or	a5,a3,t4
    c000846e:	62078b63          	beqz	a5,c0008aa4 <__subtf3+0x7c0>
    c0008472:	00d69793          	slli	a5,a3,0xd
    c0008476:	4701                	li	a4,0
    c0008478:	1607ce63          	bltz	a5,c00085f4 <__subtf3+0x310>
    c000847c:	b719                	j	c0008382 <__subtf3+0x9e>
    c000847e:	557d                	li	a0,-1
    c0008480:	00a71a63          	bne	a4,a0,c0008494 <__subtf3+0x1b0>
    c0008484:	9f76                	add	t5,t5,t4
    c0008486:	96ae                	add	a3,a3,a1
    c0008488:	01df3eb3          	sltu	t4,t5,t4
    c000848c:	96f6                	add	a3,a3,t4
    c000848e:	8efa                	mv	t4,t5
    c0008490:	89c6                	mv	s3,a7
    c0008492:	b711                	j	c0008396 <__subtf3+0xb2>
    c0008494:	04c88763          	beq	a7,a2,c00084e2 <__subtf3+0x1fe>
    c0008498:	fff7c793          	not	a5,a5
    c000849c:	0007881b          	sext.w	a6,a5
    c00084a0:	07400793          	li	a5,116
    c00084a4:	0907c463          	blt	a5,a6,c000852c <__subtf3+0x248>
    c00084a8:	03f00793          	li	a5,63
    c00084ac:	0507c963          	blt	a5,a6,c00084fe <__subtf3+0x21a>
    c00084b0:	04000513          	li	a0,64
    c00084b4:	4105053b          	subw	a0,a0,a6
    c00084b8:	010f57b3          	srl	a5,t5,a6
    c00084bc:	00a59433          	sll	s0,a1,a0
    c00084c0:	00af1f33          	sll	t5,t5,a0
    c00084c4:	8c5d                	or	s0,s0,a5
    c00084c6:	01e03f33          	snez	t5,t5
    c00084ca:	01e46f33          	or	t5,s0,t5
    c00084ce:	0105d833          	srl	a6,a1,a6
    c00084d2:	9f76                	add	t5,t5,t4
    c00084d4:	9836                	add	a6,a6,a3
    c00084d6:	01df36b3          	sltu	a3,t5,t4
    c00084da:	96c2                	add	a3,a3,a6
    c00084dc:	bf4d                	j	c000848e <__subtf3+0x1aa>
    c00084de:	00c89a63          	bne	a7,a2,c00084f2 <__subtf3+0x20e>
    c00084e2:	01d6e7b3          	or	a5,a3,t4
    c00084e6:	5c078363          	beqz	a5,c0008aac <__subtf3+0x7c8>
    c00084ea:	00d69793          	slli	a5,a3,0xd
    c00084ee:	89c6                	mv	s3,a7
    c00084f0:	b759                	j	c0008476 <__subtf3+0x192>
    c00084f2:	40f0083b          	negw	a6,a5
    c00084f6:	4785                	li	a5,1
    c00084f8:	17ce                	slli	a5,a5,0x33
    c00084fa:	8ddd                	or	a1,a1,a5
    c00084fc:	b755                	j	c00084a0 <__subtf3+0x1bc>
    c00084fe:	fc08041b          	addiw	s0,a6,-64
    c0008502:	04000793          	li	a5,64
    c0008506:	0085d433          	srl	s0,a1,s0
    c000850a:	4501                	li	a0,0
    c000850c:	00f80863          	beq	a6,a5,c000851c <__subtf3+0x238>
    c0008510:	08000513          	li	a0,128
    c0008514:	4105083b          	subw	a6,a0,a6
    c0008518:	01059533          	sll	a0,a1,a6
    c000851c:	01e56f33          	or	t5,a0,t5
    c0008520:	01e03f33          	snez	t5,t5
    c0008524:	01e46f33          	or	t5,s0,t5
    c0008528:	4801                	li	a6,0
    c000852a:	b765                	j	c00084d2 <__subtf3+0x1ee>
    c000852c:	01e5e433          	or	s0,a1,t5
    c0008530:	00803f33          	snez	t5,s0
    c0008534:	bfd5                	j	c0008528 <__subtf3+0x244>
    c0008536:	00130e13          	addi	t3,t1,1
    c000853a:	ffe50793          	addi	a5,a0,-2
    c000853e:	00fe7533          	and	a0,t3,a5
    c0008542:	e559                	bnez	a0,c00085d0 <__subtf3+0x2ec>
    c0008544:	01e5e533          	or	a0,a1,t5
    c0008548:	04031063          	bnez	t1,c0008588 <__subtf3+0x2a4>
    c000854c:	52050063          	beqz	a0,c0008a6c <__subtf3+0x788>
    c0008550:	01d6e7b3          	or	a5,a3,t4
    c0008554:	2c078963          	beqz	a5,c0008826 <__subtf3+0x542>
    c0008558:	9efa                	add	t4,t4,t5
    c000855a:	96ae                	add	a3,a3,a1
    c000855c:	01eeb433          	sltu	s0,t4,t5
    c0008560:	008685b3          	add	a1,a3,s0
    c0008564:	00c59793          	slli	a5,a1,0xc
    c0008568:	5007d363          	bgez	a5,c0008a6e <__subtf3+0x78a>
    c000856c:	56fd                	li	a3,-1
    c000856e:	16ce                	slli	a3,a3,0x33
    c0008570:	16fd                	addi	a3,a3,-1
    c0008572:	8eed                	and	a3,a3,a1
    c0008574:	4781                	li	a5,0
    c0008576:	4985                	li	s3,1
    c0008578:	007ef613          	andi	a2,t4,7
    c000857c:	ee59                	bnez	a2,c000861a <__subtf3+0x336>
    c000857e:	38070663          	beqz	a4,c000890a <__subtf3+0x626>
    c0008582:	0017f713          	andi	a4,a5,1
    c0008586:	ab81                	j	c0008ad6 <__subtf3+0x7f2>
    c0008588:	02c31f63          	bne	t1,a2,c00085c6 <__subtf3+0x2e2>
    c000858c:	58050563          	beqz	a0,c0008b16 <__subtf3+0x832>
    c0008590:	0325d793          	srli	a5,a1,0x32
    c0008594:	8b85                	andi	a5,a5,1
    c0008596:	0017b793          	seqz	a5,a5
    c000859a:	0792                	slli	a5,a5,0x4
    c000859c:	00689c63          	bne	a7,t1,c00085b4 <__subtf3+0x2d0>
    c00085a0:	01d6e633          	or	a2,a3,t4
    c00085a4:	56060663          	beqz	a2,c0008b10 <__subtf3+0x82c>
    c00085a8:	00d69613          	slli	a2,a3,0xd
    c00085ac:	00064363          	bltz	a2,c00085b2 <__subtf3+0x2ce>
    c00085b0:	47c1                	li	a5,16
    c00085b2:	c519                	beqz	a0,c00085c0 <__subtf3+0x2dc>
    c00085b4:	01d6e6b3          	or	a3,a3,t4
    c00085b8:	34069363          	bnez	a3,c00088fe <__subtf3+0x61a>
    c00085bc:	86ae                	mv	a3,a1
    c00085be:	8efa                	mv	t4,t5
    c00085c0:	69a1                	lui	s3,0x8
    c00085c2:	19fd                	addi	s3,s3,-1
    c00085c4:	bf55                	j	c0008578 <__subtf3+0x294>
    c00085c6:	4781                	li	a5,0
    c00085c8:	fec895e3          	bne	a7,a2,c00085b2 <__subtf3+0x2ce>
    c00085cc:	4781                	li	a5,0
    c00085ce:	bfc9                	j	c00085a0 <__subtf3+0x2bc>
    c00085d0:	02ce0463          	beq	t3,a2,c00085f8 <__subtf3+0x314>
    c00085d4:	9efa                	add	t4,t4,t5
    c00085d6:	00d58433          	add	s0,a1,a3
    c00085da:	01eeb6b3          	sltu	a3,t4,t5
    c00085de:	00d40f33          	add	t5,s0,a3
    c00085e2:	03ff1693          	slli	a3,t5,0x3f
    c00085e6:	001ede93          	srli	t4,t4,0x1
    c00085ea:	01d6eeb3          	or	t4,a3,t4
    c00085ee:	89f2                	mv	s3,t3
    c00085f0:	001f5693          	srli	a3,t5,0x1
    c00085f4:	4781                	li	a5,0
    c00085f6:	b749                	j	c0008578 <__subtf3+0x294>
    c00085f8:	c491                	beqz	s1,c0008604 <__subtf3+0x320>
    c00085fa:	468d                	li	a3,3
    c00085fc:	00d49663          	bne	s1,a3,c0008608 <__subtf3+0x324>
    c0008600:	00091963          	bnez	s2,c0008612 <__subtf3+0x32e>
    c0008604:	89f2                	mv	s3,t3
    c0008606:	a0b1                	j	c0008652 <__subtf3+0x36e>
    c0008608:	4689                	li	a3,2
    c000860a:	00d49463          	bne	s1,a3,c0008612 <__subtf3+0x32e>
    c000860e:	fe091be3          	bnez	s2,c0008604 <__subtf3+0x320>
    c0008612:	56fd                	li	a3,-1
    c0008614:	5efd                	li	t4,-1
    c0008616:	89be                	mv	s3,a5
    c0008618:	4795                	li	a5,5
    c000861a:	4609                	li	a2,2
    c000861c:	0017e793          	ori	a5,a5,1
    c0008620:	4ac48963          	beq	s1,a2,c0008ad2 <__subtf3+0x7ee>
    c0008624:	460d                	li	a2,3
    c0008626:	4ac48163          	beq	s1,a2,c0008ac8 <__subtf3+0x7e4>
    c000862a:	4a049663          	bnez	s1,c0008ad6 <__subtf3+0x7f2>
    c000862e:	00fef613          	andi	a2,t4,15
    c0008632:	4591                	li	a1,4
    c0008634:	4ab60163          	beq	a2,a1,c0008ad6 <__subtf3+0x7f2>
    c0008638:	004e8593          	addi	a1,t4,4
    c000863c:	01d5beb3          	sltu	t4,a1,t4
    c0008640:	96f6                	add	a3,a3,t4
    c0008642:	8eae                	mv	t4,a1
    c0008644:	a949                	j	c0008ad6 <__subtf3+0x7f2>
    c0008646:	c491                	beqz	s1,c0008652 <__subtf3+0x36e>
    c0008648:	470d                	li	a4,3
    c000864a:	00e49863          	bne	s1,a4,c000865a <__subtf3+0x376>
    c000864e:	00091b63          	bnez	s2,c0008664 <__subtf3+0x380>
    c0008652:	4681                	li	a3,0
    c0008654:	4e81                	li	t4,0
    c0008656:	4795                	li	a5,5
    c0008658:	ac4d                	j	c000890a <__subtf3+0x626>
    c000865a:	4709                	li	a4,2
    c000865c:	00e49463          	bne	s1,a4,c0008664 <__subtf3+0x380>
    c0008660:	fe0919e3          	bnez	s2,c0008652 <__subtf3+0x36e>
    c0008664:	56fd                	li	a3,-1
    c0008666:	5efd                	li	t4,-1
    c0008668:	ffe78993          	addi	s3,a5,-2
    c000866c:	4701                	li	a4,0
    c000866e:	b76d                	j	c0008618 <__subtf3+0x334>
    c0008670:	0ae05963          	blez	a4,c0008722 <__subtf3+0x43e>
    c0008674:	06089563          	bnez	a7,c00086de <__subtf3+0x3fa>
    c0008678:	01d6e733          	or	a4,a3,t4
    c000867c:	ce0707e3          	beqz	a4,c000836a <__subtf3+0x86>
    c0008680:	fff7871b          	addiw	a4,a5,-1
    c0008684:	e315                	bnez	a4,c00086a8 <__subtf3+0x3c4>
    c0008686:	41df0eb3          	sub	t4,t5,t4
    c000868a:	40d586b3          	sub	a3,a1,a3
    c000868e:	01df3f33          	sltu	t5,t5,t4
    c0008692:	41e686b3          	sub	a3,a3,t5
    c0008696:	00c69793          	slli	a5,a3,0xc
    c000869a:	3c07d763          	bgez	a5,c0008a68 <__subtf3+0x784>
    c000869e:	547d                	li	s0,-1
    c00086a0:	8035                	srli	s0,s0,0xd
    c00086a2:	8c75                	and	s0,s0,a3
    c00086a4:	8a76                	mv	s4,t4
    c00086a6:	acfd                	j	c00089a4 <__subtf3+0x6c0>
    c00086a8:	d2c305e3          	beq	t1,a2,c00083d2 <__subtf3+0xee>
    c00086ac:	07400793          	li	a5,116
    c00086b0:	06e7c463          	blt	a5,a4,c0008718 <__subtf3+0x434>
    c00086b4:	03f00793          	li	a5,63
    c00086b8:	02e7c963          	blt	a5,a4,c00086ea <__subtf3+0x406>
    c00086bc:	04000413          	li	s0,64
    c00086c0:	9c19                	subw	s0,s0,a4
    c00086c2:	008697b3          	sll	a5,a3,s0
    c00086c6:	00eed633          	srl	a2,t4,a4
    c00086ca:	008e9eb3          	sll	t4,t4,s0
    c00086ce:	8fd1                	or	a5,a5,a2
    c00086d0:	01d03eb3          	snez	t4,t4
    c00086d4:	01d7eeb3          	or	t4,a5,t4
    c00086d8:	00e6d6b3          	srl	a3,a3,a4
    c00086dc:	b76d                	j	c0008686 <__subtf3+0x3a2>
    c00086de:	cec30ae3          	beq	t1,a2,c00083d2 <__subtf3+0xee>
    c00086e2:	4785                	li	a5,1
    c00086e4:	17ce                	slli	a5,a5,0x33
    c00086e6:	8edd                	or	a3,a3,a5
    c00086e8:	b7d1                	j	c00086ac <__subtf3+0x3c8>
    c00086ea:	fc07079b          	addiw	a5,a4,-64
    c00086ee:	04000613          	li	a2,64
    c00086f2:	00f6d7b3          	srl	a5,a3,a5
    c00086f6:	4401                	li	s0,0
    c00086f8:	00c70863          	beq	a4,a2,c0008708 <__subtf3+0x424>
    c00086fc:	08000413          	li	s0,128
    c0008700:	40e4073b          	subw	a4,s0,a4
    c0008704:	00e69433          	sll	s0,a3,a4
    c0008708:	01d46eb3          	or	t4,s0,t4
    c000870c:	01d03eb3          	snez	t4,t4
    c0008710:	01d7eeb3          	or	t4,a5,t4
    c0008714:	4681                	li	a3,0
    c0008716:	bf85                	j	c0008686 <__subtf3+0x3a2>
    c0008718:	01d6eeb3          	or	t4,a3,t4
    c000871c:	01d03eb3          	snez	t4,t4
    c0008720:	bfd5                	j	c0008714 <__subtf3+0x430>
    c0008722:	cb71                	beqz	a4,c00087f6 <__subtf3+0x512>
    c0008724:	08031563          	bnez	t1,c00087ae <__subtf3+0x4ca>
    c0008728:	01e5e533          	or	a0,a1,t5
    c000872c:	ed01                	bnez	a0,c0008744 <__subtf3+0x460>
    c000872e:	34c89563          	bne	a7,a2,c0008a78 <__subtf3+0x794>
    c0008732:	01d6e7b3          	or	a5,a3,t4
    c0008736:	38078163          	beqz	a5,c0008ab8 <__subtf3+0x7d4>
    c000873a:	00d69793          	slli	a5,a3,0xd
    c000873e:	89c6                	mv	s3,a7
    c0008740:	8972                	mv	s2,t3
    c0008742:	bb15                	j	c0008476 <__subtf3+0x192>
    c0008744:	557d                	li	a0,-1
    c0008746:	00a71d63          	bne	a4,a0,c0008760 <__subtf3+0x47c>
    c000874a:	41ee8f33          	sub	t5,t4,t5
    c000874e:	8e8d                	sub	a3,a3,a1
    c0008750:	01eebeb3          	sltu	t4,t4,t5
    c0008754:	41d686b3          	sub	a3,a3,t4
    c0008758:	8efa                	mv	t4,t5
    c000875a:	89c6                	mv	s3,a7
    c000875c:	8972                	mv	s2,t3
    c000875e:	bf25                	j	c0008696 <__subtf3+0x3b2>
    c0008760:	fcc889e3          	beq	a7,a2,c0008732 <__subtf3+0x44e>
    c0008764:	fff7c793          	not	a5,a5
    c0008768:	2781                	sext.w	a5,a5
    c000876a:	07400713          	li	a4,116
    c000876e:	06f74f63          	blt	a4,a5,c00087ec <__subtf3+0x508>
    c0008772:	03f00713          	li	a4,63
    c0008776:	04f74463          	blt	a4,a5,c00087be <__subtf3+0x4da>
    c000877a:	04000513          	li	a0,64
    c000877e:	9d1d                	subw	a0,a0,a5
    c0008780:	00ff5833          	srl	a6,t5,a5
    c0008784:	00a59433          	sll	s0,a1,a0
    c0008788:	00af1f33          	sll	t5,t5,a0
    c000878c:	01046433          	or	s0,s0,a6
    c0008790:	01e03f33          	snez	t5,t5
    c0008794:	01e46f33          	or	t5,s0,t5
    c0008798:	00f5d7b3          	srl	a5,a1,a5
    c000879c:	41ee8f33          	sub	t5,t4,t5
    c00087a0:	40f687b3          	sub	a5,a3,a5
    c00087a4:	01eeb6b3          	sltu	a3,t4,t5
    c00087a8:	40d786b3          	sub	a3,a5,a3
    c00087ac:	b775                	j	c0008758 <__subtf3+0x474>
    c00087ae:	f8c882e3          	beq	a7,a2,c0008732 <__subtf3+0x44e>
    c00087b2:	4705                	li	a4,1
    c00087b4:	174e                	slli	a4,a4,0x33
    c00087b6:	40f007bb          	negw	a5,a5
    c00087ba:	8dd9                	or	a1,a1,a4
    c00087bc:	b77d                	j	c000876a <__subtf3+0x486>
    c00087be:	fc07841b          	addiw	s0,a5,-64
    c00087c2:	04000713          	li	a4,64
    c00087c6:	0085d433          	srl	s0,a1,s0
    c00087ca:	4501                	li	a0,0
    c00087cc:	00e78863          	beq	a5,a4,c00087dc <__subtf3+0x4f8>
    c00087d0:	08000513          	li	a0,128
    c00087d4:	40f507bb          	subw	a5,a0,a5
    c00087d8:	00f59533          	sll	a0,a1,a5
    c00087dc:	01e56f33          	or	t5,a0,t5
    c00087e0:	01e03f33          	snez	t5,t5
    c00087e4:	01e46f33          	or	t5,s0,t5
    c00087e8:	4781                	li	a5,0
    c00087ea:	bf4d                	j	c000879c <__subtf3+0x4b8>
    c00087ec:	01e5e433          	or	s0,a1,t5
    c00087f0:	00803f33          	snez	t5,s0
    c00087f4:	bfd5                	j	c00087e8 <__subtf3+0x504>
    c00087f6:	00130813          	addi	a6,t1,1
    c00087fa:	ffe50793          	addi	a5,a0,-2
    c00087fe:	00f877b3          	and	a5,a6,a5
    c0008802:	16079e63          	bnez	a5,c000897e <__subtf3+0x69a>
    c0008806:	01e5e833          	or	a6,a1,t5
    c000880a:	01d6e533          	or	a0,a3,t4
    c000880e:	0a031263          	bnez	t1,c00088b2 <__subtf3+0x5ce>
    c0008812:	06081063          	bnez	a6,c0008872 <__subtf3+0x58e>
    c0008816:	26051463          	bnez	a0,c0008a7e <__subtf3+0x79a>
    c000881a:	ffe48913          	addi	s2,s1,-2
    c000881e:	00193913          	seqz	s2,s2
    c0008822:	4581                	li	a1,0
    c0008824:	4f01                	li	t5,0
    c0008826:	00bf6eb3          	or	t4,t5,a1
    c000882a:	280e8c63          	beqz	t4,c0008ac2 <__subtf3+0x7de>
    c000882e:	001f1613          	slli	a2,t5,0x1
    c0008832:	03ff5793          	srli	a5,t5,0x3f
    c0008836:	00159713          	slli	a4,a1,0x1
    c000883a:	00767693          	andi	a3,a2,7
    c000883e:	973e                	add	a4,a4,a5
    c0008840:	4781                	li	a5,0
    c0008842:	c285                	beqz	a3,c0008862 <__subtf3+0x57e>
    c0008844:	4789                	li	a5,2
    c0008846:	24f48b63          	beq	s1,a5,c0008a9c <__subtf3+0x7b8>
    c000884a:	478d                	li	a5,3
    c000884c:	22f48f63          	beq	s1,a5,c0008a8a <__subtf3+0x7a6>
    c0008850:	4785                	li	a5,1
    c0008852:	e881                	bnez	s1,c0008862 <__subtf3+0x57e>
    c0008854:	00f67693          	andi	a3,a2,15
    c0008858:	4511                	li	a0,4
    c000885a:	ffc63613          	sltiu	a2,a2,-4
    c000885e:	22a69b63          	bne	a3,a0,c0008a94 <__subtf3+0x7b0>
    c0008862:	9351                	srli	a4,a4,0x34
    c0008864:	00174713          	xori	a4,a4,1
    c0008868:	8b05                	andi	a4,a4,1
    c000886a:	86ae                	mv	a3,a1
    c000886c:	8efa                	mv	t4,t5
    c000886e:	4981                	li	s3,0
    c0008870:	b321                	j	c0008578 <__subtf3+0x294>
    c0008872:	d955                	beqz	a0,c0008826 <__subtf3+0x542>
    c0008874:	41df0733          	sub	a4,t5,t4
    c0008878:	00ef3633          	sltu	a2,t5,a4
    c000887c:	40d587b3          	sub	a5,a1,a3
    c0008880:	8f91                	sub	a5,a5,a2
    c0008882:	00c79613          	slli	a2,a5,0xc
    c0008886:	00065c63          	bgez	a2,c000889e <__subtf3+0x5ba>
    c000888a:	41ee8f33          	sub	t5,t4,t5
    c000888e:	40b68433          	sub	s0,a3,a1
    c0008892:	01eeb6b3          	sltu	a3,t4,t5
    c0008896:	40d405b3          	sub	a1,s0,a3
    c000889a:	8972                	mv	s2,t3
    c000889c:	b769                	j	c0008826 <__subtf3+0x542>
    c000889e:	00f76f33          	or	t5,a4,a5
    c00088a2:	1e0f1163          	bnez	t5,c0008a84 <__subtf3+0x7a0>
    c00088a6:	ffe48913          	addi	s2,s1,-2
    c00088aa:	00193913          	seqz	s2,s2
    c00088ae:	4581                	li	a1,0
    c00088b0:	bf9d                	j	c0008826 <__subtf3+0x542>
    c00088b2:	02c31f63          	bne	t1,a2,c00088f0 <__subtf3+0x60c>
    c00088b6:	24080963          	beqz	a6,c0008b08 <__subtf3+0x824>
    c00088ba:	0325d793          	srli	a5,a1,0x32
    c00088be:	8b85                	andi	a5,a5,1
    c00088c0:	0017b793          	seqz	a5,a5
    c00088c4:	0792                	slli	a5,a5,0x4
    c00088c6:	02689a63          	bne	a7,t1,c00088fa <__subtf3+0x616>
    c00088ca:	c511                	beqz	a0,c00088d6 <__subtf3+0x5f2>
    c00088cc:	00d69613          	slli	a2,a3,0xd
    c00088d0:	00064363          	bltz	a2,c00088d6 <__subtf3+0x5f2>
    c00088d4:	47c1                	li	a5,16
    c00088d6:	02081263          	bnez	a6,c00088fa <__subtf3+0x616>
    c00088da:	8972                	mv	s2,t3
    c00088dc:	ce0512e3          	bnez	a0,c00085c0 <__subtf3+0x2dc>
    c00088e0:	4685                	li	a3,1
    c00088e2:	69a1                	lui	s3,0x8
    c00088e4:	4e81                	li	t4,0
    c00088e6:	4901                	li	s2,0
    c00088e8:	16ca                	slli	a3,a3,0x32
    c00088ea:	19fd                	addi	s3,s3,-1
    c00088ec:	47c1                	li	a5,16
    c00088ee:	a831                	j	c000890a <__subtf3+0x626>
    c00088f0:	4781                	li	a5,0
    c00088f2:	fec892e3          	bne	a7,a2,c00088d6 <__subtf3+0x5f2>
    c00088f6:	4781                	li	a5,0
    c00088f8:	bfc9                	j	c00088ca <__subtf3+0x5e6>
    c00088fa:	cc0501e3          	beqz	a0,c00085bc <__subtf3+0x2d8>
    c00088fe:	4685                	li	a3,1
    c0008900:	69a1                	lui	s3,0x8
    c0008902:	4901                	li	s2,0
    c0008904:	16ca                	slli	a3,a3,0x32
    c0008906:	4e81                	li	t4,0
    c0008908:	19fd                	addi	s3,s3,-1
    c000890a:	00c69713          	slli	a4,a3,0xc
    c000890e:	00075c63          	bgez	a4,c0008926 <__subtf3+0x642>
    c0008912:	6721                	lui	a4,0x8
    c0008914:	0985                	addi	s3,s3,1
    c0008916:	fff70613          	addi	a2,a4,-1 # 7fff <main-0xbfff8001>
    c000891a:	1cc98363          	beq	s3,a2,c0008ae0 <__subtf3+0x7fc>
    c000891e:	577d                	li	a4,-1
    c0008920:	174e                	slli	a4,a4,0x33
    c0008922:	177d                	addi	a4,a4,-1
    c0008924:	8ef9                	and	a3,a3,a4
    c0008926:	6721                	lui	a4,0x8
    c0008928:	03d69513          	slli	a0,a3,0x3d
    c000892c:	003ede93          	srli	t4,t4,0x3
    c0008930:	177d                	addi	a4,a4,-1
    c0008932:	01d56533          	or	a0,a0,t4
    c0008936:	828d                	srli	a3,a3,0x3
    c0008938:	00e99963          	bne	s3,a4,c000894a <__subtf3+0x666>
    c000893c:	8d55                	or	a0,a0,a3
    c000893e:	4681                	li	a3,0
    c0008940:	c509                	beqz	a0,c000894a <__subtf3+0x666>
    c0008942:	4685                	li	a3,1
    c0008944:	16be                	slli	a3,a3,0x2f
    c0008946:	4501                	li	a0,0
    c0008948:	4901                	li	s2,0
    c000894a:	65a1                	lui	a1,0x8
    c000894c:	577d                	li	a4,-1
    c000894e:	15fd                	addi	a1,a1,-1
    c0008950:	01075613          	srli	a2,a4,0x10
    c0008954:	00b9f5b3          	and	a1,s3,a1
    c0008958:	15c2                	slli	a1,a1,0x30
    c000895a:	8ef1                	and	a3,a3,a2
    c000895c:	8dd5                	or	a1,a1,a3
    c000895e:	8305                	srli	a4,a4,0x1
    c0008960:	197e                	slli	s2,s2,0x3f
    c0008962:	8df9                	and	a1,a1,a4
    c0008964:	0125e5b3          	or	a1,a1,s2
    c0008968:	c399                	beqz	a5,c000896e <__subtf3+0x68a>
    c000896a:	0017a073          	csrs	fflags,a5
    c000896e:	70a2                	ld	ra,40(sp)
    c0008970:	7402                	ld	s0,32(sp)
    c0008972:	64e2                	ld	s1,24(sp)
    c0008974:	6942                	ld	s2,16(sp)
    c0008976:	69a2                	ld	s3,8(sp)
    c0008978:	6a02                	ld	s4,0(sp)
    c000897a:	6145                	addi	sp,sp,48
    c000897c:	8082                	ret
    c000897e:	41df0a33          	sub	s4,t5,t4
    c0008982:	014f37b3          	sltu	a5,t5,s4
    c0008986:	40d58433          	sub	s0,a1,a3
    c000898a:	8c1d                	sub	s0,s0,a5
    c000898c:	00c41793          	slli	a5,s0,0xc
    c0008990:	0607de63          	bgez	a5,c0008a0c <__subtf3+0x728>
    c0008994:	41ee8a33          	sub	s4,t4,t5
    c0008998:	40b68433          	sub	s0,a3,a1
    c000899c:	014eb6b3          	sltu	a3,t4,s4
    c00089a0:	8c15                	sub	s0,s0,a3
    c00089a2:	8972                	mv	s2,t3
    c00089a4:	c82d                	beqz	s0,c0008a16 <__subtf3+0x732>
    c00089a6:	8522                	mv	a0,s0
    c00089a8:	00000097          	auipc	ra,0x0
    c00089ac:	56a080e7          	jalr	1386(ra) # c0008f12 <__clzdi2>
    c00089b0:	2501                	sext.w	a0,a0
    c00089b2:	ff45061b          	addiw	a2,a0,-12
    c00089b6:	03f00793          	li	a5,63
    c00089ba:	8f32                	mv	t5,a2
    c00089bc:	06c7c563          	blt	a5,a2,c0008a26 <__subtf3+0x742>
    c00089c0:	04000693          	li	a3,64
    c00089c4:	9e91                	subw	a3,a3,a2
    c00089c6:	00c41433          	sll	s0,s0,a2
    c00089ca:	00da56b3          	srl	a3,s4,a3
    c00089ce:	8c55                	or	s0,s0,a3
    c00089d0:	00ca1eb3          	sll	t4,s4,a2
    c00089d4:	09364463          	blt	a2,s3,c0008a5c <__subtf3+0x778>
    c00089d8:	413f09bb          	subw	s3,t5,s3
    c00089dc:	0019869b          	addiw	a3,s3,1
    c00089e0:	03f00713          	li	a4,63
    c00089e4:	04d74763          	blt	a4,a3,c0008a32 <__subtf3+0x74e>
    c00089e8:	04000613          	li	a2,64
    c00089ec:	9e15                	subw	a2,a2,a3
    c00089ee:	00c41f33          	sll	t5,s0,a2
    c00089f2:	00ded533          	srl	a0,t4,a3
    c00089f6:	00ce9633          	sll	a2,t4,a2
    c00089fa:	00af6f33          	or	t5,t5,a0
    c00089fe:	00c03633          	snez	a2,a2
    c0008a02:	00cf6f33          	or	t5,t5,a2
    c0008a06:	00d455b3          	srl	a1,s0,a3
    c0008a0a:	bd31                	j	c0008826 <__subtf3+0x542>
    c0008a0c:	008a6f33          	or	t5,s4,s0
    c0008a10:	f80f1ae3          	bnez	t5,c00089a4 <__subtf3+0x6c0>
    c0008a14:	bd49                	j	c00088a6 <__subtf3+0x5c2>
    c0008a16:	8552                	mv	a0,s4
    c0008a18:	00000097          	auipc	ra,0x0
    c0008a1c:	4fa080e7          	jalr	1274(ra) # c0008f12 <__clzdi2>
    c0008a20:	0405051b          	addiw	a0,a0,64
    c0008a24:	b779                	j	c00089b2 <__subtf3+0x6ce>
    c0008a26:	fb45041b          	addiw	s0,a0,-76
    c0008a2a:	008a1433          	sll	s0,s4,s0
    c0008a2e:	4e81                	li	t4,0
    c0008a30:	b755                	j	c00089d4 <__subtf3+0x6f0>
    c0008a32:	fc198f1b          	addiw	t5,s3,-63
    c0008a36:	04000713          	li	a4,64
    c0008a3a:	01e45f33          	srl	t5,s0,t5
    c0008a3e:	4601                	li	a2,0
    c0008a40:	00e68763          	beq	a3,a4,c0008a4e <__subtf3+0x76a>
    c0008a44:	08000613          	li	a2,128
    c0008a48:	9e15                	subw	a2,a2,a3
    c0008a4a:	00c41633          	sll	a2,s0,a2
    c0008a4e:	00cee633          	or	a2,t4,a2
    c0008a52:	00c03633          	snez	a2,a2
    c0008a56:	00cf6f33          	or	t5,t5,a2
    c0008a5a:	bd91                	j	c00088ae <__subtf3+0x5ca>
    c0008a5c:	56fd                	li	a3,-1
    c0008a5e:	16ce                	slli	a3,a3,0x33
    c0008a60:	16fd                	addi	a3,a3,-1
    c0008a62:	40c989b3          	sub	s3,s3,a2
    c0008a66:	8ee1                	and	a3,a3,s0
    c0008a68:	960991e3          	bnez	s3,c00083ca <__subtf3+0xe6>
    c0008a6c:	85b6                	mv	a1,a3
    c0008a6e:	8f76                	mv	t5,t4
    c0008a70:	bb5d                	j	c0008826 <__subtf3+0x542>
    c0008a72:	86ae                	mv	a3,a1
    c0008a74:	8efa                	mv	t4,t5
    c0008a76:	bfcd                	j	c0008a68 <__subtf3+0x784>
    c0008a78:	89c6                	mv	s3,a7
    c0008a7a:	8972                	mv	s2,t3
    c0008a7c:	b7f5                	j	c0008a68 <__subtf3+0x784>
    c0008a7e:	85b6                	mv	a1,a3
    c0008a80:	8f76                	mv	t5,t4
    c0008a82:	bd21                	j	c000889a <__subtf3+0x5b6>
    c0008a84:	85be                	mv	a1,a5
    c0008a86:	8f3a                	mv	t5,a4
    c0008a88:	bb79                	j	c0008826 <__subtf3+0x542>
    c0008a8a:	4785                	li	a5,1
    c0008a8c:	dc091be3          	bnez	s2,c0008862 <__subtf3+0x57e>
    c0008a90:	ff863613          	sltiu	a2,a2,-8
    c0008a94:	00164613          	xori	a2,a2,1
    c0008a98:	9732                	add	a4,a4,a2
    c0008a9a:	b3e1                	j	c0008862 <__subtf3+0x57e>
    c0008a9c:	4785                	li	a5,1
    c0008a9e:	dc0902e3          	beqz	s2,c0008862 <__subtf3+0x57e>
    c0008aa2:	b7fd                	j	c0008a90 <__subtf3+0x7ac>
    c0008aa4:	4681                	li	a3,0
    c0008aa6:	4e81                	li	t4,0
    c0008aa8:	4781                	li	a5,0
    c0008aaa:	b585                	j	c000890a <__subtf3+0x626>
    c0008aac:	4681                	li	a3,0
    c0008aae:	4e81                	li	t4,0
    c0008ab0:	89c6                	mv	s3,a7
    c0008ab2:	bfdd                	j	c0008aa8 <__subtf3+0x7c4>
    c0008ab4:	4681                	li	a3,0
    c0008ab6:	bfcd                	j	c0008aa8 <__subtf3+0x7c4>
    c0008ab8:	4681                	li	a3,0
    c0008aba:	4e81                	li	t4,0
    c0008abc:	89c6                	mv	s3,a7
    c0008abe:	8972                	mv	s2,t3
    c0008ac0:	b7e5                	j	c0008aa8 <__subtf3+0x7c4>
    c0008ac2:	4681                	li	a3,0
    c0008ac4:	4981                	li	s3,0
    c0008ac6:	b7cd                	j	c0008aa8 <__subtf3+0x7c4>
    c0008ac8:	00091763          	bnez	s2,c0008ad6 <__subtf3+0x7f2>
    c0008acc:	008e8593          	addi	a1,t4,8
    c0008ad0:	b6b5                	j	c000863c <__subtf3+0x358>
    c0008ad2:	fe091de3          	bnez	s2,c0008acc <__subtf3+0x7e8>
    c0008ad6:	e2070ae3          	beqz	a4,c000890a <__subtf3+0x626>
    c0008ada:	0027e793          	ori	a5,a5,2
    c0008ade:	b535                	j	c000890a <__subtf3+0x626>
    c0008ae0:	4e81                	li	t4,0
    c0008ae2:	cc99                	beqz	s1,c0008b00 <__subtf3+0x81c>
    c0008ae4:	468d                	li	a3,3
    c0008ae6:	00d49863          	bne	s1,a3,c0008af6 <__subtf3+0x812>
    c0008aea:	00090b63          	beqz	s2,c0008b00 <__subtf3+0x81c>
    c0008aee:	5efd                	li	t4,-1
    c0008af0:	ffe70993          	addi	s3,a4,-2 # 7ffe <main-0xbfff8002>
    c0008af4:	a031                	j	c0008b00 <__subtf3+0x81c>
    c0008af6:	4689                	li	a3,2
    c0008af8:	fed49be3          	bne	s1,a3,c0008aee <__subtf3+0x80a>
    c0008afc:	fe0909e3          	beqz	s2,c0008aee <__subtf3+0x80a>
    c0008b00:	0057e793          	ori	a5,a5,5
    c0008b04:	86f6                	mv	a3,t4
    c0008b06:	b505                	j	c0008926 <__subtf3+0x642>
    c0008b08:	4781                	li	a5,0
    c0008b0a:	dc6898e3          	bne	a7,t1,c00088da <__subtf3+0x5f6>
    c0008b0e:	b3e5                	j	c00088f6 <__subtf3+0x612>
    c0008b10:	aa0508e3          	beqz	a0,c00085c0 <__subtf3+0x2dc>
    c0008b14:	b465                	j	c00085bc <__subtf3+0x2d8>
    c0008b16:	ac689fe3          	bne	a7,t1,c00085f4 <__subtf3+0x310>
    c0008b1a:	bc4d                	j	c00085cc <__subtf3+0x2e8>

00000000c0008b1c <__fixtfsi>:
    c0008b1c:	002027f3          	frrm	a5
    c0008b20:	57fd                	li	a5,-1
    c0008b22:	00159693          	slli	a3,a1,0x1
    c0008b26:	6611                	lui	a2,0x4
    c0008b28:	83c1                	srli	a5,a5,0x10
    c0008b2a:	92c5                	srli	a3,a3,0x31
    c0008b2c:	ffe60713          	addi	a4,a2,-2 # 3ffe <main-0xbfffc002>
    c0008b30:	8fed                	and	a5,a5,a1
    c0008b32:	91fd                	srli	a1,a1,0x3f
    c0008b34:	00d74863          	blt	a4,a3,c0008b44 <__fixtfsi+0x28>
    c0008b38:	e6a5                	bnez	a3,c0008ba0 <__fixtfsi+0x84>
    c0008b3a:	8fc9                	or	a5,a5,a0
    c0008b3c:	4701                	li	a4,0
    c0008b3e:	efb9                	bnez	a5,c0008b9c <__fixtfsi+0x80>
    c0008b40:	853a                	mv	a0,a4
    c0008b42:	8082                	ret
    c0008b44:	01d60713          	addi	a4,a2,29
    c0008b48:	02d75363          	ble	a3,a4,c0008b6e <__fixtfsi+0x52>
    c0008b4c:	80000737          	lui	a4,0x80000
    c0008b50:	fff74713          	not	a4,a4
    c0008b54:	9f2d                	addw	a4,a4,a1
    c0008b56:	c5b9                	beqz	a1,c0008ba4 <__fixtfsi+0x88>
    c0008b58:	01e60593          	addi	a1,a2,30
    c0008b5c:	4641                	li	a2,16
    c0008b5e:	04b69463          	bne	a3,a1,c0008ba6 <__fixtfsi+0x8a>
    c0008b62:	0117d693          	srli	a3,a5,0x11
    c0008b66:	e2a1                	bnez	a3,c0008ba6 <__fixtfsi+0x8a>
    c0008b68:	17be                	slli	a5,a5,0x2f
    c0008b6a:	8fc9                	or	a5,a5,a0
    c0008b6c:	bfc9                	j	c0008b3e <__fixtfsi+0x22>
    c0008b6e:	4705                	li	a4,1
    c0008b70:	1742                	slli	a4,a4,0x30
    c0008b72:	8fd9                	or	a5,a5,a4
    c0008b74:	7771                	lui	a4,0xffffc
    c0008b76:	2681                	sext.w	a3,a3
    c0008b78:	2745                	addiw	a4,a4,17
    c0008b7a:	9f35                	addw	a4,a4,a3
    c0008b7c:	00e79733          	sll	a4,a5,a4
    c0008b80:	8d59                	or	a0,a0,a4
    c0008b82:	6711                	lui	a4,0x4
    c0008b84:	02f7071b          	addiw	a4,a4,47
    c0008b88:	40d706bb          	subw	a3,a4,a3
    c0008b8c:	00d7d7b3          	srl	a5,a5,a3
    c0008b90:	0007871b          	sext.w	a4,a5
    c0008b94:	c199                	beqz	a1,c0008b9a <__fixtfsi+0x7e>
    c0008b96:	40e0073b          	negw	a4,a4
    c0008b9a:	d15d                	beqz	a0,c0008b40 <__fixtfsi+0x24>
    c0008b9c:	4605                	li	a2,1
    c0008b9e:	a021                	j	c0008ba6 <__fixtfsi+0x8a>
    c0008ba0:	4701                	li	a4,0
    c0008ba2:	bfed                	j	c0008b9c <__fixtfsi+0x80>
    c0008ba4:	4641                	li	a2,16
    c0008ba6:	00162073          	csrs	fflags,a2
    c0008baa:	bf59                	j	c0008b40 <__fixtfsi+0x24>

00000000c0008bac <__floatsitf>:
    c0008bac:	1101                	addi	sp,sp,-32
    c0008bae:	ec06                	sd	ra,24(sp)
    c0008bb0:	e822                	sd	s0,16(sp)
    c0008bb2:	e426                	sd	s1,8(sp)
    c0008bb4:	cd39                	beqz	a0,c0008c12 <__floatsitf+0x66>
    c0008bb6:	0005079b          	sext.w	a5,a0
    c0008bba:	03f55493          	srli	s1,a0,0x3f
    c0008bbe:	00055463          	bgez	a0,c0008bc6 <__floatsitf+0x1a>
    c0008bc2:	40f007bb          	negw	a5,a5
    c0008bc6:	02079413          	slli	s0,a5,0x20
    c0008bca:	9001                	srli	s0,s0,0x20
    c0008bcc:	8522                	mv	a0,s0
    c0008bce:	00000097          	auipc	ra,0x0
    c0008bd2:	344080e7          	jalr	836(ra) # c0008f12 <__clzdi2>
    c0008bd6:	6691                	lui	a3,0x4
    c0008bd8:	03e6879b          	addiw	a5,a3,62
    c0008bdc:	40a7873b          	subw	a4,a5,a0
    c0008be0:	02f6869b          	addiw	a3,a3,47
    c0008be4:	9e99                	subw	a3,a3,a4
    c0008be6:	00d417b3          	sll	a5,s0,a3
    c0008bea:	6621                	lui	a2,0x8
    c0008bec:	56fd                	li	a3,-1
    c0008bee:	167d                	addi	a2,a2,-1
    c0008bf0:	0106d413          	srli	s0,a3,0x10
    c0008bf4:	8f71                	and	a4,a4,a2
    c0008bf6:	8fe1                	and	a5,a5,s0
    c0008bf8:	60e2                	ld	ra,24(sp)
    c0008bfa:	6442                	ld	s0,16(sp)
    c0008bfc:	1742                	slli	a4,a4,0x30
    c0008bfe:	8fd9                	or	a5,a5,a4
    c0008c00:	8285                	srli	a3,a3,0x1
    c0008c02:	03f49593          	slli	a1,s1,0x3f
    c0008c06:	8ff5                	and	a5,a5,a3
    c0008c08:	64a2                	ld	s1,8(sp)
    c0008c0a:	4501                	li	a0,0
    c0008c0c:	8ddd                	or	a1,a1,a5
    c0008c0e:	6105                	addi	sp,sp,32
    c0008c10:	8082                	ret
    c0008c12:	4781                	li	a5,0
    c0008c14:	4701                	li	a4,0
    c0008c16:	4481                	li	s1,0
    c0008c18:	bfc9                	j	c0008bea <__floatsitf+0x3e>

00000000c0008c1a <__extenddftf2>:
    c0008c1a:	1101                	addi	sp,sp,-32
    c0008c1c:	ec06                	sd	ra,24(sp)
    c0008c1e:	e822                	sd	s0,16(sp)
    c0008c20:	e426                	sd	s1,8(sp)
    c0008c22:	002027f3          	frrm	a5
    c0008c26:	03455713          	srli	a4,a0,0x34
    c0008c2a:	7ff77713          	andi	a4,a4,2047
    c0008c2e:	547d                	li	s0,-1
    c0008c30:	00170793          	addi	a5,a4,1 # 4001 <main-0xbfffbfff>
    c0008c34:	8031                	srli	s0,s0,0xc
    c0008c36:	7fe7f793          	andi	a5,a5,2046
    c0008c3a:	8c69                	and	s0,s0,a0
    c0008c3c:	03f55493          	srli	s1,a0,0x3f
    c0008c40:	cb91                	beqz	a5,c0008c54 <__extenddftf2+0x3a>
    c0008c42:	6791                	lui	a5,0x4
    c0008c44:	c0078793          	addi	a5,a5,-1024 # 3c00 <main-0xbfffc400>
    c0008c48:	973e                	add	a4,a4,a5
    c0008c4a:	00445793          	srli	a5,s0,0x4
    c0008c4e:	1472                	slli	s0,s0,0x3c
    c0008c50:	4681                	li	a3,0
    c0008c52:	a085                	j	c0008cb2 <__extenddftf2+0x98>
    c0008c54:	e321                	bnez	a4,c0008c94 <__extenddftf2+0x7a>
    c0008c56:	4781                	li	a5,0
    c0008c58:	dc65                	beqz	s0,c0008c50 <__extenddftf2+0x36>
    c0008c5a:	8522                	mv	a0,s0
    c0008c5c:	00000097          	auipc	ra,0x0
    c0008c60:	2b6080e7          	jalr	694(ra) # c0008f12 <__clzdi2>
    c0008c64:	0005071b          	sext.w	a4,a0
    c0008c68:	47b9                	li	a5,14
    c0008c6a:	00e7cf63          	blt	a5,a4,c0008c88 <__extenddftf2+0x6e>
    c0008c6e:	47bd                	li	a5,15
    c0008c70:	9f89                	subw	a5,a5,a0
    c0008c72:	0315071b          	addiw	a4,a0,49
    c0008c76:	00f457b3          	srl	a5,s0,a5
    c0008c7a:	00e41433          	sll	s0,s0,a4
    c0008c7e:	6711                	lui	a4,0x4
    c0008c80:	c0c7071b          	addiw	a4,a4,-1012
    c0008c84:	9f09                	subw	a4,a4,a0
    c0008c86:	b7e9                	j	c0008c50 <__extenddftf2+0x36>
    c0008c88:	ff15079b          	addiw	a5,a0,-15
    c0008c8c:	00f417b3          	sll	a5,s0,a5
    c0008c90:	4401                	li	s0,0
    c0008c92:	b7f5                	j	c0008c7e <__extenddftf2+0x64>
    c0008c94:	c429                	beqz	s0,c0008cde <__extenddftf2+0xc4>
    c0008c96:	4705                	li	a4,1
    c0008c98:	03371693          	slli	a3,a4,0x33
    c0008c9c:	8ee1                	and	a3,a3,s0
    c0008c9e:	00445793          	srli	a5,s0,0x4
    c0008ca2:	173e                	slli	a4,a4,0x2f
    c0008ca4:	0016b693          	seqz	a3,a3
    c0008ca8:	8fd9                	or	a5,a5,a4
    c0008caa:	6721                	lui	a4,0x8
    c0008cac:	0692                	slli	a3,a3,0x4
    c0008cae:	1472                	slli	s0,s0,0x3c
    c0008cb0:	177d                	addi	a4,a4,-1
    c0008cb2:	6521                	lui	a0,0x8
    c0008cb4:	567d                	li	a2,-1
    c0008cb6:	157d                	addi	a0,a0,-1
    c0008cb8:	01065593          	srli	a1,a2,0x10
    c0008cbc:	8f69                	and	a4,a4,a0
    c0008cbe:	1742                	slli	a4,a4,0x30
    c0008cc0:	8dfd                	and	a1,a1,a5
    c0008cc2:	8dd9                	or	a1,a1,a4
    c0008cc4:	8205                	srli	a2,a2,0x1
    c0008cc6:	14fe                	slli	s1,s1,0x3f
    c0008cc8:	8df1                	and	a1,a1,a2
    c0008cca:	8dc5                	or	a1,a1,s1
    c0008ccc:	c299                	beqz	a3,c0008cd2 <__extenddftf2+0xb8>
    c0008cce:	0016a073          	csrs	fflags,a3
    c0008cd2:	8522                	mv	a0,s0
    c0008cd4:	60e2                	ld	ra,24(sp)
    c0008cd6:	6442                	ld	s0,16(sp)
    c0008cd8:	64a2                	ld	s1,8(sp)
    c0008cda:	6105                	addi	sp,sp,32
    c0008cdc:	8082                	ret
    c0008cde:	6721                	lui	a4,0x8
    c0008ce0:	4781                	li	a5,0
    c0008ce2:	177d                	addi	a4,a4,-1
    c0008ce4:	b7b5                	j	c0008c50 <__extenddftf2+0x36>

00000000c0008ce6 <__trunctfdf2>:
    c0008ce6:	002026f3          	frrm	a3
    c0008cea:	57fd                	li	a5,-1
    c0008cec:	68a1                	lui	a7,0x8
    c0008cee:	83c1                	srli	a5,a5,0x10
    c0008cf0:	0305d713          	srli	a4,a1,0x30
    c0008cf4:	fff88813          	addi	a6,a7,-1 # 7fff <main-0xbfff8001>
    c0008cf8:	03f5d613          	srli	a2,a1,0x3f
    c0008cfc:	8dfd                	and	a1,a1,a5
    c0008cfe:	00359793          	slli	a5,a1,0x3
    c0008d02:	01077733          	and	a4,a4,a6
    c0008d06:	03d55593          	srli	a1,a0,0x3d
    c0008d0a:	8ddd                	or	a1,a1,a5
    c0008d0c:	18f9                	addi	a7,a7,-2
    c0008d0e:	00170793          	addi	a5,a4,1 # 8001 <main-0xbfff7fff>
    c0008d12:	0117f8b3          	and	a7,a5,a7
    c0008d16:	2681                	sext.w	a3,a3
    c0008d18:	00351e93          	slli	t4,a0,0x3
    c0008d1c:	16088b63          	beqz	a7,c0008e92 <__trunctfdf2+0x1ac>
    c0008d20:	7e71                	lui	t3,0xffffc
    c0008d22:	400e0e13          	addi	t3,t3,1024 # ffffffffffffc400 <_end+0xffffffff3fff1400>
    c0008d26:	9e3a                	add	t3,t3,a4
    c0008d28:	7fe00793          	li	a5,2046
    c0008d2c:	09c7db63          	ble	t3,a5,c0008dc2 <__trunctfdf2+0xdc>
    c0008d30:	c2a9                	beqz	a3,c0008d72 <__trunctfdf2+0x8c>
    c0008d32:	478d                	li	a5,3
    c0008d34:	02f69b63          	bne	a3,a5,c0008d6a <__trunctfdf2+0x84>
    c0008d38:	ce0d                	beqz	a2,c0008d72 <__trunctfdf2+0x8c>
    c0008d3a:	57fd                	li	a5,-1
    c0008d3c:	7fe00e13          	li	t3,2046
    c0008d40:	4701                	li	a4,0
    c0008d42:	4895                	li	a7,5
    c0008d44:	4589                	li	a1,2
    c0008d46:	0018e893          	ori	a7,a7,1
    c0008d4a:	18b68f63          	beq	a3,a1,c0008ee8 <__trunctfdf2+0x202>
    c0008d4e:	458d                	li	a1,3
    c0008d50:	18b68863          	beq	a3,a1,c0008ee0 <__trunctfdf2+0x1fa>
    c0008d54:	e699                	bnez	a3,c0008d62 <__trunctfdf2+0x7c>
    c0008d56:	00f7f593          	andi	a1,a5,15
    c0008d5a:	4511                	li	a0,4
    c0008d5c:	00a58363          	beq	a1,a0,c0008d62 <__trunctfdf2+0x7c>
    c0008d60:	0791                	addi	a5,a5,4
    c0008d62:	cf01                	beqz	a4,c0008d7a <__trunctfdf2+0x94>
    c0008d64:	0028e893          	ori	a7,a7,2
    c0008d68:	a809                	j	c0008d7a <__trunctfdf2+0x94>
    c0008d6a:	4789                	li	a5,2
    c0008d6c:	fcf697e3          	bne	a3,a5,c0008d3a <__trunctfdf2+0x54>
    c0008d70:	d669                	beqz	a2,c0008d3a <__trunctfdf2+0x54>
    c0008d72:	4781                	li	a5,0
    c0008d74:	7ff00e13          	li	t3,2047
    c0008d78:	4895                	li	a7,5
    c0008d7a:	00879713          	slli	a4,a5,0x8
    c0008d7e:	00075b63          	bgez	a4,c0008d94 <__trunctfdf2+0xae>
    c0008d82:	0e05                	addi	t3,t3,1
    c0008d84:	7ff00713          	li	a4,2047
    c0008d88:	16ee0363          	beq	t3,a4,c0008eee <__trunctfdf2+0x208>
    c0008d8c:	56fd                	li	a3,-1
    c0008d8e:	16de                	slli	a3,a3,0x37
    c0008d90:	16fd                	addi	a3,a3,-1
    c0008d92:	8ff5                	and	a5,a5,a3
    c0008d94:	7ff00713          	li	a4,2047
    c0008d98:	838d                	srli	a5,a5,0x3
    c0008d9a:	00ee1663          	bne	t3,a4,c0008da6 <__trunctfdf2+0xc0>
    c0008d9e:	c781                	beqz	a5,c0008da6 <__trunctfdf2+0xc0>
    c0008da0:	4785                	li	a5,1
    c0008da2:	17ce                	slli	a5,a5,0x33
    c0008da4:	4601                	li	a2,0
    c0008da6:	577d                	li	a4,-1
    c0008da8:	7ffe7513          	andi	a0,t3,2047
    c0008dac:	8331                	srli	a4,a4,0xc
    c0008dae:	1552                	slli	a0,a0,0x34
    c0008db0:	8ff9                	and	a5,a5,a4
    c0008db2:	167e                	slli	a2,a2,0x3f
    c0008db4:	8d5d                	or	a0,a0,a5
    c0008db6:	8d51                	or	a0,a0,a2
    c0008db8:	14088c63          	beqz	a7,c0008f10 <__trunctfdf2+0x22a>
    c0008dbc:	0018a073          	csrs	fflags,a7
    c0008dc0:	8082                	ret
    c0008dc2:	0bc04363          	bgtz	t3,c0008e68 <__trunctfdf2+0x182>
    c0008dc6:	fcc00793          	li	a5,-52
    c0008dca:	0efe4f63          	blt	t3,a5,c0008ec8 <__trunctfdf2+0x1e2>
    c0008dce:	4785                	li	a5,1
    c0008dd0:	17ce                	slli	a5,a5,0x33
    c0008dd2:	03d00313          	li	t1,61
    c0008dd6:	8ddd                	or	a1,a1,a5
    c0008dd8:	41c30333          	sub	t1,t1,t3
    c0008ddc:	03f00793          	li	a5,63
    c0008de0:	000e051b          	sext.w	a0,t3
    c0008de4:	0467cd63          	blt	a5,t1,c0008e3e <__trunctfdf2+0x158>
    c0008de8:	0035081b          	addiw	a6,a0,3
    c0008dec:	03d00713          	li	a4,61
    c0008df0:	9f09                	subw	a4,a4,a0
    c0008df2:	010e97b3          	sll	a5,t4,a6
    c0008df6:	00eed733          	srl	a4,t4,a4
    c0008dfa:	00f037b3          	snez	a5,a5
    c0008dfe:	8fd9                	or	a5,a5,a4
    c0008e00:	010595b3          	sll	a1,a1,a6
    c0008e04:	8fcd                	or	a5,a5,a1
    c0008e06:	4e01                	li	t3,0
    c0008e08:	cbf1                	beqz	a5,c0008edc <__trunctfdf2+0x1f6>
    c0008e0a:	00179713          	slli	a4,a5,0x1
    c0008e0e:	00777593          	andi	a1,a4,7
    c0008e12:	4881                	li	a7,0
    c0008e14:	cd99                	beqz	a1,c0008e32 <__trunctfdf2+0x14c>
    c0008e16:	4589                	li	a1,2
    c0008e18:	0ab68d63          	beq	a3,a1,c0008ed2 <__trunctfdf2+0x1ec>
    c0008e1c:	458d                	li	a1,3
    c0008e1e:	4885                	li	a7,1
    c0008e20:	0ab68663          	beq	a3,a1,c0008ecc <__trunctfdf2+0x1e6>
    c0008e24:	e699                	bnez	a3,c0008e32 <__trunctfdf2+0x14c>
    c0008e26:	00f77593          	andi	a1,a4,15
    c0008e2a:	4511                	li	a0,4
    c0008e2c:	00a58363          	beq	a1,a0,c0008e32 <__trunctfdf2+0x14c>
    c0008e30:	0711                	addi	a4,a4,4
    c0008e32:	9361                	srli	a4,a4,0x38
    c0008e34:	00174713          	xori	a4,a4,1
    c0008e38:	8b05                	andi	a4,a4,1
    c0008e3a:	4e01                	li	t3,0
    c0008e3c:	a091                	j	c0008e80 <__trunctfdf2+0x19a>
    c0008e3e:	58f5                	li	a7,-3
    c0008e40:	40a888bb          	subw	a7,a7,a0
    c0008e44:	04000793          	li	a5,64
    c0008e48:	0115d8b3          	srl	a7,a1,a7
    c0008e4c:	4801                	li	a6,0
    c0008e4e:	00f30663          	beq	t1,a5,c0008e5a <__trunctfdf2+0x174>
    c0008e52:	0435071b          	addiw	a4,a0,67
    c0008e56:	00e59833          	sll	a6,a1,a4
    c0008e5a:	01d86833          	or	a6,a6,t4
    c0008e5e:	01003833          	snez	a6,a6
    c0008e62:	0108e7b3          	or	a5,a7,a6
    c0008e66:	b745                	j	c0008e06 <__trunctfdf2+0x120>
    c0008e68:	00751793          	slli	a5,a0,0x7
    c0008e6c:	00f037b3          	snez	a5,a5
    c0008e70:	03ced813          	srli	a6,t4,0x3c
    c0008e74:	0107e7b3          	or	a5,a5,a6
    c0008e78:	0592                	slli	a1,a1,0x4
    c0008e7a:	8fcd                	or	a5,a5,a1
    c0008e7c:	4701                	li	a4,0
    c0008e7e:	4881                	li	a7,0
    c0008e80:	0077f593          	andi	a1,a5,7
    c0008e84:	ec0590e3          	bnez	a1,c0008d44 <__trunctfdf2+0x5e>
    c0008e88:	ee0709e3          	beqz	a4,c0008d7a <__trunctfdf2+0x94>
    c0008e8c:	0018f713          	andi	a4,a7,1
    c0008e90:	bdc9                	j	c0008d62 <__trunctfdf2+0x7c>
    c0008e92:	01d5e7b3          	or	a5,a1,t4
    c0008e96:	e701                	bnez	a4,c0008e9e <__trunctfdf2+0x1b8>
    c0008e98:	00f037b3          	snez	a5,a5
    c0008e9c:	b7ad                	j	c0008e06 <__trunctfdf2+0x120>
    c0008e9e:	cf8d                	beqz	a5,c0008ed8 <__trunctfdf2+0x1f2>
    c0008ea0:	4881                	li	a7,0
    c0008ea2:	01071763          	bne	a4,a6,c0008eb0 <__trunctfdf2+0x1ca>
    c0008ea6:	0325d893          	srli	a7,a1,0x32
    c0008eaa:	0018b893          	seqz	a7,a7
    c0008eae:	0892                	slli	a7,a7,0x4
    c0008eb0:	03ced793          	srli	a5,t4,0x3c
    c0008eb4:	0592                	slli	a1,a1,0x4
    c0008eb6:	8ddd                	or	a1,a1,a5
    c0008eb8:	4785                	li	a5,1
    c0008eba:	99e1                	andi	a1,a1,-8
    c0008ebc:	17da                	slli	a5,a5,0x36
    c0008ebe:	8fcd                	or	a5,a5,a1
    c0008ec0:	7ff00e13          	li	t3,2047
    c0008ec4:	4701                	li	a4,0
    c0008ec6:	bf6d                	j	c0008e80 <__trunctfdf2+0x19a>
    c0008ec8:	4785                	li	a5,1
    c0008eca:	b781                	j	c0008e0a <__trunctfdf2+0x124>
    c0008ecc:	f23d                	bnez	a2,c0008e32 <__trunctfdf2+0x14c>
    c0008ece:	0721                	addi	a4,a4,8
    c0008ed0:	b78d                	j	c0008e32 <__trunctfdf2+0x14c>
    c0008ed2:	4885                	li	a7,1
    c0008ed4:	de39                	beqz	a2,c0008e32 <__trunctfdf2+0x14c>
    c0008ed6:	bfe5                	j	c0008ece <__trunctfdf2+0x1e8>
    c0008ed8:	7ff00e13          	li	t3,2047
    c0008edc:	4881                	li	a7,0
    c0008ede:	bd71                	j	c0008d7a <__trunctfdf2+0x94>
    c0008ee0:	e80611e3          	bnez	a2,c0008d62 <__trunctfdf2+0x7c>
    c0008ee4:	07a1                	addi	a5,a5,8
    c0008ee6:	bdb5                	j	c0008d62 <__trunctfdf2+0x7c>
    c0008ee8:	e6060de3          	beqz	a2,c0008d62 <__trunctfdf2+0x7c>
    c0008eec:	bfe5                	j	c0008ee4 <__trunctfdf2+0x1fe>
    c0008eee:	4781                	li	a5,0
    c0008ef0:	ce89                	beqz	a3,c0008f0a <__trunctfdf2+0x224>
    c0008ef2:	470d                	li	a4,3
    c0008ef4:	00e69763          	bne	a3,a4,c0008f02 <__trunctfdf2+0x21c>
    c0008ef8:	ca09                	beqz	a2,c0008f0a <__trunctfdf2+0x224>
    c0008efa:	57fd                	li	a5,-1
    c0008efc:	7fe00e13          	li	t3,2046
    c0008f00:	a029                	j	c0008f0a <__trunctfdf2+0x224>
    c0008f02:	4709                	li	a4,2
    c0008f04:	fee69be3          	bne	a3,a4,c0008efa <__trunctfdf2+0x214>
    c0008f08:	da6d                	beqz	a2,c0008efa <__trunctfdf2+0x214>
    c0008f0a:	0058e893          	ori	a7,a7,5
    c0008f0e:	b559                	j	c0008d94 <__trunctfdf2+0xae>
    c0008f10:	8082                	ret

00000000c0008f12 <__clzdi2>:
    c0008f12:	03800793          	li	a5,56
    c0008f16:	00f55733          	srl	a4,a0,a5
    c0008f1a:	0ff77713          	andi	a4,a4,255
    c0008f1e:	e319                	bnez	a4,c0008f24 <__clzdi2+0x12>
    c0008f20:	17e1                	addi	a5,a5,-8
    c0008f22:	fbf5                	bnez	a5,c0008f16 <__clzdi2+0x4>
    c0008f24:	04000713          	li	a4,64
    c0008f28:	8f1d                	sub	a4,a4,a5
    c0008f2a:	00f557b3          	srl	a5,a0,a5
    c0008f2e:	00001517          	auipc	a0,0x1
    c0008f32:	97a50513          	addi	a0,a0,-1670 # c00098a8 <__clz_tab>
    c0008f36:	97aa                	add	a5,a5,a0
    c0008f38:	0007c503          	lbu	a0,0(a5)
    c0008f3c:	40a7053b          	subw	a0,a4,a0
    c0008f40:	8082                	ret
    c0008f42:	0000                	unimp
    c0008f44:	0000                	unimp
	...
