
D:\程序\项目\K210-Linux0.11-VS\src_test\image.elf:     file format elf64-littleriscv


Disassembly of section .text:

0000000080000000 <_start>:
    80000000:	a821                	j	80000018 <g_wake_up+0x10>
    80000002:	deadbeef          	jal	t4,7ffdb5ec <_stack_size+0x7ffd35ec>
    80000006:	0001                	nop

0000000080000008 <g_wake_up>:
    80000008:	0001                	nop
	...
    80000016:	0000                	unimp
    80000018:	30305073          	csrwi	mideleg,0
    8000001c:	30205073          	csrwi	medeleg,0
    80000020:	30405073          	csrwi	mie,0
    80000024:	34405073          	csrwi	mip,0
    80000028:	00003297          	auipc	t0,0x3
    8000002c:	f4628293          	addi	t0,t0,-186 # 80002f6e <machine_trap_entry>
    80000030:	30529073          	csrw	mtvec,t0
    80000034:	00000293          	li	t0,0
    80000038:	10529073          	csrw	stvec,t0
    8000003c:	4081                	li	ra,0
    8000003e:	4101                	li	sp,0
    80000040:	4181                	li	gp,0
    80000042:	4201                	li	tp,0
    80000044:	4281                	li	t0,0
    80000046:	4301                	li	t1,0
    80000048:	4381                	li	t2,0
    8000004a:	4401                	li	s0,0
    8000004c:	4481                	li	s1,0
    8000004e:	4501                	li	a0,0
    80000050:	4581                	li	a1,0
    80000052:	4601                	li	a2,0
    80000054:	4681                	li	a3,0
    80000056:	4701                	li	a4,0
    80000058:	4781                	li	a5,0
    8000005a:	4801                	li	a6,0
    8000005c:	4881                	li	a7,0
    8000005e:	4901                	li	s2,0
    80000060:	4981                	li	s3,0
    80000062:	4a01                	li	s4,0
    80000064:	4a81                	li	s5,0
    80000066:	4b01                	li	s6,0
    80000068:	4b81                	li	s7,0
    8000006a:	4c01                	li	s8,0
    8000006c:	4c81                	li	s9,0
    8000006e:	4d01                	li	s10,0
    80000070:	4d81                	li	s11,0
    80000072:	4e01                	li	t3,0
    80000074:	4e81                	li	t4,0
    80000076:	4f01                	li	t5,0
    80000078:	4f81                	li	t6,0
    8000007a:	6299                	lui	t0,0x6
    8000007c:	3002a073          	csrs	mstatus,t0
    80000080:	00301073          	fssr	zero
    80000084:	f0000053          	fmv.w.x	ft0,zero
    80000088:	f00000d3          	fmv.w.x	ft1,zero
    8000008c:	f0000153          	fmv.w.x	ft2,zero
    80000090:	f00001d3          	fmv.w.x	ft3,zero
    80000094:	f0000253          	fmv.w.x	ft4,zero
    80000098:	f00002d3          	fmv.w.x	ft5,zero
    8000009c:	f0000353          	fmv.w.x	ft6,zero
    800000a0:	f00003d3          	fmv.w.x	ft7,zero
    800000a4:	f0000453          	fmv.w.x	fs0,zero
    800000a8:	f00004d3          	fmv.w.x	fs1,zero
    800000ac:	f0000553          	fmv.w.x	fa0,zero
    800000b0:	f00005d3          	fmv.w.x	fa1,zero
    800000b4:	f0000653          	fmv.w.x	fa2,zero
    800000b8:	f00006d3          	fmv.w.x	fa3,zero
    800000bc:	f0000753          	fmv.w.x	fa4,zero
    800000c0:	f00007d3          	fmv.w.x	fa5,zero
    800000c4:	f0000853          	fmv.w.x	fa6,zero
    800000c8:	f00008d3          	fmv.w.x	fa7,zero
    800000cc:	f0000953          	fmv.w.x	fs2,zero
    800000d0:	f00009d3          	fmv.w.x	fs3,zero
    800000d4:	f0000a53          	fmv.w.x	fs4,zero
    800000d8:	f0000ad3          	fmv.w.x	fs5,zero
    800000dc:	f0000b53          	fmv.w.x	fs6,zero
    800000e0:	f0000bd3          	fmv.w.x	fs7,zero
    800000e4:	f0000c53          	fmv.w.x	fs8,zero
    800000e8:	f0000cd3          	fmv.w.x	fs9,zero
    800000ec:	f0000d53          	fmv.w.x	fs10,zero
    800000f0:	f0000dd3          	fmv.w.x	fs11,zero
    800000f4:	f0000e53          	fmv.w.x	ft8,zero
    800000f8:	f0000ed3          	fmv.w.x	ft9,zero
    800000fc:	f0000f53          	fmv.w.x	ft10,zero
    80000100:	f0000fd3          	fmv.w.x	ft11,zero
    80000104:	00010197          	auipc	gp,0x10
    80000108:	2cc18193          	addi	gp,gp,716 # 800103d0 <__global_pointer$>
    8000010c:	0001d217          	auipc	tp,0x1d
    80000110:	f7320213          	addi	tp,tp,-141 # 8001d07f <_end+0x3f>
    80000114:	fc027213          	andi	tp,tp,-64
    80000118:	f1402573          	csrr	a0,mhartid
    8000011c:	00150113          	addi	sp,a0,1
    80000120:	013e                	slli	sp,sp,0xf
    80000122:	9112                	add	sp,sp,tp
    80000124:	48e0206f          	j	800025b2 <entry>
    80000128:	0000                	unimp
	...

000000008000012c <bitscan>:
    8000012c:	4781                	li	a5,0
    8000012e:	04000713          	li	a4,64
    80000132:	00157693          	andi	a3,a0,1
    80000136:	c299                	beqz	a3,8000013c <bitscan+0x10>
    80000138:	853e                	mv	a0,a5
    8000013a:	8082                	ret
    8000013c:	2785                	addiw	a5,a5,1
    8000013e:	8105                	srli	a0,a0,0x1
    80000140:	fee799e3          	bne	a5,a4,80000132 <bitscan+0x6>
    80000144:	557d                	li	a0,-1
    80000146:	8082                	ret

0000000080000148 <get_reculock>:
    80000148:	00010697          	auipc	a3,0x10
    8000014c:	ee868693          	addi	a3,a3,-280 # 80010030 <reculock>
    80000150:	4781                	li	a5,0
    80000152:	8736                	mv	a4,a3
    80000154:	40000613          	li	a2,1024
    80000158:	628c                	ld	a1,0(a3)
    8000015a:	00a59a63          	bne	a1,a0,8000016e <get_reculock+0x26>
    8000015e:	1782                	slli	a5,a5,0x20
    80000160:	4561                	li	a0,24
    80000162:	9381                	srli	a5,a5,0x20
    80000164:	02a787b3          	mul	a5,a5,a0
    80000168:	00f70533          	add	a0,a4,a5
    8000016c:	8082                	ret
    8000016e:	2785                	addiw	a5,a5,1
    80000170:	06e1                	addi	a3,a3,24
    80000172:	fec793e3          	bne	a5,a2,80000158 <get_reculock+0x10>
    80000176:	4501                	li	a0,0
    80000178:	8082                	ret

000000008000017a <reculock_init>:
    8000017a:	00010697          	auipc	a3,0x10
    8000017e:	eb668693          	addi	a3,a3,-330 # 80010030 <reculock>
    80000182:	4781                	li	a5,0
    80000184:	8736                	mv	a4,a3
    80000186:	40000613          	li	a2,1024
    8000018a:	628c                	ld	a1,0(a3)
    8000018c:	ed91                	bnez	a1,800001a8 <reculock_init+0x2e>
    8000018e:	1782                	slli	a5,a5,0x20
    80000190:	9381                	srli	a5,a5,0x20
    80000192:	46e1                	li	a3,24
    80000194:	02d787b3          	mul	a5,a5,a3
    80000198:	97ba                	add	a5,a5,a4
    8000019a:	e388                	sd	a0,0(a5)
    8000019c:	0007b423          	sd	zero,8(a5)
    800001a0:	0007b823          	sd	zero,16(a5)
    800001a4:	853e                	mv	a0,a5
    800001a6:	8082                	ret
    800001a8:	2785                	addiw	a5,a5,1
    800001aa:	06e1                	addi	a3,a3,24
    800001ac:	fcc79fe3          	bne	a5,a2,8000018a <reculock_init+0x10>
    800001b0:	4781                	li	a5,0
    800001b2:	bfcd                	j	800001a4 <reculock_init+0x2a>

00000000800001b4 <lock_unlock>:
    800001b4:	0ff0000f          	fence
    800001b8:	4701                	li	a4,0
    800001ba:	0ce5372f          	amoswap.d.aq	a4,a4,(a0)
    800001be:	0001                	nop
    800001c0:	8082                	ret

00000000800001c2 <lock_lock>:
    800001c2:	577d                	li	a4,-1
    800001c4:	87ba                	mv	a5,a4
    800001c6:	0cf537af          	amoswap.d.aq	a5,a5,(a0)
    800001ca:	0ff0000f          	fence
    800001ce:	fbfd                	bnez	a5,800001c4 <lock_lock+0x2>
    800001d0:	8082                	ret

00000000800001d2 <show_error>:
    800001d2:	05d00893          	li	a7,93
    800001d6:	4501                	li	a0,0
    800001d8:	4581                	li	a1,0
    800001da:	4601                	li	a2,0
    800001dc:	00000073          	ecall
    800001e0:	8082                	ret

00000000800001e2 <reculock_trylock>:
    800001e2:	1101                	addi	sp,sp,-32
    800001e4:	e822                	sd	s0,16(sp)
    800001e6:	e04a                	sd	s2,0(sp)
    800001e8:	ec06                	sd	ra,24(sp)
    800001ea:	e426                	sd	s1,8(sp)
    800001ec:	842a                	mv	s0,a0
    800001ee:	00002097          	auipc	ra,0x2
    800001f2:	17a080e7          	jalr	378(ra) # 80002368 <core_get_readonly_info>
    800001f6:	00853903          	ld	s2,8(a0)
    800001fa:	57fd                	li	a5,-1
    800001fc:	0cf437af          	amoswap.d.aq	a5,a5,(s0)
    80000200:	0ff0000f          	fence
    80000204:	e3bd                	bnez	a5,8000026a <reculock_trylock+0x88>
    80000206:	8522                	mv	a0,s0
    80000208:	00000097          	auipc	ra,0x0
    8000020c:	f40080e7          	jalr	-192(ra) # 80000148 <get_reculock>
    80000210:	e11d                	bnez	a0,80000236 <reculock_trylock+0x54>
    80000212:	8522                	mv	a0,s0
    80000214:	00000097          	auipc	ra,0x0
    80000218:	f66080e7          	jalr	-154(ra) # 8000017a <reculock_init>
    8000021c:	ed09                	bnez	a0,80000236 <reculock_trylock+0x54>
    8000021e:	8522                	mv	a0,s0
    80000220:	00000097          	auipc	ra,0x0
    80000224:	f94080e7          	jalr	-108(ra) # 800001b4 <lock_unlock>
    80000228:	00000097          	auipc	ra,0x0
    8000022c:	faa080e7          	jalr	-86(ra) # 800001d2 <show_error>
    80000230:	00803783          	ld	a5,8(zero) # 8 <_stack_size-0x7ff8>
    80000234:	9002                	ebreak
    80000236:	651c                	ld	a5,8(a0)
    80000238:	e395                	bnez	a5,8000025c <reculock_trylock+0x7a>
    8000023a:	4785                	li	a5,1
    8000023c:	e51c                	sd	a5,8(a0)
    8000023e:	01253823          	sd	s2,16(a0)
    80000242:	4481                	li	s1,0
    80000244:	8522                	mv	a0,s0
    80000246:	00000097          	auipc	ra,0x0
    8000024a:	f6e080e7          	jalr	-146(ra) # 800001b4 <lock_unlock>
    8000024e:	60e2                	ld	ra,24(sp)
    80000250:	6442                	ld	s0,16(sp)
    80000252:	8526                	mv	a0,s1
    80000254:	6902                	ld	s2,0(sp)
    80000256:	64a2                	ld	s1,8(sp)
    80000258:	6105                	addi	sp,sp,32
    8000025a:	8082                	ret
    8000025c:	6918                	ld	a4,16(a0)
    8000025e:	54fd                	li	s1,-1
    80000260:	ff2712e3          	bne	a4,s2,80000244 <reculock_trylock+0x62>
    80000264:	0785                	addi	a5,a5,1
    80000266:	e51c                	sd	a5,8(a0)
    80000268:	bfe9                	j	80000242 <reculock_trylock+0x60>
    8000026a:	54fd                	li	s1,-1
    8000026c:	b7cd                	j	8000024e <reculock_trylock+0x6c>

000000008000026e <_lock_acquire_recursive>:
    8000026e:	1101                	addi	sp,sp,-32
    80000270:	ec06                	sd	ra,24(sp)
    80000272:	e822                	sd	s0,16(sp)
    80000274:	e426                	sd	s1,8(sp)
    80000276:	842a                	mv	s0,a0
    80000278:	00002097          	auipc	ra,0x2
    8000027c:	0f0080e7          	jalr	240(ra) # 80002368 <core_get_readonly_info>
    80000280:	6504                	ld	s1,8(a0)
    80000282:	8522                	mv	a0,s0
    80000284:	00000097          	auipc	ra,0x0
    80000288:	f3e080e7          	jalr	-194(ra) # 800001c2 <lock_lock>
    8000028c:	8522                	mv	a0,s0
    8000028e:	00000097          	auipc	ra,0x0
    80000292:	eba080e7          	jalr	-326(ra) # 80000148 <get_reculock>
    80000296:	e11d                	bnez	a0,800002bc <_lock_acquire_recursive+0x4e>
    80000298:	8522                	mv	a0,s0
    8000029a:	00000097          	auipc	ra,0x0
    8000029e:	ee0080e7          	jalr	-288(ra) # 8000017a <reculock_init>
    800002a2:	ed09                	bnez	a0,800002bc <_lock_acquire_recursive+0x4e>
    800002a4:	8522                	mv	a0,s0
    800002a6:	00000097          	auipc	ra,0x0
    800002aa:	f0e080e7          	jalr	-242(ra) # 800001b4 <lock_unlock>
    800002ae:	00000097          	auipc	ra,0x0
    800002b2:	f24080e7          	jalr	-220(ra) # 800001d2 <show_error>
    800002b6:	00803783          	ld	a5,8(zero) # 8 <_stack_size-0x7ff8>
    800002ba:	9002                	ebreak
    800002bc:	651c                	ld	a5,8(a0)
    800002be:	ef89                	bnez	a5,800002d8 <_lock_acquire_recursive+0x6a>
    800002c0:	4785                	li	a5,1
    800002c2:	e51c                	sd	a5,8(a0)
    800002c4:	e904                	sd	s1,16(a0)
    800002c6:	8522                	mv	a0,s0
    800002c8:	6442                	ld	s0,16(sp)
    800002ca:	60e2                	ld	ra,24(sp)
    800002cc:	64a2                	ld	s1,8(sp)
    800002ce:	6105                	addi	sp,sp,32
    800002d0:	00000317          	auipc	t1,0x0
    800002d4:	ee430067          	jr	-284(t1) # 800001b4 <lock_unlock>
    800002d8:	6918                	ld	a4,16(a0)
    800002da:	00e49563          	bne	s1,a4,800002e4 <_lock_acquire_recursive+0x76>
    800002de:	0785                	addi	a5,a5,1
    800002e0:	e51c                	sd	a5,8(a0)
    800002e2:	b7d5                	j	800002c6 <_lock_acquire_recursive+0x58>
    800002e4:	8522                	mv	a0,s0
    800002e6:	00000097          	auipc	ra,0x0
    800002ea:	ece080e7          	jalr	-306(ra) # 800001b4 <lock_unlock>
    800002ee:	00010497          	auipc	s1,0x10
    800002f2:	d4248493          	addi	s1,s1,-702 # 80010030 <reculock>
    800002f6:	649c                	ld	a5,8(s1)
    800002f8:	fffd                	bnez	a5,800002f6 <_lock_acquire_recursive+0x88>
    800002fa:	8522                	mv	a0,s0
    800002fc:	00000097          	auipc	ra,0x0
    80000300:	ee6080e7          	jalr	-282(ra) # 800001e2 <reculock_trylock>
    80000304:	f96d                	bnez	a0,800002f6 <_lock_acquire_recursive+0x88>
    80000306:	60e2                	ld	ra,24(sp)
    80000308:	6442                	ld	s0,16(sp)
    8000030a:	64a2                	ld	s1,8(sp)
    8000030c:	6105                	addi	sp,sp,32
    8000030e:	8082                	ret

0000000080000310 <_lock_release_recursive>:
    80000310:	1101                	addi	sp,sp,-32
    80000312:	ec06                	sd	ra,24(sp)
    80000314:	e822                	sd	s0,16(sp)
    80000316:	e426                	sd	s1,8(sp)
    80000318:	e04a                	sd	s2,0(sp)
    8000031a:	84aa                	mv	s1,a0
    8000031c:	00002097          	auipc	ra,0x2
    80000320:	04c080e7          	jalr	76(ra) # 80002368 <core_get_readonly_info>
    80000324:	00853903          	ld	s2,8(a0)
    80000328:	8526                	mv	a0,s1
    8000032a:	00000097          	auipc	ra,0x0
    8000032e:	e98080e7          	jalr	-360(ra) # 800001c2 <lock_lock>
    80000332:	8526                	mv	a0,s1
    80000334:	00000097          	auipc	ra,0x0
    80000338:	e14080e7          	jalr	-492(ra) # 80000148 <get_reculock>
    8000033c:	842a                	mv	s0,a0
    8000033e:	e911                	bnez	a0,80000352 <_lock_release_recursive+0x42>
    80000340:	8526                	mv	a0,s1
    80000342:	00000097          	auipc	ra,0x0
    80000346:	e72080e7          	jalr	-398(ra) # 800001b4 <lock_unlock>
    8000034a:	00000097          	auipc	ra,0x0
    8000034e:	e88080e7          	jalr	-376(ra) # 800001d2 <show_error>
    80000352:	681c                	ld	a5,16(s0)
    80000354:	02f91763          	bne	s2,a5,80000382 <_lock_release_recursive+0x72>
    80000358:	641c                	ld	a5,8(s0)
    8000035a:	17fd                	addi	a5,a5,-1
    8000035c:	e41c                	sd	a5,8(s0)
    8000035e:	00f04863          	bgtz	a5,8000036e <_lock_release_recursive+0x5e>
    80000362:	00043823          	sd	zero,16(s0)
    80000366:	00043423          	sd	zero,8(s0)
    8000036a:	00043023          	sd	zero,0(s0)
    8000036e:	6442                	ld	s0,16(sp)
    80000370:	60e2                	ld	ra,24(sp)
    80000372:	6902                	ld	s2,0(sp)
    80000374:	8526                	mv	a0,s1
    80000376:	64a2                	ld	s1,8(sp)
    80000378:	6105                	addi	sp,sp,32
    8000037a:	00000317          	auipc	t1,0x0
    8000037e:	e3a30067          	jr	-454(t1) # 800001b4 <lock_unlock>
    80000382:	8526                	mv	a0,s1
    80000384:	00000097          	auipc	ra,0x0
    80000388:	e30080e7          	jalr	-464(ra) # 800001b4 <lock_unlock>
    8000038c:	00000097          	auipc	ra,0x0
    80000390:	e46080e7          	jalr	-442(ra) # 800001d2 <show_error>
    80000394:	bfe9                	j	8000036e <_lock_release_recursive+0x5e>

0000000080000396 <usleep>:
    80000396:	1101                	addi	sp,sp,-32
    80000398:	e426                	sd	s1,8(sp)
    8000039a:	ec06                	sd	ra,24(sp)
    8000039c:	e822                	sd	s0,16(sp)
    8000039e:	84aa                	mv	s1,a0
    800003a0:	b0002473          	csrr	s0,mcycle
    800003a4:	450d                	li	a0,3
    800003a6:	00001097          	auipc	ra,0x1
    800003aa:	7e4080e7          	jalr	2020(ra) # 80001b8a <sysctl_clock_get_freq>
    800003ae:	1502                	slli	a0,a0,0x20
    800003b0:	9101                	srli	a0,a0,0x20
    800003b2:	02950533          	mul	a0,a0,s1
    800003b6:	000f47b7          	lui	a5,0xf4
    800003ba:	24078793          	addi	a5,a5,576 # f4240 <_stack_size+0xec240>
    800003be:	02f55533          	divu	a0,a0,a5
    800003c2:	b00027f3          	csrr	a5,mcycle
    800003c6:	8f81                	sub	a5,a5,s0
    800003c8:	fea7ede3          	bltu	a5,a0,800003c2 <usleep+0x2c>
    800003cc:	60e2                	ld	ra,24(sp)
    800003ce:	6442                	ld	s0,16(sp)
    800003d0:	64a2                	ld	s1,8(sp)
    800003d2:	4501                	li	a0,0
    800003d4:	6105                	addi	sp,sp,32
    800003d6:	8082                	ret

00000000800003d8 <msleep>:
    800003d8:	3e800793          	li	a5,1000
    800003dc:	02f50533          	mul	a0,a0,a5
    800003e0:	00000317          	auipc	t1,0x0
    800003e4:	fb630067          	jr	-74(t1) # 80000396 <usleep>

00000000800003e8 <sleep>:
    800003e8:	3e800793          	li	a5,1000
    800003ec:	02a7853b          	mulw	a0,a5,a0
    800003f0:	1502                	slli	a0,a0,0x20
    800003f2:	9101                	srli	a0,a0,0x20
    800003f4:	00000317          	auipc	t1,0x0
    800003f8:	fe430067          	jr	-28(t1) # 800003d8 <msleep>

00000000800003fc <fpioa_init>:
    800003fc:	715d                	addi	sp,sp,-80
    800003fe:	4575                	li	a0,29
    80000400:	e486                	sd	ra,72(sp)
    80000402:	00001097          	auipc	ra,0x1
    80000406:	d86080e7          	jalr	-634(ra) # 80001188 <sysctl_clock_enable>
    8000040a:	04000613          	li	a2,64
    8000040e:	4581                	li	a1,0
    80000410:	850a                	mv	a0,sp
    80000412:	00006097          	auipc	ra,0x6
    80000416:	4de080e7          	jalr	1246(ra) # 800068f0 <memset>
    8000041a:	4601                	li	a2,0
    8000041c:	0000c317          	auipc	t1,0xc
    80000420:	b3430313          	addi	t1,t1,-1228 # 8000bf50 <function_config>
    80000424:	10000813          	li	a6,256
    80000428:	40565713          	srai	a4,a2,0x5
    8000042c:	00261693          	slli	a3,a2,0x2
    80000430:	00271593          	slli	a1,a4,0x2
    80000434:	009c                	addi	a5,sp,64
    80000436:	969a                	add	a3,a3,t1
    80000438:	95be                	add	a1,a1,a5
    8000043a:	429c                	lw	a5,0(a3)
    8000043c:	fc05a883          	lw	a7,-64(a1)
    80000440:	01f67513          	andi	a0,a2,31
    80000444:	0187d69b          	srliw	a3,a5,0x18
    80000448:	8a85                	andi	a3,a3,1
    8000044a:	00a696bb          	sllw	a3,a3,a0
    8000044e:	0116e6b3          	or	a3,a3,a7
    80000452:	0721                	addi	a4,a4,8
    80000454:	fcd5a023          	sw	a3,-64(a1)
    80000458:	070a                	slli	a4,a4,0x2
    8000045a:	0094                	addi	a3,sp,64
    8000045c:	9736                	add	a4,a4,a3
    8000045e:	fc072683          	lw	a3,-64(a4)
    80000462:	0197d79b          	srliw	a5,a5,0x19
    80000466:	8b85                	andi	a5,a5,1
    80000468:	00a797bb          	sllw	a5,a5,a0
    8000046c:	8fd5                	or	a5,a5,a3
    8000046e:	fcf72023          	sw	a5,-64(a4)
    80000472:	2605                	addiw	a2,a2,1
    80000474:	fb061ae3          	bne	a2,a6,80000428 <fpioa_init+0x2c>
    80000478:	878a                	mv	a5,sp
    8000047a:	4701                	li	a4,0
    8000047c:	502b0537          	lui	a0,0x502b0
    80000480:	4621                	li	a2,8
    80000482:	538c                	lw	a1,32(a5)
    80000484:	00271693          	slli	a3,a4,0x2
    80000488:	96aa                	add	a3,a3,a0
    8000048a:	0eb6a023          	sw	a1,224(a3)
    8000048e:	438c                	lw	a1,0(a5)
    80000490:	2705                	addiw	a4,a4,1
    80000492:	0791                	addi	a5,a5,4
    80000494:	0cb6a023          	sw	a1,192(a3)
    80000498:	fec715e3          	bne	a4,a2,80000482 <fpioa_init+0x86>
    8000049c:	60a6                	ld	ra,72(sp)
    8000049e:	4501                	li	a0,0
    800004a0:	6161                	addi	sp,sp,80
    800004a2:	8082                	ret

00000000800004a4 <fpioa_set_function_raw>:
    800004a4:	02f00713          	li	a4,47
    800004a8:	87aa                	mv	a5,a0
    800004aa:	02a76a63          	bltu	a4,a0,800004de <fpioa_set_function_raw+0x3a>
    800004ae:	0ff00713          	li	a4,255
    800004b2:	557d                	li	a0,-1
    800004b4:	02b76663          	bltu	a4,a1,800004e0 <fpioa_set_function_raw+0x3c>
    800004b8:	1582                	slli	a1,a1,0x20
    800004ba:	0000c717          	auipc	a4,0xc
    800004be:	a9670713          	addi	a4,a4,-1386 # 8000bf50 <function_config>
    800004c2:	81f9                	srli	a1,a1,0x1e
    800004c4:	95ba                	add	a1,a1,a4
    800004c6:	4198                	lw	a4,0(a1)
    800004c8:	00fc06b7          	lui	a3,0xfc0
    800004cc:	16fd                	addi	a3,a3,-1
    800004ce:	502b0537          	lui	a0,0x502b0
    800004d2:	078a                	slli	a5,a5,0x2
    800004d4:	97aa                	add	a5,a5,a0
    800004d6:	8f75                	and	a4,a4,a3
    800004d8:	c398                	sw	a4,0(a5)
    800004da:	4501                	li	a0,0
    800004dc:	8082                	ret
    800004de:	557d                	li	a0,-1
    800004e0:	8082                	ret

00000000800004e2 <fpioa_set_function>:
    800004e2:	02f00793          	li	a5,47
    800004e6:	06a7ee63          	bltu	a5,a0,80000562 <fpioa_set_function+0x80>
    800004ea:	7179                	addi	sp,sp,-48
    800004ec:	f022                	sd	s0,32(sp)
    800004ee:	f406                	sd	ra,40(sp)
    800004f0:	ec26                	sd	s1,24(sp)
    800004f2:	e84a                	sd	s2,16(sp)
    800004f4:	e44e                	sd	s3,8(sp)
    800004f6:	e052                	sd	s4,0(sp)
    800004f8:	0ff00713          	li	a4,255
    800004fc:	842e                	mv	s0,a1
    800004fe:	57fd                	li	a5,-1
    80000500:	04b76863          	bltu	a4,a1,80000550 <fpioa_set_function+0x6e>
    80000504:	07800793          	li	a5,120
    80000508:	4901                	li	s2,0
    8000050a:	02f58e63          	beq	a1,a5,80000546 <fpioa_set_function+0x64>
    8000050e:	84aa                	mv	s1,a0
    80000510:	502b0a37          	lui	s4,0x502b0
    80000514:	03000993          	li	s3,48
    80000518:	0009051b          	sext.w	a0,s2
    8000051c:	00251793          	slli	a5,a0,0x2
    80000520:	97d2                	add	a5,a5,s4
    80000522:	439c                	lw	a5,0(a5)
    80000524:	0ff7f793          	andi	a5,a5,255
    80000528:	00879a63          	bne	a5,s0,8000053c <fpioa_set_function+0x5a>
    8000052c:	00950863          	beq	a0,s1,8000053c <fpioa_set_function+0x5a>
    80000530:	07800593          	li	a1,120
    80000534:	00000097          	auipc	ra,0x0
    80000538:	f70080e7          	jalr	-144(ra) # 800004a4 <fpioa_set_function_raw>
    8000053c:	2905                	addiw	s2,s2,1
    8000053e:	fd391de3          	bne	s2,s3,80000518 <fpioa_set_function+0x36>
    80000542:	85a2                	mv	a1,s0
    80000544:	8526                	mv	a0,s1
    80000546:	00000097          	auipc	ra,0x0
    8000054a:	f5e080e7          	jalr	-162(ra) # 800004a4 <fpioa_set_function_raw>
    8000054e:	4781                	li	a5,0
    80000550:	70a2                	ld	ra,40(sp)
    80000552:	7402                	ld	s0,32(sp)
    80000554:	64e2                	ld	s1,24(sp)
    80000556:	6942                	ld	s2,16(sp)
    80000558:	69a2                	ld	s3,8(sp)
    8000055a:	6a02                	ld	s4,0(sp)
    8000055c:	853e                	mv	a0,a5
    8000055e:	6145                	addi	sp,sp,48
    80000560:	8082                	ret
    80000562:	57fd                	li	a5,-1
    80000564:	853e                	mv	a0,a5
    80000566:	8082                	ret

0000000080000568 <plic_init>:
    80000568:	1141                	addi	sp,sp,-16
    8000056a:	e406                	sd	ra,8(sp)
    8000056c:	00002097          	auipc	ra,0x2
    80000570:	e02080e7          	jalr	-510(ra) # 8000236e <core_get_coreid>
    80000574:	02050793          	addi	a5,a0,32 # 502b0020 <_stack_size+0x502a8020>
    80000578:	0c000737          	lui	a4,0xc000
    8000057c:	07a2                	slli	a5,a5,0x8
    8000057e:	97ba                	add	a5,a5,a4
    80000580:	0007a023          	sw	zero,0(a5)
    80000584:	00851793          	slli	a5,a0,0x8
    80000588:	973e                	add	a4,a4,a5
    8000058a:	6789                	lui	a5,0x2
    8000058c:	97ba                	add	a5,a5,a4
    8000058e:	0007a223          	sw	zero,4(a5) # 2004 <_stack_size-0x5ffc>
    80000592:	0007a423          	sw	zero,8(a5)
    80000596:	0000f797          	auipc	a5,0xf
    8000059a:	63a7c783          	lbu	a5,1594(a5) # 8000fbd0 <s_plic_priorities_init_flag.5333>
    8000059e:	e395                	bnez	a5,800005c2 <plic_init+0x5a>
    800005a0:	0c000637          	lui	a2,0xc000
    800005a4:	04100693          	li	a3,65
    800005a8:	00279713          	slli	a4,a5,0x2
    800005ac:	9732                	add	a4,a4,a2
    800005ae:	00072023          	sw	zero,0(a4) # c000000 <_stack_size+0xbff8000>
    800005b2:	2785                	addiw	a5,a5,1
    800005b4:	fed79ae3          	bne	a5,a3,800005a8 <plic_init+0x40>
    800005b8:	4785                	li	a5,1
    800005ba:	0000f717          	auipc	a4,0xf
    800005be:	60f70b23          	sb	a5,1558(a4) # 8000fbd0 <s_plic_priorities_init_flag.5333>
    800005c2:	00d51713          	slli	a4,a0,0xd
    800005c6:	0c0007b7          	lui	a5,0xc000
    800005ca:	97ba                	add	a5,a5,a4
    800005cc:	00200737          	lui	a4,0x200
    800005d0:	973e                	add	a4,a4,a5
    800005d2:	00072023          	sw	zero,0(a4) # 200000 <_stack_size+0x1f8000>
    800005d6:	42000713          	li	a4,1056
    800005da:	02e50533          	mul	a0,a0,a4
    800005de:	00016717          	auipc	a4,0x16
    800005e2:	a5270713          	addi	a4,a4,-1454 # 80016030 <plic_instance>
    800005e6:	04200693          	li	a3,66
    800005ea:	953a                	add	a0,a0,a4
    800005ec:	4701                	li	a4,0
    800005ee:	00053023          	sd	zero,0(a0)
    800005f2:	00053423          	sd	zero,8(a0)
    800005f6:	2705                	addiw	a4,a4,1
    800005f8:	0541                	addi	a0,a0,16
    800005fa:	fed71ae3          	bne	a4,a3,800005ee <plic_init+0x86>
    800005fe:	002006b7          	lui	a3,0x200
    80000602:	06500713          	li	a4,101
    80000606:	97b6                	add	a5,a5,a3
    80000608:	43d4                	lw	a3,4(a5)
    8000060a:	2681                	sext.w	a3,a3
    8000060c:	c299                	beqz	a3,80000612 <plic_init+0xaa>
    8000060e:	377d                	addiw	a4,a4,-1
    80000610:	ff65                	bnez	a4,80000608 <plic_init+0xa0>
    80000612:	6785                	lui	a5,0x1
    80000614:	8007879b          	addiw	a5,a5,-2048
    80000618:	3047a7f3          	csrrs	a5,mie,a5
    8000061c:	60a2                	ld	ra,8(sp)
    8000061e:	0141                	addi	sp,sp,16
    80000620:	8082                	ret

0000000080000622 <plic_irq_enable>:
    80000622:	04100793          	li	a5,65
    80000626:	02a7ee63          	bltu	a5,a0,80000662 <plic_irq_enable+0x40>
    8000062a:	1141                	addi	sp,sp,-16
    8000062c:	e022                	sd	s0,0(sp)
    8000062e:	e406                	sd	ra,8(sp)
    80000630:	842a                	mv	s0,a0
    80000632:	00002097          	auipc	ra,0x2
    80000636:	d3c080e7          	jalr	-708(ra) # 8000236e <core_get_coreid>
    8000063a:	0054579b          	srliw	a5,s0,0x5
    8000063e:	051a                	slli	a0,a0,0x6
    80000640:	97aa                	add	a5,a5,a0
    80000642:	078a                	slli	a5,a5,0x2
    80000644:	0c002537          	lui	a0,0xc002
    80000648:	97aa                	add	a5,a5,a0
    8000064a:	4398                	lw	a4,0(a5)
    8000064c:	4505                	li	a0,1
    8000064e:	0085143b          	sllw	s0,a0,s0
    80000652:	8f41                	or	a4,a4,s0
    80000654:	60a2                	ld	ra,8(sp)
    80000656:	6402                	ld	s0,0(sp)
    80000658:	2701                	sext.w	a4,a4
    8000065a:	c398                	sw	a4,0(a5)
    8000065c:	4501                	li	a0,0
    8000065e:	0141                	addi	sp,sp,16
    80000660:	8082                	ret
    80000662:	557d                	li	a0,-1
    80000664:	8082                	ret

0000000080000666 <plic_set_priority>:
    80000666:	04100793          	li	a5,65
    8000066a:	00a7ea63          	bltu	a5,a0,8000067e <plic_set_priority+0x18>
    8000066e:	1502                	slli	a0,a0,0x20
    80000670:	0c0007b7          	lui	a5,0xc000
    80000674:	8179                	srli	a0,a0,0x1e
    80000676:	953e                	add	a0,a0,a5
    80000678:	c10c                	sw	a1,0(a0)
    8000067a:	4501                	li	a0,0
    8000067c:	8082                	ret
    8000067e:	557d                	li	a0,-1
    80000680:	8082                	ret

0000000080000682 <plic_irq_register>:
    80000682:	1101                	addi	sp,sp,-32
    80000684:	e822                	sd	s0,16(sp)
    80000686:	ec06                	sd	ra,24(sp)
    80000688:	e42e                	sd	a1,8(sp)
    8000068a:	e032                	sd	a2,0(sp)
    8000068c:	842a                	mv	s0,a0
    8000068e:	00002097          	auipc	ra,0x2
    80000692:	ce0080e7          	jalr	-800(ra) # 8000236e <core_get_coreid>
    80000696:	04200793          	li	a5,66
    8000069a:	02f50533          	mul	a0,a0,a5
    8000069e:	1402                	slli	s0,s0,0x20
    800006a0:	9001                	srli	s0,s0,0x20
    800006a2:	65a2                	ld	a1,8(sp)
    800006a4:	6602                	ld	a2,0(sp)
    800006a6:	60e2                	ld	ra,24(sp)
    800006a8:	00016797          	auipc	a5,0x16
    800006ac:	98878793          	addi	a5,a5,-1656 # 80016030 <plic_instance>
    800006b0:	9522                	add	a0,a0,s0
    800006b2:	0512                	slli	a0,a0,0x4
    800006b4:	6442                	ld	s0,16(sp)
    800006b6:	953e                	add	a0,a0,a5
    800006b8:	e10c                	sd	a1,0(a0)
    800006ba:	e510                	sd	a2,8(a0)
    800006bc:	6105                	addi	sp,sp,32
    800006be:	8082                	ret

00000000800006c0 <handle_irq_m_ext>:
    800006c0:	7179                	addi	sp,sp,-48
    800006c2:	e84a                	sd	s2,16(sp)
    800006c4:	f406                	sd	ra,40(sp)
    800006c6:	f022                	sd	s0,32(sp)
    800006c8:	ec26                	sd	s1,24(sp)
    800006ca:	e44e                	sd	s3,8(sp)
    800006cc:	e052                	sd	s4,0(sp)
    800006ce:	892e                	mv	s2,a1
    800006d0:	344027f3          	csrr	a5,mip
    800006d4:	03479713          	slli	a4,a5,0x34
    800006d8:	08075263          	bgez	a4,8000075c <handle_irq_m_ext+0x9c>
    800006dc:	00002097          	auipc	ra,0x2
    800006e0:	c92080e7          	jalr	-878(ra) # 8000236e <core_get_coreid>
    800006e4:	30402a73          	csrr	s4,mie
    800006e8:	0c000737          	lui	a4,0xc000
    800006ec:	00d51413          	slli	s0,a0,0xd
    800006f0:	943a                	add	s0,s0,a4
    800006f2:	002007b7          	lui	a5,0x200
    800006f6:	97a2                	add	a5,a5,s0
    800006f8:	43c4                	lw	s1,4(a5)
    800006fa:	0007a983          	lw	s3,0(a5) # 200000 <_stack_size+0x1f8000>
    800006fe:	2481                	sext.w	s1,s1
    80000700:	02049693          	slli	a3,s1,0x20
    80000704:	9281                	srli	a3,a3,0x20
    80000706:	00269613          	slli	a2,a3,0x2
    8000070a:	9732                	add	a4,a4,a2
    8000070c:	4318                	lw	a4,0(a4)
    8000070e:	2981                	sext.w	s3,s3
    80000710:	2701                	sext.w	a4,a4
    80000712:	c398                	sw	a4,0(a5)
    80000714:	08800793          	li	a5,136
    80000718:	3047b7f3          	csrrc	a5,mie,a5
    8000071c:	300467f3          	csrrsi	a5,mstatus,8
    80000720:	04200793          	li	a5,66
    80000724:	02f50533          	mul	a0,a0,a5
    80000728:	00016797          	auipc	a5,0x16
    8000072c:	90878793          	addi	a5,a5,-1784 # 80016030 <plic_instance>
    80000730:	9536                	add	a0,a0,a3
    80000732:	0512                	slli	a0,a0,0x4
    80000734:	953e                	add	a0,a0,a5
    80000736:	611c                	ld	a5,0(a0)
    80000738:	c399                	beqz	a5,8000073e <handle_irq_m_ext+0x7e>
    8000073a:	6508                	ld	a0,8(a0)
    8000073c:	9782                	jalr	a5
    8000073e:	002007b7          	lui	a5,0x200
    80000742:	943e                	add	s0,s0,a5
    80000744:	c044                	sw	s1,4(s0)
    80000746:	300477f3          	csrrci	a5,mstatus,8
    8000074a:	6789                	lui	a5,0x2
    8000074c:	8807879b          	addiw	a5,a5,-1920
    80000750:	3007a7f3          	csrrs	a5,mstatus,a5
    80000754:	304a1073          	csrw	mie,s4
    80000758:	01342023          	sw	s3,0(s0)
    8000075c:	70a2                	ld	ra,40(sp)
    8000075e:	7402                	ld	s0,32(sp)
    80000760:	854a                	mv	a0,s2
    80000762:	64e2                	ld	s1,24(sp)
    80000764:	6942                	ld	s2,16(sp)
    80000766:	69a2                	ld	s3,8(sp)
    80000768:	6a02                	ld	s4,0(sp)
    8000076a:	6145                	addi	sp,sp,48
    8000076c:	8082                	ret

000000008000076e <handle_irq_s_ext>:
    8000076e:	7179                	addi	sp,sp,-48
    80000770:	f022                	sd	s0,32(sp)
    80000772:	ec26                	sd	s1,24(sp)
    80000774:	e84a                	sd	s2,16(sp)
    80000776:	e44e                	sd	s3,8(sp)
    80000778:	f406                	sd	ra,40(sp)
    8000077a:	892e                	mv	s2,a1
    8000077c:	00002097          	auipc	ra,0x2
    80000780:	bf2080e7          	jalr	-1038(ra) # 8000236e <core_get_coreid>
    80000784:	00d51413          	slli	s0,a0,0xd
    80000788:	0c000737          	lui	a4,0xc000
    8000078c:	943a                	add	s0,s0,a4
    8000078e:	002007b7          	lui	a5,0x200
    80000792:	97a2                	add	a5,a5,s0
    80000794:	43c4                	lw	s1,4(a5)
    80000796:	0007a983          	lw	s3,0(a5) # 200000 <_stack_size+0x1f8000>
    8000079a:	2481                	sext.w	s1,s1
    8000079c:	02049693          	slli	a3,s1,0x20
    800007a0:	9281                	srli	a3,a3,0x20
    800007a2:	00269613          	slli	a2,a3,0x2
    800007a6:	9732                	add	a4,a4,a2
    800007a8:	4318                	lw	a4,0(a4)
    800007aa:	2981                	sext.w	s3,s3
    800007ac:	2701                	sext.w	a4,a4
    800007ae:	c398                	sw	a4,0(a5)
    800007b0:	04200793          	li	a5,66
    800007b4:	02f50533          	mul	a0,a0,a5
    800007b8:	00016797          	auipc	a5,0x16
    800007bc:	87878793          	addi	a5,a5,-1928 # 80016030 <plic_instance>
    800007c0:	9536                	add	a0,a0,a3
    800007c2:	0512                	slli	a0,a0,0x4
    800007c4:	953e                	add	a0,a0,a5
    800007c6:	611c                	ld	a5,0(a0)
    800007c8:	c399                	beqz	a5,800007ce <handle_irq_s_ext+0x60>
    800007ca:	6508                	ld	a0,8(a0)
    800007cc:	9782                	jalr	a5
    800007ce:	002007b7          	lui	a5,0x200
    800007d2:	943e                	add	s0,s0,a5
    800007d4:	c044                	sw	s1,4(s0)
    800007d6:	01342023          	sw	s3,0(s0)
    800007da:	70a2                	ld	ra,40(sp)
    800007dc:	7402                	ld	s0,32(sp)
    800007de:	854a                	mv	a0,s2
    800007e0:	64e2                	ld	s1,24(sp)
    800007e2:	6942                	ld	s2,16(sp)
    800007e4:	69a2                	ld	s3,8(sp)
    800007e6:	6145                	addi	sp,sp,48
    800007e8:	8082                	ret

00000000800007ea <timer_interrupt_handler.isra.1>:
    800007ea:	711d                	addi	sp,sp,-96
    800007ec:	1502                	slli	a0,a0,0x20
    800007ee:	9101                	srli	a0,a0,0x20
    800007f0:	fc4e                	sd	s3,56(sp)
    800007f2:	06000993          	li	s3,96
    800007f6:	033509b3          	mul	s3,a0,s3
    800007fa:	00351713          	slli	a4,a0,0x3
    800007fe:	0000c797          	auipc	a5,0xc
    80000802:	b5278793          	addi	a5,a5,-1198 # 8000c350 <timer>
    80000806:	97ba                	add	a5,a5,a4
    80000808:	f852                	sd	s4,48(sp)
    8000080a:	0007ba03          	ld	s4,0(a5)
    8000080e:	e0ca                	sd	s2,64(sp)
    80000810:	e4a6                	sd	s1,72(sp)
    80000812:	0a0a2903          	lw	s2,160(s4) # 502b00a0 <_stack_size+0x502a80a0>
    80000816:	f456                	sd	s5,40(sp)
    80000818:	f05a                	sd	s6,32(sp)
    8000081a:	ec5e                	sd	s7,24(sp)
    8000081c:	e862                	sd	s8,16(sp)
    8000081e:	e466                	sd	s9,8(sp)
    80000820:	ec86                	sd	ra,88(sp)
    80000822:	e8a2                	sd	s0,80(sp)
    80000824:	2901                	sext.w	s2,s2
    80000826:	4481                	li	s1,0
    80000828:	00016b97          	auipc	s7,0x16
    8000082c:	048b8b93          	addi	s7,s7,72 # 80016870 <timer_instance>
    80000830:	4c61                	li	s8,24
    80000832:	4ad1                	li	s5,20
    80000834:	4c91                	li	s9,4
    80000836:	4b11                	li	s6,4
    80000838:	00197793          	andi	a5,s2,1
    8000083c:	cb9d                	beqz	a5,80000872 <timer_interrupt_handler.isra.1+0x88>
    8000083e:	03848433          	mul	s0,s1,s8
    80000842:	944e                	add	s0,s0,s3
    80000844:	945e                	add	s0,s0,s7
    80000846:	601c                	ld	a5,0(s0)
    80000848:	c38d                	beqz	a5,8000086a <timer_interrupt_handler.isra.1+0x80>
    8000084a:	601c                	ld	a5,0(s0)
    8000084c:	6408                	ld	a0,8(s0)
    8000084e:	9782                	jalr	a5
    80000850:	01044783          	lbu	a5,16(s0)
    80000854:	0ff7f793          	andi	a5,a5,255
    80000858:	cb89                	beqz	a5,8000086a <timer_interrupt_handler.isra.1+0x80>
    8000085a:	02049793          	slli	a5,s1,0x20
    8000085e:	9381                	srli	a5,a5,0x20
    80000860:	035787b3          	mul	a5,a5,s5
    80000864:	97d2                	add	a5,a5,s4
    80000866:	0197a423          	sw	s9,8(a5)
    8000086a:	035487b3          	mul	a5,s1,s5
    8000086e:	97d2                	add	a5,a5,s4
    80000870:	47dc                	lw	a5,12(a5)
    80000872:	0485                	addi	s1,s1,1
    80000874:	0019591b          	srliw	s2,s2,0x1
    80000878:	fd6490e3          	bne	s1,s6,80000838 <timer_interrupt_handler.isra.1+0x4e>
    8000087c:	60e6                	ld	ra,88(sp)
    8000087e:	6446                	ld	s0,80(sp)
    80000880:	64a6                	ld	s1,72(sp)
    80000882:	6906                	ld	s2,64(sp)
    80000884:	79e2                	ld	s3,56(sp)
    80000886:	7a42                	ld	s4,48(sp)
    80000888:	7aa2                	ld	s5,40(sp)
    8000088a:	7b02                	ld	s6,32(sp)
    8000088c:	6be2                	ld	s7,24(sp)
    8000088e:	6c42                	ld	s8,16(sp)
    80000890:	6ca2                	ld	s9,8(sp)
    80000892:	4501                	li	a0,0
    80000894:	6125                	addi	sp,sp,96
    80000896:	8082                	ret

0000000080000898 <timer2_interrupt_callback>:
    80000898:	4509                	li	a0,2
    8000089a:	00000317          	auipc	t1,0x0
    8000089e:	f5030067          	jr	-176(t1) # 800007ea <timer_interrupt_handler.isra.1>

00000000800008a2 <timer1_interrupt_callback>:
    800008a2:	4505                	li	a0,1
    800008a4:	00000317          	auipc	t1,0x0
    800008a8:	f4630067          	jr	-186(t1) # 800007ea <timer_interrupt_handler.isra.1>

00000000800008ac <timer0_interrupt_callback>:
    800008ac:	4501                	li	a0,0
    800008ae:	00000317          	auipc	t1,0x0
    800008b2:	f3c30067          	jr	-196(t1) # 800007ea <timer_interrupt_handler.isra.1>

00000000800008b6 <timer_init>:
    800008b6:	02051693          	slli	a3,a0,0x20
    800008ba:	9281                	srli	a3,a3,0x20
    800008bc:	06000793          	li	a5,96
    800008c0:	02f686b3          	mul	a3,a3,a5
    800008c4:	4701                	li	a4,0
    800008c6:	00016597          	auipc	a1,0x16
    800008ca:	faa58593          	addi	a1,a1,-86 # 80016870 <timer_instance>
    800008ce:	4861                	li	a6,24
    800008d0:	4611                	li	a2,4
    800008d2:	030707b3          	mul	a5,a4,a6
    800008d6:	0705                	addi	a4,a4,1
    800008d8:	97b6                	add	a5,a5,a3
    800008da:	97ae                	add	a5,a5,a1
    800008dc:	0007b023          	sd	zero,0(a5)
    800008e0:	0007b423          	sd	zero,8(a5)
    800008e4:	00078823          	sb	zero,16(a5)
    800008e8:	fec715e3          	bne	a4,a2,800008d2 <timer_init+0x1c>
    800008ec:	2579                	addiw	a0,a0,30
    800008ee:	00001317          	auipc	t1,0x1
    800008f2:	89a30067          	jr	-1894(t1) # 80001188 <sysctl_clock_enable>

00000000800008f6 <timer_set_interval>:
    800008f6:	7179                	addi	sp,sp,-48
    800008f8:	f022                	sd	s0,32(sp)
    800008fa:	842a                	mv	s0,a0
    800008fc:	2579                	addiw	a0,a0,30
    800008fe:	f406                	sd	ra,40(sp)
    80000900:	e432                	sd	a2,8(sp)
    80000902:	ec26                	sd	s1,24(sp)
    80000904:	e84a                	sd	s2,16(sp)
    80000906:	84ae                	mv	s1,a1
    80000908:	00001097          	auipc	ra,0x1
    8000090c:	282080e7          	jalr	642(ra) # 80001b8a <sysctl_clock_get_freq>
    80000910:	d01577d3          	fcvt.s.wu	fa5,a0
    80000914:	0000c797          	auipc	a5,0xc
    80000918:	a547a507          	flw	fa0,-1452(a5) # 8000c368 <timer+0x18>
    8000091c:	18f57553          	fdiv.s	fa0,fa0,fa5
    80000920:	00006097          	auipc	ra,0x6
    80000924:	e32080e7          	jalr	-462(ra) # 80006752 <__extendsfdf2>
    80000928:	6622                	ld	a2,8(sp)
    8000092a:	892a                	mv	s2,a0
    8000092c:	8532                	mv	a0,a2
    8000092e:	00006097          	auipc	ra,0x6
    80000932:	d52080e7          	jalr	-686(ra) # 80006680 <__floatundidf>
    80000936:	85ca                	mv	a1,s2
    80000938:	00005097          	auipc	ra,0x5
    8000093c:	c8a080e7          	jalr	-886(ra) # 800055c2 <__divdf3>
    80000940:	00006097          	auipc	ra,0x6
    80000944:	bc8080e7          	jalr	-1080(ra) # 80006508 <__fixunsdfdi>
    80000948:	4785                	li	a5,1
    8000094a:	1782                	slli	a5,a5,0x20
    8000094c:	fff50693          	addi	a3,a0,-1 # c001fff <_stack_size+0xbff9fff>
    80000950:	17f5                	addi	a5,a5,-3
    80000952:	00d7f363          	bleu	a3,a5,80000958 <timer_set_interval+0x62>
    80000956:	a001                	j	80000956 <timer_set_interval+0x60>
    80000958:	1482                	slli	s1,s1,0x20
    8000095a:	46d1                	li	a3,20
    8000095c:	9081                	srli	s1,s1,0x20
    8000095e:	02d484b3          	mul	s1,s1,a3
    80000962:	1402                	slli	s0,s0,0x20
    80000964:	0000c797          	auipc	a5,0xc
    80000968:	9ec78793          	addi	a5,a5,-1556 # 8000c350 <timer>
    8000096c:	8075                	srli	s0,s0,0x1d
    8000096e:	943e                	add	s0,s0,a5
    80000970:	601c                	ld	a5,0(s0)
    80000972:	0005071b          	sext.w	a4,a0
    80000976:	94be                	add	s1,s1,a5
    80000978:	c098                	sw	a4,0(s1)
    8000097a:	00006097          	auipc	ra,0x6
    8000097e:	d06080e7          	jalr	-762(ra) # 80006680 <__floatundidf>
    80000982:	85ca                	mv	a1,s2
    80000984:	00005097          	auipc	ra,0x5
    80000988:	0fc080e7          	jalr	252(ra) # 80005a80 <__muldf3>
    8000098c:	00006097          	auipc	ra,0x6
    80000990:	b7c080e7          	jalr	-1156(ra) # 80006508 <__fixunsdfdi>
    80000994:	70a2                	ld	ra,40(sp)
    80000996:	7402                	ld	s0,32(sp)
    80000998:	64e2                	ld	s1,24(sp)
    8000099a:	6942                	ld	s2,16(sp)
    8000099c:	6145                	addi	sp,sp,48
    8000099e:	8082                	ret

00000000800009a0 <timer_irq_register>:
    800009a0:	882a                	mv	a6,a0
    800009a2:	4509                	li	a0,2
    800009a4:	0d056663          	bltu	a0,a6,80000a70 <timer_irq_register+0xd0>
    800009a8:	488d                	li	a7,3
    800009aa:	557d                	li	a0,-1
    800009ac:	0cb8e463          	bltu	a7,a1,80000a74 <timer_irq_register+0xd4>
    800009b0:	711d                	addi	sp,sp,-96
    800009b2:	ec86                	sd	ra,88(sp)
    800009b4:	e8a2                	sd	s0,80(sp)
    800009b6:	e4a6                	sd	s1,72(sp)
    800009b8:	e0ca                	sd	s2,64(sp)
    800009ba:	fc4e                	sd	s3,56(sp)
    800009bc:	f852                	sd	s4,48(sp)
    800009be:	4505                	li	a0,1
    800009c0:	0ab56463          	bltu	a0,a1,80000a68 <timer_irq_register+0xc8>
    800009c4:	0078049b          	addiw	s1,a6,7
    800009c8:	0014949b          	slliw	s1,s1,0x1
    800009cc:	02081413          	slli	s0,a6,0x20
    800009d0:	1582                	slli	a1,a1,0x20
    800009d2:	9181                	srli	a1,a1,0x20
    800009d4:	9001                	srli	s0,s0,0x20
    800009d6:	4561                	li	a0,24
    800009d8:	06000913          	li	s2,96
    800009dc:	03240933          	mul	s2,s0,s2
    800009e0:	89b6                	mv	s3,a3
    800009e2:	00000697          	auipc	a3,0x0
    800009e6:	eca68693          	addi	a3,a3,-310 # 800008ac <timer0_interrupt_callback>
    800009ea:	e036                	sd	a3,0(sp)
    800009ec:	00016a17          	auipc	s4,0x16
    800009f0:	e84a0a13          	addi	s4,s4,-380 # 80016870 <timer_instance>
    800009f4:	00000697          	auipc	a3,0x0
    800009f8:	eae68693          	addi	a3,a3,-338 # 800008a2 <timer1_interrupt_callback>
    800009fc:	00c03633          	snez	a2,a2
    80000a00:	e436                	sd	a3,8(sp)
    80000a02:	02c10423          	sb	a2,40(sp)
    80000a06:	00000697          	auipc	a3,0x0
    80000a0a:	e9268693          	addi	a3,a3,-366 # 80000898 <timer2_interrupt_callback>
    80000a0e:	02a58533          	mul	a0,a1,a0
    80000a12:	4661                	li	a2,24
    80000a14:	082c                	addi	a1,sp,24
    80000a16:	e836                	sd	a3,16(sp)
    80000a18:	ec3a                	sd	a4,24(sp)
    80000a1a:	f03e                	sd	a5,32(sp)
    80000a1c:	040e                	slli	s0,s0,0x3
    80000a1e:	954a                	add	a0,a0,s2
    80000a20:	9552                	add	a0,a0,s4
    80000a22:	00006097          	auipc	ra,0x6
    80000a26:	e18080e7          	jalr	-488(ra) # 8000683a <memcpy>
    80000a2a:	85ce                	mv	a1,s3
    80000a2c:	8526                	mv	a0,s1
    80000a2e:	00000097          	auipc	ra,0x0
    80000a32:	c38080e7          	jalr	-968(ra) # 80000666 <plic_set_priority>
    80000a36:	181c                	addi	a5,sp,48
    80000a38:	943e                	add	s0,s0,a5
    80000a3a:	fd043583          	ld	a1,-48(s0)
    80000a3e:	012a0633          	add	a2,s4,s2
    80000a42:	8526                	mv	a0,s1
    80000a44:	00000097          	auipc	ra,0x0
    80000a48:	c3e080e7          	jalr	-962(ra) # 80000682 <plic_irq_register>
    80000a4c:	8526                	mv	a0,s1
    80000a4e:	00000097          	auipc	ra,0x0
    80000a52:	bd4080e7          	jalr	-1068(ra) # 80000622 <plic_irq_enable>
    80000a56:	60e6                	ld	ra,88(sp)
    80000a58:	6446                	ld	s0,80(sp)
    80000a5a:	64a6                	ld	s1,72(sp)
    80000a5c:	6906                	ld	s2,64(sp)
    80000a5e:	79e2                	ld	s3,56(sp)
    80000a60:	7a42                	ld	s4,48(sp)
    80000a62:	4501                	li	a0,0
    80000a64:	6125                	addi	sp,sp,96
    80000a66:	8082                	ret
    80000a68:	0018149b          	slliw	s1,a6,0x1
    80000a6c:	24bd                	addiw	s1,s1,15
    80000a6e:	bfb9                	j	800009cc <timer_irq_register+0x2c>
    80000a70:	557d                	li	a0,-1
    80000a72:	8082                	ret
    80000a74:	8082                	ret

0000000080000a76 <otp_read_serial>:
    80000a76:	0000f797          	auipc	a5,0xf
    80000a7a:	16278793          	addi	a5,a5,354 # 8000fbd8 <otp_read_inner>
    80000a7e:	639c                	ld	a5,0(a5)
    80000a80:	1101                	addi	sp,sp,-32
    80000a82:	6511                	lui	a0,0x4
    80000a84:	ec06                	sd	ra,24(sp)
    80000a86:	4611                	li	a2,4
    80000a88:	006c                	addi	a1,sp,12
    80000a8a:	d9c50513          	addi	a0,a0,-612 # 3d9c <_stack_size-0x4264>
    80000a8e:	9782                	jalr	a5
    80000a90:	57fd                	li	a5,-1
    80000a92:	e111                	bnez	a0,80000a96 <otp_read_serial+0x20>
    80000a94:	47b2                	lw	a5,12(sp)
    80000a96:	60e2                	ld	ra,24(sp)
    80000a98:	853e                	mv	a0,a5
    80000a9a:	6105                	addi	sp,sp,32
    80000a9c:	8082                	ret

0000000080000a9e <uart_send_data>:
    80000a9e:	1502                	slli	a0,a0,0x20
    80000aa0:	01d55713          	srli	a4,a0,0x1d
    80000aa4:	0000f797          	auipc	a5,0xf
    80000aa8:	1207ae23          	sw	zero,316(a5) # 8000fbe0 <g_write_count>
    80000aac:	0000c517          	auipc	a0,0xc
    80000ab0:	8c450513          	addi	a0,a0,-1852 # 8000c370 <uart>
    80000ab4:	0000f797          	auipc	a5,0xf
    80000ab8:	12c78793          	addi	a5,a5,300 # 8000fbe0 <g_write_count>
    80000abc:	953a                	add	a0,a0,a4
    80000abe:	4398                	lw	a4,0(a5)
    80000ac0:	2701                	sext.w	a4,a4
    80000ac2:	00c76563          	bltu	a4,a2,80000acc <uart_send_data+0x2e>
    80000ac6:	4388                	lw	a0,0(a5)
    80000ac8:	2501                	sext.w	a0,a0
    80000aca:	8082                	ret
    80000acc:	0585                	addi	a1,a1,1
    80000ace:	fff5c703          	lbu	a4,-1(a1)
    80000ad2:	00053803          	ld	a6,0(a0)
    80000ad6:	01482683          	lw	a3,20(a6)
    80000ada:	0206f693          	andi	a3,a3,32
    80000ade:	fee5                	bnez	a3,80000ad6 <uart_send_data+0x38>
    80000ae0:	2701                	sext.w	a4,a4
    80000ae2:	00e82023          	sw	a4,0(a6)
    80000ae6:	4398                	lw	a4,0(a5)
    80000ae8:	2705                	addiw	a4,a4,1
    80000aea:	0000f697          	auipc	a3,0xf
    80000aee:	0ee6ab23          	sw	a4,246(a3) # 8000fbe0 <g_write_count>
    80000af2:	b7f1                	j	80000abe <uart_send_data+0x20>

0000000080000af4 <uart_configure>:
    80000af4:	7179                	addi	sp,sp,-48
    80000af6:	e052                	sd	s4,0(sp)
    80000af8:	ffb60a1b          	addiw	s4,a2,-5
    80000afc:	f406                	sd	ra,40(sp)
    80000afe:	f022                	sd	s0,32(sp)
    80000b00:	ec26                	sd	s1,24(sp)
    80000b02:	e84a                	sd	s2,16(sp)
    80000b04:	e44e                	sd	s3,8(sp)
    80000b06:	000a081b          	sext.w	a6,s4
    80000b0a:	478d                	li	a5,3
    80000b0c:	0107f363          	bleu	a6,a5,80000b12 <uart_configure+0x1e>
    80000b10:	a001                	j	80000b10 <uart_configure+0x1c>
    80000b12:	4795                	li	a5,5
    80000b14:	00f61663          	bne	a2,a5,80000b20 <uart_configure+0x2c>
    80000b18:	4789                	li	a5,2
    80000b1a:	00f69763          	bne	a3,a5,80000b28 <uart_configure+0x34>
    80000b1e:	a001                	j	80000b1e <uart_configure+0x2a>
    80000b20:	4785                	li	a5,1
    80000b22:	00f69363          	bne	a3,a5,80000b28 <uart_configure+0x34>
    80000b26:	a001                	j	80000b26 <uart_configure+0x32>
    80000b28:	4789                	li	a5,2
    80000b2a:	0ae7ef63          	bltu	a5,a4,80000be8 <uart_configure+0xf4>
    80000b2e:	1702                	slli	a4,a4,0x20
    80000b30:	0000d797          	auipc	a5,0xd
    80000b34:	c3078793          	addi	a5,a5,-976 # 8000d760 <CSWTCH.9>
    80000b38:	9301                	srli	a4,a4,0x20
    80000b3a:	973e                	add	a4,a4,a5
    80000b3c:	89aa                	mv	s3,a0
    80000b3e:	4519                	li	a0,6
    80000b40:	8936                	mv	s2,a3
    80000b42:	00074483          	lbu	s1,0(a4) # c000000 <_stack_size+0xbff8000>
    80000b46:	842e                	mv	s0,a1
    80000b48:	00001097          	auipc	ra,0x1
    80000b4c:	042080e7          	jalr	66(ra) # 80001b8a <sysctl_clock_get_freq>
    80000b50:	0285543b          	divuw	s0,a0,s0
    80000b54:	02099513          	slli	a0,s3,0x20
    80000b58:	8175                	srli	a0,a0,0x1d
    80000b5a:	0000c997          	auipc	s3,0xc
    80000b5e:	81698993          	addi	s3,s3,-2026 # 8000c370 <uart>
    80000b62:	954e                	add	a0,a0,s3
    80000b64:	01203933          	snez	s2,s2
    80000b68:	0034949b          	slliw	s1,s1,0x3
    80000b6c:	0029191b          	slliw	s2,s2,0x2
    80000b70:	0144e4b3          	or	s1,s1,s4
    80000b74:	0124e4b3          	or	s1,s1,s2
    80000b78:	2481                	sext.w	s1,s1
    80000b7a:	70a2                	ld	ra,40(sp)
    80000b7c:	6942                	ld	s2,16(sp)
    80000b7e:	69a2                	ld	s3,8(sp)
    80000b80:	6a02                	ld	s4,0(sp)
    80000b82:	00c4571b          	srliw	a4,s0,0xc
    80000b86:	0ff77613          	andi	a2,a4,255
    80000b8a:	00c7179b          	slliw	a5,a4,0xc
    80000b8e:	000ff737          	lui	a4,0xff
    80000b92:	8ff9                	and	a5,a5,a4
    80000b94:	6118                	ld	a4,0(a0)
    80000b96:	40f407bb          	subw	a5,s0,a5
    80000b9a:	0047d79b          	srliw	a5,a5,0x4
    80000b9e:	4754                	lw	a3,12(a4)
    80000ba0:	2681                	sext.w	a3,a3
    80000ba2:	0806e693          	ori	a3,a3,128
    80000ba6:	c754                	sw	a3,12(a4)
    80000ba8:	0ff7f693          	andi	a3,a5,255
    80000bac:	0047979b          	slliw	a5,a5,0x4
    80000bb0:	c350                	sw	a2,4(a4)
    80000bb2:	40f407bb          	subw	a5,s0,a5
    80000bb6:	c314                	sw	a3,0(a4)
    80000bb8:	0ff7f793          	andi	a5,a5,255
    80000bbc:	0cf72023          	sw	a5,192(a4) # ff0c0 <_stack_size+0xf70c0>
    80000bc0:	00072623          	sw	zero,12(a4)
    80000bc4:	c744                	sw	s1,12(a4)
    80000bc6:	475c                	lw	a5,12(a4)
    80000bc8:	7402                	ld	s0,32(sp)
    80000bca:	64e2                	ld	s1,24(sp)
    80000bcc:	2781                	sext.w	a5,a5
    80000bce:	f7f7f793          	andi	a5,a5,-129
    80000bd2:	c75c                	sw	a5,12(a4)
    80000bd4:	435c                	lw	a5,4(a4)
    80000bd6:	2781                	sext.w	a5,a5
    80000bd8:	0807e793          	ori	a5,a5,128
    80000bdc:	c35c                	sw	a5,4(a4)
    80000bde:	03900793          	li	a5,57
    80000be2:	c71c                	sw	a5,8(a4)
    80000be4:	6145                	addi	sp,sp,48
    80000be6:	8082                	ret
    80000be8:	a001                	j	80000be8 <uart_configure+0xf4>

0000000080000bea <uart_init>:
    80000bea:	1141                	addi	sp,sp,-16
    80000bec:	e022                	sd	s0,0(sp)
    80000bee:	842a                	mv	s0,a0
    80000bf0:	2565                	addiw	a0,a0,25
    80000bf2:	e406                	sd	ra,8(sp)
    80000bf4:	00000097          	auipc	ra,0x0
    80000bf8:	594080e7          	jalr	1428(ra) # 80001188 <sysctl_clock_enable>
    80000bfc:	0114051b          	addiw	a0,s0,17
    80000c00:	6402                	ld	s0,0(sp)
    80000c02:	60a2                	ld	ra,8(sp)
    80000c04:	0141                	addi	sp,sp,16
    80000c06:	00000317          	auipc	t1,0x0
    80000c0a:	55430067          	jr	1364(t1) # 8000115a <sysctl_reset>

0000000080000c0e <uart_debug_init>:
    80000c0e:	1141                	addi	sp,sp,-16
    80000c10:	e406                	sd	ra,8(sp)
    80000c12:	e022                	sd	s0,0(sp)
    80000c14:	4789                	li	a5,2
    80000c16:	00a7e663          	bltu	a5,a0,80000c22 <uart_debug_init+0x14>
    80000c1a:	0000f797          	auipc	a5,0xf
    80000c1e:	fca7a523          	sw	a0,-54(a5) # 8000fbe4 <s_uart_debug_channel>
    80000c22:	0000f417          	auipc	s0,0xf
    80000c26:	fc240413          	addi	s0,s0,-62 # 8000fbe4 <s_uart_debug_channel>
    80000c2a:	4008                	lw	a0,0(s0)
    80000c2c:	00000097          	auipc	ra,0x0
    80000c30:	fbe080e7          	jalr	-66(ra) # 80000bea <uart_init>
    80000c34:	4008                	lw	a0,0(s0)
    80000c36:	65f1                	lui	a1,0x1c
    80000c38:	4701                	li	a4,0
    80000c3a:	4681                	li	a3,0
    80000c3c:	4621                	li	a2,8
    80000c3e:	20058593          	addi	a1,a1,512 # 1c200 <_stack_size+0x14200>
    80000c42:	00000097          	auipc	ra,0x0
    80000c46:	eb2080e7          	jalr	-334(ra) # 80000af4 <uart_configure>
    80000c4a:	0000f797          	auipc	a5,0xf
    80000c4e:	f9a7e783          	lwu	a5,-102(a5) # 8000fbe4 <s_uart_debug_channel>
    80000c52:	00379713          	slli	a4,a5,0x3
    80000c56:	0000b797          	auipc	a5,0xb
    80000c5a:	71a78793          	addi	a5,a5,1818 # 8000c370 <uart>
    80000c5e:	97ba                	add	a5,a5,a4
    80000c60:	639c                	ld	a5,0(a5)
    80000c62:	60a2                	ld	ra,8(sp)
    80000c64:	6402                	ld	s0,0(sp)
    80000c66:	0807ae23          	sw	zero,156(a5)
    80000c6a:	0141                	addi	sp,sp,16
    80000c6c:	8082                	ret

0000000080000c6e <sysctl_reset_ctl>:
    80000c6e:	47f1                	li	a5,28
    80000c70:	0ea7e263          	bltu	a5,a0,80000d54 <sysctl_reset_ctl+0xe6>
    80000c74:	1502                	slli	a0,a0,0x20
    80000c76:	0000b717          	auipc	a4,0xb
    80000c7a:	71270713          	addi	a4,a4,1810 # 8000c388 <uart+0x18>
    80000c7e:	8179                	srli	a0,a0,0x1e
    80000c80:	953a                	add	a0,a0,a4
    80000c82:	411c                	lw	a5,0(a0)
    80000c84:	8985                	andi	a1,a1,1
    80000c86:	97ba                	add	a5,a5,a4
    80000c88:	8782                	jr	a5
    80000c8a:	50440737          	lui	a4,0x50440
    80000c8e:	5b1c                	lw	a5,48(a4)
    80000c90:	9bf9                	andi	a5,a5,-2
    80000c92:	8ddd                	or	a1,a1,a5
    80000c94:	db0c                	sw	a1,48(a4)
    80000c96:	8082                	ret
    80000c98:	50440737          	lui	a4,0x50440
    80000c9c:	5b5c                	lw	a5,52(a4)
    80000c9e:	9bf9                	andi	a5,a5,-2
    80000ca0:	8ddd                	or	a1,a1,a5
    80000ca2:	db4c                	sw	a1,52(a4)
    80000ca4:	8082                	ret
    80000ca6:	50440737          	lui	a4,0x50440
    80000caa:	5b5c                	lw	a5,52(a4)
    80000cac:	0015959b          	slliw	a1,a1,0x1
    80000cb0:	9bf5                	andi	a5,a5,-3
    80000cb2:	b7fd                	j	80000ca0 <sysctl_reset_ctl+0x32>
    80000cb4:	50440737          	lui	a4,0x50440
    80000cb8:	5b5c                	lw	a5,52(a4)
    80000cba:	0025959b          	slliw	a1,a1,0x2
    80000cbe:	9bed                	andi	a5,a5,-5
    80000cc0:	b7c5                	j	80000ca0 <sysctl_reset_ctl+0x32>
    80000cc2:	50440737          	lui	a4,0x50440
    80000cc6:	5b5c                	lw	a5,52(a4)
    80000cc8:	0035959b          	slliw	a1,a1,0x3
    80000ccc:	9bdd                	andi	a5,a5,-9
    80000cce:	bfc9                	j	80000ca0 <sysctl_reset_ctl+0x32>
    80000cd0:	50440737          	lui	a4,0x50440
    80000cd4:	5b5c                	lw	a5,52(a4)
    80000cd6:	0045959b          	slliw	a1,a1,0x4
    80000cda:	9bbd                	andi	a5,a5,-17
    80000cdc:	b7d1                	j	80000ca0 <sysctl_reset_ctl+0x32>
    80000cde:	50440737          	lui	a4,0x50440
    80000ce2:	5b5c                	lw	a5,52(a4)
    80000ce4:	0055959b          	slliw	a1,a1,0x5
    80000ce8:	fdf7f793          	andi	a5,a5,-33
    80000cec:	bf55                	j	80000ca0 <sysctl_reset_ctl+0x32>
    80000cee:	50440737          	lui	a4,0x50440
    80000cf2:	5b5c                	lw	a5,52(a4)
    80000cf4:	0065959b          	slliw	a1,a1,0x6
    80000cf8:	fbf7f793          	andi	a5,a5,-65
    80000cfc:	b755                	j	80000ca0 <sysctl_reset_ctl+0x32>
    80000cfe:	50440737          	lui	a4,0x50440
    80000d02:	5b5c                	lw	a5,52(a4)
    80000d04:	0075959b          	slliw	a1,a1,0x7
    80000d08:	f7f7f793          	andi	a5,a5,-129
    80000d0c:	bf51                	j	80000ca0 <sysctl_reset_ctl+0x32>
    80000d0e:	50440737          	lui	a4,0x50440
    80000d12:	5b5c                	lw	a5,52(a4)
    80000d14:	0085959b          	slliw	a1,a1,0x8
    80000d18:	eff7f793          	andi	a5,a5,-257
    80000d1c:	b751                	j	80000ca0 <sysctl_reset_ctl+0x32>
    80000d1e:	50440737          	lui	a4,0x50440
    80000d22:	5b5c                	lw	a5,52(a4)
    80000d24:	0095959b          	slliw	a1,a1,0x9
    80000d28:	dff7f793          	andi	a5,a5,-513
    80000d2c:	bf95                	j	80000ca0 <sysctl_reset_ctl+0x32>
    80000d2e:	50440737          	lui	a4,0x50440
    80000d32:	5b5c                	lw	a5,52(a4)
    80000d34:	00a5959b          	slliw	a1,a1,0xa
    80000d38:	bff7f793          	andi	a5,a5,-1025
    80000d3c:	b795                	j	80000ca0 <sysctl_reset_ctl+0x32>
    80000d3e:	504406b7          	lui	a3,0x50440
    80000d42:	5adc                	lw	a5,52(a3)
    80000d44:	777d                	lui	a4,0xfffff
    80000d46:	00b5959b          	slliw	a1,a1,0xb
    80000d4a:	7ff70713          	addi	a4,a4,2047 # fffffffffffff7ff <_trapsp0+0xffffffff7ffca7bf>
    80000d4e:	8ff9                	and	a5,a5,a4
    80000d50:	8ddd                	or	a1,a1,a5
    80000d52:	dacc                	sw	a1,52(a3)
    80000d54:	8082                	ret
    80000d56:	504406b7          	lui	a3,0x50440
    80000d5a:	5adc                	lw	a5,52(a3)
    80000d5c:	00c5959b          	slliw	a1,a1,0xc
    80000d60:	777d                	lui	a4,0xfffff
    80000d62:	177d                	addi	a4,a4,-1
    80000d64:	b7ed                	j	80000d4e <sysctl_reset_ctl+0xe0>
    80000d66:	504406b7          	lui	a3,0x50440
    80000d6a:	5adc                	lw	a5,52(a3)
    80000d6c:	00d5959b          	slliw	a1,a1,0xd
    80000d70:	7779                	lui	a4,0xffffe
    80000d72:	bfc5                	j	80000d62 <sysctl_reset_ctl+0xf4>
    80000d74:	504406b7          	lui	a3,0x50440
    80000d78:	5adc                	lw	a5,52(a3)
    80000d7a:	00e5959b          	slliw	a1,a1,0xe
    80000d7e:	7771                	lui	a4,0xffffc
    80000d80:	b7cd                	j	80000d62 <sysctl_reset_ctl+0xf4>
    80000d82:	504406b7          	lui	a3,0x50440
    80000d86:	5adc                	lw	a5,52(a3)
    80000d88:	00f5959b          	slliw	a1,a1,0xf
    80000d8c:	7761                	lui	a4,0xffff8
    80000d8e:	bfd1                	j	80000d62 <sysctl_reset_ctl+0xf4>
    80000d90:	504406b7          	lui	a3,0x50440
    80000d94:	5adc                	lw	a5,52(a3)
    80000d96:	0105959b          	slliw	a1,a1,0x10
    80000d9a:	7741                	lui	a4,0xffff0
    80000d9c:	b7d9                	j	80000d62 <sysctl_reset_ctl+0xf4>
    80000d9e:	504406b7          	lui	a3,0x50440
    80000da2:	5adc                	lw	a5,52(a3)
    80000da4:	0115959b          	slliw	a1,a1,0x11
    80000da8:	7701                	lui	a4,0xfffe0
    80000daa:	bf65                	j	80000d62 <sysctl_reset_ctl+0xf4>
    80000dac:	504406b7          	lui	a3,0x50440
    80000db0:	5adc                	lw	a5,52(a3)
    80000db2:	0125959b          	slliw	a1,a1,0x12
    80000db6:	fffc0737          	lui	a4,0xfffc0
    80000dba:	b765                	j	80000d62 <sysctl_reset_ctl+0xf4>
    80000dbc:	504406b7          	lui	a3,0x50440
    80000dc0:	5adc                	lw	a5,52(a3)
    80000dc2:	0135959b          	slliw	a1,a1,0x13
    80000dc6:	fff80737          	lui	a4,0xfff80
    80000dca:	bf61                	j	80000d62 <sysctl_reset_ctl+0xf4>
    80000dcc:	504406b7          	lui	a3,0x50440
    80000dd0:	5adc                	lw	a5,52(a3)
    80000dd2:	0145959b          	slliw	a1,a1,0x14
    80000dd6:	fff00737          	lui	a4,0xfff00
    80000dda:	b761                	j	80000d62 <sysctl_reset_ctl+0xf4>
    80000ddc:	504406b7          	lui	a3,0x50440
    80000de0:	5adc                	lw	a5,52(a3)
    80000de2:	0155959b          	slliw	a1,a1,0x15
    80000de6:	ffe00737          	lui	a4,0xffe00
    80000dea:	bfa5                	j	80000d62 <sysctl_reset_ctl+0xf4>
    80000dec:	504406b7          	lui	a3,0x50440
    80000df0:	5adc                	lw	a5,52(a3)
    80000df2:	0165959b          	slliw	a1,a1,0x16
    80000df6:	ffc00737          	lui	a4,0xffc00
    80000dfa:	b7a5                	j	80000d62 <sysctl_reset_ctl+0xf4>
    80000dfc:	504406b7          	lui	a3,0x50440
    80000e00:	5adc                	lw	a5,52(a3)
    80000e02:	0175959b          	slliw	a1,a1,0x17
    80000e06:	ff800737          	lui	a4,0xff800
    80000e0a:	bfa1                	j	80000d62 <sysctl_reset_ctl+0xf4>
    80000e0c:	504406b7          	lui	a3,0x50440
    80000e10:	5adc                	lw	a5,52(a3)
    80000e12:	0185959b          	slliw	a1,a1,0x18
    80000e16:	ff000737          	lui	a4,0xff000
    80000e1a:	b7a1                	j	80000d62 <sysctl_reset_ctl+0xf4>
    80000e1c:	504406b7          	lui	a3,0x50440
    80000e20:	5adc                	lw	a5,52(a3)
    80000e22:	0195959b          	slliw	a1,a1,0x19
    80000e26:	fe000737          	lui	a4,0xfe000
    80000e2a:	bf25                	j	80000d62 <sysctl_reset_ctl+0xf4>
    80000e2c:	504406b7          	lui	a3,0x50440
    80000e30:	5adc                	lw	a5,52(a3)
    80000e32:	01a5959b          	slliw	a1,a1,0x1a
    80000e36:	fc000737          	lui	a4,0xfc000
    80000e3a:	b725                	j	80000d62 <sysctl_reset_ctl+0xf4>
    80000e3c:	504406b7          	lui	a3,0x50440
    80000e40:	5adc                	lw	a5,52(a3)
    80000e42:	01d5959b          	slliw	a1,a1,0x1d
    80000e46:	e0000737          	lui	a4,0xe0000
    80000e4a:	bf21                	j	80000d62 <sysctl_reset_ctl+0xf4>

0000000080000e4c <sysctl_clock_device_en>:
    80000e4c:	02500793          	li	a5,37
    80000e50:	02a7e863          	bltu	a5,a0,80000e80 <sysctl_clock_device_en+0x34>
    80000e54:	1502                	slli	a0,a0,0x20
    80000e56:	0000b717          	auipc	a4,0xb
    80000e5a:	5a670713          	addi	a4,a4,1446 # 8000c3fc <uart+0x8c>
    80000e5e:	8179                	srli	a0,a0,0x1e
    80000e60:	953a                	add	a0,a0,a4
    80000e62:	411c                	lw	a5,0(a0)
    80000e64:	8985                	andi	a1,a1,1
    80000e66:	97ba                	add	a5,a5,a4
    80000e68:	8782                	jr	a5
    80000e6a:	504406b7          	lui	a3,0x50440
    80000e6e:	469c                	lw	a5,8(a3)
    80000e70:	fe000737          	lui	a4,0xfe000
    80000e74:	177d                	addi	a4,a4,-1
    80000e76:	0195959b          	slliw	a1,a1,0x19
    80000e7a:	8ff9                	and	a5,a5,a4
    80000e7c:	8ddd                	or	a1,a1,a5
    80000e7e:	c68c                	sw	a1,8(a3)
    80000e80:	4501                	li	a0,0
    80000e82:	8082                	ret
    80000e84:	504406b7          	lui	a3,0x50440
    80000e88:	46dc                	lw	a5,12(a3)
    80000e8a:	fe000737          	lui	a4,0xfe000
    80000e8e:	177d                	addi	a4,a4,-1
    80000e90:	0195959b          	slliw	a1,a1,0x19
    80000e94:	8ff9                	and	a5,a5,a4
    80000e96:	8ddd                	or	a1,a1,a5
    80000e98:	c6cc                	sw	a1,12(a3)
    80000e9a:	b7dd                	j	80000e80 <sysctl_clock_device_en+0x34>
    80000e9c:	504406b7          	lui	a3,0x50440
    80000ea0:	4a9c                	lw	a5,16(a3)
    80000ea2:	fe000737          	lui	a4,0xfe000
    80000ea6:	177d                	addi	a4,a4,-1
    80000ea8:	0195959b          	slliw	a1,a1,0x19
    80000eac:	8ff9                	and	a5,a5,a4
    80000eae:	8ddd                	or	a1,a1,a5
    80000eb0:	ca8c                	sw	a1,16(a3)
    80000eb2:	b7f9                	j	80000e80 <sysctl_clock_device_en+0x34>
    80000eb4:	50440737          	lui	a4,0x50440
    80000eb8:	571c                	lw	a5,40(a4)
    80000eba:	9bf9                	andi	a5,a5,-2
    80000ebc:	8ddd                	or	a1,a1,a5
    80000ebe:	d70c                	sw	a1,40(a4)
    80000ec0:	b7c1                	j	80000e80 <sysctl_clock_device_en+0x34>
    80000ec2:	50440737          	lui	a4,0x50440
    80000ec6:	571c                	lw	a5,40(a4)
    80000ec8:	0015959b          	slliw	a1,a1,0x1
    80000ecc:	9bf5                	andi	a5,a5,-3
    80000ece:	b7fd                	j	80000ebc <sysctl_clock_device_en+0x70>
    80000ed0:	50440737          	lui	a4,0x50440
    80000ed4:	571c                	lw	a5,40(a4)
    80000ed6:	0025959b          	slliw	a1,a1,0x2
    80000eda:	9bed                	andi	a5,a5,-5
    80000edc:	b7c5                	j	80000ebc <sysctl_clock_device_en+0x70>
    80000ede:	50440737          	lui	a4,0x50440
    80000ee2:	571c                	lw	a5,40(a4)
    80000ee4:	0035959b          	slliw	a1,a1,0x3
    80000ee8:	9bdd                	andi	a5,a5,-9
    80000eea:	bfc9                	j	80000ebc <sysctl_clock_device_en+0x70>
    80000eec:	50440737          	lui	a4,0x50440
    80000ef0:	571c                	lw	a5,40(a4)
    80000ef2:	0045959b          	slliw	a1,a1,0x4
    80000ef6:	9bbd                	andi	a5,a5,-17
    80000ef8:	b7d1                	j	80000ebc <sysctl_clock_device_en+0x70>
    80000efa:	50440737          	lui	a4,0x50440
    80000efe:	571c                	lw	a5,40(a4)
    80000f00:	0055959b          	slliw	a1,a1,0x5
    80000f04:	fdf7f793          	andi	a5,a5,-33
    80000f08:	bf55                	j	80000ebc <sysctl_clock_device_en+0x70>
    80000f0a:	50440737          	lui	a4,0x50440
    80000f0e:	575c                	lw	a5,44(a4)
    80000f10:	9bf9                	andi	a5,a5,-2
    80000f12:	8ddd                	or	a1,a1,a5
    80000f14:	d74c                	sw	a1,44(a4)
    80000f16:	b7ad                	j	80000e80 <sysctl_clock_device_en+0x34>
    80000f18:	50440737          	lui	a4,0x50440
    80000f1c:	575c                	lw	a5,44(a4)
    80000f1e:	0015959b          	slliw	a1,a1,0x1
    80000f22:	9bf5                	andi	a5,a5,-3
    80000f24:	b7fd                	j	80000f12 <sysctl_clock_device_en+0xc6>
    80000f26:	50440737          	lui	a4,0x50440
    80000f2a:	575c                	lw	a5,44(a4)
    80000f2c:	0025959b          	slliw	a1,a1,0x2
    80000f30:	9bed                	andi	a5,a5,-5
    80000f32:	b7c5                	j	80000f12 <sysctl_clock_device_en+0xc6>
    80000f34:	50440737          	lui	a4,0x50440
    80000f38:	575c                	lw	a5,44(a4)
    80000f3a:	0035959b          	slliw	a1,a1,0x3
    80000f3e:	9bdd                	andi	a5,a5,-9
    80000f40:	bfc9                	j	80000f12 <sysctl_clock_device_en+0xc6>
    80000f42:	50440737          	lui	a4,0x50440
    80000f46:	575c                	lw	a5,44(a4)
    80000f48:	0045959b          	slliw	a1,a1,0x4
    80000f4c:	9bbd                	andi	a5,a5,-17
    80000f4e:	b7d1                	j	80000f12 <sysctl_clock_device_en+0xc6>
    80000f50:	50440737          	lui	a4,0x50440
    80000f54:	575c                	lw	a5,44(a4)
    80000f56:	0095959b          	slliw	a1,a1,0x9
    80000f5a:	dff7f793          	andi	a5,a5,-513
    80000f5e:	bf55                	j	80000f12 <sysctl_clock_device_en+0xc6>
    80000f60:	50440737          	lui	a4,0x50440
    80000f64:	575c                	lw	a5,44(a4)
    80000f66:	0055959b          	slliw	a1,a1,0x5
    80000f6a:	fdf7f793          	andi	a5,a5,-33
    80000f6e:	b755                	j	80000f12 <sysctl_clock_device_en+0xc6>
    80000f70:	50440737          	lui	a4,0x50440
    80000f74:	575c                	lw	a5,44(a4)
    80000f76:	0085959b          	slliw	a1,a1,0x8
    80000f7a:	eff7f793          	andi	a5,a5,-257
    80000f7e:	bf51                	j	80000f12 <sysctl_clock_device_en+0xc6>
    80000f80:	50440737          	lui	a4,0x50440
    80000f84:	575c                	lw	a5,44(a4)
    80000f86:	00a5959b          	slliw	a1,a1,0xa
    80000f8a:	bff7f793          	andi	a5,a5,-1025
    80000f8e:	b751                	j	80000f12 <sysctl_clock_device_en+0xc6>
    80000f90:	504406b7          	lui	a3,0x50440
    80000f94:	56dc                	lw	a5,44(a3)
    80000f96:	777d                	lui	a4,0xfffff
    80000f98:	00b5959b          	slliw	a1,a1,0xb
    80000f9c:	7ff70713          	addi	a4,a4,2047 # fffffffffffff7ff <_trapsp0+0xffffffff7ffca7bf>
    80000fa0:	8ff9                	and	a5,a5,a4
    80000fa2:	8ddd                	or	a1,a1,a5
    80000fa4:	d6cc                	sw	a1,44(a3)
    80000fa6:	bde9                	j	80000e80 <sysctl_clock_device_en+0x34>
    80000fa8:	504406b7          	lui	a3,0x50440
    80000fac:	56dc                	lw	a5,44(a3)
    80000fae:	00c5959b          	slliw	a1,a1,0xc
    80000fb2:	777d                	lui	a4,0xfffff
    80000fb4:	177d                	addi	a4,a4,-1
    80000fb6:	b7ed                	j	80000fa0 <sysctl_clock_device_en+0x154>
    80000fb8:	504406b7          	lui	a3,0x50440
    80000fbc:	56dc                	lw	a5,44(a3)
    80000fbe:	00d5959b          	slliw	a1,a1,0xd
    80000fc2:	7779                	lui	a4,0xffffe
    80000fc4:	bfc5                	j	80000fb4 <sysctl_clock_device_en+0x168>
    80000fc6:	504406b7          	lui	a3,0x50440
    80000fca:	56dc                	lw	a5,44(a3)
    80000fcc:	00e5959b          	slliw	a1,a1,0xe
    80000fd0:	7771                	lui	a4,0xffffc
    80000fd2:	b7cd                	j	80000fb4 <sysctl_clock_device_en+0x168>
    80000fd4:	504406b7          	lui	a3,0x50440
    80000fd8:	56dc                	lw	a5,44(a3)
    80000fda:	00f5959b          	slliw	a1,a1,0xf
    80000fde:	7761                	lui	a4,0xffff8
    80000fe0:	bfd1                	j	80000fb4 <sysctl_clock_device_en+0x168>
    80000fe2:	504406b7          	lui	a3,0x50440
    80000fe6:	56dc                	lw	a5,44(a3)
    80000fe8:	0105959b          	slliw	a1,a1,0x10
    80000fec:	7741                	lui	a4,0xffff0
    80000fee:	b7d9                	j	80000fb4 <sysctl_clock_device_en+0x168>
    80000ff0:	504406b7          	lui	a3,0x50440
    80000ff4:	56dc                	lw	a5,44(a3)
    80000ff6:	0115959b          	slliw	a1,a1,0x11
    80000ffa:	7701                	lui	a4,0xfffe0
    80000ffc:	bf65                	j	80000fb4 <sysctl_clock_device_en+0x168>
    80000ffe:	504406b7          	lui	a3,0x50440
    80001002:	56dc                	lw	a5,44(a3)
    80001004:	0125959b          	slliw	a1,a1,0x12
    80001008:	fffc0737          	lui	a4,0xfffc0
    8000100c:	b765                	j	80000fb4 <sysctl_clock_device_en+0x168>
    8000100e:	504406b7          	lui	a3,0x50440
    80001012:	56dc                	lw	a5,44(a3)
    80001014:	0145959b          	slliw	a1,a1,0x14
    80001018:	fff00737          	lui	a4,0xfff00
    8000101c:	bf61                	j	80000fb4 <sysctl_clock_device_en+0x168>
    8000101e:	504406b7          	lui	a3,0x50440
    80001022:	56dc                	lw	a5,44(a3)
    80001024:	0155959b          	slliw	a1,a1,0x15
    80001028:	ffe00737          	lui	a4,0xffe00
    8000102c:	b761                	j	80000fb4 <sysctl_clock_device_en+0x168>
    8000102e:	504406b7          	lui	a3,0x50440
    80001032:	56dc                	lw	a5,44(a3)
    80001034:	0165959b          	slliw	a1,a1,0x16
    80001038:	ffc00737          	lui	a4,0xffc00
    8000103c:	bfa5                	j	80000fb4 <sysctl_clock_device_en+0x168>
    8000103e:	504406b7          	lui	a3,0x50440
    80001042:	56dc                	lw	a5,44(a3)
    80001044:	0175959b          	slliw	a1,a1,0x17
    80001048:	ff800737          	lui	a4,0xff800
    8000104c:	b7a5                	j	80000fb4 <sysctl_clock_device_en+0x168>
    8000104e:	504406b7          	lui	a3,0x50440
    80001052:	56dc                	lw	a5,44(a3)
    80001054:	01a5959b          	slliw	a1,a1,0x1a
    80001058:	fc000737          	lui	a4,0xfc000
    8000105c:	bfa1                	j	80000fb4 <sysctl_clock_device_en+0x168>
    8000105e:	504406b7          	lui	a3,0x50440
    80001062:	56dc                	lw	a5,44(a3)
    80001064:	0135959b          	slliw	a1,a1,0x13
    80001068:	fff80737          	lui	a4,0xfff80
    8000106c:	b7a1                	j	80000fb4 <sysctl_clock_device_en+0x168>
    8000106e:	504406b7          	lui	a3,0x50440
    80001072:	56dc                	lw	a5,44(a3)
    80001074:	0185959b          	slliw	a1,a1,0x18
    80001078:	ff000737          	lui	a4,0xff000
    8000107c:	bf25                	j	80000fb4 <sysctl_clock_device_en+0x168>
    8000107e:	504406b7          	lui	a3,0x50440
    80001082:	56dc                	lw	a5,44(a3)
    80001084:	0195959b          	slliw	a1,a1,0x19
    80001088:	fe000737          	lui	a4,0xfe000
    8000108c:	b725                	j	80000fb4 <sysctl_clock_device_en+0x168>
    8000108e:	504406b7          	lui	a3,0x50440
    80001092:	56dc                	lw	a5,44(a3)
    80001094:	01b5959b          	slliw	a1,a1,0x1b
    80001098:	f8000737          	lui	a4,0xf8000
    8000109c:	bf21                	j	80000fb4 <sysctl_clock_device_en+0x168>
    8000109e:	504406b7          	lui	a3,0x50440
    800010a2:	56dc                	lw	a5,44(a3)
    800010a4:	01d5959b          	slliw	a1,a1,0x1d
    800010a8:	e0000737          	lui	a4,0xe0000
    800010ac:	b721                	j	80000fb4 <sysctl_clock_device_en+0x168>
    800010ae:	50440737          	lui	a4,0x50440
    800010b2:	575c                	lw	a5,44(a4)
    800010b4:	0065959b          	slliw	a1,a1,0x6
    800010b8:	fbf7f793          	andi	a5,a5,-65
    800010bc:	bd99                	j	80000f12 <sysctl_clock_device_en+0xc6>
    800010be:	50440737          	lui	a4,0x50440
    800010c2:	575c                	lw	a5,44(a4)
    800010c4:	0075959b          	slliw	a1,a1,0x7
    800010c8:	f7f7f793          	andi	a5,a5,-129
    800010cc:	b599                	j	80000f12 <sysctl_clock_device_en+0xc6>

00000000800010ce <sysctl_pll_is_lock.part.0>:
    800010ce:	4785                	li	a5,1
    800010d0:	02f50063          	beq	a0,a5,800010f0 <sysctl_pll_is_lock.part.0+0x22>
    800010d4:	c511                	beqz	a0,800010e0 <sysctl_pll_is_lock.part.0+0x12>
    800010d6:	4789                	li	a5,2
    800010d8:	02f50363          	beq	a0,a5,800010fe <sysctl_pll_is_lock.part.0+0x30>
    800010dc:	4501                	li	a0,0
    800010de:	8082                	ret
    800010e0:	504407b7          	lui	a5,0x50440
    800010e4:	4f88                	lw	a0,24(a5)
    800010e6:	890d                	andi	a0,a0,3
    800010e8:	1575                	addi	a0,a0,-3
    800010ea:	00153513          	seqz	a0,a0
    800010ee:	8082                	ret
    800010f0:	504407b7          	lui	a5,0x50440
    800010f4:	4f88                	lw	a0,24(a5)
    800010f6:	0085551b          	srliw	a0,a0,0x8
    800010fa:	8905                	andi	a0,a0,1
    800010fc:	8082                	ret
    800010fe:	504407b7          	lui	a5,0x50440
    80001102:	4f88                	lw	a0,24(a5)
    80001104:	0105551b          	srliw	a0,a0,0x10
    80001108:	bfcd                	j	800010fa <sysctl_pll_is_lock.part.0+0x2c>

000000008000110a <sysctl_pll_clear_slip>:
    8000110a:	4789                	li	a5,2
    8000110c:	04a7e563          	bltu	a5,a0,80001156 <sysctl_pll_clear_slip+0x4c>
    80001110:	1141                	addi	sp,sp,-16
    80001112:	e406                	sd	ra,8(sp)
    80001114:	4705                	li	a4,1
    80001116:	02e50563          	beq	a0,a4,80001140 <sysctl_pll_clear_slip+0x36>
    8000111a:	50440737          	lui	a4,0x50440
    8000111e:	02f50763          	beq	a0,a5,8000114c <sysctl_pll_clear_slip+0x42>
    80001122:	4f1c                	lw	a5,24(a4)
    80001124:	0047e793          	ori	a5,a5,4
    80001128:	cf1c                	sw	a5,24(a4)
    8000112a:	00000097          	auipc	ra,0x0
    8000112e:	fa4080e7          	jalr	-92(ra) # 800010ce <sysctl_pll_is_lock.part.0>
    80001132:	60a2                	ld	ra,8(sp)
    80001134:	00153513          	seqz	a0,a0
    80001138:	40a0053b          	negw	a0,a0
    8000113c:	0141                	addi	sp,sp,16
    8000113e:	8082                	ret
    80001140:	50440737          	lui	a4,0x50440
    80001144:	4f1c                	lw	a5,24(a4)
    80001146:	4007e793          	ori	a5,a5,1024
    8000114a:	bff9                	j	80001128 <sysctl_pll_clear_slip+0x1e>
    8000114c:	4f1c                	lw	a5,24(a4)
    8000114e:	000406b7          	lui	a3,0x40
    80001152:	8fd5                	or	a5,a5,a3
    80001154:	bfd1                	j	80001128 <sysctl_pll_clear_slip+0x1e>
    80001156:	557d                	li	a0,-1
    80001158:	8082                	ret

000000008000115a <sysctl_reset>:
    8000115a:	1141                	addi	sp,sp,-16
    8000115c:	4585                	li	a1,1
    8000115e:	e406                	sd	ra,8(sp)
    80001160:	e022                	sd	s0,0(sp)
    80001162:	842a                	mv	s0,a0
    80001164:	00000097          	auipc	ra,0x0
    80001168:	b0a080e7          	jalr	-1270(ra) # 80000c6e <sysctl_reset_ctl>
    8000116c:	4529                	li	a0,10
    8000116e:	fffff097          	auipc	ra,0xfffff
    80001172:	228080e7          	jalr	552(ra) # 80000396 <usleep>
    80001176:	8522                	mv	a0,s0
    80001178:	6402                	ld	s0,0(sp)
    8000117a:	60a2                	ld	ra,8(sp)
    8000117c:	4581                	li	a1,0
    8000117e:	0141                	addi	sp,sp,16
    80001180:	00000317          	auipc	t1,0x0
    80001184:	aee30067          	jr	-1298(t1) # 80000c6e <sysctl_reset_ctl>

0000000080001188 <sysctl_clock_enable>:
    80001188:	02a00793          	li	a5,42
    8000118c:	06a7e363          	bltu	a5,a0,800011f2 <sysctl_clock_enable+0x6a>
    80001190:	1141                	addi	sp,sp,-16
    80001192:	e406                	sd	ra,8(sp)
    80001194:	ff25071b          	addiw	a4,a0,-14
    80001198:	47dd                	li	a5,23
    8000119a:	02e7e063          	bltu	a5,a4,800011ba <sysctl_clock_enable+0x32>
    8000119e:	4785                	li	a5,1
    800011a0:	00e797b3          	sll	a5,a5,a4
    800011a4:	0027c737          	lui	a4,0x27c
    800011a8:	1725                	addi	a4,a4,-23
    800011aa:	8f7d                	and	a4,a4,a5
    800011ac:	e305                	bnez	a4,800011cc <sysctl_clock_enable+0x44>
    800011ae:	00d84737          	lui	a4,0xd84
    800011b2:	8f7d                	and	a4,a4,a5
    800011b4:	e31d                	bnez	a4,800011da <sysctl_clock_enable+0x52>
    800011b6:	8b99                	andi	a5,a5,6
    800011b8:	e79d                	bnez	a5,800011e6 <sysctl_clock_enable+0x5e>
    800011ba:	4585                	li	a1,1
    800011bc:	00000097          	auipc	ra,0x0
    800011c0:	c90080e7          	jalr	-880(ra) # 80000e4c <sysctl_clock_device_en>
    800011c4:	60a2                	ld	ra,8(sp)
    800011c6:	4501                	li	a0,0
    800011c8:	0141                	addi	sp,sp,16
    800011ca:	8082                	ret
    800011cc:	50440737          	lui	a4,0x50440
    800011d0:	571c                	lw	a5,40(a4)
    800011d2:	0087e793          	ori	a5,a5,8
    800011d6:	d71c                	sw	a5,40(a4)
    800011d8:	b7cd                	j	800011ba <sysctl_clock_enable+0x32>
    800011da:	50440737          	lui	a4,0x50440
    800011de:	571c                	lw	a5,40(a4)
    800011e0:	0107e793          	ori	a5,a5,16
    800011e4:	bfcd                	j	800011d6 <sysctl_clock_enable+0x4e>
    800011e6:	50440737          	lui	a4,0x50440
    800011ea:	571c                	lw	a5,40(a4)
    800011ec:	0207e793          	ori	a5,a5,32
    800011f0:	b7dd                	j	800011d6 <sysctl_clock_enable+0x4e>
    800011f2:	557d                	li	a0,-1
    800011f4:	8082                	ret

00000000800011f6 <sysctl_clock_source_get_freq>:
    800011f6:	4791                	li	a5,4
    800011f8:	00a7ec63          	bltu	a5,a0,80001210 <sysctl_clock_source_get_freq+0x1a>
    800011fc:	1502                	slli	a0,a0,0x20
    800011fe:	0000b717          	auipc	a4,0xb
    80001202:	29670713          	addi	a4,a4,662 # 8000c494 <uart+0x124>
    80001206:	8179                	srli	a0,a0,0x1e
    80001208:	953a                	add	a0,a0,a4
    8000120a:	411c                	lw	a5,0(a0)
    8000120c:	97ba                	add	a5,a5,a4
    8000120e:	8782                	jr	a5
    80001210:	4501                	li	a0,0
    80001212:	8082                	ret
    80001214:	00000317          	auipc	t1,0x0
    80001218:	15030067          	jr	336(t1) # 80001364 <sysctl_clock_source_get_freq.part.3>
    8000121c:	4505                	li	a0,1
    8000121e:	00000317          	auipc	t1,0x0
    80001222:	02230067          	jr	34(t1) # 80001240 <sysctl_pll_get_freq.part.4>
    80001226:	4509                	li	a0,2
    80001228:	bfdd                	j	8000121e <sysctl_clock_source_get_freq+0x28>
    8000122a:	02800513          	li	a0,40
    8000122e:	00000317          	auipc	t1,0x0
    80001232:	14030067          	jr	320(t1) # 8000136e <sysctl_clock_get_freq.part.2>
    80001236:	018cc537          	lui	a0,0x18cc
    8000123a:	a8050513          	addi	a0,a0,-1408 # 18cba80 <_stack_size+0x18c3a80>
    8000123e:	8082                	ret

0000000080001240 <sysctl_pll_get_freq.part.4>:
    80001240:	7179                	addi	sp,sp,-48
    80001242:	f406                	sd	ra,40(sp)
    80001244:	f022                	sd	s0,32(sp)
    80001246:	ec26                	sd	s1,24(sp)
    80001248:	e84a                	sd	s2,16(sp)
    8000124a:	e44e                	sd	s3,8(sp)
    8000124c:	4785                	li	a5,1
    8000124e:	0af50563          	beq	a0,a5,800012f8 <sysctl_pll_get_freq.part.4+0xb8>
    80001252:	cd25                	beqz	a0,800012ca <sysctl_pll_get_freq.part.4+0x8a>
    80001254:	4789                	li	a5,2
    80001256:	0cf50063          	beq	a0,a5,80001316 <sysctl_pll_get_freq.part.4+0xd6>
    8000125a:	4401                	li	s0,0
    8000125c:	4481                	li	s1,0
    8000125e:	4901                	li	s2,0
    80001260:	4501                	li	a0,0
    80001262:	00005097          	auipc	ra,0x5
    80001266:	260080e7          	jalr	608(ra) # 800064c2 <__floatunsidf>
    8000126a:	89aa                	mv	s3,a0
    8000126c:	854a                	mv	a0,s2
    8000126e:	00005097          	auipc	ra,0x5
    80001272:	254080e7          	jalr	596(ra) # 800064c2 <__floatunsidf>
    80001276:	85aa                	mv	a1,a0
    80001278:	854e                	mv	a0,s3
    8000127a:	00004097          	auipc	ra,0x4
    8000127e:	348080e7          	jalr	840(ra) # 800055c2 <__divdf3>
    80001282:	892a                	mv	s2,a0
    80001284:	8526                	mv	a0,s1
    80001286:	00005097          	auipc	ra,0x5
    8000128a:	23c080e7          	jalr	572(ra) # 800064c2 <__floatunsidf>
    8000128e:	85aa                	mv	a1,a0
    80001290:	854a                	mv	a0,s2
    80001292:	00004097          	auipc	ra,0x4
    80001296:	7ee080e7          	jalr	2030(ra) # 80005a80 <__muldf3>
    8000129a:	84aa                	mv	s1,a0
    8000129c:	8522                	mv	a0,s0
    8000129e:	00005097          	auipc	ra,0x5
    800012a2:	224080e7          	jalr	548(ra) # 800064c2 <__floatunsidf>
    800012a6:	85aa                	mv	a1,a0
    800012a8:	8526                	mv	a0,s1
    800012aa:	00004097          	auipc	ra,0x4
    800012ae:	318080e7          	jalr	792(ra) # 800055c2 <__divdf3>
    800012b2:	00005097          	auipc	ra,0x5
    800012b6:	148080e7          	jalr	328(ra) # 800063fa <__fixunsdfsi>
    800012ba:	2501                	sext.w	a0,a0
    800012bc:	70a2                	ld	ra,40(sp)
    800012be:	7402                	ld	s0,32(sp)
    800012c0:	64e2                	ld	s1,24(sp)
    800012c2:	6942                	ld	s2,16(sp)
    800012c4:	69a2                	ld	s3,8(sp)
    800012c6:	6145                	addi	sp,sp,48
    800012c8:	8082                	ret
    800012ca:	504407b7          	lui	a5,0x50440
    800012ce:	0087a903          	lw	s2,8(a5) # 50440008 <_stack_size+0x50438008>
    800012d2:	4784                	lw	s1,8(a5)
    800012d4:	4780                	lw	s0,8(a5)
    800012d6:	00f97913          	andi	s2,s2,15
    800012da:	0044d49b          	srliw	s1,s1,0x4
    800012de:	03f4f493          	andi	s1,s1,63
    800012e2:	0905                	addi	s2,s2,1
    800012e4:	0485                	addi	s1,s1,1
    800012e6:	00a4541b          	srliw	s0,s0,0xa
    800012ea:	883d                	andi	s0,s0,15
    800012ec:	018cc537          	lui	a0,0x18cc
    800012f0:	0405                	addi	s0,s0,1
    800012f2:	a8050513          	addi	a0,a0,-1408 # 18cba80 <_stack_size+0x18c3a80>
    800012f6:	b7b5                	j	80001262 <sysctl_pll_get_freq.part.4+0x22>
    800012f8:	504407b7          	lui	a5,0x50440
    800012fc:	00c7a903          	lw	s2,12(a5) # 5044000c <_stack_size+0x5043800c>
    80001300:	47c4                	lw	s1,12(a5)
    80001302:	47c0                	lw	s0,12(a5)
    80001304:	00f97913          	andi	s2,s2,15
    80001308:	0044d49b          	srliw	s1,s1,0x4
    8000130c:	03f4f493          	andi	s1,s1,63
    80001310:	0905                	addi	s2,s2,1
    80001312:	0485                	addi	s1,s1,1
    80001314:	bfc9                	j	800012e6 <sysctl_pll_get_freq.part.4+0xa6>
    80001316:	50440437          	lui	s0,0x50440
    8000131a:	481c                	lw	a5,16(s0)
    8000131c:	470d                	li	a4,3
    8000131e:	4501                	li	a0,0
    80001320:	01a7d79b          	srliw	a5,a5,0x1a
    80001324:	8b8d                	andi	a5,a5,3
    80001326:	f8e78be3          	beq	a5,a4,800012bc <sysctl_pll_get_freq.part.4+0x7c>
    8000132a:	0000c717          	auipc	a4,0xc
    8000132e:	44670713          	addi	a4,a4,1094 # 8000d770 <get_source_pll2>
    80001332:	97ba                	add	a5,a5,a4
    80001334:	0007c503          	lbu	a0,0(a5)
    80001338:	00000097          	auipc	ra,0x0
    8000133c:	ebe080e7          	jalr	-322(ra) # 800011f6 <sysctl_clock_source_get_freq>
    80001340:	01042903          	lw	s2,16(s0) # 50440010 <_stack_size+0x50438010>
    80001344:	4804                	lw	s1,16(s0)
    80001346:	4800                	lw	s0,16(s0)
    80001348:	00f97913          	andi	s2,s2,15
    8000134c:	0044d49b          	srliw	s1,s1,0x4
    80001350:	00a4541b          	srliw	s0,s0,0xa
    80001354:	03f4f493          	andi	s1,s1,63
    80001358:	883d                	andi	s0,s0,15
    8000135a:	2501                	sext.w	a0,a0
    8000135c:	0905                	addi	s2,s2,1
    8000135e:	0485                	addi	s1,s1,1
    80001360:	0405                	addi	s0,s0,1
    80001362:	b701                	j	80001262 <sysctl_pll_get_freq.part.4+0x22>

0000000080001364 <sysctl_clock_source_get_freq.part.3>:
    80001364:	4501                	li	a0,0
    80001366:	00000317          	auipc	t1,0x0
    8000136a:	eda30067          	jr	-294(t1) # 80001240 <sysctl_pll_get_freq.part.4>

000000008000136e <sysctl_clock_get_freq.part.2>:
    8000136e:	02a00793          	li	a5,42
    80001372:	2ca7ec63          	bltu	a5,a0,8000164a <sysctl_clock_get_freq.part.2+0x2dc>
    80001376:	1502                	slli	a0,a0,0x20
    80001378:	0000b717          	auipc	a4,0xb
    8000137c:	13070713          	addi	a4,a4,304 # 8000c4a8 <uart+0x138>
    80001380:	8179                	srli	a0,a0,0x1e
    80001382:	953a                	add	a0,a0,a4
    80001384:	411c                	lw	a5,0(a0)
    80001386:	1141                	addi	sp,sp,-16
    80001388:	e406                	sd	ra,8(sp)
    8000138a:	e022                	sd	s0,0(sp)
    8000138c:	97ba                	add	a5,a5,a4
    8000138e:	8782                	jr	a5
    80001390:	4501                	li	a0,0
    80001392:	60a2                	ld	ra,8(sp)
    80001394:	6402                	ld	s0,0(sp)
    80001396:	0141                	addi	sp,sp,16
    80001398:	8082                	ret
    8000139a:	6402                	ld	s0,0(sp)
    8000139c:	60a2                	ld	ra,8(sp)
    8000139e:	0141                	addi	sp,sp,16
    800013a0:	00000317          	auipc	t1,0x0
    800013a4:	fc430067          	jr	-60(t1) # 80001364 <sysctl_clock_source_get_freq.part.3>
    800013a8:	4505                	li	a0,1
    800013aa:	6402                	ld	s0,0(sp)
    800013ac:	60a2                	ld	ra,8(sp)
    800013ae:	0141                	addi	sp,sp,16
    800013b0:	00000317          	auipc	t1,0x0
    800013b4:	e9030067          	jr	-368(t1) # 80001240 <sysctl_pll_get_freq.part.4>
    800013b8:	4509                	li	a0,2
    800013ba:	bfc5                	j	800013aa <sysctl_clock_get_freq.part.2+0x3c>
    800013bc:	50440437          	lui	s0,0x50440
    800013c0:	501c                	lw	a5,32(s0)
    800013c2:	8b85                	andi	a5,a5,1
    800013c4:	26078e63          	beqz	a5,80001640 <sysctl_clock_get_freq.part.2+0x2d2>
    800013c8:	4501                	li	a0,0
    800013ca:	d7e1                	beqz	a5,80001392 <sysctl_clock_get_freq.part.2+0x24>
    800013cc:	00000097          	auipc	ra,0x0
    800013d0:	f98080e7          	jalr	-104(ra) # 80001364 <sysctl_clock_source_get_freq.part.3>
    800013d4:	501c                	lw	a5,32(s0)
    800013d6:	1502                	slli	a0,a0,0x20
    800013d8:	9101                	srli	a0,a0,0x20
    800013da:	0017d79b          	srliw	a5,a5,0x1
    800013de:	8b8d                	andi	a5,a5,3
    800013e0:	2785                	addiw	a5,a5,1
    800013e2:	00f55533          	srl	a0,a0,a5
    800013e6:	2501                	sext.w	a0,a0
    800013e8:	b76d                	j	80001392 <sysctl_clock_get_freq.part.2+0x24>
    800013ea:	02800513          	li	a0,40
    800013ee:	00000097          	auipc	ra,0x0
    800013f2:	f80080e7          	jalr	-128(ra) # 8000136e <sysctl_clock_get_freq.part.2>
    800013f6:	504407b7          	lui	a5,0x50440
    800013fa:	5f9c                	lw	a5,56(a5)
    800013fc:	8bbd                	andi	a5,a5,15
    800013fe:	a08d                	j	80001460 <sysctl_clock_get_freq.part.2+0xf2>
    80001400:	02800513          	li	a0,40
    80001404:	00000097          	auipc	ra,0x0
    80001408:	f6a080e7          	jalr	-150(ra) # 8000136e <sysctl_clock_get_freq.part.2>
    8000140c:	504407b7          	lui	a5,0x50440
    80001410:	5f9c                	lw	a5,56(a5)
    80001412:	0047d79b          	srliw	a5,a5,0x4
    80001416:	b7dd                	j	800013fc <sysctl_clock_get_freq.part.2+0x8e>
    80001418:	02800513          	li	a0,40
    8000141c:	00000097          	auipc	ra,0x0
    80001420:	f52080e7          	jalr	-174(ra) # 8000136e <sysctl_clock_get_freq.part.2>
    80001424:	504407b7          	lui	a5,0x50440
    80001428:	5f9c                	lw	a5,56(a5)
    8000142a:	0107d79b          	srliw	a5,a5,0x10
    8000142e:	b7f9                	j	800013fc <sysctl_clock_get_freq.part.2+0x8e>
    80001430:	02800513          	li	a0,40
    80001434:	00000097          	auipc	ra,0x0
    80001438:	f3a080e7          	jalr	-198(ra) # 8000136e <sysctl_clock_get_freq.part.2>
    8000143c:	504407b7          	lui	a5,0x50440
    80001440:	5f9c                	lw	a5,56(a5)
    80001442:	00c7d79b          	srliw	a5,a5,0xc
    80001446:	bf5d                	j	800013fc <sysctl_clock_get_freq.part.2+0x8e>
    80001448:	02800513          	li	a0,40
    8000144c:	00000097          	auipc	ra,0x0
    80001450:	f22080e7          	jalr	-222(ra) # 8000136e <sysctl_clock_get_freq.part.2>
    80001454:	504407b7          	lui	a5,0x50440
    80001458:	539c                	lw	a5,32(a5)
    8000145a:	0037d79b          	srliw	a5,a5,0x3
    8000145e:	8b9d                	andi	a5,a5,7
    80001460:	2785                	addiw	a5,a5,1
    80001462:	02f5553b          	divuw	a0,a0,a5
    80001466:	b735                	j	80001392 <sysctl_clock_get_freq.part.2+0x24>
    80001468:	02800513          	li	a0,40
    8000146c:	00000097          	auipc	ra,0x0
    80001470:	f02080e7          	jalr	-254(ra) # 8000136e <sysctl_clock_get_freq.part.2>
    80001474:	504407b7          	lui	a5,0x50440
    80001478:	539c                	lw	a5,32(a5)
    8000147a:	0067d79b          	srliw	a5,a5,0x6
    8000147e:	b7c5                	j	8000145e <sysctl_clock_get_freq.part.2+0xf0>
    80001480:	02800513          	li	a0,40
    80001484:	00000097          	auipc	ra,0x0
    80001488:	eea080e7          	jalr	-278(ra) # 8000136e <sysctl_clock_get_freq.part.2>
    8000148c:	504407b7          	lui	a5,0x50440
    80001490:	539c                	lw	a5,32(a5)
    80001492:	0097d79b          	srliw	a5,a5,0x9
    80001496:	b7e1                	j	8000145e <sysctl_clock_get_freq.part.2+0xf0>
    80001498:	4505                	li	a0,1
    8000149a:	00000097          	auipc	ra,0x0
    8000149e:	da6080e7          	jalr	-602(ra) # 80001240 <sysctl_pll_get_freq.part.4>
    800014a2:	504407b7          	lui	a5,0x50440
    800014a6:	5f9c                	lw	a5,56(a5)
    800014a8:	0087d79b          	srliw	a5,a5,0x8
    800014ac:	bf81                	j	800013fc <sysctl_clock_get_freq.part.2+0x8e>
    800014ae:	4509                	li	a0,2
    800014b0:	00000097          	auipc	ra,0x0
    800014b4:	d90080e7          	jalr	-624(ra) # 80001240 <sysctl_pll_get_freq.part.4>
    800014b8:	504407b7          	lui	a5,0x50440
    800014bc:	43fc                	lw	a5,68(a5)
    800014be:	17c2                	slli	a5,a5,0x30
    800014c0:	93c1                	srli	a5,a5,0x30
    800014c2:	a819                	j	800014d8 <sysctl_clock_get_freq.part.2+0x16a>
    800014c4:	4509                	li	a0,2
    800014c6:	00000097          	auipc	ra,0x0
    800014ca:	d7a080e7          	jalr	-646(ra) # 80001240 <sysctl_pll_get_freq.part.4>
    800014ce:	504407b7          	lui	a5,0x50440
    800014d2:	43fc                	lw	a5,68(a5)
    800014d4:	0107d79b          	srliw	a5,a5,0x10
    800014d8:	2785                	addiw	a5,a5,1
    800014da:	0017979b          	slliw	a5,a5,0x1
    800014de:	b751                	j	80001462 <sysctl_clock_get_freq.part.2+0xf4>
    800014e0:	4509                	li	a0,2
    800014e2:	00000097          	auipc	ra,0x0
    800014e6:	d5e080e7          	jalr	-674(ra) # 80001240 <sysctl_pll_get_freq.part.4>
    800014ea:	504407b7          	lui	a5,0x50440
    800014ee:	47bc                	lw	a5,72(a5)
    800014f0:	b7f9                	j	800014be <sysctl_clock_get_freq.part.2+0x150>
    800014f2:	504407b7          	lui	a5,0x50440
    800014f6:	4ba8                	lw	a0,80(a5)
    800014f8:	0ff57513          	andi	a0,a0,255
    800014fc:	2505                	addiw	a0,a0,1
    800014fe:	0015179b          	slliw	a5,a0,0x1
    80001502:	018cc537          	lui	a0,0x18cc
    80001506:	a805051b          	addiw	a0,a0,-1408
    8000150a:	bfa1                	j	80001462 <sysctl_clock_get_freq.part.2+0xf4>
    8000150c:	504407b7          	lui	a5,0x50440
    80001510:	4ba8                	lw	a0,80(a5)
    80001512:	0085551b          	srliw	a0,a0,0x8
    80001516:	b7cd                	j	800014f8 <sysctl_clock_get_freq.part.2+0x18a>
    80001518:	00000097          	auipc	ra,0x0
    8000151c:	e4c080e7          	jalr	-436(ra) # 80001364 <sysctl_clock_source_get_freq.part.3>
    80001520:	504407b7          	lui	a5,0x50440
    80001524:	5fdc                	lw	a5,60(a5)
    80001526:	0ff7f793          	andi	a5,a5,255
    8000152a:	b77d                	j	800014d8 <sysctl_clock_get_freq.part.2+0x16a>
    8000152c:	00000097          	auipc	ra,0x0
    80001530:	e38080e7          	jalr	-456(ra) # 80001364 <sysctl_clock_source_get_freq.part.3>
    80001534:	504407b7          	lui	a5,0x50440
    80001538:	5fdc                	lw	a5,60(a5)
    8000153a:	0087d79b          	srliw	a5,a5,0x8
    8000153e:	b7e5                	j	80001526 <sysctl_clock_get_freq.part.2+0x1b8>
    80001540:	00000097          	auipc	ra,0x0
    80001544:	e24080e7          	jalr	-476(ra) # 80001364 <sysctl_clock_source_get_freq.part.3>
    80001548:	504407b7          	lui	a5,0x50440
    8000154c:	5fdc                	lw	a5,60(a5)
    8000154e:	0107d79b          	srliw	a5,a5,0x10
    80001552:	bfd1                	j	80001526 <sysctl_clock_get_freq.part.2+0x1b8>
    80001554:	00000097          	auipc	ra,0x0
    80001558:	e10080e7          	jalr	-496(ra) # 80001364 <sysctl_clock_source_get_freq.part.3>
    8000155c:	504407b7          	lui	a5,0x50440
    80001560:	47fc                	lw	a5,76(a5)
    80001562:	bfe1                	j	8000153a <sysctl_clock_get_freq.part.2+0x1cc>
    80001564:	00000097          	auipc	ra,0x0
    80001568:	e00080e7          	jalr	-512(ra) # 80001364 <sysctl_clock_source_get_freq.part.3>
    8000156c:	504407b7          	lui	a5,0x50440
    80001570:	47fc                	lw	a5,76(a5)
    80001572:	bff1                	j	8000154e <sysctl_clock_get_freq.part.2+0x1e0>
    80001574:	00000097          	auipc	ra,0x0
    80001578:	df0080e7          	jalr	-528(ra) # 80001364 <sysctl_clock_source_get_freq.part.3>
    8000157c:	504407b7          	lui	a5,0x50440
    80001580:	47fc                	lw	a5,76(a5)
    80001582:	0187d79b          	srliw	a5,a5,0x18
    80001586:	bf89                	j	800014d8 <sysctl_clock_get_freq.part.2+0x16a>
    80001588:	504407b7          	lui	a5,0x50440
    8000158c:	539c                	lw	a5,32(a5)
    8000158e:	00c7d79b          	srliw	a5,a5,0xc
    80001592:	8b85                	andi	a5,a5,1
    80001594:	cf81                	beqz	a5,800015ac <sysctl_clock_get_freq.part.2+0x23e>
    80001596:	4501                	li	a0,0
    80001598:	c791                	beqz	a5,800015a4 <sysctl_clock_get_freq.part.2+0x236>
    8000159a:	00000097          	auipc	ra,0x0
    8000159e:	dca080e7          	jalr	-566(ra) # 80001364 <sysctl_clock_source_get_freq.part.3>
    800015a2:	2501                	sext.w	a0,a0
    800015a4:	504407b7          	lui	a5,0x50440
    800015a8:	5fdc                	lw	a5,60(a5)
    800015aa:	bfe1                	j	80001582 <sysctl_clock_get_freq.part.2+0x214>
    800015ac:	018cc537          	lui	a0,0x18cc
    800015b0:	a8050513          	addi	a0,a0,-1408 # 18cba80 <_stack_size+0x18c3a80>
    800015b4:	bfc5                	j	800015a4 <sysctl_clock_get_freq.part.2+0x236>
    800015b6:	504407b7          	lui	a5,0x50440
    800015ba:	539c                	lw	a5,32(a5)
    800015bc:	00d7d79b          	srliw	a5,a5,0xd
    800015c0:	8b85                	andi	a5,a5,1
    800015c2:	cf81                	beqz	a5,800015da <sysctl_clock_get_freq.part.2+0x26c>
    800015c4:	4501                	li	a0,0
    800015c6:	c791                	beqz	a5,800015d2 <sysctl_clock_get_freq.part.2+0x264>
    800015c8:	00000097          	auipc	ra,0x0
    800015cc:	d9c080e7          	jalr	-612(ra) # 80001364 <sysctl_clock_source_get_freq.part.3>
    800015d0:	2501                	sext.w	a0,a0
    800015d2:	504407b7          	lui	a5,0x50440
    800015d6:	43bc                	lw	a5,64(a5)
    800015d8:	b7b9                	j	80001526 <sysctl_clock_get_freq.part.2+0x1b8>
    800015da:	018cc537          	lui	a0,0x18cc
    800015de:	a8050513          	addi	a0,a0,-1408 # 18cba80 <_stack_size+0x18c3a80>
    800015e2:	bfc5                	j	800015d2 <sysctl_clock_get_freq.part.2+0x264>
    800015e4:	504407b7          	lui	a5,0x50440
    800015e8:	539c                	lw	a5,32(a5)
    800015ea:	00e7d79b          	srliw	a5,a5,0xe
    800015ee:	8b85                	andi	a5,a5,1
    800015f0:	cf81                	beqz	a5,80001608 <sysctl_clock_get_freq.part.2+0x29a>
    800015f2:	4501                	li	a0,0
    800015f4:	c791                	beqz	a5,80001600 <sysctl_clock_get_freq.part.2+0x292>
    800015f6:	00000097          	auipc	ra,0x0
    800015fa:	d6e080e7          	jalr	-658(ra) # 80001364 <sysctl_clock_source_get_freq.part.3>
    800015fe:	2501                	sext.w	a0,a0
    80001600:	504407b7          	lui	a5,0x50440
    80001604:	43bc                	lw	a5,64(a5)
    80001606:	bf15                	j	8000153a <sysctl_clock_get_freq.part.2+0x1cc>
    80001608:	018cc537          	lui	a0,0x18cc
    8000160c:	a8050513          	addi	a0,a0,-1408 # 18cba80 <_stack_size+0x18c3a80>
    80001610:	bfc5                	j	80001600 <sysctl_clock_get_freq.part.2+0x292>
    80001612:	504407b7          	lui	a5,0x50440
    80001616:	539c                	lw	a5,32(a5)
    80001618:	00f7d79b          	srliw	a5,a5,0xf
    8000161c:	8b85                	andi	a5,a5,1
    8000161e:	cf81                	beqz	a5,80001636 <sysctl_clock_get_freq.part.2+0x2c8>
    80001620:	4501                	li	a0,0
    80001622:	c791                	beqz	a5,8000162e <sysctl_clock_get_freq.part.2+0x2c0>
    80001624:	00000097          	auipc	ra,0x0
    80001628:	d40080e7          	jalr	-704(ra) # 80001364 <sysctl_clock_source_get_freq.part.3>
    8000162c:	2501                	sext.w	a0,a0
    8000162e:	504407b7          	lui	a5,0x50440
    80001632:	43bc                	lw	a5,64(a5)
    80001634:	bf29                	j	8000154e <sysctl_clock_get_freq.part.2+0x1e0>
    80001636:	018cc537          	lui	a0,0x18cc
    8000163a:	a8050513          	addi	a0,a0,-1408 # 18cba80 <_stack_size+0x18c3a80>
    8000163e:	bfc5                	j	8000162e <sysctl_clock_get_freq.part.2+0x2c0>
    80001640:	018cc537          	lui	a0,0x18cc
    80001644:	a8050513          	addi	a0,a0,-1408 # 18cba80 <_stack_size+0x18c3a80>
    80001648:	b3a9                	j	80001392 <sysctl_clock_get_freq.part.2+0x24>
    8000164a:	4501                	li	a0,0
    8000164c:	8082                	ret

000000008000164e <sysctl_pll_get_freq>:
    8000164e:	4789                	li	a5,2
    80001650:	00a7e663          	bltu	a5,a0,8000165c <sysctl_pll_get_freq+0xe>
    80001654:	00000317          	auipc	t1,0x0
    80001658:	bec30067          	jr	-1044(t1) # 80001240 <sysctl_pll_get_freq.part.4>
    8000165c:	4501                	li	a0,0
    8000165e:	8082                	ret

0000000080001660 <sysctl_pll_source_set_freq.part.5>:
    80001660:	712d                	addi	sp,sp,-288
    80001662:	ea22                	sd	s0,272(sp)
    80001664:	fdce                	sd	s3,248(sp)
    80001666:	f5d6                	sd	s5,232(sp)
    80001668:	ee06                	sd	ra,280(sp)
    8000166a:	e626                	sd	s1,264(sp)
    8000166c:	e24a                	sd	s2,256(sp)
    8000166e:	f9d2                	sd	s4,240(sp)
    80001670:	f1da                	sd	s6,224(sp)
    80001672:	edde                	sd	s7,216(sp)
    80001674:	e9e2                	sd	s8,208(sp)
    80001676:	e5e6                	sd	s9,200(sp)
    80001678:	e1ea                	sd	s10,192(sp)
    8000167a:	fd6e                	sd	s11,184(sp)
    8000167c:	4785                	li	a5,1
    8000167e:	89aa                	mv	s3,a0
    80001680:	8aae                	mv	s5,a1
    80001682:	8432                	mv	s0,a2
    80001684:	02a7f563          	bleu	a0,a5,800016ae <sysctl_pll_source_set_freq.part.5+0x4e>
    80001688:	4789                	li	a5,2
    8000168a:	02f50863          	beq	a0,a5,800016ba <sysctl_pll_source_set_freq.part.5+0x5a>
    8000168e:	60f2                	ld	ra,280(sp)
    80001690:	6452                	ld	s0,272(sp)
    80001692:	64b2                	ld	s1,264(sp)
    80001694:	6912                	ld	s2,256(sp)
    80001696:	79ee                	ld	s3,248(sp)
    80001698:	7a4e                	ld	s4,240(sp)
    8000169a:	7aae                	ld	s5,232(sp)
    8000169c:	7b0e                	ld	s6,224(sp)
    8000169e:	6bee                	ld	s7,216(sp)
    800016a0:	6c4e                	ld	s8,208(sp)
    800016a2:	6cae                	ld	s9,200(sp)
    800016a4:	6d0e                	ld	s10,192(sp)
    800016a6:	7dea                	ld	s11,184(sp)
    800016a8:	4501                	li	a0,0
    800016aa:	6115                	addi	sp,sp,288
    800016ac:	8082                	ret
    800016ae:	f1e5                	bnez	a1,8000168e <sysctl_pll_source_set_freq.part.5+0x2e>
    800016b0:	018cc537          	lui	a0,0x18cc
    800016b4:	a8050513          	addi	a0,a0,-1408 # 18cba80 <_stack_size+0x18c3a80>
    800016b8:	a811                	j	800016cc <sysctl_pll_source_set_freq.part.5+0x6c>
    800016ba:	fcb56ae3          	bltu	a0,a1,8000168e <sysctl_pll_source_set_freq.part.5+0x2e>
    800016be:	852e                	mv	a0,a1
    800016c0:	00000097          	auipc	ra,0x0
    800016c4:	b36080e7          	jalr	-1226(ra) # 800011f6 <sysctl_clock_source_get_freq>
    800016c8:	2501                	sext.w	a0,a0
    800016ca:	d171                	beqz	a0,8000168e <sysctl_pll_source_set_freq.part.5+0x2e>
    800016cc:	00005097          	auipc	ra,0x5
    800016d0:	df6080e7          	jalr	-522(ra) # 800064c2 <__floatunsidf>
    800016d4:	ec2a                	sd	a0,24(sp)
    800016d6:	8522                	mv	a0,s0
    800016d8:	00005097          	auipc	ra,0x5
    800016dc:	dea080e7          	jalr	-534(ra) # 800064c2 <__floatunsidf>
    800016e0:	65e2                	ld	a1,24(sp)
    800016e2:	842a                	mv	s0,a0
    800016e4:	0000bb97          	auipc	s7,0xb
    800016e8:	e94b8b93          	addi	s7,s7,-364 # 8000c578 <CSWTCH.33+0x20>
    800016ec:	00004097          	auipc	ra,0x4
    800016f0:	ed6080e7          	jalr	-298(ra) # 800055c2 <__divdf3>
    800016f4:	fc2a                	sd	a0,56(sp)
    800016f6:	00005097          	auipc	ra,0x5
    800016fa:	c80080e7          	jalr	-896(ra) # 80006376 <__fixdfsi>
    800016fe:	0005079b          	sext.w	a5,a0
    80001702:	75e2                	ld	a1,56(sp)
    80001704:	000bb503          	ld	a0,0(s7)
    80001708:	e0be                	sd	a5,64(sp)
    8000170a:	0000ba17          	auipc	s4,0xb
    8000170e:	e76a0a13          	addi	s4,s4,-394 # 8000c580 <CSWTCH.33+0x28>
    80001712:	00004097          	auipc	ra,0x4
    80001716:	eb0080e7          	jalr	-336(ra) # 800055c2 <__divdf3>
    8000171a:	f4aa                	sd	a0,104(sp)
    8000171c:	000a3503          	ld	a0,0(s4)
    80001720:	85a2                	mv	a1,s0
    80001722:	0000b917          	auipc	s2,0xb
    80001726:	e6690913          	addi	s2,s2,-410 # 8000c588 <CSWTCH.33+0x30>
    8000172a:	00004097          	auipc	ra,0x4
    8000172e:	e98080e7          	jalr	-360(ra) # 800055c2 <__divdf3>
    80001732:	ecaa                	sd	a0,88(sp)
    80001734:	00093503          	ld	a0,0(s2)
    80001738:	85a2                	mv	a1,s0
    8000173a:	4d01                	li	s10,0
    8000173c:	00004097          	auipc	ra,0x4
    80001740:	e86080e7          	jalr	-378(ra) # 800055c2 <__divdf3>
    80001744:	0000b797          	auipc	a5,0xb
    80001748:	e2c78793          	addi	a5,a5,-468 # 8000c570 <CSWTCH.33+0x18>
    8000174c:	639c                	ld	a5,0(a5)
    8000174e:	f0aa                	sd	a0,96(sp)
    80001750:	e802                	sd	zero,16(sp)
    80001752:	e43e                	sd	a5,8(sp)
    80001754:	4785                	li	a5,1
    80001756:	e03e                	sd	a5,0(sp)
    80001758:	57fd                	li	a5,-1
    8000175a:	8385                	srli	a5,a5,0x1
    8000175c:	f802                	sd	zero,48(sp)
    8000175e:	4c81                	li	s9,0
    80001760:	4401                	li	s0,0
    80001762:	4481                	li	s1,0
    80001764:	f402                	sd	zero,40(sp)
    80001766:	f8de                	sd	s7,112(sp)
    80001768:	e8d2                	sd	s4,80(sp)
    8000176a:	fcbe                	sd	a5,120(sp)
    8000176c:	e14a                	sd	s2,128(sp)
    8000176e:	6786                	ld	a5,64(sp)
    80001770:	6742                	ld	a4,16(sp)
    80001772:	00e78c3b          	addw	s8,a5,a4
    80001776:	03f00793          	li	a5,63
    8000177a:	8562                	mv	a0,s8
    8000177c:	0b87da63          	ble	s8,a5,80001830 <sysctl_pll_source_set_freq.part.5+0x1d0>
    80001780:	77a2                	ld	a5,40(sp)
    80001782:	d791                	beqz	a5,8000168e <sysctl_pll_source_set_freq.part.5+0x2e>
    80001784:	0000b797          	auipc	a5,0xb
    80001788:	e2c78793          	addi	a5,a5,-468 # 8000c5b0 <CSWTCH.33+0x58>
    8000178c:	638c                	ld	a1,0(a5)
    8000178e:	77c2                	ld	a5,48(sp)
    80001790:	557d                	li	a0,-1
    80001792:	8105                	srli	a0,a0,0x1
    80001794:	8d7d                	and	a0,a0,a5
    80001796:	00004097          	auipc	ra,0x4
    8000179a:	1da080e7          	jalr	474(ra) # 80005970 <__gedf2>
    8000179e:	ee0558e3          	bgez	a0,8000168e <sysctl_pll_source_set_freq.part.5+0x2e>
    800017a2:	4785                	li	a5,1
    800017a4:	38f98e63          	beq	s3,a5,80001b40 <sysctl_pll_source_set_freq.part.5+0x4e0>
    800017a8:	32098563          	beqz	s3,80001ad2 <sysctl_pll_source_set_freq.part.5+0x472>
    800017ac:	4789                	li	a5,2
    800017ae:	eef990e3          	bne	s3,a5,8000168e <sysctl_pll_source_set_freq.part.5+0x2e>
    800017b2:	504407b7          	lui	a5,0x50440
    800017b6:	4b9c                	lw	a5,16(a5)
    800017b8:	01a7d69b          	srliw	a3,a5,0x1a
    800017bc:	8a8d                	andi	a3,a3,3
    800017be:	0159ed63          	bltu	s3,s5,800017d8 <sysctl_pll_source_set_freq.part.5+0x178>
    800017c2:	1a82                	slli	s5,s5,0x20
    800017c4:	020ada93          	srli	s5,s5,0x20
    800017c8:	0000c717          	auipc	a4,0xc
    800017cc:	fa070713          	addi	a4,a4,-96 # 8000d768 <get_select_pll2>
    800017d0:	9aba                	add	s5,s5,a4
    800017d2:	000ac683          	lbu	a3,0(s5)
    800017d6:	8a8d                	andi	a3,a3,3
    800017d8:	34fd                	addiw	s1,s1,-1
    800017da:	00f4f713          	andi	a4,s1,15
    800017de:	fffd049b          	addiw	s1,s10,-1
    800017e2:	c007f793          	andi	a5,a5,-1024
    800017e6:	03f4f493          	andi	s1,s1,63
    800017ea:	8fd9                	or	a5,a5,a4
    800017ec:	0044949b          	slliw	s1,s1,0x4
    800017f0:	8cdd                	or	s1,s1,a5
    800017f2:	347d                	addiw	s0,s0,-1
    800017f4:	77f1                	lui	a5,0xffffc
    800017f6:	883d                	andi	s0,s0,15
    800017f8:	3ff78793          	addi	a5,a5,1023 # ffffffffffffc3ff <_trapsp0+0xffffffff7ffc73bf>
    800017fc:	8fe5                	and	a5,a5,s1
    800017fe:	00a4141b          	slliw	s0,s0,0xa
    80001802:	8c5d                	or	s0,s0,a5
    80001804:	fffc879b          	addiw	a5,s9,-1
    80001808:	03f7f793          	andi	a5,a5,63
    8000180c:	00e7971b          	slliw	a4,a5,0xe
    80001810:	fff047b7          	lui	a5,0xfff04
    80001814:	17fd                	addi	a5,a5,-1
    80001816:	8fe1                	and	a5,a5,s0
    80001818:	8fd9                	or	a5,a5,a4
    8000181a:	f4000737          	lui	a4,0xf4000
    8000181e:	177d                	addi	a4,a4,-1
    80001820:	8ff9                	and	a5,a5,a4
    80001822:	01a6969b          	slliw	a3,a3,0x1a
    80001826:	8fd5                	or	a5,a5,a3
    80001828:	50440737          	lui	a4,0x50440
    8000182c:	cb1c                	sw	a5,16(a4)
    8000182e:	a4f5                	j	80001b1a <sysctl_pll_source_set_freq.part.5+0x4ba>
    80001830:	00005097          	auipc	ra,0x5
    80001834:	c30080e7          	jalr	-976(ra) # 80006460 <__floatsidf>
    80001838:	75a6                	ld	a1,104(sp)
    8000183a:	8a2a                	mv	s4,a0
    8000183c:	00004097          	auipc	ra,0x4
    80001840:	244080e7          	jalr	580(ra) # 80005a80 <__muldf3>
    80001844:	00003097          	auipc	ra,0x3
    80001848:	664080e7          	jalr	1636(ra) # 80004ea8 <rint>
    8000184c:	00005097          	auipc	ra,0x5
    80001850:	b2a080e7          	jalr	-1238(ra) # 80006376 <__fixdfsi>
    80001854:	0005091b          	sext.w	s2,a0
    80001858:	8dca                	mv	s11,s2
    8000185a:	0d205763          	blez	s2,80001928 <sysctl_pll_source_set_freq.part.5+0x2c8>
    8000185e:	00005097          	auipc	ra,0x5
    80001862:	c02080e7          	jalr	-1022(ra) # 80006460 <__floatsidf>
    80001866:	85aa                	mv	a1,a0
    80001868:	8baa                	mv	s7,a0
    8000186a:	6562                	ld	a0,24(sp)
    8000186c:	00004097          	auipc	ra,0x4
    80001870:	d56080e7          	jalr	-682(ra) # 800055c2 <__divdf3>
    80001874:	67c6                	ld	a5,80(sp)
    80001876:	638c                	ld	a1,0(a5)
    80001878:	00004097          	auipc	ra,0x4
    8000187c:	0f8080e7          	jalr	248(ra) # 80005970 <__gedf2>
    80001880:	0aa04463          	bgtz	a0,80001928 <sysctl_pll_source_set_freq.part.5+0x2c8>
    80001884:	000c1363          	bnez	s8,8000188a <sysctl_pll_source_set_freq.part.5+0x22a>
    80001888:	4c05                	li	s8,1
    8000188a:	7562                	ld	a0,56(sp)
    8000188c:	85de                	mv	a1,s7
    8000188e:	00004097          	auipc	ra,0x4
    80001892:	1f2080e7          	jalr	498(ra) # 80005a80 <__muldf3>
    80001896:	85aa                	mv	a1,a0
    80001898:	8552                	mv	a0,s4
    8000189a:	00004097          	auipc	ra,0x4
    8000189e:	d28080e7          	jalr	-728(ra) # 800055c2 <__divdf3>
    800018a2:	77c6                	ld	a5,112(sp)
    800018a4:	85aa                	mv	a1,a0
    800018a6:	6388                	ld	a0,0(a5)
    800018a8:	00004097          	auipc	ra,0x4
    800018ac:	554080e7          	jalr	1364(ra) # 80005dfc <__subdf3>
    800018b0:	f02a                	sd	a0,32(sp)
    800018b2:	7782                	ld	a5,32(sp)
    800018b4:	7766                	ld	a4,120(sp)
    800018b6:	6522                	ld	a0,8(sp)
    800018b8:	00e7fbb3          	and	s7,a5,a4
    800018bc:	0000b797          	auipc	a5,0xb
    800018c0:	cd478793          	addi	a5,a5,-812 # 8000c590 <CSWTCH.33+0x38>
    800018c4:	638c                	ld	a1,0(a5)
    800018c6:	00004097          	auipc	ra,0x4
    800018ca:	1ba080e7          	jalr	442(ra) # 80005a80 <__muldf3>
    800018ce:	85aa                	mv	a1,a0
    800018d0:	855e                	mv	a0,s7
    800018d2:	00004097          	auipc	ra,0x4
    800018d6:	126080e7          	jalr	294(ra) # 800059f8 <__ledf2>
    800018da:	00054e63          	bltz	a0,800018f6 <sysctl_pll_source_set_freq.part.5+0x296>
    800018de:	0000b797          	auipc	a5,0xb
    800018e2:	cba78793          	addi	a5,a5,-838 # 8000c598 <CSWTCH.33+0x40>
    800018e6:	638c                	ld	a1,0(a5)
    800018e8:	855e                	mv	a0,s7
    800018ea:	00004097          	auipc	ra,0x4
    800018ee:	10e080e7          	jalr	270(ra) # 800059f8 <__ledf2>
    800018f2:	02055b63          	bgez	a0,80001928 <sysctl_pll_source_set_freq.part.5+0x2c8>
    800018f6:	6566                	ld	a0,88(sp)
    800018f8:	00003097          	auipc	ra,0x3
    800018fc:	448080e7          	jalr	1096(ra) # 80004d40 <floor>
    80001900:	00005097          	auipc	ra,0x5
    80001904:	a76080e7          	jalr	-1418(ra) # 80006376 <__fixdfsi>
    80001908:	0005081b          	sext.w	a6,a0
    8000190c:	46c1                	li	a3,16
    8000190e:	872a                	mv	a4,a0
    80001910:	0005079b          	sext.w	a5,a0
    80001914:	0106d363          	ble	a6,a3,8000191a <sysctl_pll_source_set_freq.part.5+0x2ba>
    80001918:	47c1                	li	a5,16
    8000191a:	8a3e                	mv	s4,a5
    8000191c:	4685                	li	a3,1
    8000191e:	0146c963          	blt	a3,s4,80001930 <sysctl_pll_source_set_freq.part.5+0x2d0>
    80001922:	034de6bb          	remw	a3,s11,s4
    80001926:	ca99                	beqz	a3,8000193c <sysctl_pll_source_set_freq.part.5+0x2dc>
    80001928:	67c2                	ld	a5,16(sp)
    8000192a:	0785                	addi	a5,a5,1
    8000192c:	e83e                	sd	a5,16(sp)
    8000192e:	b581                	j	8000176e <sysctl_pll_source_set_freq.part.5+0x10e>
    80001930:	034946bb          	divw	a3,s2,s4
    80001934:	ced1                	beqz	a3,800019d0 <sysctl_pll_source_set_freq.part.5+0x370>
    80001936:	034966bb          	remw	a3,s2,s4
    8000193a:	ead9                	bnez	a3,800019d0 <sysctl_pll_source_set_freq.part.5+0x370>
    8000193c:	6686                	ld	a3,64(sp)
    8000193e:	6642                	ld	a2,16(sp)
    80001940:	00c685b3          	add	a1,a3,a2
    80001944:	0347c63b          	divw	a2,a5,s4
    80001948:	04000693          	li	a3,64
    8000194c:	0386c6bb          	divw	a3,a3,s8
    80001950:	87b2                	mv	a5,a2
    80001952:	0006889b          	sext.w	a7,a3
    80001956:	00c8d363          	ble	a2,a7,8000195c <sysctl_pll_source_set_freq.part.5+0x2fc>
    8000195a:	87b6                	mv	a5,a3
    8000195c:	03478b3b          	mulw	s6,a5,s4
    80001960:	4017551b          	sraiw	a0,a4,0x1
    80001964:	0007861b          	sext.w	a2,a5
    80001968:	02ab4a63          	blt	s6,a0,8000199c <sysctl_pll_source_set_freq.part.5+0x33c>
    8000196c:	7506                	ld	a0,96(sp)
    8000196e:	f536                	sd	a3,168(sp)
    80001970:	f142                	sd	a6,160(sp)
    80001972:	ed3a                	sd	a4,152(sp)
    80001974:	e92e                	sd	a1,144(sp)
    80001976:	e532                	sd	a2,136(sp)
    80001978:	e4c6                	sd	a7,72(sp)
    8000197a:	00003097          	auipc	ra,0x3
    8000197e:	266080e7          	jalr	614(ra) # 80004be0 <ceil>
    80001982:	00005097          	auipc	ra,0x5
    80001986:	9f4080e7          	jalr	-1548(ra) # 80006376 <__fixdfsi>
    8000198a:	2501                	sext.w	a0,a0
    8000198c:	68a6                	ld	a7,72(sp)
    8000198e:	662a                	ld	a2,136(sp)
    80001990:	65ca                	ld	a1,144(sp)
    80001992:	676a                	ld	a4,152(sp)
    80001994:	780a                	ld	a6,160(sp)
    80001996:	76aa                	ld	a3,168(sp)
    80001998:	02ab5e63          	ble	a0,s6,800019d4 <sysctl_pll_source_set_freq.part.5+0x374>
    8000199c:	031b5c63          	ble	a7,s6,800019d4 <sysctl_pll_source_set_freq.part.5+0x374>
    800019a0:	2681                	sext.w	a3,a3
    800019a2:	4641                	li	a2,16
    800019a4:	87b6                	mv	a5,a3
    800019a6:	00d65363          	ble	a3,a2,800019ac <sysctl_pll_source_set_freq.part.5+0x34c>
    800019aa:	47c1                	li	a5,16
    800019ac:	0007869b          	sext.w	a3,a5
    800019b0:	0106d363          	ble	a6,a3,800019b6 <sysctl_pll_source_set_freq.part.5+0x356>
    800019b4:	873e                	mv	a4,a5
    800019b6:	038707bb          	mulw	a5,a4,s8
    800019ba:	00070b1b          	sext.w	s6,a4
    800019be:	e4be                	sd	a5,72(sp)
    800019c0:	4785                	li	a5,1
    800019c2:	02bb0a33          	mul	s4,s6,a1
    800019c6:	0367d463          	ble	s6,a5,800019ee <sysctl_pll_source_set_freq.part.5+0x38e>
    800019ca:	6782                	ld	a5,0(sp)
    800019cc:	e38d                	bnez	a5,800019ee <sysctl_pll_source_set_freq.part.5+0x38e>
    800019ce:	bfa9                	j	80001928 <sysctl_pll_source_set_freq.part.5+0x2c8>
    800019d0:	3a7d                	addiw	s4,s4,-1
    800019d2:	b7a9                	j	8000191c <sysctl_pll_source_set_freq.part.5+0x2bc>
    800019d4:	02cc07bb          	mulw	a5,s8,a2
    800019d8:	e4be                	sd	a5,72(sp)
    800019da:	47c1                	li	a5,16
    800019dc:	034dc93b          	divw	s2,s11,s4
    800019e0:	02b60a33          	mul	s4,a2,a1
    800019e4:	f567c2e3          	blt	a5,s6,80001928 <sysctl_pll_source_set_freq.part.5+0x2c8>
    800019e8:	4785                	li	a5,1
    800019ea:	fec7c0e3          	blt	a5,a2,800019ca <sysctl_pll_source_set_freq.part.5+0x36a>
    800019ee:	000a0c1b          	sext.w	s8,s4
    800019f2:	0d805363          	blez	s8,80001ab8 <sysctl_pll_source_set_freq.part.5+0x458>
    800019f6:	04000793          	li	a5,64
    800019fa:	f387c7e3          	blt	a5,s8,80001928 <sysctl_pll_source_set_freq.part.5+0x2c8>
    800019fe:	854a                	mv	a0,s2
    80001a00:	00005097          	auipc	ra,0x5
    80001a04:	a60080e7          	jalr	-1440(ra) # 80006460 <__floatsidf>
    80001a08:	85aa                	mv	a1,a0
    80001a0a:	6562                	ld	a0,24(sp)
    80001a0c:	00004097          	auipc	ra,0x4
    80001a10:	bb6080e7          	jalr	-1098(ra) # 800055c2 <__divdf3>
    80001a14:	8daa                	mv	s11,a0
    80001a16:	8552                	mv	a0,s4
    80001a18:	00005097          	auipc	ra,0x5
    80001a1c:	b60080e7          	jalr	-1184(ra) # 80006578 <__floatdidf>
    80001a20:	85ee                	mv	a1,s11
    80001a22:	00004097          	auipc	ra,0x4
    80001a26:	05e080e7          	jalr	94(ra) # 80005a80 <__muldf3>
    80001a2a:	678a                	ld	a5,128(sp)
    80001a2c:	e52a                	sd	a0,136(sp)
    80001a2e:	638c                	ld	a1,0(a5)
    80001a30:	00004097          	auipc	ra,0x4
    80001a34:	fc8080e7          	jalr	-56(ra) # 800059f8 <__ledf2>
    80001a38:	ee0548e3          	bltz	a0,80001928 <sysctl_pll_source_set_freq.part.5+0x2c8>
    80001a3c:	67c6                	ld	a5,80(sp)
    80001a3e:	672a                	ld	a4,136(sp)
    80001a40:	638c                	ld	a1,0(a5)
    80001a42:	853a                	mv	a0,a4
    80001a44:	00004097          	auipc	ra,0x4
    80001a48:	f2c080e7          	jalr	-212(ra) # 80005970 <__gedf2>
    80001a4c:	eca04ee3          	bgtz	a0,80001928 <sysctl_pll_source_set_freq.part.5+0x2c8>
    80001a50:	67a6                	ld	a5,72(sp)
    80001a52:	ecf05be3          	blez	a5,80001928 <sysctl_pll_source_set_freq.part.5+0x2c8>
    80001a56:	0000b797          	auipc	a5,0xb
    80001a5a:	b4a78793          	addi	a5,a5,-1206 # 8000c5a0 <CSWTCH.33+0x48>
    80001a5e:	638c                	ld	a1,0(a5)
    80001a60:	856e                	mv	a0,s11
    80001a62:	00004097          	auipc	ra,0x4
    80001a66:	f96080e7          	jalr	-106(ra) # 800059f8 <__ledf2>
    80001a6a:	ea054fe3          	bltz	a0,80001928 <sysctl_pll_source_set_freq.part.5+0x2c8>
    80001a6e:	47c1                	li	a5,16
    80001a70:	eb27cce3          	blt	a5,s2,80001928 <sysctl_pll_source_set_freq.part.5+0x2c8>
    80001a74:	0000b797          	auipc	a5,0xb
    80001a78:	b3478793          	addi	a5,a5,-1228 # 8000c5a8 <CSWTCH.33+0x50>
    80001a7c:	638c                	ld	a1,0(a5)
    80001a7e:	6522                	ld	a0,8(sp)
    80001a80:	00004097          	auipc	ra,0x4
    80001a84:	000080e7          	jalr	ra # 80005a80 <__muldf3>
    80001a88:	85aa                	mv	a1,a0
    80001a8a:	855e                	mv	a0,s7
    80001a8c:	00004097          	auipc	ra,0x4
    80001a90:	ee4080e7          	jalr	-284(ra) # 80005970 <__gedf2>
    80001a94:	00054463          	bltz	a0,80001a9c <sysctl_pll_source_set_freq.part.5+0x43c>
    80001a98:	e96458e3          	ble	s6,s0,80001928 <sysctl_pll_source_set_freq.part.5+0x2c8>
    80001a9c:	6782                	ld	a5,0(sp)
    80001a9e:	ef99                	bnez	a5,80001abc <sysctl_pll_source_set_freq.part.5+0x45c>
    80001aa0:	e924c4e3          	blt	s1,s2,80001928 <sysctl_pll_source_set_freq.part.5+0x2c8>
    80001aa4:	7782                	ld	a5,32(sp)
    80001aa6:	8d52                	mv	s10,s4
    80001aa8:	8ce2                	mv	s9,s8
    80001aaa:	f83e                	sd	a5,48(sp)
    80001aac:	4785                	li	a5,1
    80001aae:	845a                	mv	s0,s6
    80001ab0:	84ca                	mv	s1,s2
    80001ab2:	e45e                	sd	s7,8(sp)
    80001ab4:	f43e                	sd	a5,40(sp)
    80001ab6:	bd8d                	j	80001928 <sysctl_pll_source_set_freq.part.5+0x2c8>
    80001ab8:	4c05                	li	s8,1
    80001aba:	b791                	j	800019fe <sysctl_pll_source_set_freq.part.5+0x39e>
    80001abc:	7782                	ld	a5,32(sp)
    80001abe:	8d52                	mv	s10,s4
    80001ac0:	8ce2                	mv	s9,s8
    80001ac2:	f83e                	sd	a5,48(sp)
    80001ac4:	6782                	ld	a5,0(sp)
    80001ac6:	845a                	mv	s0,s6
    80001ac8:	84ca                	mv	s1,s2
    80001aca:	e45e                	sd	s7,8(sp)
    80001acc:	f43e                	sd	a5,40(sp)
    80001ace:	e002                	sd	zero,0(sp)
    80001ad0:	bda1                	j	80001928 <sysctl_pll_source_set_freq.part.5+0x2c8>
    80001ad2:	50440637          	lui	a2,0x50440
    80001ad6:	461c                	lw	a5,8(a2)
    80001ad8:	34fd                	addiw	s1,s1,-1
    80001ada:	fffd071b          	addiw	a4,s10,-1
    80001ade:	88bd                	andi	s1,s1,15
    80001ae0:	c007f793          	andi	a5,a5,-1024
    80001ae4:	03f77713          	andi	a4,a4,63
    80001ae8:	0047171b          	slliw	a4,a4,0x4
    80001aec:	8fc5                	or	a5,a5,s1
    80001aee:	8fd9                	or	a5,a5,a4
    80001af0:	347d                	addiw	s0,s0,-1
    80001af2:	7771                	lui	a4,0xffffc
    80001af4:	3ff70713          	addi	a4,a4,1023 # ffffffffffffc3ff <_trapsp0+0xffffffff7ffc73bf>
    80001af8:	883d                	andi	s0,s0,15
    80001afa:	8ff9                	and	a5,a5,a4
    80001afc:	00a4141b          	slliw	s0,s0,0xa
    80001b00:	fffc871b          	addiw	a4,s9,-1
    80001b04:	fff046b7          	lui	a3,0xfff04
    80001b08:	8fc1                	or	a5,a5,s0
    80001b0a:	03f77713          	andi	a4,a4,63
    80001b0e:	16fd                	addi	a3,a3,-1
    80001b10:	00e7171b          	slliw	a4,a4,0xe
    80001b14:	8ff5                	and	a5,a5,a3
    80001b16:	8fd9                	or	a5,a5,a4
    80001b18:	c61c                	sw	a5,8(a2)
    80001b1a:	6452                	ld	s0,272(sp)
    80001b1c:	60f2                	ld	ra,280(sp)
    80001b1e:	64b2                	ld	s1,264(sp)
    80001b20:	6912                	ld	s2,256(sp)
    80001b22:	7a4e                	ld	s4,240(sp)
    80001b24:	7aae                	ld	s5,232(sp)
    80001b26:	7b0e                	ld	s6,224(sp)
    80001b28:	6bee                	ld	s7,216(sp)
    80001b2a:	6c4e                	ld	s8,208(sp)
    80001b2c:	6cae                	ld	s9,200(sp)
    80001b2e:	6d0e                	ld	s10,192(sp)
    80001b30:	7dea                	ld	s11,184(sp)
    80001b32:	854e                	mv	a0,s3
    80001b34:	79ee                	ld	s3,248(sp)
    80001b36:	6115                	addi	sp,sp,288
    80001b38:	00000317          	auipc	t1,0x0
    80001b3c:	b1630067          	jr	-1258(t1) # 8000164e <sysctl_pll_get_freq>
    80001b40:	50440637          	lui	a2,0x50440
    80001b44:	465c                	lw	a5,12(a2)
    80001b46:	34fd                	addiw	s1,s1,-1
    80001b48:	fffd071b          	addiw	a4,s10,-1
    80001b4c:	88bd                	andi	s1,s1,15
    80001b4e:	c007f793          	andi	a5,a5,-1024
    80001b52:	03f77713          	andi	a4,a4,63
    80001b56:	0047171b          	slliw	a4,a4,0x4
    80001b5a:	8fc5                	or	a5,a5,s1
    80001b5c:	8fd9                	or	a5,a5,a4
    80001b5e:	347d                	addiw	s0,s0,-1
    80001b60:	7771                	lui	a4,0xffffc
    80001b62:	3ff70713          	addi	a4,a4,1023 # ffffffffffffc3ff <_trapsp0+0xffffffff7ffc73bf>
    80001b66:	883d                	andi	s0,s0,15
    80001b68:	8ff9                	and	a5,a5,a4
    80001b6a:	00a4141b          	slliw	s0,s0,0xa
    80001b6e:	fffc871b          	addiw	a4,s9,-1
    80001b72:	fff046b7          	lui	a3,0xfff04
    80001b76:	8fc1                	or	a5,a5,s0
    80001b78:	03f77713          	andi	a4,a4,63
    80001b7c:	16fd                	addi	a3,a3,-1
    80001b7e:	00e7171b          	slliw	a4,a4,0xe
    80001b82:	8ff5                	and	a5,a5,a3
    80001b84:	8fd9                	or	a5,a5,a4
    80001b86:	c65c                	sw	a5,12(a2)
    80001b88:	bf49                	j	80001b1a <sysctl_pll_source_set_freq.part.5+0x4ba>

0000000080001b8a <sysctl_clock_get_freq>:
    80001b8a:	fffff317          	auipc	t1,0xfffff
    80001b8e:	7e430067          	jr	2020(t1) # 8000136e <sysctl_clock_get_freq.part.2>

0000000080001b92 <sysctl_pll_set_freq>:
    80001b92:	7179                	addi	sp,sp,-48
    80001b94:	e84a                	sd	s2,16(sp)
    80001b96:	f406                	sd	ra,40(sp)
    80001b98:	f022                	sd	s0,32(sp)
    80001b9a:	ec26                	sd	s1,24(sp)
    80001b9c:	e44e                	sd	s3,8(sp)
    80001b9e:	892e                	mv	s2,a1
    80001ba0:	c9e9                	beqz	a1,80001c72 <sysctl_pll_set_freq+0xe0>
    80001ba2:	4789                	li	a5,2
    80001ba4:	84aa                	mv	s1,a0
    80001ba6:	0ea7e863          	bltu	a5,a0,80001c96 <sysctl_pll_set_freq+0x104>
    80001baa:	02051793          	slli	a5,a0,0x20
    80001bae:	01d7d713          	srli	a4,a5,0x1d
    80001bb2:	0000b797          	auipc	a5,0xb
    80001bb6:	9a678793          	addi	a5,a5,-1626 # 8000c558 <CSWTCH.33>
    80001bba:	97ba                	add	a5,a5,a4
    80001bbc:	6380                	ld	s0,0(a5)
    80001bbe:	e511                	bnez	a0,80001bca <sysctl_pll_set_freq+0x38>
    80001bc0:	50440737          	lui	a4,0x50440
    80001bc4:	531c                	lw	a5,32(a4)
    80001bc6:	9bf9                	andi	a5,a5,-2
    80001bc8:	d31c                	sw	a5,32(a4)
    80001bca:	401c                	lw	a5,0(s0)
    80001bcc:	fe000737          	lui	a4,0xfe000
    80001bd0:	177d                	addi	a4,a4,-1
    80001bd2:	8ff9                	and	a5,a5,a4
    80001bd4:	c01c                	sw	a5,0(s0)
    80001bd6:	401c                	lw	a5,0(s0)
    80001bd8:	ffe00737          	lui	a4,0xffe00
    80001bdc:	177d                	addi	a4,a4,-1
    80001bde:	8ff9                	and	a5,a5,a4
    80001be0:	c01c                	sw	a5,0(s0)
    80001be2:	4789                	li	a5,2
    80001be4:	08f49f63          	bne	s1,a5,80001c82 <sysctl_pll_set_freq+0xf0>
    80001be8:	504407b7          	lui	a5,0x50440
    80001bec:	4b8c                	lw	a1,16(a5)
    80001bee:	864a                	mv	a2,s2
    80001bf0:	4509                	li	a0,2
    80001bf2:	01a5d59b          	srliw	a1,a1,0x1a
    80001bf6:	898d                	andi	a1,a1,3
    80001bf8:	00000097          	auipc	ra,0x0
    80001bfc:	a68080e7          	jalr	-1432(ra) # 80001660 <sysctl_pll_source_set_freq.part.5>
    80001c00:	401c                	lw	a5,0(s0)
    80001c02:	00200737          	lui	a4,0x200
    80001c06:	0005091b          	sext.w	s2,a0
    80001c0a:	8fd9                	or	a5,a5,a4
    80001c0c:	c01c                	sw	a5,0(s0)
    80001c0e:	4505                	li	a0,1
    80001c10:	ffffe097          	auipc	ra,0xffffe
    80001c14:	786080e7          	jalr	1926(ra) # 80000396 <usleep>
    80001c18:	401c                	lw	a5,0(s0)
    80001c1a:	fff009b7          	lui	s3,0xfff00
    80001c1e:	19fd                	addi	s3,s3,-1
    80001c20:	0137f7b3          	and	a5,a5,s3
    80001c24:	c01c                	sw	a5,0(s0)
    80001c26:	401c                	lw	a5,0(s0)
    80001c28:	00100737          	lui	a4,0x100
    80001c2c:	4505                	li	a0,1
    80001c2e:	8fd9                	or	a5,a5,a4
    80001c30:	c01c                	sw	a5,0(s0)
    80001c32:	ffffe097          	auipc	ra,0xffffe
    80001c36:	764080e7          	jalr	1892(ra) # 80000396 <usleep>
    80001c3a:	401c                	lw	a5,0(s0)
    80001c3c:	0137f9b3          	and	s3,a5,s3
    80001c40:	01342023          	sw	s3,0(s0) # 50440000 <_stack_size+0x50438000>
    80001c44:	8526                	mv	a0,s1
    80001c46:	fffff097          	auipc	ra,0xfffff
    80001c4a:	488080e7          	jalr	1160(ra) # 800010ce <sysctl_pll_is_lock.part.0>
    80001c4e:	cd15                	beqz	a0,80001c8a <sysctl_pll_set_freq+0xf8>
    80001c50:	401c                	lw	a5,0(s0)
    80001c52:	02000737          	lui	a4,0x2000
    80001c56:	8fd9                	or	a5,a5,a4
    80001c58:	c01c                	sw	a5,0(s0)
    80001c5a:	ec81                	bnez	s1,80001c72 <sysctl_pll_set_freq+0xe0>
    80001c5c:	50440737          	lui	a4,0x50440
    80001c60:	531c                	lw	a5,32(a4)
    80001c62:	557d                	li	a0,-1
    80001c64:	0017e793          	ori	a5,a5,1
    80001c68:	d31c                	sw	a5,32(a4)
    80001c6a:	fffff097          	auipc	ra,0xfffff
    80001c6e:	fa4080e7          	jalr	-92(ra) # 80000c0e <uart_debug_init>
    80001c72:	70a2                	ld	ra,40(sp)
    80001c74:	7402                	ld	s0,32(sp)
    80001c76:	854a                	mv	a0,s2
    80001c78:	64e2                	ld	s1,24(sp)
    80001c7a:	6942                	ld	s2,16(sp)
    80001c7c:	69a2                	ld	s3,8(sp)
    80001c7e:	6145                	addi	sp,sp,48
    80001c80:	8082                	ret
    80001c82:	864a                	mv	a2,s2
    80001c84:	4581                	li	a1,0
    80001c86:	8526                	mv	a0,s1
    80001c88:	bf85                	j	80001bf8 <sysctl_pll_set_freq+0x66>
    80001c8a:	8526                	mv	a0,s1
    80001c8c:	fffff097          	auipc	ra,0xfffff
    80001c90:	47e080e7          	jalr	1150(ra) # 8000110a <sysctl_pll_clear_slip>
    80001c94:	bf45                	j	80001c44 <sysctl_pll_set_freq+0xb2>
    80001c96:	4901                	li	s2,0
    80001c98:	bfe9                	j	80001c72 <sysctl_pll_set_freq+0xe0>

0000000080001c9a <sysctl_enable_irq>:
    80001c9a:	6785                	lui	a5,0x1
    80001c9c:	8007879b          	addiw	a5,a5,-2048
    80001ca0:	3047a7f3          	csrrs	a5,mie,a5
    80001ca4:	300467f3          	csrrsi	a5,mstatus,8
    80001ca8:	8082                	ret

0000000080001caa <sysctl_disable_irq>:
    80001caa:	6785                	lui	a5,0x1
    80001cac:	8007879b          	addiw	a5,a5,-2048
    80001cb0:	3047b7f3          	csrrc	a5,mie,a5
    80001cb4:	300477f3          	csrrci	a5,mstatus,8
    80001cb8:	8082                	ret

0000000080001cba <sysctl_get_reset_status>:
    80001cba:	0000e797          	auipc	a5,0xe
    80001cbe:	f2e78793          	addi	a5,a5,-210 # 8000fbe8 <s_reset_status.5841>
    80001cc2:	4388                	lw	a0,0(a5)
    80001cc4:	873e                	mv	a4,a5
    80001cc6:	e505                	bnez	a0,80001cee <sysctl_get_reset_status+0x34>
    80001cc8:	504406b7          	lui	a3,0x50440
    80001ccc:	52bc                	lw	a5,96(a3)
    80001cce:	0027d79b          	srliw	a5,a5,0x2
    80001cd2:	8b85                	andi	a5,a5,1
    80001cd4:	cf91                	beqz	a5,80001cf0 <sysctl_get_reset_status+0x36>
    80001cd6:	4789                	li	a5,2
    80001cd8:	0000e697          	auipc	a3,0xe
    80001cdc:	f0f6a823          	sw	a5,-240(a3) # 8000fbe8 <s_reset_status.5841>
    80001ce0:	504406b7          	lui	a3,0x50440
    80001ce4:	52bc                	lw	a5,96(a3)
    80001ce6:	0017e793          	ori	a5,a5,1
    80001cea:	d2bc                	sw	a5,96(a3)
    80001cec:	4308                	lw	a0,0(a4)
    80001cee:	8082                	ret
    80001cf0:	52bc                	lw	a5,96(a3)
    80001cf2:	0037d79b          	srliw	a5,a5,0x3
    80001cf6:	8b85                	andi	a5,a5,1
    80001cf8:	c399                	beqz	a5,80001cfe <sysctl_get_reset_status+0x44>
    80001cfa:	478d                	li	a5,3
    80001cfc:	bff1                	j	80001cd8 <sysctl_get_reset_status+0x1e>
    80001cfe:	52bc                	lw	a5,96(a3)
    80001d00:	0047d79b          	srliw	a5,a5,0x4
    80001d04:	8b85                	andi	a5,a5,1
    80001d06:	dfe9                	beqz	a5,80001ce0 <sysctl_get_reset_status+0x26>
    80001d08:	4785                	li	a5,1
    80001d0a:	b7f9                	j	80001cd8 <sysctl_get_reset_status+0x1e>

0000000080001d0c <syslog_print>:
    80001d0c:	7159                	addi	sp,sp,-112
    80001d0e:	ec26                	sd	s1,24(sp)
    80001d10:	00015497          	auipc	s1,0x15
    80001d14:	c8048493          	addi	s1,s1,-896 # 80016990 <buf>
    80001d18:	fc2e                	sd	a1,56(sp)
    80001d1a:	e0b2                	sd	a2,64(sp)
    80001d1c:	85aa                	mv	a1,a0
    80001d1e:	1830                	addi	a2,sp,56
    80001d20:	8526                	mv	a0,s1
    80001d22:	f406                	sd	ra,40(sp)
    80001d24:	f022                	sd	s0,32(sp)
    80001d26:	e4b6                	sd	a3,72(sp)
    80001d28:	e8ba                	sd	a4,80(sp)
    80001d2a:	ecbe                	sd	a5,88(sp)
    80001d2c:	f0c2                	sd	a6,96(sp)
    80001d2e:	f4c6                	sd	a7,104(sp)
    80001d30:	e432                	sd	a2,8(sp)
    80001d32:	00005097          	auipc	ra,0x5
    80001d36:	c9a080e7          	jalr	-870(ra) # 800069cc <vsprintf>
    80001d3a:	842a                	mv	s0,a0
    80001d3c:	862a                	mv	a2,a0
    80001d3e:	85a6                	mv	a1,s1
    80001d40:	4509                	li	a0,2
    80001d42:	fffff097          	auipc	ra,0xfffff
    80001d46:	d5c080e7          	jalr	-676(ra) # 80000a9e <uart_send_data>
    80001d4a:	8522                	mv	a0,s0
    80001d4c:	70a2                	ld	ra,40(sp)
    80001d4e:	7402                	ld	s0,32(sp)
    80001d50:	64e2                	ld	s1,24(sp)
    80001d52:	6165                	addi	sp,sp,112
    80001d54:	8082                	ret

0000000080001d56 <syslog_vprint>:
    80001d56:	1101                	addi	sp,sp,-32
    80001d58:	e426                	sd	s1,8(sp)
    80001d5a:	00015497          	auipc	s1,0x15
    80001d5e:	c3648493          	addi	s1,s1,-970 # 80016990 <buf>
    80001d62:	862e                	mv	a2,a1
    80001d64:	85aa                	mv	a1,a0
    80001d66:	8526                	mv	a0,s1
    80001d68:	ec06                	sd	ra,24(sp)
    80001d6a:	e822                	sd	s0,16(sp)
    80001d6c:	00005097          	auipc	ra,0x5
    80001d70:	c60080e7          	jalr	-928(ra) # 800069cc <vsprintf>
    80001d74:	842a                	mv	s0,a0
    80001d76:	862a                	mv	a2,a0
    80001d78:	85a6                	mv	a1,s1
    80001d7a:	4509                	li	a0,2
    80001d7c:	fffff097          	auipc	ra,0xfffff
    80001d80:	d22080e7          	jalr	-734(ra) # 80000a9e <uart_send_data>
    80001d84:	8522                	mv	a0,s0
    80001d86:	60e2                	ld	ra,24(sp)
    80001d88:	6442                	ld	s0,16(sp)
    80001d8a:	64a2                	ld	s1,8(sp)
    80001d8c:	6105                	addi	sp,sp,32
    80001d8e:	8082                	ret

0000000080001d90 <syslog_println>:
    80001d90:	0000b517          	auipc	a0,0xb
    80001d94:	8e850513          	addi	a0,a0,-1816 # 8000c678 <CSWTCH.33+0x120>
    80001d98:	00000317          	auipc	t1,0x0
    80001d9c:	f7430067          	jr	-140(t1) # 80001d0c <syslog_print>

0000000080001da0 <syslog_debug>:
    80001da0:	715d                	addi	sp,sp,-80
    80001da2:	e822                	sd	s0,16(sp)
    80001da4:	f032                	sd	a2,32(sp)
    80001da6:	842e                	mv	s0,a1
    80001da8:	862a                	mv	a2,a0
    80001daa:	0000b597          	auipc	a1,0xb
    80001dae:	80e58593          	addi	a1,a1,-2034 # 8000c5b8 <CSWTCH.33+0x60>
    80001db2:	0000b517          	auipc	a0,0xb
    80001db6:	80e50513          	addi	a0,a0,-2034 # 8000c5c0 <CSWTCH.33+0x68>
    80001dba:	ec06                	sd	ra,24(sp)
    80001dbc:	f436                	sd	a3,40(sp)
    80001dbe:	f83a                	sd	a4,48(sp)
    80001dc0:	fc3e                	sd	a5,56(sp)
    80001dc2:	e0c2                	sd	a6,64(sp)
    80001dc4:	e4c6                	sd	a7,72(sp)
    80001dc6:	00000097          	auipc	ra,0x0
    80001dca:	f46080e7          	jalr	-186(ra) # 80001d0c <syslog_print>
    80001dce:	100c                	addi	a1,sp,32
    80001dd0:	8522                	mv	a0,s0
    80001dd2:	e42e                	sd	a1,8(sp)
    80001dd4:	00000097          	auipc	ra,0x0
    80001dd8:	f82080e7          	jalr	-126(ra) # 80001d56 <syslog_vprint>
    80001ddc:	00000097          	auipc	ra,0x0
    80001de0:	fb4080e7          	jalr	-76(ra) # 80001d90 <syslog_println>
    80001de4:	60e2                	ld	ra,24(sp)
    80001de6:	6442                	ld	s0,16(sp)
    80001de8:	6161                	addi	sp,sp,80
    80001dea:	8082                	ret

0000000080001dec <syslog_info>:
    80001dec:	715d                	addi	sp,sp,-80
    80001dee:	e822                	sd	s0,16(sp)
    80001df0:	f032                	sd	a2,32(sp)
    80001df2:	842e                	mv	s0,a1
    80001df4:	862a                	mv	a2,a0
    80001df6:	0000b597          	auipc	a1,0xb
    80001dfa:	87a58593          	addi	a1,a1,-1926 # 8000c670 <CSWTCH.33+0x118>
    80001dfe:	0000a517          	auipc	a0,0xa
    80001e02:	7c250513          	addi	a0,a0,1986 # 8000c5c0 <CSWTCH.33+0x68>
    80001e06:	ec06                	sd	ra,24(sp)
    80001e08:	f436                	sd	a3,40(sp)
    80001e0a:	f83a                	sd	a4,48(sp)
    80001e0c:	fc3e                	sd	a5,56(sp)
    80001e0e:	e0c2                	sd	a6,64(sp)
    80001e10:	e4c6                	sd	a7,72(sp)
    80001e12:	00000097          	auipc	ra,0x0
    80001e16:	efa080e7          	jalr	-262(ra) # 80001d0c <syslog_print>
    80001e1a:	100c                	addi	a1,sp,32
    80001e1c:	8522                	mv	a0,s0
    80001e1e:	e42e                	sd	a1,8(sp)
    80001e20:	00000097          	auipc	ra,0x0
    80001e24:	f36080e7          	jalr	-202(ra) # 80001d56 <syslog_vprint>
    80001e28:	00000097          	auipc	ra,0x0
    80001e2c:	f68080e7          	jalr	-152(ra) # 80001d90 <syslog_println>
    80001e30:	60e2                	ld	ra,24(sp)
    80001e32:	6442                	ld	s0,16(sp)
    80001e34:	6161                	addi	sp,sp,80
    80001e36:	8082                	ret

0000000080001e38 <syslog_warning>:
    80001e38:	715d                	addi	sp,sp,-80
    80001e3a:	e822                	sd	s0,16(sp)
    80001e3c:	f032                	sd	a2,32(sp)
    80001e3e:	842e                	mv	s0,a1
    80001e40:	862a                	mv	a2,a0
    80001e42:	0000b597          	auipc	a1,0xb
    80001e46:	83e58593          	addi	a1,a1,-1986 # 8000c680 <CSWTCH.33+0x128>
    80001e4a:	0000a517          	auipc	a0,0xa
    80001e4e:	77650513          	addi	a0,a0,1910 # 8000c5c0 <CSWTCH.33+0x68>
    80001e52:	ec06                	sd	ra,24(sp)
    80001e54:	f436                	sd	a3,40(sp)
    80001e56:	f83a                	sd	a4,48(sp)
    80001e58:	fc3e                	sd	a5,56(sp)
    80001e5a:	e0c2                	sd	a6,64(sp)
    80001e5c:	e4c6                	sd	a7,72(sp)
    80001e5e:	00000097          	auipc	ra,0x0
    80001e62:	eae080e7          	jalr	-338(ra) # 80001d0c <syslog_print>
    80001e66:	100c                	addi	a1,sp,32
    80001e68:	8522                	mv	a0,s0
    80001e6a:	e42e                	sd	a1,8(sp)
    80001e6c:	00000097          	auipc	ra,0x0
    80001e70:	eea080e7          	jalr	-278(ra) # 80001d56 <syslog_vprint>
    80001e74:	00000097          	auipc	ra,0x0
    80001e78:	f1c080e7          	jalr	-228(ra) # 80001d90 <syslog_println>
    80001e7c:	60e2                	ld	ra,24(sp)
    80001e7e:	6442                	ld	s0,16(sp)
    80001e80:	6161                	addi	sp,sp,80
    80001e82:	8082                	ret

0000000080001e84 <syslog_error>:
    80001e84:	715d                	addi	sp,sp,-80
    80001e86:	e822                	sd	s0,16(sp)
    80001e88:	f032                	sd	a2,32(sp)
    80001e8a:	842e                	mv	s0,a1
    80001e8c:	862a                	mv	a2,a0
    80001e8e:	0000a597          	auipc	a1,0xa
    80001e92:	7b258593          	addi	a1,a1,1970 # 8000c640 <CSWTCH.33+0xe8>
    80001e96:	0000a517          	auipc	a0,0xa
    80001e9a:	72a50513          	addi	a0,a0,1834 # 8000c5c0 <CSWTCH.33+0x68>
    80001e9e:	ec06                	sd	ra,24(sp)
    80001ea0:	f436                	sd	a3,40(sp)
    80001ea2:	f83a                	sd	a4,48(sp)
    80001ea4:	fc3e                	sd	a5,56(sp)
    80001ea6:	e0c2                	sd	a6,64(sp)
    80001ea8:	e4c6                	sd	a7,72(sp)
    80001eaa:	00000097          	auipc	ra,0x0
    80001eae:	e62080e7          	jalr	-414(ra) # 80001d0c <syslog_print>
    80001eb2:	100c                	addi	a1,sp,32
    80001eb4:	8522                	mv	a0,s0
    80001eb6:	e42e                	sd	a1,8(sp)
    80001eb8:	00000097          	auipc	ra,0x0
    80001ebc:	e9e080e7          	jalr	-354(ra) # 80001d56 <syslog_vprint>
    80001ec0:	00000097          	auipc	ra,0x0
    80001ec4:	ed0080e7          	jalr	-304(ra) # 80001d90 <syslog_println>
    80001ec8:	60e2                	ld	ra,24(sp)
    80001eca:	6442                	ld	s0,16(sp)
    80001ecc:	6161                	addi	sp,sp,80
    80001ece:	8082                	ret

0000000080001ed0 <syslog_dump_memory>:
    80001ed0:	56fd                	li	a3,-1
    80001ed2:	715d                	addi	sp,sp,-80
    80001ed4:	9281                	srli	a3,a3,0x20
    80001ed6:	00d5f7b3          	and	a5,a1,a3
    80001eda:	0205d713          	srli	a4,a1,0x20
    80001ede:	8ee9                	and	a3,a3,a0
    80001ee0:	02055613          	srli	a2,a0,0x20
    80001ee4:	e0a2                	sd	s0,64(sp)
    80001ee6:	f84a                	sd	s2,48(sp)
    80001ee8:	842a                	mv	s0,a0
    80001eea:	892e                	mv	s2,a1
    80001eec:	0000a517          	auipc	a0,0xa
    80001ef0:	70c50513          	addi	a0,a0,1804 # 8000c5f8 <CSWTCH.33+0xa0>
    80001ef4:	0000a597          	auipc	a1,0xa
    80001ef8:	6dc58593          	addi	a1,a1,1756 # 8000c5d0 <CSWTCH.33+0x78>
    80001efc:	e486                	sd	ra,72(sp)
    80001efe:	fc26                	sd	s1,56(sp)
    80001f00:	f44e                	sd	s3,40(sp)
    80001f02:	f052                	sd	s4,32(sp)
    80001f04:	ec56                	sd	s5,24(sp)
    80001f06:	e85a                	sd	s6,16(sp)
    80001f08:	e45e                	sd	s7,8(sp)
    80001f0a:	00000097          	auipc	ra,0x0
    80001f0e:	e96080e7          	jalr	-362(ra) # 80001da0 <syslog_debug>
    80001f12:	0000a517          	auipc	a0,0xa
    80001f16:	6fe50513          	addi	a0,a0,1790 # 8000c610 <CSWTCH.33+0xb8>
    80001f1a:	00000097          	auipc	ra,0x0
    80001f1e:	df2080e7          	jalr	-526(ra) # 80001d0c <syslog_print>
    80001f22:	4481                	li	s1,0
    80001f24:	0000aa17          	auipc	s4,0xa
    80001f28:	704a0a13          	addi	s4,s4,1796 # 8000c628 <CSWTCH.33+0xd0>
    80001f2c:	49c1                	li	s3,16
    80001f2e:	85a6                	mv	a1,s1
    80001f30:	8552                	mv	a0,s4
    80001f32:	2485                	addiw	s1,s1,1
    80001f34:	00000097          	auipc	ra,0x0
    80001f38:	dd8080e7          	jalr	-552(ra) # 80001d0c <syslog_print>
    80001f3c:	ff3499e3          	bne	s1,s3,80001f2e <syslog_dump_memory+0x5e>
    80001f40:	ff047a13          	andi	s4,s0,-16
    80001f44:	944a                	add	s0,s0,s2
    80001f46:	597d                	li	s2,-1
    80001f48:	41440433          	sub	s0,s0,s4
    80001f4c:	4481                	li	s1,0
    80001f4e:	0000aa97          	auipc	s5,0xa
    80001f52:	72aa8a93          	addi	s5,s5,1834 # 8000c678 <CSWTCH.33+0x120>
    80001f56:	02095913          	srli	s2,s2,0x20
    80001f5a:	0000ab17          	auipc	s6,0xa
    80001f5e:	6d6b0b13          	addi	s6,s6,1750 # 8000c630 <CSWTCH.33+0xd8>
    80001f62:	0000ab97          	auipc	s7,0xa
    80001f66:	6c6b8b93          	addi	s7,s7,1734 # 8000c628 <CSWTCH.33+0xd0>
    80001f6a:	0004879b          	sext.w	a5,s1
    80001f6e:	02941463          	bne	s0,s1,80001f96 <syslog_dump_memory+0xc6>
    80001f72:	6406                	ld	s0,64(sp)
    80001f74:	60a6                	ld	ra,72(sp)
    80001f76:	74e2                	ld	s1,56(sp)
    80001f78:	7942                	ld	s2,48(sp)
    80001f7a:	79a2                	ld	s3,40(sp)
    80001f7c:	7a02                	ld	s4,32(sp)
    80001f7e:	6ae2                	ld	s5,24(sp)
    80001f80:	6b42                	ld	s6,16(sp)
    80001f82:	6ba2                	ld	s7,8(sp)
    80001f84:	0000a517          	auipc	a0,0xa
    80001f88:	6f450513          	addi	a0,a0,1780 # 8000c678 <CSWTCH.33+0x120>
    80001f8c:	6161                	addi	sp,sp,80
    80001f8e:	00000317          	auipc	t1,0x0
    80001f92:	d7e30067          	jr	-642(t1) # 80001d0c <syslog_print>
    80001f96:	8bbd                	andi	a5,a5,15
    80001f98:	009a09b3          	add	s3,s4,s1
    80001f9c:	ef99                	bnez	a5,80001fba <syslog_dump_memory+0xea>
    80001f9e:	8556                	mv	a0,s5
    80001fa0:	00000097          	auipc	ra,0x0
    80001fa4:	d6c080e7          	jalr	-660(ra) # 80001d0c <syslog_print>
    80001fa8:	0129f633          	and	a2,s3,s2
    80001fac:	0209d593          	srli	a1,s3,0x20
    80001fb0:	855a                	mv	a0,s6
    80001fb2:	00000097          	auipc	ra,0x0
    80001fb6:	d5a080e7          	jalr	-678(ra) # 80001d0c <syslog_print>
    80001fba:	0009c583          	lbu	a1,0(s3) # fffffffffff00000 <_trapsp0+0xffffffff7fecafc0>
    80001fbe:	855e                	mv	a0,s7
    80001fc0:	0485                	addi	s1,s1,1
    80001fc2:	00000097          	auipc	ra,0x0
    80001fc6:	d4a080e7          	jalr	-694(ra) # 80001d0c <syslog_print>
    80001fca:	b745                	j	80001f6a <syslog_dump_memory+0x9a>

0000000080001fcc <syslog_flagn>:
    80001fcc:	86aa                	mv	a3,a0
    80001fce:	0000a617          	auipc	a2,0xa
    80001fd2:	67a60613          	addi	a2,a2,1658 # 8000c648 <CSWTCH.33+0xf0>
    80001fd6:	0000a597          	auipc	a1,0xa
    80001fda:	69258593          	addi	a1,a1,1682 # 8000c668 <CSWTCH.33+0x110>
    80001fde:	0000a517          	auipc	a0,0xa
    80001fe2:	67a50513          	addi	a0,a0,1658 # 8000c658 <CSWTCH.33+0x100>
    80001fe6:	00000317          	auipc	t1,0x0
    80001fea:	dba30067          	jr	-582(t1) # 80001da0 <syslog_debug>

0000000080001fee <privilege_getstring>:
    80001fee:	478d                	li	a5,3
    80001ff0:	00a7eb63          	bltu	a5,a0,80002006 <privilege_getstring+0x18>
    80001ff4:	1502                	slli	a0,a0,0x20
    80001ff6:	0000a797          	auipc	a5,0xa
    80001ffa:	69278793          	addi	a5,a5,1682 # 8000c688 <CSWTCH.3>
    80001ffe:	8175                	srli	a0,a0,0x1d
    80002000:	953e                	add	a0,a0,a5
    80002002:	6108                	ld	a0,0(a0)
    80002004:	8082                	ret
    80002006:	0000a517          	auipc	a0,0xa
    8000200a:	6a250513          	addi	a0,a0,1698 # 8000c6a8 <CSWTCH.3+0x20>
    8000200e:	8082                	ret

0000000080002010 <privilege_init>:
    80002010:	1141                	addi	sp,sp,-16
    80002012:	e022                	sd	s0,0(sp)
    80002014:	e406                	sd	ra,8(sp)
    80002016:	842a                	mv	s0,a0
    80002018:	00000097          	auipc	ra,0x0
    8000201c:	34a080e7          	jalr	842(ra) # 80002362 <core_get_info>
    80002020:	c900                	sw	s0,16(a0)
    80002022:	478d                	li	a5,3
    80002024:	0000a617          	auipc	a2,0xa
    80002028:	68460613          	addi	a2,a2,1668 # 8000c6a8 <CSWTCH.3+0x20>
    8000202c:	0087ec63          	bltu	a5,s0,80002044 <privilege_init+0x34>
    80002030:	02041793          	slli	a5,s0,0x20
    80002034:	01d7d713          	srli	a4,a5,0x1d
    80002038:	0000a797          	auipc	a5,0xa
    8000203c:	65078793          	addi	a5,a5,1616 # 8000c688 <CSWTCH.3>
    80002040:	97ba                	add	a5,a5,a4
    80002042:	6390                	ld	a2,0(a5)
    80002044:	0000a597          	auipc	a1,0xa
    80002048:	66c58593          	addi	a1,a1,1644 # 8000c6b0 <CSWTCH.3+0x28>
    8000204c:	0000a517          	auipc	a0,0xa
    80002050:	69450513          	addi	a0,a0,1684 # 8000c6e0 <CSWTCH.3+0x58>
    80002054:	00000097          	auipc	ra,0x0
    80002058:	d98080e7          	jalr	-616(ra) # 80001dec <syslog_info>
    8000205c:	00000097          	auipc	ra,0x0
    80002060:	306080e7          	jalr	774(ra) # 80002362 <core_get_info>
    80002064:	491c                	lw	a5,16(a0)
    80002066:	02878663          	beq	a5,s0,80002092 <privilege_init+0x82>
    8000206a:	00000097          	auipc	ra,0x0
    8000206e:	2f8080e7          	jalr	760(ra) # 80002362 <core_get_info>
    80002072:	6402                	ld	s0,0(sp)
    80002074:	60a2                	ld	ra,8(sp)
    80002076:	862a                	mv	a2,a0
    80002078:	0000b597          	auipc	a1,0xb
    8000207c:	98058593          	addi	a1,a1,-1664 # 8000c9f8 <CSWTCH.3+0x370>
    80002080:	0000a517          	auipc	a0,0xa
    80002084:	5c050513          	addi	a0,a0,1472 # 8000c640 <CSWTCH.33+0xe8>
    80002088:	0141                	addi	sp,sp,16
    8000208a:	00000317          	auipc	t1,0x0
    8000208e:	dfa30067          	jr	-518(t1) # 80001e84 <syslog_error>
    80002092:	60a2                	ld	ra,8(sp)
    80002094:	6402                	ld	s0,0(sp)
    80002096:	0141                	addi	sp,sp,16
    80002098:	8082                	ret

000000008000209a <privilege_trap_entry>:
    8000209a:	7139                	addi	sp,sp,-64
    8000209c:	f822                	sd	s0,48(sp)
    8000209e:	f426                	sd	s1,40(sp)
    800020a0:	e832                	sd	a2,16(sp)
    800020a2:	e436                	sd	a3,8(sp)
    800020a4:	fc06                	sd	ra,56(sp)
    800020a6:	842a                	mv	s0,a0
    800020a8:	ec2e                	sd	a1,24(sp)
    800020aa:	00000097          	auipc	ra,0x0
    800020ae:	2b8080e7          	jalr	696(ra) # 80002362 <core_get_info>
    800020b2:	84aa                	mv	s1,a0
    800020b4:	4908                	lw	a0,16(a0)
    800020b6:	468d                	li	a3,3
    800020b8:	6822                	ld	a6,8(sp)
    800020ba:	67c2                	ld	a5,16(sp)
    800020bc:	6762                	ld	a4,24(sp)
    800020be:	0000a617          	auipc	a2,0xa
    800020c2:	5ea60613          	addi	a2,a2,1514 # 8000c6a8 <CSWTCH.3+0x20>
    800020c6:	00a6ea63          	bltu	a3,a0,800020da <privilege_trap_entry+0x40>
    800020ca:	1502                	slli	a0,a0,0x20
    800020cc:	8175                	srli	a0,a0,0x1d
    800020ce:	0000a897          	auipc	a7,0xa
    800020d2:	5ba88893          	addi	a7,a7,1466 # 8000c688 <CSWTCH.3>
    800020d6:	9546                	add	a0,a0,a7
    800020d8:	6110                	ld	a2,0(a0)
    800020da:	458d                	li	a1,3
    800020dc:	0000a697          	auipc	a3,0xa
    800020e0:	5cc68693          	addi	a3,a3,1484 # 8000c6a8 <CSWTCH.3+0x20>
    800020e4:	0085ec63          	bltu	a1,s0,800020fc <privilege_trap_entry+0x62>
    800020e8:	02041513          	slli	a0,s0,0x20
    800020ec:	01d55893          	srli	a7,a0,0x1d
    800020f0:	0000a517          	auipc	a0,0xa
    800020f4:	59850513          	addi	a0,a0,1432 # 8000c688 <CSWTCH.3>
    800020f8:	9546                	add	a0,a0,a7
    800020fa:	6114                	ld	a3,0(a0)
    800020fc:	0000a597          	auipc	a1,0xa
    80002100:	72c58593          	addi	a1,a1,1836 # 8000c828 <CSWTCH.3+0x1a0>
    80002104:	0000a517          	auipc	a0,0xa
    80002108:	77c50513          	addi	a0,a0,1916 # 8000c880 <CSWTCH.3+0x1f8>
    8000210c:	00000097          	auipc	ra,0x0
    80002110:	ce0080e7          	jalr	-800(ra) # 80001dec <syslog_info>
    80002114:	70e2                	ld	ra,56(sp)
    80002116:	c880                	sw	s0,16(s1)
    80002118:	7442                	ld	s0,48(sp)
    8000211a:	74a2                	ld	s1,40(sp)
    8000211c:	6121                	addi	sp,sp,64
    8000211e:	8082                	ret

0000000080002120 <privilege_get_previous_level>:
    80002120:	1141                	addi	sp,sp,-16
    80002122:	e406                	sd	ra,8(sp)
    80002124:	00000097          	auipc	ra,0x0
    80002128:	23e080e7          	jalr	574(ra) # 80002362 <core_get_info>
    8000212c:	491c                	lw	a5,16(a0)
    8000212e:	4705                	li	a4,1
    80002130:	00e78d63          	beq	a5,a4,8000214a <privilege_get_previous_level+0x2a>
    80002134:	470d                	li	a4,3
    80002136:	4501                	li	a0,0
    80002138:	00e79663          	bne	a5,a4,80002144 <privilege_get_previous_level+0x24>
    8000213c:	30002573          	csrr	a0,mstatus
    80002140:	812d                	srli	a0,a0,0xb
    80002142:	890d                	andi	a0,a0,3
    80002144:	60a2                	ld	ra,8(sp)
    80002146:	0141                	addi	sp,sp,16
    80002148:	8082                	ret
    8000214a:	10002573          	csrr	a0,sstatus
    8000214e:	8121                	srli	a0,a0,0x8
    80002150:	8905                	andi	a0,a0,1
    80002152:	bfcd                	j	80002144 <privilege_get_previous_level+0x24>

0000000080002154 <privilege_trap_exit>:
    80002154:	7179                	addi	sp,sp,-48
    80002156:	ec26                	sd	s1,24(sp)
    80002158:	84aa                	mv	s1,a0
    8000215a:	4525                	li	a0,9
    8000215c:	f406                	sd	ra,40(sp)
    8000215e:	f022                	sd	s0,32(sp)
    80002160:	00000097          	auipc	ra,0x0
    80002164:	e6c080e7          	jalr	-404(ra) # 80001fcc <syslog_flagn>
    80002168:	00000097          	auipc	ra,0x0
    8000216c:	1fa080e7          	jalr	506(ra) # 80002362 <core_get_info>
    80002170:	842a                	mv	s0,a0
    80002172:	4529                	li	a0,10
    80002174:	00000097          	auipc	ra,0x0
    80002178:	e58080e7          	jalr	-424(ra) # 80001fcc <syslog_flagn>
    8000217c:	481c                	lw	a5,16(s0)
    8000217e:	470d                	li	a4,3
    80002180:	0000a617          	auipc	a2,0xa
    80002184:	52860613          	addi	a2,a2,1320 # 8000c6a8 <CSWTCH.3+0x20>
    80002188:	00f76a63          	bltu	a4,a5,8000219c <privilege_trap_exit+0x48>
    8000218c:	1782                	slli	a5,a5,0x20
    8000218e:	83f5                	srli	a5,a5,0x1d
    80002190:	0000a717          	auipc	a4,0xa
    80002194:	4f870713          	addi	a4,a4,1272 # 8000c688 <CSWTCH.3>
    80002198:	97ba                	add	a5,a5,a4
    8000219a:	6390                	ld	a2,0(a5)
    8000219c:	e432                	sd	a2,8(sp)
    8000219e:	00000097          	auipc	ra,0x0
    800021a2:	f82080e7          	jalr	-126(ra) # 80002120 <privilege_get_previous_level>
    800021a6:	2501                	sext.w	a0,a0
    800021a8:	478d                	li	a5,3
    800021aa:	0000a697          	auipc	a3,0xa
    800021ae:	4fe68693          	addi	a3,a3,1278 # 8000c6a8 <CSWTCH.3+0x20>
    800021b2:	6622                	ld	a2,8(sp)
    800021b4:	00a7ea63          	bltu	a5,a0,800021c8 <privilege_trap_exit+0x74>
    800021b8:	1502                	slli	a0,a0,0x20
    800021ba:	8175                	srli	a0,a0,0x1d
    800021bc:	0000a797          	auipc	a5,0xa
    800021c0:	4cc78793          	addi	a5,a5,1228 # 8000c688 <CSWTCH.3>
    800021c4:	953e                	add	a0,a0,a5
    800021c6:	6114                	ld	a3,0(a0)
    800021c8:	0000a597          	auipc	a1,0xa
    800021cc:	6d058593          	addi	a1,a1,1744 # 8000c898 <CSWTCH.3+0x210>
    800021d0:	0000a517          	auipc	a0,0xa
    800021d4:	70050513          	addi	a0,a0,1792 # 8000c8d0 <CSWTCH.3+0x248>
    800021d8:	00000097          	auipc	ra,0x0
    800021dc:	c14080e7          	jalr	-1004(ra) # 80001dec <syslog_info>
    800021e0:	00000097          	auipc	ra,0x0
    800021e4:	f40080e7          	jalr	-192(ra) # 80002120 <privilege_get_previous_level>
    800021e8:	c808                	sw	a0,16(s0)
    800021ea:	70a2                	ld	ra,40(sp)
    800021ec:	7402                	ld	s0,32(sp)
    800021ee:	8526                	mv	a0,s1
    800021f0:	64e2                	ld	s1,24(sp)
    800021f2:	6145                	addi	sp,sp,48
    800021f4:	8082                	ret

00000000800021f6 <privilege_to_user>:
    800021f6:	1101                	addi	sp,sp,-32
    800021f8:	e822                	sd	s0,16(sp)
    800021fa:	e426                	sd	s1,8(sp)
    800021fc:	ec06                	sd	ra,24(sp)
    800021fe:	84aa                	mv	s1,a0
    80002200:	00000097          	auipc	ra,0x0
    80002204:	162080e7          	jalr	354(ra) # 80002362 <core_get_info>
    80002208:	491c                	lw	a5,16(a0)
    8000220a:	4705                	li	a4,1
    8000220c:	842a                	mv	s0,a0
    8000220e:	04e78a63          	beq	a5,a4,80002262 <privilege_to_user+0x6c>
    80002212:	470d                	li	a4,3
    80002214:	08e79663          	bne	a5,a4,800022a0 <privilege_to_user+0xaa>
    80002218:	0000a617          	auipc	a2,0xa
    8000221c:	53060613          	addi	a2,a2,1328 # 8000c748 <CSWTCH.3+0xc0>
    80002220:	0000a597          	auipc	a1,0xa
    80002224:	57058593          	addi	a1,a1,1392 # 8000c790 <CSWTCH.3+0x108>
    80002228:	0000a517          	auipc	a0,0xa
    8000222c:	50850513          	addi	a0,a0,1288 # 8000c730 <CSWTCH.3+0xa8>
    80002230:	00000097          	auipc	ra,0x0
    80002234:	bbc080e7          	jalr	-1092(ra) # 80001dec <syslog_info>
    80002238:	00042823          	sw	zero,16(s0)
    8000223c:	300027f3          	csrr	a5,mstatus
    80002240:	34102773          	csrr	a4,mepc
    80002244:	7779                	lui	a4,0xffffe
    80002246:	7ff70713          	addi	a4,a4,2047 # ffffffffffffe7ff <_trapsp0+0xffffffff7ffc97bf>
    8000224a:	8ff9                	and	a5,a5,a4
    8000224c:	30079073          	csrw	mstatus,a5
    80002250:	34149073          	csrw	mepc,s1
    80002254:	30200073          	mret
    80002258:	60e2                	ld	ra,24(sp)
    8000225a:	6442                	ld	s0,16(sp)
    8000225c:	64a2                	ld	s1,8(sp)
    8000225e:	6105                	addi	sp,sp,32
    80002260:	8082                	ret
    80002262:	0000a617          	auipc	a2,0xa
    80002266:	56660613          	addi	a2,a2,1382 # 8000c7c8 <CSWTCH.3+0x140>
    8000226a:	0000a597          	auipc	a1,0xa
    8000226e:	52658593          	addi	a1,a1,1318 # 8000c790 <CSWTCH.3+0x108>
    80002272:	0000a517          	auipc	a0,0xa
    80002276:	4be50513          	addi	a0,a0,1214 # 8000c730 <CSWTCH.3+0xa8>
    8000227a:	00000097          	auipc	ra,0x0
    8000227e:	b72080e7          	jalr	-1166(ra) # 80001dec <syslog_info>
    80002282:	00042823          	sw	zero,16(s0)
    80002286:	100027f3          	csrr	a5,sstatus
    8000228a:	14102773          	csrr	a4,sepc
    8000228e:	eff7f793          	andi	a5,a5,-257
    80002292:	10079073          	csrw	sstatus,a5
    80002296:	14149073          	csrw	sepc,s1
    8000229a:	10200073          	sret
    8000229e:	bf6d                	j	80002258 <privilege_to_user+0x62>
    800022a0:	0000a617          	auipc	a2,0xa
    800022a4:	40860613          	addi	a2,a2,1032 # 8000c6a8 <CSWTCH.3+0x20>
    800022a8:	00f76a63          	bltu	a4,a5,800022bc <privilege_to_user+0xc6>
    800022ac:	1782                	slli	a5,a5,0x20
    800022ae:	83f5                	srli	a5,a5,0x1d
    800022b0:	0000a717          	auipc	a4,0xa
    800022b4:	3d870713          	addi	a4,a4,984 # 8000c688 <CSWTCH.3>
    800022b8:	97ba                	add	a5,a5,a4
    800022ba:	6390                	ld	a2,0(a5)
    800022bc:	6442                	ld	s0,16(sp)
    800022be:	60e2                	ld	ra,24(sp)
    800022c0:	64a2                	ld	s1,8(sp)
    800022c2:	0000a597          	auipc	a1,0xa
    800022c6:	51658593          	addi	a1,a1,1302 # 8000c7d8 <CSWTCH.3+0x150>
    800022ca:	0000a517          	auipc	a0,0xa
    800022ce:	54650513          	addi	a0,a0,1350 # 8000c810 <CSWTCH.3+0x188>
    800022d2:	6105                	addi	sp,sp,32
    800022d4:	00000317          	auipc	t1,0x0
    800022d8:	bb030067          	jr	-1104(t1) # 80001e84 <syslog_error>

00000000800022dc <privilege_get_cur_level>:
    800022dc:	1141                	addi	sp,sp,-16
    800022de:	e406                	sd	ra,8(sp)
    800022e0:	00000097          	auipc	ra,0x0
    800022e4:	088080e7          	jalr	136(ra) # 80002368 <core_get_readonly_info>
    800022e8:	60a2                	ld	ra,8(sp)
    800022ea:	4908                	lw	a0,16(a0)
    800022ec:	0141                	addi	sp,sp,16
    800022ee:	8082                	ret

00000000800022f0 <core_init>:
    800022f0:	f1402673          	csrr	a2,mhartid
    800022f4:	4785                	li	a5,1
    800022f6:	00c7fe63          	bleu	a2,a5,80002312 <core_init+0x22>
    800022fa:	0000a597          	auipc	a1,0xa
    800022fe:	5f658593          	addi	a1,a1,1526 # 8000c8f0 <CSWTCH.3+0x268>
    80002302:	0000a517          	auipc	a0,0xa
    80002306:	60650513          	addi	a0,a0,1542 # 8000c908 <CSWTCH.3+0x280>
    8000230a:	00000317          	auipc	t1,0x0
    8000230e:	b7a30067          	jr	-1158(t1) # 80001e84 <syslog_error>
    80002312:	4761                	li	a4,24
    80002314:	02e607b3          	mul	a5,a2,a4
    80002318:	00015717          	auipc	a4,0x15
    8000231c:	a7870713          	addi	a4,a4,-1416 # 80016d90 <core_info>
    80002320:	973e                	add	a4,a4,a5
    80002322:	34071073          	csrw	mscratch,a4
    80002326:	14071073          	csrw	sscratch,a4
    8000232a:	321027f3          	csrr	a5,mscounteren
    8000232e:	0077e693          	ori	a3,a5,7
    80002332:	0ff6f693          	andi	a3,a3,255
    80002336:	f007f793          	andi	a5,a5,-256
    8000233a:	8fd5                	or	a5,a5,a3
    8000233c:	32179073          	csrw	mscounteren,a5
    80002340:	320027f3          	csrr	a5,mucounteren
    80002344:	0077e693          	ori	a3,a5,7
    80002348:	0ff6f693          	andi	a3,a3,255
    8000234c:	f007f793          	andi	a5,a5,-256
    80002350:	8fd5                	or	a5,a5,a3
    80002352:	32079073          	csrw	mucounteren,a5
    80002356:	450d                	li	a0,3
    80002358:	e710                	sd	a2,8(a4)
    8000235a:	00000317          	auipc	t1,0x0
    8000235e:	cb630067          	jr	-842(t1) # 80002010 <privilege_init>

0000000080002362 <core_get_info>:
    80002362:	14002573          	csrr	a0,sscratch
    80002366:	8082                	ret

0000000080002368 <core_get_readonly_info>:
    80002368:	14002573          	csrr	a0,sscratch
    8000236c:	8082                	ret

000000008000236e <core_get_coreid>:
    8000236e:	140027f3          	csrr	a5,sscratch
    80002372:	6788                	ld	a0,8(a5)
    80002374:	8082                	ret

0000000080002376 <pte_common_init>:
    80002376:	00359613          	slli	a2,a1,0x3
    8000237a:	4581                	li	a1,0
    8000237c:	00004317          	auipc	t1,0x4
    80002380:	57430067          	jr	1396(t1) # 800068f0 <memset>

0000000080002384 <pte_common_set_accessibility>:
    80002384:	0015f793          	andi	a5,a1,1
    80002388:	0017971b          	slliw	a4,a5,0x1
    8000238c:	411c                	lw	a5,0(a0)
    8000238e:	9bf5                	andi	a5,a5,-3
    80002390:	8fd9                	or	a5,a5,a4
    80002392:	c11c                	sw	a5,0(a0)
    80002394:	0015d79b          	srliw	a5,a1,0x1
    80002398:	8b85                	andi	a5,a5,1
    8000239a:	0027971b          	slliw	a4,a5,0x2
    8000239e:	411c                	lw	a5,0(a0)
    800023a0:	0025d59b          	srliw	a1,a1,0x2
    800023a4:	8985                	andi	a1,a1,1
    800023a6:	9bed                	andi	a5,a5,-5
    800023a8:	8fd9                	or	a5,a5,a4
    800023aa:	c11c                	sw	a5,0(a0)
    800023ac:	411c                	lw	a5,0(a0)
    800023ae:	0035959b          	slliw	a1,a1,0x3
    800023b2:	9bdd                	andi	a5,a5,-9
    800023b4:	8ddd                	or	a1,a1,a5
    800023b6:	c10c                	sw	a1,0(a0)
    800023b8:	8082                	ret

00000000800023ba <pte_common_addr_to_ppn>:
    800023ba:	411c                	lw	a5,0(a0)
    800023bc:	05ba                	slli	a1,a1,0xe
    800023be:	81e9                	srli	a1,a1,0x1a
    800023c0:	00a5971b          	slliw	a4,a1,0xa
    800023c4:	3ff7f793          	andi	a5,a5,1023
    800023c8:	8fd9                	or	a5,a5,a4
    800023ca:	c11c                	sw	a5,0(a0)
    800023cc:	415c                	lw	a5,4(a0)
    800023ce:	7741                	lui	a4,0xffff0
    800023d0:	81d9                	srli	a1,a1,0x16
    800023d2:	8ff9                	and	a5,a5,a4
    800023d4:	8ddd                	or	a1,a1,a5
    800023d6:	c14c                	sw	a1,4(a0)
    800023d8:	8082                	ret

00000000800023da <pte_common_ppn_to_addr>:
    800023da:	411c                	lw	a5,0(a0)
    800023dc:	00a7d71b          	srliw	a4,a5,0xa
    800023e0:	415c                	lw	a5,4(a0)
    800023e2:	557d                	li	a0,-1
    800023e4:	8169                	srli	a0,a0,0x1a
    800023e6:	17c2                	slli	a5,a5,0x30
    800023e8:	83e9                	srli	a5,a5,0x1a
    800023ea:	8fd9                	or	a5,a5,a4
    800023ec:	07b2                	slli	a5,a5,0xc
    800023ee:	8d7d                	and	a0,a0,a5
    800023f0:	8082                	ret

00000000800023f2 <pte_common_enable_entry>:
    800023f2:	1141                	addi	sp,sp,-16
    800023f4:	e022                	sd	s0,0(sp)
    800023f6:	862a                	mv	a2,a0
    800023f8:	842a                	mv	s0,a0
    800023fa:	0000a597          	auipc	a1,0xa
    800023fe:	51e58593          	addi	a1,a1,1310 # 8000c918 <CSWTCH.3+0x290>
    80002402:	0000a517          	auipc	a0,0xa
    80002406:	52e50513          	addi	a0,a0,1326 # 8000c930 <CSWTCH.3+0x2a8>
    8000240a:	e406                	sd	ra,8(sp)
    8000240c:	00000097          	auipc	ra,0x0
    80002410:	9e0080e7          	jalr	-1568(ra) # 80001dec <syslog_info>
    80002414:	401c                	lw	a5,0(s0)
    80002416:	60a2                	ld	ra,8(sp)
    80002418:	0017e793          	ori	a5,a5,1
    8000241c:	c01c                	sw	a5,0(s0)
    8000241e:	6402                	ld	s0,0(sp)
    80002420:	0141                	addi	sp,sp,16
    80002422:	8082                	ret

0000000080002424 <pte_common_enable_user>:
    80002424:	411c                	lw	a5,0(a0)
    80002426:	0107e793          	ori	a5,a5,16
    8000242a:	c11c                	sw	a5,0(a0)
    8000242c:	8082                	ret

000000008000242e <pte_common_set_writeable>:
    8000242e:	411c                	lw	a5,0(a0)
    80002430:	0047e793          	ori	a5,a5,4
    80002434:	c11c                	sw	a5,0(a0)
    80002436:	8082                	ret

0000000080002438 <pte_entry_sv39>:
    80002438:	1141                	addi	sp,sp,-16
    8000243a:	0000a597          	auipc	a1,0xa
    8000243e:	50e58593          	addi	a1,a1,1294 # 8000c948 <CSWTCH.3+0x2c0>
    80002442:	0000a517          	auipc	a0,0xa
    80002446:	51e50513          	addi	a0,a0,1310 # 8000c960 <CSWTCH.3+0x2d8>
    8000244a:	e406                	sd	ra,8(sp)
    8000244c:	00000097          	auipc	ra,0x0
    80002450:	9a0080e7          	jalr	-1632(ra) # 80001dec <syslog_info>
    80002454:	300027f3          	csrr	a5,mstatus
    80002458:	e1000737          	lui	a4,0xe1000
    8000245c:	177d                	addi	a4,a4,-1
    8000245e:	8ff9                	and	a5,a5,a4
    80002460:	09000737          	lui	a4,0x9000
    80002464:	8fd9                	or	a5,a5,a4
    80002466:	30079073          	csrw	mstatus,a5
    8000246a:	60a2                	ld	ra,8(sp)
    8000246c:	0141                	addi	sp,sp,16
    8000246e:	8082                	ret

0000000080002470 <pte_refresh_tlb>:
    80002470:	10400073          	sfence.vm
    80002474:	8082                	ret

0000000080002476 <pte_set_root_page_table>:
    80002476:	180027f3          	csrr	a5,satp
    8000247a:	577d                	li	a4,-1
    8000247c:	01a75693          	srli	a3,a4,0x1a
    80002480:	8131                	srli	a0,a0,0xc
    80002482:	171a                	slli	a4,a4,0x26
    80002484:	8d75                	and	a0,a0,a3
    80002486:	8ff9                	and	a5,a5,a4
    80002488:	8fc9                	or	a5,a5,a0
    8000248a:	18079073          	csrw	satp,a5
    8000248e:	10400073          	sfence.vm
    80002492:	8082                	ret

0000000080002494 <regs_backup>:
    80002494:	00153423          	sd	ra,8(a0)
    80002498:	00253823          	sd	sp,16(a0)
    8000249c:	00353c23          	sd	gp,24(a0)
    800024a0:	02453023          	sd	tp,32(a0)
    800024a4:	02553423          	sd	t0,40(a0)
    800024a8:	02653823          	sd	t1,48(a0)
    800024ac:	02753c23          	sd	t2,56(a0)
    800024b0:	e120                	sd	s0,64(a0)
    800024b2:	e524                	sd	s1,72(a0)
    800024b4:	e928                	sd	a0,80(a0)
    800024b6:	ed2c                	sd	a1,88(a0)
    800024b8:	f130                	sd	a2,96(a0)
    800024ba:	f534                	sd	a3,104(a0)
    800024bc:	f938                	sd	a4,112(a0)
    800024be:	fd3c                	sd	a5,120(a0)
    800024c0:	09053023          	sd	a6,128(a0)
    800024c4:	09153423          	sd	a7,136(a0)
    800024c8:	09253823          	sd	s2,144(a0)
    800024cc:	09353c23          	sd	s3,152(a0)
    800024d0:	0b453023          	sd	s4,160(a0)
    800024d4:	0b553423          	sd	s5,168(a0)
    800024d8:	0b653823          	sd	s6,176(a0)
    800024dc:	0b753c23          	sd	s7,184(a0)
    800024e0:	0d853023          	sd	s8,192(a0)
    800024e4:	0d953423          	sd	s9,200(a0)
    800024e8:	0da53823          	sd	s10,208(a0)
    800024ec:	0db53c23          	sd	s11,216(a0)
    800024f0:	0fc53023          	sd	t3,224(a0)
    800024f4:	0fd53423          	sd	t4,232(a0)
    800024f8:	0fe53823          	sd	t5,240(a0)
    800024fc:	0ff53c23          	sd	t6,248(a0)
    80002500:	1005a027          	fsw	ft0,256(a1)
    80002504:	1015a427          	fsw	ft1,264(a1)
    80002508:	1025a827          	fsw	ft2,272(a1)
    8000250c:	1035ac27          	fsw	ft3,280(a1)
    80002510:	1245a027          	fsw	ft4,288(a1)
    80002514:	1255a427          	fsw	ft5,296(a1)
    80002518:	1265a827          	fsw	ft6,304(a1)
    8000251c:	1275ac27          	fsw	ft7,312(a1)
    80002520:	1485a027          	fsw	fs0,320(a1)
    80002524:	1495a427          	fsw	fs1,328(a1)
    80002528:	14a5a827          	fsw	fa0,336(a1)
    8000252c:	14b5ac27          	fsw	fa1,344(a1)
    80002530:	16c5a027          	fsw	fa2,352(a1)
    80002534:	16d5a427          	fsw	fa3,360(a1)
    80002538:	16e5a827          	fsw	fa4,368(a1)
    8000253c:	16f5ac27          	fsw	fa5,376(a1)
    80002540:	1905a027          	fsw	fa6,384(a1)
    80002544:	1915a427          	fsw	fa7,392(a1)
    80002548:	1925a827          	fsw	fs2,400(a1)
    8000254c:	1935ac27          	fsw	fs3,408(a1)
    80002550:	1b45a027          	fsw	fs4,416(a1)
    80002554:	1b55a427          	fsw	fs5,424(a1)
    80002558:	1b65a827          	fsw	fs6,432(a1)
    8000255c:	1b75ac27          	fsw	fs7,440(a1)
    80002560:	1d85a027          	fsw	fs8,448(a1)
    80002564:	1d95a427          	fsw	fs9,456(a1)
    80002568:	1da5a827          	fsw	fs10,464(a1)
    8000256c:	1db5ac27          	fsw	fs11,472(a1)
    80002570:	1fc5a027          	fsw	ft8,480(a1)
    80002574:	1fd5a427          	fsw	ft9,488(a1)
    80002578:	1fe5a827          	fsw	ft10,496(a1)
    8000257c:	1ff5ac27          	fsw	ft11,504(a1)
    80002580:	8082                	ret

0000000080002582 <thread_entry>:
    80002582:	050e                	slli	a0,a0,0x3
    80002584:	ffffe797          	auipc	a5,0xffffe
    80002588:	a8478793          	addi	a5,a5,-1404 # 80000008 <g_wake_up>
    8000258c:	97aa                	add	a5,a5,a0
    8000258e:	6398                	ld	a4,0(a5)
    80002590:	df7d                	beqz	a4,8000258e <thread_entry+0xc>
    80002592:	8082                	ret

0000000080002594 <init_bss>:
    80002594:	0000e797          	auipc	a5,0xe
    80002598:	a6c78793          	addi	a5,a5,-1428 # 80010000 <page_dir_table>
    8000259c:	0001b717          	auipc	a4,0x1b
    800025a0:	a9470713          	addi	a4,a4,-1388 # 8001d030 <_ebss>
    800025a4:	00e7e363          	bltu	a5,a4,800025aa <init_bss+0x16>
    800025a8:	8082                	ret
    800025aa:	0791                	addi	a5,a5,4
    800025ac:	fe07ae23          	sw	zero,-4(a5)
    800025b0:	bfd5                	j	800025a4 <init_bss+0x10>

00000000800025b2 <entry>:
    800025b2:	1141                	addi	sp,sp,-16
    800025b4:	e406                	sd	ra,8(sp)
    800025b6:	e959                	bnez	a0,8000264c <entry+0x9a>
    800025b8:	2faf15b7          	lui	a1,0x2faf1
    800025bc:	80058593          	addi	a1,a1,-2048 # 2faf0800 <_stack_size+0x2fae8800>
    800025c0:	fffff097          	auipc	ra,0xfffff
    800025c4:	5d2080e7          	jalr	1490(ra) # 80001b92 <sysctl_pll_set_freq>
    800025c8:	00000097          	auipc	ra,0x0
    800025cc:	fcc080e7          	jalr	-52(ra) # 80002594 <init_bss>
    800025d0:	04400593          	li	a1,68
    800025d4:	4511                	li	a0,4
    800025d6:	ffffe097          	auipc	ra,0xffffe
    800025da:	f0c080e7          	jalr	-244(ra) # 800004e2 <fpioa_set_function>
    800025de:	04500593          	li	a1,69
    800025e2:	4515                	li	a0,5
    800025e4:	ffffe097          	auipc	ra,0xffffe
    800025e8:	efe080e7          	jalr	-258(ra) # 800004e2 <fpioa_set_function>
    800025ec:	4509                	li	a0,2
    800025ee:	ffffe097          	auipc	ra,0xffffe
    800025f2:	620080e7          	jalr	1568(ra) # 80000c0e <uart_debug_init>
    800025f6:	ffffe097          	auipc	ra,0xffffe
    800025fa:	e06080e7          	jalr	-506(ra) # 800003fc <fpioa_init>
    800025fe:	fffff097          	auipc	ra,0xfffff
    80002602:	6bc080e7          	jalr	1724(ra) # 80001cba <sysctl_get_reset_status>
    80002606:	fffff097          	auipc	ra,0xfffff
    8000260a:	6a4080e7          	jalr	1700(ra) # 80001caa <sysctl_disable_irq>
    8000260e:	00000097          	auipc	ra,0x0
    80002612:	ce2080e7          	jalr	-798(ra) # 800022f0 <core_init>
    80002616:	ffffe097          	auipc	ra,0xffffe
    8000261a:	f52080e7          	jalr	-174(ra) # 80000568 <plic_init>
    8000261e:	4515                	li	a0,5
    80002620:	ffffe097          	auipc	ra,0xffffe
    80002624:	dc8080e7          	jalr	-568(ra) # 800003e8 <sleep>
    80002628:	60a2                	ld	ra,8(sp)
    8000262a:	00015797          	auipc	a5,0x15
    8000262e:	a007bb23          	sd	zero,-1514(a5) # 80017040 <core1_instance>
    80002632:	00015797          	auipc	a5,0x15
    80002636:	a007bb23          	sd	zero,-1514(a5) # 80017048 <core1_instance+0x8>
    8000263a:	0141                	addi	sp,sp,16
    8000263c:	00000317          	auipc	t1,0x0
    80002640:	0d630067          	jr	214(t1) # 80002712 <machine_main>
    80002644:	60a2                	ld	ra,8(sp)
    80002646:	6788                	ld	a0,8(a5)
    80002648:	0141                	addi	sp,sp,16
    8000264a:	8302                	jr	t1
    8000264c:	00000097          	auipc	ra,0x0
    80002650:	f36080e7          	jalr	-202(ra) # 80002582 <thread_entry>
    80002654:	00015797          	auipc	a5,0x15
    80002658:	9ec78793          	addi	a5,a5,-1556 # 80017040 <core1_instance>
    8000265c:	0007b303          	ld	t1,0(a5)
    80002660:	fe0312e3          	bnez	t1,80002644 <entry+0x92>
    80002664:	10500073          	wfi
    80002668:	bff5                	j	80002664 <entry+0xb2>

000000008000266a <usersyscall_write>:
    8000266a:	85aa                	mv	a1,a0
    8000266c:	4511                	li	a0,4
    8000266e:	00000073          	ecall
    80002672:	852a                	mv	a0,a0
    80002674:	00055963          	bgez	a0,80002686 <usersyscall_write+0x1c>
    80002678:	40a0053b          	negw	a0,a0
    8000267c:	0001b797          	auipc	a5,0x1b
    80002680:	9aa7a623          	sw	a0,-1620(a5) # 8001d028 <errno>
    80002684:	557d                	li	a0,-1
    80002686:	8082                	ret

0000000080002688 <init>:
    80002688:	1141                	addi	sp,sp,-16
    8000268a:	e022                	sd	s0,0(sp)
    8000268c:	e406                	sd	ra,8(sp)
    8000268e:	0000a417          	auipc	s0,0xa
    80002692:	2e240413          	addi	s0,s0,738 # 8000c970 <CSWTCH.3+0x2e8>
    80002696:	8522                	mv	a0,s0
    80002698:	00000097          	auipc	ra,0x0
    8000269c:	fd2080e7          	jalr	-46(ra) # 8000266a <usersyscall_write>
    800026a0:	bfdd                	j	80002696 <init+0xe>

00000000800026a2 <user_main>:
    800026a2:	1141                	addi	sp,sp,-16
    800026a4:	e406                	sd	ra,8(sp)
    800026a6:	4509                	li	a0,2
    800026a8:	00080437          	lui	s0,0x80
    800026ac:	00d4041b          	addiw	s0,s0,13
    800026b0:	00c41413          	slli	s0,s0,0xc
    800026b4:	97040413          	addi	s0,s0,-1680 # 7f970 <_stack_size+0x77970>
    800026b8:	00000073          	ecall
    800026bc:	87aa                	mv	a5,a0
    800026be:	0207dd63          	bgez	a5,800026f8 <user_main+0x56>
    800026c2:	40f007bb          	negw	a5,a5
    800026c6:	0001b717          	auipc	a4,0x1b
    800026ca:	96f72123          	sw	a5,-1694(a4) # 8001d028 <errno>
    800026ce:	0000a517          	auipc	a0,0xa
    800026d2:	31250513          	addi	a0,a0,786 # 8000c9e0 <CSWTCH.3+0x358>
    800026d6:	00000097          	auipc	ra,0x0
    800026da:	f94080e7          	jalr	-108(ra) # 8000266a <usersyscall_write>
    800026de:	4575                	li	a0,29
    800026e0:	00080437          	lui	s0,0x80
    800026e4:	00d4041b          	addiw	s0,s0,13
    800026e8:	00c41413          	slli	s0,s0,0xc
    800026ec:	97040413          	addi	s0,s0,-1680 # 7f970 <_stack_size+0x77970>
    800026f0:	00000073          	ecall
    800026f4:	87aa                	mv	a5,a0
    800026f6:	b7e5                	j	800026de <user_main+0x3c>
    800026f8:	fbf9                	bnez	a5,800026ce <user_main+0x2c>
    800026fa:	0000a517          	auipc	a0,0xa
    800026fe:	2ce50513          	addi	a0,a0,718 # 8000c9c8 <CSWTCH.3+0x340>
    80002702:	00000097          	auipc	ra,0x0
    80002706:	f68080e7          	jalr	-152(ra) # 8000266a <usersyscall_write>
    8000270a:	00000097          	auipc	ra,0x0
    8000270e:	f7e080e7          	jalr	-130(ra) # 80002688 <init>

0000000080002712 <machine_main>:
    80002712:	7119                	addi	sp,sp,-128
    80002714:	fc86                	sd	ra,120(sp)
    80002716:	f8a2                	sd	s0,112(sp)
    80002718:	f0ca                	sd	s2,96(sp)
    8000271a:	ecce                	sd	s3,88(sp)
    8000271c:	f4a6                	sd	s1,104(sp)
    8000271e:	e8d2                	sd	s4,80(sp)
    80002720:	e4d6                	sd	s5,72(sp)
    80002722:	e0da                	sd	s6,64(sp)
    80002724:	fc5e                	sd	s7,56(sp)
    80002726:	f862                	sd	s8,48(sp)
    80002728:	ffffe097          	auipc	ra,0xffffe
    8000272c:	34e080e7          	jalr	846(ra) # 80000a76 <otp_read_serial>
    80002730:	45a1                	li	a1,8
    80002732:	00015517          	auipc	a0,0x15
    80002736:	8ce50513          	addi	a0,a0,-1842 # 80017000 <page_root_table>
    8000273a:	00000097          	auipc	ra,0x0
    8000273e:	c3c080e7          	jalr	-964(ra) # 80002376 <pte_common_init>
    80002742:	4581                	li	a1,0
    80002744:	00015517          	auipc	a0,0x15
    80002748:	8bc50513          	addi	a0,a0,-1860 # 80017000 <page_root_table>
    8000274c:	00000097          	auipc	ra,0x0
    80002750:	c6e080e7          	jalr	-914(ra) # 800023ba <pte_common_addr_to_ppn>
    80002754:	459d                	li	a1,7
    80002756:	00015517          	auipc	a0,0x15
    8000275a:	8aa50513          	addi	a0,a0,-1878 # 80017000 <page_root_table>
    8000275e:	00000097          	auipc	ra,0x0
    80002762:	c26080e7          	jalr	-986(ra) # 80002384 <pte_common_set_accessibility>
    80002766:	00015517          	auipc	a0,0x15
    8000276a:	89a50513          	addi	a0,a0,-1894 # 80017000 <page_root_table>
    8000276e:	00000097          	auipc	ra,0x0
    80002772:	c84080e7          	jalr	-892(ra) # 800023f2 <pte_common_enable_entry>
    80002776:	00015517          	auipc	a0,0x15
    8000277a:	88a50513          	addi	a0,a0,-1910 # 80017000 <page_root_table>
    8000277e:	00000097          	auipc	ra,0x0
    80002782:	ca6080e7          	jalr	-858(ra) # 80002424 <pte_common_enable_user>
    80002786:	400005b7          	lui	a1,0x40000
    8000278a:	00015517          	auipc	a0,0x15
    8000278e:	87e50513          	addi	a0,a0,-1922 # 80017008 <page_root_table+0x8>
    80002792:	00000097          	auipc	ra,0x0
    80002796:	c28080e7          	jalr	-984(ra) # 800023ba <pte_common_addr_to_ppn>
    8000279a:	459d                	li	a1,7
    8000279c:	00015517          	auipc	a0,0x15
    800027a0:	86c50513          	addi	a0,a0,-1940 # 80017008 <page_root_table+0x8>
    800027a4:	00000097          	auipc	ra,0x0
    800027a8:	be0080e7          	jalr	-1056(ra) # 80002384 <pte_common_set_accessibility>
    800027ac:	00015517          	auipc	a0,0x15
    800027b0:	85c50513          	addi	a0,a0,-1956 # 80017008 <page_root_table+0x8>
    800027b4:	00000097          	auipc	ra,0x0
    800027b8:	c3e080e7          	jalr	-962(ra) # 800023f2 <pte_common_enable_entry>
    800027bc:	00015517          	auipc	a0,0x15
    800027c0:	84c50513          	addi	a0,a0,-1972 # 80017008 <page_root_table+0x8>
    800027c4:	00000097          	auipc	ra,0x0
    800027c8:	c60080e7          	jalr	-928(ra) # 80002424 <pte_common_enable_user>
    800027cc:	4585                	li	a1,1
    800027ce:	05fe                	slli	a1,a1,0x1f
    800027d0:	00015517          	auipc	a0,0x15
    800027d4:	84050513          	addi	a0,a0,-1984 # 80017010 <page_root_table+0x10>
    800027d8:	00000097          	auipc	ra,0x0
    800027dc:	be2080e7          	jalr	-1054(ra) # 800023ba <pte_common_addr_to_ppn>
    800027e0:	459d                	li	a1,7
    800027e2:	00015517          	auipc	a0,0x15
    800027e6:	82e50513          	addi	a0,a0,-2002 # 80017010 <page_root_table+0x10>
    800027ea:	00000097          	auipc	ra,0x0
    800027ee:	b9a080e7          	jalr	-1126(ra) # 80002384 <pte_common_set_accessibility>
    800027f2:	00015517          	auipc	a0,0x15
    800027f6:	81e50513          	addi	a0,a0,-2018 # 80017010 <page_root_table+0x10>
    800027fa:	00000097          	auipc	ra,0x0
    800027fe:	bf8080e7          	jalr	-1032(ra) # 800023f2 <pte_common_enable_entry>
    80002802:	00015517          	auipc	a0,0x15
    80002806:	80e50513          	addi	a0,a0,-2034 # 80017010 <page_root_table+0x10>
    8000280a:	00000097          	auipc	ra,0x0
    8000280e:	c1a080e7          	jalr	-998(ra) # 80002424 <pte_common_enable_user>
    80002812:	440d                	li	s0,3
    80002814:	00014997          	auipc	s3,0x14
    80002818:	7ec98993          	addi	s3,s3,2028 # 80017000 <page_root_table>
    8000281c:	4921                	li	s2,8
    8000281e:	00341493          	slli	s1,s0,0x3
    80002822:	94ce                	add	s1,s1,s3
    80002824:	4581                	li	a1,0
    80002826:	8526                	mv	a0,s1
    80002828:	00000097          	auipc	ra,0x0
    8000282c:	b5c080e7          	jalr	-1188(ra) # 80002384 <pte_common_set_accessibility>
    80002830:	8526                	mv	a0,s1
    80002832:	0405                	addi	s0,s0,1
    80002834:	00000097          	auipc	ra,0x0
    80002838:	bbe080e7          	jalr	-1090(ra) # 800023f2 <pte_common_enable_entry>
    8000283c:	ff2411e3          	bne	s0,s2,8000281e <machine_main+0x10c>
    80002840:	00014517          	auipc	a0,0x14
    80002844:	7c050513          	addi	a0,a0,1984 # 80017000 <page_root_table>
    80002848:	00000097          	auipc	ra,0x0
    8000284c:	c2e080e7          	jalr	-978(ra) # 80002476 <pte_set_root_page_table>
    80002850:	00000097          	auipc	ra,0x0
    80002854:	be8080e7          	jalr	-1048(ra) # 80002438 <pte_entry_sv39>
    80002858:	04000593          	li	a1,64
    8000285c:	00014517          	auipc	a0,0x14
    80002860:	7a450513          	addi	a0,a0,1956 # 80017000 <page_root_table>
    80002864:	fffff097          	auipc	ra,0xfffff
    80002868:	66c080e7          	jalr	1644(ra) # 80001ed0 <syslog_dump_memory>
    8000286c:	fffff097          	auipc	ra,0xfffff
    80002870:	43e080e7          	jalr	1086(ra) # 80001caa <sysctl_disable_irq>
    80002874:	40300593          	li	a1,1027
    80002878:	4505                	li	a0,1
    8000287a:	05d6                	slli	a1,a1,0x15
    8000287c:	057e                	slli	a0,a0,0x1f
    8000287e:	00002097          	auipc	ra,0x2
    80002882:	310080e7          	jalr	784(ra) # 80004b8e <mem_init>
    80002886:	03300793          	li	a5,51
    8000288a:	1782                	slli	a5,a5,0x20
    8000288c:	07b1                	addi	a5,a5,12
    8000288e:	e43e                	sd	a5,8(sp)
    80002890:	4795                	li	a5,5
    80002892:	178a                	slli	a5,a5,0x22
    80002894:	07d9                	addi	a5,a5,22
    80002896:	e83e                	sd	a5,16(sp)
    80002898:	7e300793          	li	a5,2019
    8000289c:	1782                	slli	a5,a5,0x20
    8000289e:	07ad                	addi	a5,a5,11
    800028a0:	0028                	addi	a0,sp,8
    800028a2:	ec3e                	sd	a5,24(sp)
    800028a4:	00002097          	auipc	ra,0x2
    800028a8:	942080e7          	jalr	-1726(ra) # 800041e6 <kernel_mktime>
    800028ac:	0000d797          	auipc	a5,0xd
    800028b0:	34a7be23          	sd	a0,860(a5) # 8000fc08 <startup_time>
    800028b4:	00001097          	auipc	ra,0x1
    800028b8:	458080e7          	jalr	1112(ra) # 80003d0c <sched_init>
    800028bc:	fffff097          	auipc	ra,0xfffff
    800028c0:	3de080e7          	jalr	990(ra) # 80001c9a <sysctl_enable_irq>
    800028c4:	00000517          	auipc	a0,0x0
    800028c8:	dde50513          	addi	a0,a0,-546 # 800026a2 <user_main>
    800028cc:	00000097          	auipc	ra,0x0
    800028d0:	92a080e7          	jalr	-1750(ra) # 800021f6 <privilege_to_user>
    800028d4:	0000a797          	auipc	a5,0xa
    800028d8:	0a478793          	addi	a5,a5,164 # 8000c978 <CSWTCH.3+0x2f0>
    800028dc:	0007bc03          	ld	s8,0(a5)
    800028e0:	698d                	lui	s3,0x3
    800028e2:	690d                	lui	s2,0x3
    800028e4:	0000ab97          	auipc	s7,0xa
    800028e8:	09cb8b93          	addi	s7,s7,156 # 8000c980 <CSWTCH.3+0x2f8>
    800028ec:	0000ab17          	auipc	s6,0xa
    800028f0:	09cb0b13          	addi	s6,s6,156 # 8000c988 <CSWTCH.3+0x300>
    800028f4:	0399899b          	addiw	s3,s3,57
    800028f8:	03990913          	addi	s2,s2,57 # 3039 <_stack_size-0x4fc7>
    800028fc:	0000a417          	auipc	s0,0xa
    80002900:	0fc40413          	addi	s0,s0,252 # 8000c9f8 <CSWTCH.3+0x370>
    80002904:	0000aa97          	auipc	s5,0xa
    80002908:	094a8a93          	addi	s5,s5,148 # 8000c998 <CSWTCH.3+0x310>
    8000290c:	0000aa17          	auipc	s4,0xa
    80002910:	09ca0a13          	addi	s4,s4,156 # 8000c9a8 <CSWTCH.3+0x320>
    80002914:	e462                	sd	s8,8(sp)
    80002916:	00002097          	auipc	ra,0x2
    8000291a:	c1c080e7          	jalr	-996(ra) # 80004532 <get_free_page>
    8000291e:	84aa                	mv	s1,a0
    80002920:	862a                	mv	a2,a0
    80002922:	85de                	mv	a1,s7
    80002924:	855a                	mv	a0,s6
    80002926:	fffff097          	auipc	ra,0xfffff
    8000292a:	4c6080e7          	jalr	1222(ra) # 80001dec <syslog_info>
    8000292e:	864a                	mv	a2,s2
    80002930:	85a2                	mv	a1,s0
    80002932:	8556                	mv	a0,s5
    80002934:	0134a023          	sw	s3,0(s1)
    80002938:	fffff097          	auipc	ra,0xfffff
    8000293c:	4b4080e7          	jalr	1204(ra) # 80001dec <syslog_info>
    80002940:	8526                	mv	a0,s1
    80002942:	00002097          	auipc	ra,0x2
    80002946:	cb2080e7          	jalr	-846(ra) # 800045f4 <free_page>
    8000294a:	85a2                	mv	a1,s0
    8000294c:	8552                	mv	a0,s4
    8000294e:	4605                	li	a2,1
    80002950:	fffff097          	auipc	ra,0xfffff
    80002954:	4e8080e7          	jalr	1256(ra) # 80001e38 <syslog_warning>
    80002958:	85a2                	mv	a1,s0
    8000295a:	4609                	li	a2,2
    8000295c:	0000a517          	auipc	a0,0xa
    80002960:	05450513          	addi	a0,a0,84 # 8000c9b0 <CSWTCH.3+0x328>
    80002964:	fffff097          	auipc	ra,0xfffff
    80002968:	520080e7          	jalr	1312(ra) # 80001e84 <syslog_error>
    8000296c:	00000097          	auipc	ra,0x0
    80002970:	970080e7          	jalr	-1680(ra) # 800022dc <privilege_get_cur_level>
    80002974:	2501                	sext.w	a0,a0
    80002976:	fffff097          	auipc	ra,0xfffff
    8000297a:	678080e7          	jalr	1656(ra) # 80001fee <privilege_getstring>
    8000297e:	862a                	mv	a2,a0
    80002980:	0000a597          	auipc	a1,0xa
    80002984:	cd058593          	addi	a1,a1,-816 # 8000c650 <CSWTCH.33+0xf8>
    80002988:	0000a517          	auipc	a0,0xa
    8000298c:	03050513          	addi	a0,a0,48 # 8000c9b8 <CSWTCH.3+0x330>
    80002990:	fffff097          	auipc	ra,0xfffff
    80002994:	45c080e7          	jalr	1116(ra) # 80001dec <syslog_info>
    80002998:	4621                	li	a2,8
    8000299a:	85a2                	mv	a1,s0
    8000299c:	0000a517          	auipc	a0,0xa
    800029a0:	02450513          	addi	a0,a0,36 # 8000c9c0 <CSWTCH.3+0x338>
    800029a4:	fffff097          	auipc	ra,0xfffff
    800029a8:	448080e7          	jalr	1096(ra) # 80001dec <syslog_info>
    800029ac:	3e800513          	li	a0,1000
    800029b0:	ffffe097          	auipc	ra,0xffffe
    800029b4:	a28080e7          	jalr	-1496(ra) # 800003d8 <msleep>
    800029b8:	bfb1                	j	80002914 <machine_main+0x202>

00000000800029ba <supervisor_interrupt_handler>:
    800029ba:	1101                	addi	sp,sp,-32
    800029bc:	e822                	sd	s0,16(sp)
    800029be:	e426                	sd	s1,8(sp)
    800029c0:	862a                	mv	a2,a0
    800029c2:	84aa                	mv	s1,a0
    800029c4:	842e                	mv	s0,a1
    800029c6:	0000a517          	auipc	a0,0xa
    800029ca:	03a50513          	addi	a0,a0,58 # 8000ca00 <CSWTCH.3+0x378>
    800029ce:	0000a597          	auipc	a1,0xa
    800029d2:	02258593          	addi	a1,a1,34 # 8000c9f0 <CSWTCH.3+0x368>
    800029d6:	ec06                	sd	ra,24(sp)
    800029d8:	fffff097          	auipc	ra,0xfffff
    800029dc:	414080e7          	jalr	1044(ra) # 80001dec <syslog_info>
    800029e0:	47ad                	li	a5,11
    800029e2:	00f49963          	bne	s1,a5,800029f4 <supervisor_interrupt_handler+0x3a>
    800029e6:	85a2                	mv	a1,s0
    800029e8:	452d                	li	a0,11
    800029ea:	ffffe097          	auipc	ra,0xffffe
    800029ee:	d84080e7          	jalr	-636(ra) # 8000076e <handle_irq_s_ext>
    800029f2:	842a                	mv	s0,a0
    800029f4:	8522                	mv	a0,s0
    800029f6:	60e2                	ld	ra,24(sp)
    800029f8:	6442                	ld	s0,16(sp)
    800029fa:	64a2                	ld	s1,8(sp)
    800029fc:	6105                	addi	sp,sp,32
    800029fe:	8082                	ret

0000000080002a00 <supervisor_exception_handler>:
    80002a00:	1101                	addi	sp,sp,-32
    80002a02:	e822                	sd	s0,16(sp)
    80002a04:	e426                	sd	s1,8(sp)
    80002a06:	ec06                	sd	ra,24(sp)
    80002a08:	47ad                	li	a5,11
    80002a0a:	842a                	mv	s0,a0
    80002a0c:	84ae                	mv	s1,a1
    80002a0e:	0000a697          	auipc	a3,0xa
    80002a12:	1a268693          	addi	a3,a3,418 # 8000cbb0 <CSWTCH.0+0x190>
    80002a16:	00a7ea63          	bltu	a5,a0,80002a2a <supervisor_exception_handler+0x2a>
    80002a1a:	00351713          	slli	a4,a0,0x3
    80002a1e:	0000a797          	auipc	a5,0xa
    80002a22:	00278793          	addi	a5,a5,2 # 8000ca20 <CSWTCH.0>
    80002a26:	97ba                	add	a5,a5,a4
    80002a28:	6394                	ld	a3,0(a5)
    80002a2a:	8622                	mv	a2,s0
    80002a2c:	0000a597          	auipc	a1,0xa
    80002a30:	19c58593          	addi	a1,a1,412 # 8000cbc8 <CSWTCH.0+0x1a8>
    80002a34:	0000a517          	auipc	a0,0xa
    80002a38:	1a450513          	addi	a0,a0,420 # 8000cbd8 <CSWTCH.0+0x1b8>
    80002a3c:	fffff097          	auipc	ra,0xfffff
    80002a40:	448080e7          	jalr	1096(ra) # 80001e84 <syslog_error>
    80002a44:	1461                	addi	s0,s0,-8
    80002a46:	478d                	li	a5,3
    80002a48:	0087f363          	bleu	s0,a5,80002a4e <supervisor_exception_handler+0x4e>
    80002a4c:	a001                	j	80002a4c <supervisor_exception_handler+0x4c>
    80002a4e:	60e2                	ld	ra,24(sp)
    80002a50:	6442                	ld	s0,16(sp)
    80002a52:	8526                	mv	a0,s1
    80002a54:	64a2                	ld	s1,8(sp)
    80002a56:	6105                	addi	sp,sp,32
    80002a58:	8082                	ret

0000000080002a5a <machine_syscall>:
    80002a5a:	6930                	ld	a2,80(a0)
    80002a5c:	1141                	addi	sp,sp,-16
    80002a5e:	e022                	sd	s0,0(sp)
    80002a60:	0000a597          	auipc	a1,0xa
    80002a64:	28858593          	addi	a1,a1,648 # 8000cce8 <CSWTCH.0+0x2c8>
    80002a68:	842a                	mv	s0,a0
    80002a6a:	0000a517          	auipc	a0,0xa
    80002a6e:	28e50513          	addi	a0,a0,654 # 8000ccf8 <CSWTCH.0+0x2d8>
    80002a72:	e406                	sd	ra,8(sp)
    80002a74:	fffff097          	auipc	ra,0xfffff
    80002a78:	378080e7          	jalr	888(ra) # 80001dec <syslog_info>
    80002a7c:	683c                	ld	a5,80(s0)
    80002a7e:	eb85                	bnez	a5,80002aae <machine_syscall+0x54>
    80002a80:	304027f3          	csrr	a5,mie
    80002a84:	6705                	lui	a4,0x1
    80002a86:	80070713          	addi	a4,a4,-2048 # 800 <_stack_size-0x7800>
    80002a8a:	8fd9                	or	a5,a5,a4
    80002a8c:	30479073          	csrw	mie,a5
    80002a90:	6402                	ld	s0,0(sp)
    80002a92:	60a2                	ld	ra,8(sp)
    80002a94:	0000a597          	auipc	a1,0xa
    80002a98:	27458593          	addi	a1,a1,628 # 8000cd08 <CSWTCH.0+0x2e8>
    80002a9c:	0000a517          	auipc	a0,0xa
    80002aa0:	25c50513          	addi	a0,a0,604 # 8000ccf8 <CSWTCH.0+0x2d8>
    80002aa4:	0141                	addi	sp,sp,16
    80002aa6:	fffff317          	auipc	t1,0xfffff
    80002aaa:	34630067          	jr	838(t1) # 80001dec <syslog_info>
    80002aae:	60a2                	ld	ra,8(sp)
    80002ab0:	6402                	ld	s0,0(sp)
    80002ab2:	0141                	addi	sp,sp,16
    80002ab4:	8082                	ret

0000000080002ab6 <machine_exception_handler>:
    80002ab6:	00014797          	auipc	a5,0x14
    80002aba:	5ac7b523          	sd	a2,1450(a5) # 80017060 <trap_info+0x10>
    80002abe:	00014797          	auipc	a5,0x14
    80002ac2:	5ad7b523          	sd	a3,1450(a5) # 80017068 <trap_info+0x18>
    80002ac6:	00014797          	auipc	a5,0x14
    80002aca:	58b7b523          	sd	a1,1418(a5) # 80017050 <trap_info>
    80002ace:	7179                	addi	sp,sp,-48
    80002ad0:	00458793          	addi	a5,a1,4
    80002ad4:	f022                	sd	s0,32(sp)
    80002ad6:	ec26                	sd	s1,24(sp)
    80002ad8:	e84a                	sd	s2,16(sp)
    80002ada:	e44e                	sd	s3,8(sp)
    80002adc:	00014717          	auipc	a4,0x14
    80002ae0:	56f73e23          	sd	a5,1404(a4) # 80017058 <trap_info+0x8>
    80002ae4:	f406                	sd	ra,40(sp)
    80002ae6:	47ad                	li	a5,11
    80002ae8:	84aa                	mv	s1,a0
    80002aea:	89ae                	mv	s3,a1
    80002aec:	8432                	mv	s0,a2
    80002aee:	8936                	mv	s2,a3
    80002af0:	0ca7e963          	bltu	a5,a0,80002bc2 <machine_exception_handler+0x10c>
    80002af4:	0000a697          	auipc	a3,0xa
    80002af8:	10468693          	addi	a3,a3,260 # 8000cbf8 <CSWTCH.0+0x1d8>
    80002afc:	00251713          	slli	a4,a0,0x2
    80002b00:	9736                	add	a4,a4,a3
    80002b02:	431c                	lw	a5,0(a4)
    80002b04:	97b6                	add	a5,a5,a3
    80002b06:	8782                	jr	a5
    80002b08:	0000a697          	auipc	a3,0xa
    80002b0c:	f9868693          	addi	a3,a3,-104 # 8000caa0 <CSWTCH.0+0x80>
    80002b10:	8626                	mv	a2,s1
    80002b12:	0000a597          	auipc	a1,0xa
    80002b16:	0b658593          	addi	a1,a1,182 # 8000cbc8 <CSWTCH.0+0x1a8>
    80002b1a:	0000a517          	auipc	a0,0xa
    80002b1e:	10e50513          	addi	a0,a0,270 # 8000cc28 <CSWTCH.0+0x208>
    80002b22:	fffff097          	auipc	ra,0xfffff
    80002b26:	362080e7          	jalr	866(ra) # 80001e84 <syslog_error>
    80002b2a:	479d                	li	a5,7
    80002b2c:	0cf48263          	beq	s1,a5,80002bf0 <machine_exception_handler+0x13a>
    80002b30:	0a97e363          	bltu	a5,s1,80002bd6 <machine_exception_handler+0x120>
    80002b34:	4795                	li	a5,5
    80002b36:	0af48d63          	beq	s1,a5,80002bf0 <machine_exception_handler+0x13a>
    80002b3a:	14e1                	addi	s1,s1,-8
    80002b3c:	478d                	li	a5,3
    80002b3e:	1297fe63          	bleu	s1,a5,80002c7a <machine_exception_handler+0x1c4>
    80002b42:	0000a597          	auipc	a1,0xa
    80002b46:	19658593          	addi	a1,a1,406 # 8000ccd8 <CSWTCH.0+0x2b8>
    80002b4a:	0000a517          	auipc	a0,0xa
    80002b4e:	0de50513          	addi	a0,a0,222 # 8000cc28 <CSWTCH.0+0x208>
    80002b52:	fffff097          	auipc	ra,0xfffff
    80002b56:	29a080e7          	jalr	666(ra) # 80001dec <syslog_info>
    80002b5a:	a001                	j	80002b5a <machine_exception_handler+0xa4>
    80002b5c:	0000a697          	auipc	a3,0xa
    80002b60:	f6468693          	addi	a3,a3,-156 # 8000cac0 <CSWTCH.0+0xa0>
    80002b64:	b775                	j	80002b10 <machine_exception_handler+0x5a>
    80002b66:	0000a697          	auipc	a3,0xa
    80002b6a:	f7268693          	addi	a3,a3,-142 # 8000cad8 <CSWTCH.0+0xb8>
    80002b6e:	b74d                	j	80002b10 <machine_exception_handler+0x5a>
    80002b70:	0000a697          	auipc	a3,0xa
    80002b74:	f7868693          	addi	a3,a3,-136 # 8000cae8 <CSWTCH.0+0xc8>
    80002b78:	bf61                	j	80002b10 <machine_exception_handler+0x5a>
    80002b7a:	0000a697          	auipc	a3,0xa
    80002b7e:	f8668693          	addi	a3,a3,-122 # 8000cb00 <CSWTCH.0+0xe0>
    80002b82:	b779                	j	80002b10 <machine_exception_handler+0x5a>
    80002b84:	0000a697          	auipc	a3,0xa
    80002b88:	f9468693          	addi	a3,a3,-108 # 8000cb18 <CSWTCH.0+0xf8>
    80002b8c:	b751                	j	80002b10 <machine_exception_handler+0x5a>
    80002b8e:	0000a697          	auipc	a3,0xa
    80002b92:	faa68693          	addi	a3,a3,-86 # 8000cb38 <CSWTCH.0+0x118>
    80002b96:	bfad                	j	80002b10 <machine_exception_handler+0x5a>
    80002b98:	0000a697          	auipc	a3,0xa
    80002b9c:	fb868693          	addi	a3,a3,-72 # 8000cb50 <CSWTCH.0+0x130>
    80002ba0:	bf85                	j	80002b10 <machine_exception_handler+0x5a>
    80002ba2:	85ca                	mv	a1,s2
    80002ba4:	8532                	mv	a0,a2
    80002ba6:	00000097          	auipc	ra,0x0
    80002baa:	eb4080e7          	jalr	-332(ra) # 80002a5a <machine_syscall>
    80002bae:	0000a697          	auipc	a3,0xa
    80002bb2:	fc268693          	addi	a3,a3,-62 # 8000cb70 <CSWTCH.0+0x150>
    80002bb6:	bfa9                	j	80002b10 <machine_exception_handler+0x5a>
    80002bb8:	0000a697          	auipc	a3,0xa
    80002bbc:	fd868693          	addi	a3,a3,-40 # 8000cb90 <CSWTCH.0+0x170>
    80002bc0:	bf81                	j	80002b10 <machine_exception_handler+0x5a>
    80002bc2:	0000a697          	auipc	a3,0xa
    80002bc6:	fee68693          	addi	a3,a3,-18 # 8000cbb0 <CSWTCH.0+0x190>
    80002bca:	b799                	j	80002b10 <machine_exception_handler+0x5a>
    80002bcc:	0000a697          	auipc	a3,0xa
    80002bd0:	eb468693          	addi	a3,a3,-332 # 8000ca80 <CSWTCH.0+0x60>
    80002bd4:	bf35                	j	80002b10 <machine_exception_handler+0x5a>
    80002bd6:	47a1                	li	a5,8
    80002bd8:	02f48363          	beq	s1,a5,80002bfe <machine_exception_handler+0x148>
    80002bdc:	47a5                	li	a5,9
    80002bde:	f4f49ee3          	bne	s1,a5,80002b3a <machine_exception_handler+0x84>
    80002be2:	85ca                	mv	a1,s2
    80002be4:	8522                	mv	a0,s0
    80002be6:	00000097          	auipc	ra,0x0
    80002bea:	e74080e7          	jalr	-396(ra) # 80002a5a <machine_syscall>
    80002bee:	b7b1                	j	80002b3a <machine_exception_handler+0x84>
    80002bf0:	34302573          	csrr	a0,mtval
    80002bf4:	00002097          	auipc	ra,0x2
    80002bf8:	f34080e7          	jalr	-204(ra) # 80004b28 <do_no_page>
    80002bfc:	bf3d                	j	80002b3a <machine_exception_handler+0x84>
    80002bfe:	603c                	ld	a5,64(s0)
    80002c00:	6830                	ld	a2,80(s0)
    80002c02:	874e                	mv	a4,s3
    80002c04:	00001697          	auipc	a3,0x1
    80002c08:	71868693          	addi	a3,a3,1816 # 8000431c <system_call>
    80002c0c:	0000a597          	auipc	a1,0xa
    80002c10:	03c58593          	addi	a1,a1,60 # 8000cc48 <CSWTCH.0+0x228>
    80002c14:	0000a517          	auipc	a0,0xa
    80002c18:	06c50513          	addi	a0,a0,108 # 8000cc80 <CSWTCH.0+0x260>
    80002c1c:	fffff097          	auipc	ra,0xfffff
    80002c20:	1d0080e7          	jalr	464(ra) # 80001dec <syslog_info>
    80002c24:	7438                	ld	a4,104(s0)
    80002c26:	7034                	ld	a3,96(s0)
    80002c28:	6c30                	ld	a2,88(s0)
    80002c2a:	0000a597          	auipc	a1,0xa
    80002c2e:	06e58593          	addi	a1,a1,110 # 8000cc98 <CSWTCH.0+0x278>
    80002c32:	0000a517          	auipc	a0,0xa
    80002c36:	04e50513          	addi	a0,a0,78 # 8000cc80 <CSWTCH.0+0x260>
    80002c3a:	fffff097          	auipc	ra,0xfffff
    80002c3e:	1b2080e7          	jalr	434(ra) # 80001dec <syslog_info>
    80002c42:	7434                	ld	a3,104(s0)
    80002c44:	7030                	ld	a2,96(s0)
    80002c46:	6c2c                	ld	a1,88(s0)
    80002c48:	6828                	ld	a0,80(s0)
    80002c4a:	00001097          	auipc	ra,0x1
    80002c4e:	6d2080e7          	jalr	1746(ra) # 8000431c <system_call>
    80002c52:	00014797          	auipc	a5,0x14
    80002c56:	3fe78793          	addi	a5,a5,1022 # 80017050 <trap_info>
    80002c5a:	6038                	ld	a4,64(s0)
    80002c5c:	6414                	ld	a3,8(s0)
    80002c5e:	6790                	ld	a2,8(a5)
    80002c60:	0000a597          	auipc	a1,0xa
    80002c64:	05858593          	addi	a1,a1,88 # 8000ccb8 <CSWTCH.0+0x298>
    80002c68:	0000a517          	auipc	a0,0xa
    80002c6c:	01850513          	addi	a0,a0,24 # 8000cc80 <CSWTCH.0+0x260>
    80002c70:	fffff097          	auipc	ra,0xfffff
    80002c74:	17c080e7          	jalr	380(ra) # 80001dec <syslog_info>
    80002c78:	b5c9                	j	80002b3a <machine_exception_handler+0x84>
    80002c7a:	70a2                	ld	ra,40(sp)
    80002c7c:	7402                	ld	s0,32(sp)
    80002c7e:	00014797          	auipc	a5,0x14
    80002c82:	3d278793          	addi	a5,a5,978 # 80017050 <trap_info>
    80002c86:	6788                	ld	a0,8(a5)
    80002c88:	64e2                	ld	s1,24(sp)
    80002c8a:	6942                	ld	s2,16(sp)
    80002c8c:	69a2                	ld	s3,8(sp)
    80002c8e:	6145                	addi	sp,sp,48
    80002c90:	8082                	ret

0000000080002c92 <machine_interrupt_handler>:
    80002c92:	7179                	addi	sp,sp,-48
    80002c94:	ec26                	sd	s1,24(sp)
    80002c96:	e44e                	sd	s3,8(sp)
    80002c98:	84ae                	mv	s1,a1
    80002c9a:	e052                	sd	s4,0(sp)
    80002c9c:	89b2                	mv	s3,a2
    80002c9e:	0000a597          	auipc	a1,0xa
    80002ca2:	d5258593          	addi	a1,a1,-686 # 8000c9f0 <CSWTCH.3+0x368>
    80002ca6:	862a                	mv	a2,a0
    80002ca8:	8a2a                	mv	s4,a0
    80002caa:	0000a517          	auipc	a0,0xa
    80002cae:	06650513          	addi	a0,a0,102 # 8000cd10 <CSWTCH.0+0x2f0>
    80002cb2:	f406                	sd	ra,40(sp)
    80002cb4:	f022                	sd	s0,32(sp)
    80002cb6:	e84a                	sd	s2,16(sp)
    80002cb8:	00014417          	auipc	s0,0x14
    80002cbc:	39840413          	addi	s0,s0,920 # 80017050 <trap_info>
    80002cc0:	8936                	mv	s2,a3
    80002cc2:	fffff097          	auipc	ra,0xfffff
    80002cc6:	12a080e7          	jalr	298(ra) # 80001dec <syslog_info>
    80002cca:	6808                	ld	a0,16(s0)
    80002ccc:	10000613          	li	a2,256
    80002cd0:	85ce                	mv	a1,s3
    80002cd2:	00004097          	auipc	ra,0x4
    80002cd6:	b68080e7          	jalr	-1176(ra) # 8000683a <memcpy>
    80002cda:	6c08                	ld	a0,24(s0)
    80002cdc:	10000613          	li	a2,256
    80002ce0:	85ca                	mv	a1,s2
    80002ce2:	00004097          	auipc	ra,0x4
    80002ce6:	b58080e7          	jalr	-1192(ra) # 8000683a <memcpy>
    80002cea:	00014797          	auipc	a5,0x14
    80002cee:	3697b723          	sd	s1,878(a5) # 80017058 <trap_info+0x8>
    80002cf2:	00014797          	auipc	a5,0x14
    80002cf6:	3497bf23          	sd	s1,862(a5) # 80017050 <trap_info>
    80002cfa:	47ad                	li	a5,11
    80002cfc:	02fa1063          	bne	s4,a5,80002d1c <machine_interrupt_handler+0x8a>
    80002d00:	85a6                	mv	a1,s1
    80002d02:	452d                	li	a0,11
    80002d04:	ffffe097          	auipc	ra,0xffffe
    80002d08:	9bc080e7          	jalr	-1604(ra) # 800006c0 <handle_irq_m_ext>
    80002d0c:	70a2                	ld	ra,40(sp)
    80002d0e:	7402                	ld	s0,32(sp)
    80002d10:	64e2                	ld	s1,24(sp)
    80002d12:	6942                	ld	s2,16(sp)
    80002d14:	69a2                	ld	s3,8(sp)
    80002d16:	6a02                	ld	s4,0(sp)
    80002d18:	6145                	addi	sp,sp,48
    80002d1a:	8082                	ret
    80002d1c:	680c                	ld	a1,16(s0)
    80002d1e:	10000613          	li	a2,256
    80002d22:	854e                	mv	a0,s3
    80002d24:	00004097          	auipc	ra,0x4
    80002d28:	b16080e7          	jalr	-1258(ra) # 8000683a <memcpy>
    80002d2c:	6c0c                	ld	a1,24(s0)
    80002d2e:	10000613          	li	a2,256
    80002d32:	854a                	mv	a0,s2
    80002d34:	00004097          	auipc	ra,0x4
    80002d38:	b06080e7          	jalr	-1274(ra) # 8000683a <memcpy>
    80002d3c:	6408                	ld	a0,8(s0)
    80002d3e:	b7f9                	j	80002d0c <machine_interrupt_handler+0x7a>

0000000080002d40 <supervisor_trap_entry_insert_entry>:
    80002d40:	00000513          	li	a0,0
    80002d44:	0505                	addi	a0,a0,1
    80002d46:	342025f3          	csrr	a1,mcause
    80002d4a:	b50ff0ef          	jal	ra,8000209a <privilege_trap_entry>
    80002d4e:	00000293          	li	t0,0
    80002d52:	0285                	addi	t0,t0,1
    80002d54:	34202573          	csrr	a0,mcause
    80002d58:	341025f3          	csrr	a1,mepc
    80002d5c:	00000317          	auipc	t1,0x0
    80002d60:	10430313          	addi	t1,t1,260 # 80002e60 <supervisor_trap_entry_insert>
    80002d64:	34131073          	csrw	mepc,t1
    80002d68:	30405073          	csrwi	mie,0
    80002d6c:	10002373          	csrr	t1,sstatus
    80002d70:	10036313          	ori	t1,t1,256
    80002d74:	10031073          	csrw	sstatus,t1
    80002d78:	140022f3          	csrr	t0,sscratch
    80002d7c:	4305                	li	t1,1
    80002d7e:	0062b023          	sd	t1,0(t0) # 6000 <_stack_size-0x2000>
    80002d82:	30200073          	mret

0000000080002d86 <supervisor_trap_entry>:
    80002d86:	140022f3          	csrr	t0,sscratch
    80002d8a:	0002b023          	sd	zero,0(t0)
    80002d8e:	7101                	addi	sp,sp,-512
    80002d90:	e406                	sd	ra,8(sp)
    80002d92:	e80a                	sd	sp,16(sp)
    80002d94:	ec0e                	sd	gp,24(sp)
    80002d96:	f012                	sd	tp,32(sp)
    80002d98:	f416                	sd	t0,40(sp)
    80002d9a:	f81a                	sd	t1,48(sp)
    80002d9c:	fc1e                	sd	t2,56(sp)
    80002d9e:	e0a2                	sd	s0,64(sp)
    80002da0:	e4a6                	sd	s1,72(sp)
    80002da2:	e8aa                	sd	a0,80(sp)
    80002da4:	ecae                	sd	a1,88(sp)
    80002da6:	f0b2                	sd	a2,96(sp)
    80002da8:	f4b6                	sd	a3,104(sp)
    80002daa:	f8ba                	sd	a4,112(sp)
    80002dac:	fcbe                	sd	a5,120(sp)
    80002dae:	e142                	sd	a6,128(sp)
    80002db0:	e546                	sd	a7,136(sp)
    80002db2:	e94a                	sd	s2,144(sp)
    80002db4:	ed4e                	sd	s3,152(sp)
    80002db6:	f152                	sd	s4,160(sp)
    80002db8:	f556                	sd	s5,168(sp)
    80002dba:	f95a                	sd	s6,176(sp)
    80002dbc:	fd5e                	sd	s7,184(sp)
    80002dbe:	e1e2                	sd	s8,192(sp)
    80002dc0:	e5e6                	sd	s9,200(sp)
    80002dc2:	e9ea                	sd	s10,208(sp)
    80002dc4:	edee                	sd	s11,216(sp)
    80002dc6:	f1f2                	sd	t3,224(sp)
    80002dc8:	f5f6                	sd	t4,232(sp)
    80002dca:	f9fa                	sd	t5,240(sp)
    80002dcc:	fdfe                	sd	t6,248(sp)
    80002dce:	10012027          	fsw	ft0,256(sp)
    80002dd2:	10112427          	fsw	ft1,264(sp)
    80002dd6:	10212827          	fsw	ft2,272(sp)
    80002dda:	10312c27          	fsw	ft3,280(sp)
    80002dde:	12412027          	fsw	ft4,288(sp)
    80002de2:	12512427          	fsw	ft5,296(sp)
    80002de6:	12612827          	fsw	ft6,304(sp)
    80002dea:	12712c27          	fsw	ft7,312(sp)
    80002dee:	14812027          	fsw	fs0,320(sp)
    80002df2:	14912427          	fsw	fs1,328(sp)
    80002df6:	14a12827          	fsw	fa0,336(sp)
    80002dfa:	14b12c27          	fsw	fa1,344(sp)
    80002dfe:	16c12027          	fsw	fa2,352(sp)
    80002e02:	16d12427          	fsw	fa3,360(sp)
    80002e06:	16e12827          	fsw	fa4,368(sp)
    80002e0a:	16f12c27          	fsw	fa5,376(sp)
    80002e0e:	19012027          	fsw	fa6,384(sp)
    80002e12:	19112427          	fsw	fa7,392(sp)
    80002e16:	19212827          	fsw	fs2,400(sp)
    80002e1a:	19312c27          	fsw	fs3,408(sp)
    80002e1e:	1b412027          	fsw	fs4,416(sp)
    80002e22:	1b512427          	fsw	fs5,424(sp)
    80002e26:	1b612827          	fsw	fs6,432(sp)
    80002e2a:	1b712c27          	fsw	fs7,440(sp)
    80002e2e:	1d812027          	fsw	fs8,448(sp)
    80002e32:	1d912427          	fsw	fs9,456(sp)
    80002e36:	1da12827          	fsw	fs10,464(sp)
    80002e3a:	1db12c27          	fsw	fs11,472(sp)
    80002e3e:	1fc12027          	fsw	ft8,480(sp)
    80002e42:	1fd12427          	fsw	ft9,488(sp)
    80002e46:	1fe12827          	fsw	ft10,496(sp)
    80002e4a:	1ff12c27          	fsw	ft11,504(sp)
    80002e4e:	00000513          	li	a0,0
    80002e52:	0505                	addi	a0,a0,1
    80002e54:	142025f3          	csrr	a1,scause
    80002e58:	a42ff0ef          	jal	ra,8000209a <privilege_trap_entry>
    80002e5c:	00000293          	li	t0,0

0000000080002e60 <supervisor_trap_entry_insert>:
    80002e60:	00029663          	bnez	t0,80002e6c <supervisor_trap_entry_insert_2>
    80002e64:	14202573          	csrr	a0,scause
    80002e68:	141025f3          	csrr	a1,sepc

0000000080002e6c <supervisor_trap_entry_insert_2>:
    80002e6c:	860a                	mv	a2,sp
    80002e6e:	0214                	addi	a3,sp,256
    80002e70:	00055d63          	bgez	a0,80002e8a <supervisor_exception_handler_call>
    80002e74:	fff0031b          	addiw	t1,zero,-1
    80002e78:	03f31313          	slli	t1,t1,0x3f
    80002e7c:	fff30313          	addi	t1,t1,-1
    80002e80:	00657533          	and	a0,a0,t1
    80002e84:	b37ff0ef          	jal	ra,800029ba <supervisor_interrupt_handler>
    80002e88:	a019                	j	80002e8e <supervisor_handler_call_ok>

0000000080002e8a <supervisor_exception_handler_call>:
    80002e8a:	b77ff0ef          	jal	ra,80002a00 <supervisor_exception_handler>

0000000080002e8e <supervisor_handler_call_ok>:
    80002e8e:	ac6ff0ef          	jal	ra,80002154 <privilege_trap_exit>
    80002e92:	140022f3          	csrr	t0,sscratch
    80002e96:	0002b303          	ld	t1,0(t0)
    80002e9a:	00030763          	beqz	t1,80002ea8 <supervisor_mie_set_syscall_skip>
    80002e9e:	14151073          	csrw	sepc,a0
    80002ea2:	4501                	li	a0,0
    80002ea4:	00000073          	ecall

0000000080002ea8 <supervisor_mie_set_syscall_skip>:
    80002ea8:	60a2                	ld	ra,8(sp)
    80002eaa:	6142                	ld	sp,16(sp)
    80002eac:	61e2                	ld	gp,24(sp)
    80002eae:	7202                	ld	tp,32(sp)
    80002eb0:	72a2                	ld	t0,40(sp)
    80002eb2:	7342                	ld	t1,48(sp)
    80002eb4:	73e2                	ld	t2,56(sp)
    80002eb6:	6406                	ld	s0,64(sp)
    80002eb8:	64a6                	ld	s1,72(sp)
    80002eba:	6546                	ld	a0,80(sp)
    80002ebc:	65e6                	ld	a1,88(sp)
    80002ebe:	7606                	ld	a2,96(sp)
    80002ec0:	76a6                	ld	a3,104(sp)
    80002ec2:	7746                	ld	a4,112(sp)
    80002ec4:	77e6                	ld	a5,120(sp)
    80002ec6:	680a                	ld	a6,128(sp)
    80002ec8:	68aa                	ld	a7,136(sp)
    80002eca:	694a                	ld	s2,144(sp)
    80002ecc:	69ea                	ld	s3,152(sp)
    80002ece:	7a0a                	ld	s4,160(sp)
    80002ed0:	7aaa                	ld	s5,168(sp)
    80002ed2:	7b4a                	ld	s6,176(sp)
    80002ed4:	7bea                	ld	s7,184(sp)
    80002ed6:	6c0e                	ld	s8,192(sp)
    80002ed8:	6cae                	ld	s9,200(sp)
    80002eda:	6d4e                	ld	s10,208(sp)
    80002edc:	6dee                	ld	s11,216(sp)
    80002ede:	7e0e                	ld	t3,224(sp)
    80002ee0:	7eae                	ld	t4,232(sp)
    80002ee2:	7f4e                	ld	t5,240(sp)
    80002ee4:	7fee                	ld	t6,248(sp)
    80002ee6:	10012007          	flw	ft0,256(sp)
    80002eea:	10812087          	flw	ft1,264(sp)
    80002eee:	11012107          	flw	ft2,272(sp)
    80002ef2:	11812187          	flw	ft3,280(sp)
    80002ef6:	12012207          	flw	ft4,288(sp)
    80002efa:	12812287          	flw	ft5,296(sp)
    80002efe:	13012307          	flw	ft6,304(sp)
    80002f02:	13812387          	flw	ft7,312(sp)
    80002f06:	14012407          	flw	fs0,320(sp)
    80002f0a:	14812487          	flw	fs1,328(sp)
    80002f0e:	15012507          	flw	fa0,336(sp)
    80002f12:	15812587          	flw	fa1,344(sp)
    80002f16:	16012607          	flw	fa2,352(sp)
    80002f1a:	16812687          	flw	fa3,360(sp)
    80002f1e:	17012707          	flw	fa4,368(sp)
    80002f22:	17812787          	flw	fa5,376(sp)
    80002f26:	18012807          	flw	fa6,384(sp)
    80002f2a:	18812887          	flw	fa7,392(sp)
    80002f2e:	19012907          	flw	fs2,400(sp)
    80002f32:	19812987          	flw	fs3,408(sp)
    80002f36:	1a012a07          	flw	fs4,416(sp)
    80002f3a:	1a812a87          	flw	fs5,424(sp)
    80002f3e:	1b012b07          	flw	fs6,432(sp)
    80002f42:	1b812b87          	flw	fs7,440(sp)
    80002f46:	1c012c07          	flw	fs8,448(sp)
    80002f4a:	1c812c87          	flw	fs9,456(sp)
    80002f4e:	1d012d07          	flw	fs10,464(sp)
    80002f52:	1d812d87          	flw	fs11,472(sp)
    80002f56:	1e012e07          	flw	ft8,480(sp)
    80002f5a:	1e812e87          	flw	ft9,488(sp)
    80002f5e:	1f012f07          	flw	ft10,496(sp)
    80002f62:	1f812f87          	flw	ft11,504(sp)
    80002f66:	20010113          	addi	sp,sp,512
    80002f6a:	10200073          	sret

0000000080002f6e <machine_trap_entry>:
    80002f6e:	34011073          	csrw	mscratch,sp
    80002f72:	14129073          	csrw	sepc,t0
    80002f76:	00032117          	auipc	sp,0x32
    80002f7a:	0ca10113          	addi	sp,sp,202 # 80035040 <_trapsp0>
    80002f7e:	f14022f3          	csrr	t0,mhartid
    80002f82:	02be                	slli	t0,t0,0xf
    80002f84:	9116                	add	sp,sp,t0
    80002f86:	7101                	addi	sp,sp,-512
    80002f88:	e406                	sd	ra,8(sp)
    80002f8a:	e80a                	sd	sp,16(sp)
    80002f8c:	ec0e                	sd	gp,24(sp)
    80002f8e:	f012                	sd	tp,32(sp)
    80002f90:	f416                	sd	t0,40(sp)
    80002f92:	f81a                	sd	t1,48(sp)
    80002f94:	fc1e                	sd	t2,56(sp)
    80002f96:	e0a2                	sd	s0,64(sp)
    80002f98:	e4a6                	sd	s1,72(sp)
    80002f9a:	e8aa                	sd	a0,80(sp)
    80002f9c:	ecae                	sd	a1,88(sp)
    80002f9e:	f0b2                	sd	a2,96(sp)
    80002fa0:	f4b6                	sd	a3,104(sp)
    80002fa2:	f8ba                	sd	a4,112(sp)
    80002fa4:	fcbe                	sd	a5,120(sp)
    80002fa6:	e142                	sd	a6,128(sp)
    80002fa8:	e546                	sd	a7,136(sp)
    80002faa:	e94a                	sd	s2,144(sp)
    80002fac:	ed4e                	sd	s3,152(sp)
    80002fae:	f152                	sd	s4,160(sp)
    80002fb0:	f556                	sd	s5,168(sp)
    80002fb2:	f95a                	sd	s6,176(sp)
    80002fb4:	fd5e                	sd	s7,184(sp)
    80002fb6:	e1e2                	sd	s8,192(sp)
    80002fb8:	e5e6                	sd	s9,200(sp)
    80002fba:	e9ea                	sd	s10,208(sp)
    80002fbc:	edee                	sd	s11,216(sp)
    80002fbe:	f1f2                	sd	t3,224(sp)
    80002fc0:	f5f6                	sd	t4,232(sp)
    80002fc2:	f9fa                	sd	t5,240(sp)
    80002fc4:	fdfe                	sd	t6,248(sp)
    80002fc6:	141022f3          	csrr	t0,sepc
    80002fca:	34002373          	csrr	t1,mscratch
    80002fce:	f416                	sd	t0,40(sp)
    80002fd0:	e81a                	sd	t1,16(sp)
    80002fd2:	10012027          	fsw	ft0,256(sp)
    80002fd6:	10112427          	fsw	ft1,264(sp)
    80002fda:	10212827          	fsw	ft2,272(sp)
    80002fde:	10312c27          	fsw	ft3,280(sp)
    80002fe2:	12412027          	fsw	ft4,288(sp)
    80002fe6:	12512427          	fsw	ft5,296(sp)
    80002fea:	12612827          	fsw	ft6,304(sp)
    80002fee:	12712c27          	fsw	ft7,312(sp)
    80002ff2:	14812027          	fsw	fs0,320(sp)
    80002ff6:	14912427          	fsw	fs1,328(sp)
    80002ffa:	14a12827          	fsw	fa0,336(sp)
    80002ffe:	14b12c27          	fsw	fa1,344(sp)
    80003002:	16c12027          	fsw	fa2,352(sp)
    80003006:	16d12427          	fsw	fa3,360(sp)
    8000300a:	16e12827          	fsw	fa4,368(sp)
    8000300e:	16f12c27          	fsw	fa5,376(sp)
    80003012:	19012027          	fsw	fa6,384(sp)
    80003016:	19112427          	fsw	fa7,392(sp)
    8000301a:	19212827          	fsw	fs2,400(sp)
    8000301e:	19312c27          	fsw	fs3,408(sp)
    80003022:	1b412027          	fsw	fs4,416(sp)
    80003026:	1b512427          	fsw	fs5,424(sp)
    8000302a:	1b612827          	fsw	fs6,432(sp)
    8000302e:	1b712c27          	fsw	fs7,440(sp)
    80003032:	1d812027          	fsw	fs8,448(sp)
    80003036:	1d912427          	fsw	fs9,456(sp)
    8000303a:	1da12827          	fsw	fs10,464(sp)
    8000303e:	1db12c27          	fsw	fs11,472(sp)
    80003042:	1fc12027          	fsw	ft8,480(sp)
    80003046:	1fd12427          	fsw	ft9,488(sp)
    8000304a:	1fe12827          	fsw	ft10,496(sp)
    8000304e:	1ff12c27          	fsw	ft11,504(sp)
    80003052:	a821                	j	8000306a <supervisor_trap_check_skip>
    80003054:	300022f3          	csrr	t0,mstatus
    80003058:	00b2d293          	srli	t0,t0,0xb
    8000305c:	0032f293          	andi	t0,t0,3
    80003060:	12f5                	addi	t0,t0,-3
    80003062:	00028463          	beqz	t0,8000306a <supervisor_trap_check_skip>
    80003066:	cdbff06f          	j	80002d40 <supervisor_trap_entry_insert_entry>

000000008000306a <supervisor_trap_check_skip>:
    8000306a:	00000513          	li	a0,0
    8000306e:	050d                	addi	a0,a0,3
    80003070:	342025f3          	csrr	a1,mcause
    80003074:	34102673          	csrr	a2,mepc
    80003078:	343026f3          	csrr	a3,mtval
    8000307c:	81eff0ef          	jal	ra,8000209a <privilege_trap_entry>
    80003080:	34202573          	csrr	a0,mcause
    80003084:	341025f3          	csrr	a1,mepc
    80003088:	860a                	mv	a2,sp
    8000308a:	0214                	addi	a3,sp,256
    8000308c:	00055d63          	bgez	a0,800030a6 <machine_exception_handler_call>
    80003090:	fff0031b          	addiw	t1,zero,-1
    80003094:	03f31313          	slli	t1,t1,0x3f
    80003098:	fff30313          	addi	t1,t1,-1
    8000309c:	00657533          	and	a0,a0,t1
    800030a0:	bf3ff0ef          	jal	ra,80002c92 <machine_interrupt_handler>
    800030a4:	a019                	j	800030aa <machine_handler_call_ok>

00000000800030a6 <machine_exception_handler_call>:
    800030a6:	a11ff0ef          	jal	ra,80002ab6 <machine_exception_handler>

00000000800030aa <machine_handler_call_ok>:
    800030aa:	34151073          	csrw	mepc,a0
    800030ae:	8a6ff0ef          	jal	ra,80002154 <privilege_trap_exit>
    800030b2:	60a2                	ld	ra,8(sp)
    800030b4:	61e2                	ld	gp,24(sp)
    800030b6:	7202                	ld	tp,32(sp)
    800030b8:	72a2                	ld	t0,40(sp)
    800030ba:	7342                	ld	t1,48(sp)
    800030bc:	73e2                	ld	t2,56(sp)
    800030be:	6406                	ld	s0,64(sp)
    800030c0:	64a6                	ld	s1,72(sp)
    800030c2:	6546                	ld	a0,80(sp)
    800030c4:	65e6                	ld	a1,88(sp)
    800030c6:	7606                	ld	a2,96(sp)
    800030c8:	76a6                	ld	a3,104(sp)
    800030ca:	7746                	ld	a4,112(sp)
    800030cc:	77e6                	ld	a5,120(sp)
    800030ce:	680a                	ld	a6,128(sp)
    800030d0:	68aa                	ld	a7,136(sp)
    800030d2:	694a                	ld	s2,144(sp)
    800030d4:	69ea                	ld	s3,152(sp)
    800030d6:	7a0a                	ld	s4,160(sp)
    800030d8:	7aaa                	ld	s5,168(sp)
    800030da:	7b4a                	ld	s6,176(sp)
    800030dc:	7bea                	ld	s7,184(sp)
    800030de:	6c0e                	ld	s8,192(sp)
    800030e0:	6cae                	ld	s9,200(sp)
    800030e2:	6d4e                	ld	s10,208(sp)
    800030e4:	6dee                	ld	s11,216(sp)
    800030e6:	7e0e                	ld	t3,224(sp)
    800030e8:	7eae                	ld	t4,232(sp)
    800030ea:	7f4e                	ld	t5,240(sp)
    800030ec:	7fee                	ld	t6,248(sp)
    800030ee:	10012007          	flw	ft0,256(sp)
    800030f2:	10812087          	flw	ft1,264(sp)
    800030f6:	11012107          	flw	ft2,272(sp)
    800030fa:	11812187          	flw	ft3,280(sp)
    800030fe:	12012207          	flw	ft4,288(sp)
    80003102:	12812287          	flw	ft5,296(sp)
    80003106:	13012307          	flw	ft6,304(sp)
    8000310a:	13812387          	flw	ft7,312(sp)
    8000310e:	14012407          	flw	fs0,320(sp)
    80003112:	14812487          	flw	fs1,328(sp)
    80003116:	15012507          	flw	fa0,336(sp)
    8000311a:	15812587          	flw	fa1,344(sp)
    8000311e:	16012607          	flw	fa2,352(sp)
    80003122:	16812687          	flw	fa3,360(sp)
    80003126:	17012707          	flw	fa4,368(sp)
    8000312a:	17812787          	flw	fa5,376(sp)
    8000312e:	18012807          	flw	fa6,384(sp)
    80003132:	18812887          	flw	fa7,392(sp)
    80003136:	19012907          	flw	fs2,400(sp)
    8000313a:	19812987          	flw	fs3,408(sp)
    8000313e:	1a012a07          	flw	fs4,416(sp)
    80003142:	1a812a87          	flw	fs5,424(sp)
    80003146:	1b012b07          	flw	fs6,432(sp)
    8000314a:	1b812b87          	flw	fs7,440(sp)
    8000314e:	1c012c07          	flw	fs8,448(sp)
    80003152:	1c812c87          	flw	fs9,456(sp)
    80003156:	1d012d07          	flw	fs10,464(sp)
    8000315a:	1d812d87          	flw	fs11,472(sp)
    8000315e:	1e012e07          	flw	ft8,480(sp)
    80003162:	1e812e87          	flw	ft9,488(sp)
    80003166:	1f012f07          	flw	ft10,496(sp)
    8000316a:	1f812f87          	flw	ft11,504(sp)
    8000316e:	6142                	ld	sp,16(sp)
    80003170:	30200073          	mret

0000000080003174 <verify_area>:
    80003174:	6785                	lui	a5,0x1
    80003176:	1101                	addi	sp,sp,-32
    80003178:	17fd                	addi	a5,a5,-1
    8000317a:	e426                	sd	s1,8(sp)
    8000317c:	8fe9                	and	a5,a5,a0
    8000317e:	74fd                	lui	s1,0xfffff
    80003180:	9dbd                	addw	a1,a1,a5
    80003182:	8ce9                	and	s1,s1,a0
    80003184:	e822                	sd	s0,16(sp)
    80003186:	e04a                	sd	s2,0(sp)
    80003188:	ec06                	sd	ra,24(sp)
    8000318a:	00b4843b          	addw	s0,s1,a1
    8000318e:	6905                	lui	s2,0x1
    80003190:	409407bb          	subw	a5,s0,s1
    80003194:	00f04863          	bgtz	a5,800031a4 <verify_area+0x30>
    80003198:	60e2                	ld	ra,24(sp)
    8000319a:	6442                	ld	s0,16(sp)
    8000319c:	64a2                	ld	s1,8(sp)
    8000319e:	6902                	ld	s2,0(sp)
    800031a0:	6105                	addi	sp,sp,32
    800031a2:	8082                	ret
    800031a4:	8526                	mv	a0,s1
    800031a6:	00002097          	auipc	ra,0x2
    800031aa:	926080e7          	jalr	-1754(ra) # 80004acc <write_verify>
    800031ae:	94ca                	add	s1,s1,s2
    800031b0:	b7c5                	j	80003190 <verify_area+0x1c>

00000000800031b2 <copy_mem>:
    800031b2:	1101                	addi	sp,sp,-32
    800031b4:	e426                	sd	s1,8(sp)
    800031b6:	87ae                	mv	a5,a1
    800031b8:	3e85b483          	ld	s1,1000(a1)
    800031bc:	e822                	sd	s0,16(sp)
    800031be:	01a5141b          	slliw	s0,a0,0x1a
    800031c2:	3d87b503          	ld	a0,984(a5) # 13d8 <_stack_size-0x6c28>
    800031c6:	ec06                	sd	ra,24(sp)
    800031c8:	3285b823          	sd	s0,816(a1)
    800031cc:	8626                	mv	a2,s1
    800031ce:	85a2                	mv	a1,s0
    800031d0:	00001097          	auipc	ra,0x1
    800031d4:	59c080e7          	jalr	1436(ra) # 8000476c <copy_page_tables>
    800031d8:	c901                	beqz	a0,800031e8 <copy_mem+0x36>
    800031da:	85a6                	mv	a1,s1
    800031dc:	8522                	mv	a0,s0
    800031de:	00001097          	auipc	ra,0x1
    800031e2:	4b6080e7          	jalr	1206(ra) # 80004694 <free_page_tables>
    800031e6:	5551                	li	a0,-12
    800031e8:	60e2                	ld	ra,24(sp)
    800031ea:	6442                	ld	s0,16(sp)
    800031ec:	64a2                	ld	s1,8(sp)
    800031ee:	6105                	addi	sp,sp,32
    800031f0:	8082                	ret

00000000800031f2 <copy_process>:
    800031f2:	7179                	addi	sp,sp,-48
    800031f4:	e052                	sd	s4,0(sp)
    800031f6:	0000a597          	auipc	a1,0xa
    800031fa:	b3a58593          	addi	a1,a1,-1222 # 8000cd30 <CSWTCH.0+0x310>
    800031fe:	8a2a                	mv	s4,a0
    80003200:	0000a517          	auipc	a0,0xa
    80003204:	b3850513          	addi	a0,a0,-1224 # 8000cd38 <CSWTCH.0+0x318>
    80003208:	f406                	sd	ra,40(sp)
    8000320a:	f022                	sd	s0,32(sp)
    8000320c:	ec26                	sd	s1,24(sp)
    8000320e:	e84a                	sd	s2,16(sp)
    80003210:	e44e                	sd	s3,8(sp)
    80003212:	fffff097          	auipc	ra,0xfffff
    80003216:	b8e080e7          	jalr	-1138(ra) # 80001da0 <syslog_debug>
    8000321a:	4515                	li	a0,5
    8000321c:	00001097          	auipc	ra,0x1
    80003220:	35e080e7          	jalr	862(ra) # 8000457a <get_free_pages>
    80003224:	842a                	mv	s0,a0
    80003226:	0000a597          	auipc	a1,0xa
    8000322a:	b2258593          	addi	a1,a1,-1246 # 8000cd48 <CSWTCH.0+0x328>
    8000322e:	0000a517          	auipc	a0,0xa
    80003232:	b0a50513          	addi	a0,a0,-1270 # 8000cd38 <CSWTCH.0+0x318>
    80003236:	fffff097          	auipc	ra,0xfffff
    8000323a:	b6a080e7          	jalr	-1174(ra) # 80001da0 <syslog_debug>
    8000323e:	e415                	bnez	s0,8000326a <copy_process+0x78>
    80003240:	0000a597          	auipc	a1,0xa
    80003244:	b1058593          	addi	a1,a1,-1264 # 8000cd50 <CSWTCH.0+0x330>
    80003248:	0000a517          	auipc	a0,0xa
    8000324c:	af050513          	addi	a0,a0,-1296 # 8000cd38 <CSWTCH.0+0x318>
    80003250:	fffff097          	auipc	ra,0xfffff
    80003254:	b50080e7          	jalr	-1200(ra) # 80001da0 <syslog_debug>
    80003258:	5555                	li	a0,-11
    8000325a:	70a2                	ld	ra,40(sp)
    8000325c:	7402                	ld	s0,32(sp)
    8000325e:	64e2                	ld	s1,24(sp)
    80003260:	6942                	ld	s2,16(sp)
    80003262:	69a2                	ld	s3,8(sp)
    80003264:	6a02                	ld	s4,0(sp)
    80003266:	6145                	addi	sp,sp,48
    80003268:	8082                	ret
    8000326a:	0000a597          	auipc	a1,0xa
    8000326e:	aee58593          	addi	a1,a1,-1298 # 8000cd58 <CSWTCH.0+0x338>
    80003272:	0000a517          	auipc	a0,0xa
    80003276:	ac650513          	addi	a0,a0,-1338 # 8000cd38 <CSWTCH.0+0x318>
    8000327a:	fffff097          	auipc	ra,0xfffff
    8000327e:	b26080e7          	jalr	-1242(ra) # 80001da0 <syslog_debug>
    80003282:	003a1793          	slli	a5,s4,0x3
    80003286:	0000a497          	auipc	s1,0xa
    8000328a:	73248493          	addi	s1,s1,1842 # 8000d9b8 <task>
    8000328e:	94be                	add	s1,s1,a5
    80003290:	0000d797          	auipc	a5,0xd
    80003294:	96078793          	addi	a5,a5,-1696 # 8000fbf0 <current>
    80003298:	0007b903          	ld	s2,0(a5)
    8000329c:	5f800613          	li	a2,1528
    800032a0:	8522                	mv	a0,s0
    800032a2:	85ca                	mv	a1,s2
    800032a4:	e080                	sd	s0,0(s1)
    800032a6:	00003097          	auipc	ra,0x3
    800032aa:	594080e7          	jalr	1428(ra) # 8000683a <memcpy>
    800032ae:	4789                	li	a5,2
    800032b0:	0000d997          	auipc	s3,0xd
    800032b4:	93c98993          	addi	s3,s3,-1732 # 8000fbec <last_pid>
    800032b8:	e01c                	sd	a5,0(s0)
    800032ba:	0009a783          	lw	a5,0(s3)
    800032be:	10000613          	li	a2,256
    800032c2:	3f040513          	addi	a0,s0,1008
    800032c6:	34f43c23          	sd	a5,856(s0)
    800032ca:	35893783          	ld	a5,856(s2) # 1358 <_stack_size-0x6ca8>
    800032ce:	00014917          	auipc	s2,0x14
    800032d2:	d8290913          	addi	s2,s2,-638 # 80017050 <trap_info>
    800032d6:	01093583          	ld	a1,16(s2)
    800032da:	36f43023          	sd	a5,864(s0)
    800032de:	681c                	ld	a5,16(s0)
    800032e0:	00043c23          	sd	zero,24(s0)
    800032e4:	38043823          	sd	zero,912(s0)
    800032e8:	e41c                	sd	a5,8(s0)
    800032ea:	0000d797          	auipc	a5,0xd
    800032ee:	90e78793          	addi	a5,a5,-1778 # 8000fbf8 <jiffies>
    800032f2:	639c                	ld	a5,0(a5)
    800032f4:	36043c23          	sd	zero,888(s0)
    800032f8:	3a043023          	sd	zero,928(s0)
    800032fc:	3af43c23          	sd	a5,952(s0)
    80003300:	38043c23          	sd	zero,920(s0)
    80003304:	3a043823          	sd	zero,944(s0)
    80003308:	3a043423          	sd	zero,936(s0)
    8000330c:	00003097          	auipc	ra,0x3
    80003310:	52e080e7          	jalr	1326(ra) # 8000683a <memcpy>
    80003314:	01893583          	ld	a1,24(s2)
    80003318:	10000613          	li	a2,256
    8000331c:	4f040513          	addi	a0,s0,1264
    80003320:	00003097          	auipc	ra,0x3
    80003324:	51a080e7          	jalr	1306(ra) # 8000683a <memcpy>
    80003328:	00093783          	ld	a5,0(s2)
    8000332c:	005f8537          	lui	a0,0x5f8
    80003330:	9522                	add	a0,a0,s0
    80003332:	6585                	lui	a1,0x1
    80003334:	5ef43823          	sd	a5,1520(s0)
    80003338:	3ca43423          	sd	a0,968(s0)
    8000333c:	80058593          	addi	a1,a1,-2048 # 800 <_stack_size-0x7800>
    80003340:	44043023          	sd	zero,1088(s0)
    80003344:	fffff097          	auipc	ra,0xfffff
    80003348:	032080e7          	jalr	50(ra) # 80002376 <pte_common_init>
    8000334c:	0000a597          	auipc	a1,0xa
    80003350:	a1458593          	addi	a1,a1,-1516 # 8000cd60 <CSWTCH.0+0x340>
    80003354:	0000a517          	auipc	a0,0xa
    80003358:	9e450513          	addi	a0,a0,-1564 # 8000cd38 <CSWTCH.0+0x318>
    8000335c:	fffff097          	auipc	ra,0xfffff
    80003360:	a44080e7          	jalr	-1468(ra) # 80001da0 <syslog_debug>
    80003364:	85a2                	mv	a1,s0
    80003366:	8552                	mv	a0,s4
    80003368:	00000097          	auipc	ra,0x0
    8000336c:	e4a080e7          	jalr	-438(ra) # 800031b2 <copy_mem>
    80003370:	c515                	beqz	a0,8000339c <copy_process+0x1aa>
    80003372:	0000a597          	auipc	a1,0xa
    80003376:	9f658593          	addi	a1,a1,-1546 # 8000cd68 <CSWTCH.0+0x348>
    8000337a:	0000a517          	auipc	a0,0xa
    8000337e:	9be50513          	addi	a0,a0,-1602 # 8000cd38 <CSWTCH.0+0x318>
    80003382:	fffff097          	auipc	ra,0xfffff
    80003386:	a1e080e7          	jalr	-1506(ra) # 80001da0 <syslog_debug>
    8000338a:	4595                	li	a1,5
    8000338c:	8522                	mv	a0,s0
    8000338e:	0004b023          	sd	zero,0(s1)
    80003392:	00001097          	auipc	ra,0x1
    80003396:	2d2080e7          	jalr	722(ra) # 80004664 <free_pages>
    8000339a:	bd7d                	j	80003258 <copy_process+0x66>
    8000339c:	00043023          	sd	zero,0(s0)
    800033a0:	0009a503          	lw	a0,0(s3)
    800033a4:	bd5d                	j	8000325a <copy_process+0x68>

00000000800033a6 <find_empty_process>:
    800033a6:	0000d797          	auipc	a5,0xd
    800033aa:	84678793          	addi	a5,a5,-1978 # 8000fbec <last_pid>
    800033ae:	439c                	lw	a5,0(a5)
    800033b0:	0000b597          	auipc	a1,0xb
    800033b4:	80858593          	addi	a1,a1,-2040 # 8000dbb8 <mem_map>
    800033b8:	2785                	addiw	a5,a5,1
    800033ba:	0007d363          	bgez	a5,800033c0 <find_empty_process+0x1a>
    800033be:	4785                	li	a5,1
    800033c0:	0000a717          	auipc	a4,0xa
    800033c4:	5f870713          	addi	a4,a4,1528 # 8000d9b8 <task>
    800033c8:	86ba                	mv	a3,a4
    800033ca:	6290                	ld	a2,0(a3)
    800033cc:	c609                	beqz	a2,800033d6 <find_empty_process+0x30>
    800033ce:	35863603          	ld	a2,856(a2)
    800033d2:	fef603e3          	beq	a2,a5,800033b8 <find_empty_process+0x12>
    800033d6:	06a1                	addi	a3,a3,8
    800033d8:	feb699e3          	bne	a3,a1,800033ca <find_empty_process+0x24>
    800033dc:	0000d697          	auipc	a3,0xd
    800033e0:	80f6a823          	sw	a5,-2032(a3) # 8000fbec <last_pid>
    800033e4:	4505                	li	a0,1
    800033e6:	04000793          	li	a5,64
    800033ea:	6714                	ld	a3,8(a4)
    800033ec:	c691                	beqz	a3,800033f8 <find_empty_process+0x52>
    800033ee:	2505                	addiw	a0,a0,1
    800033f0:	0721                	addi	a4,a4,8
    800033f2:	fef51ce3          	bne	a0,a5,800033ea <find_empty_process+0x44>
    800033f6:	5555                	li	a0,-11
    800033f8:	8082                	ret

00000000800033fa <sys_ftime>:
    800033fa:	fda00513          	li	a0,-38
    800033fe:	8082                	ret

0000000080003400 <sys_break>:
    80003400:	fda00513          	li	a0,-38
    80003404:	8082                	ret

0000000080003406 <sys_ptrace>:
    80003406:	fda00513          	li	a0,-38
    8000340a:	8082                	ret

000000008000340c <sys_stty>:
    8000340c:	fda00513          	li	a0,-38
    80003410:	8082                	ret

0000000080003412 <sys_gtty>:
    80003412:	fda00513          	li	a0,-38
    80003416:	8082                	ret

0000000080003418 <sys_rename>:
    80003418:	fda00513          	li	a0,-38
    8000341c:	8082                	ret

000000008000341e <sys_prof>:
    8000341e:	fda00513          	li	a0,-38
    80003422:	8082                	ret

0000000080003424 <sys_setregid>:
    80003424:	02a05263          	blez	a0,80003448 <sys_setregid+0x24>
    80003428:	0000c797          	auipc	a5,0xc
    8000342c:	7c878793          	addi	a5,a5,1992 # 8000fbf0 <current>
    80003430:	639c                	ld	a5,0(a5)
    80003432:	3867d703          	lhu	a4,902(a5)
    80003436:	00a70763          	beq	a4,a0,80003444 <sys_setregid+0x20>
    8000343a:	3827d703          	lhu	a4,898(a5)
    8000343e:	c319                	beqz	a4,80003444 <sys_setregid+0x20>
    80003440:	557d                	li	a0,-1
    80003442:	8082                	ret
    80003444:	38a79323          	sh	a0,902(a5)
    80003448:	4501                	li	a0,0
    8000344a:	02b05d63          	blez	a1,80003484 <sys_setregid+0x60>
    8000344e:	0000c797          	auipc	a5,0xc
    80003452:	7a278793          	addi	a5,a5,1954 # 8000fbf0 <current>
    80003456:	639c                	ld	a5,0(a5)
    80003458:	03059713          	slli	a4,a1,0x30
    8000345c:	9341                	srli	a4,a4,0x30
    8000345e:	3867d683          	lhu	a3,902(a5)
    80003462:	00b69663          	bne	a3,a1,8000346e <sys_setregid+0x4a>
    80003466:	38e79423          	sh	a4,904(a5)
    8000346a:	4501                	li	a0,0
    8000346c:	8082                	ret
    8000346e:	3887d683          	lhu	a3,904(a5)
    80003472:	feb68ae3          	beq	a3,a1,80003466 <sys_setregid+0x42>
    80003476:	38e79523          	sh	a4,906(a5)
    8000347a:	f775                	bnez	a4,80003466 <sys_setregid+0x42>
    8000347c:	3827d683          	lhu	a3,898(a5)
    80003480:	d2fd                	beqz	a3,80003466 <sys_setregid+0x42>
    80003482:	bf7d                	j	80003440 <sys_setregid+0x1c>
    80003484:	8082                	ret

0000000080003486 <sys_setgid>:
    80003486:	85aa                	mv	a1,a0
    80003488:	00000317          	auipc	t1,0x0
    8000348c:	f9c30067          	jr	-100(t1) # 80003424 <sys_setregid>

0000000080003490 <sys_acct>:
    80003490:	fda00513          	li	a0,-38
    80003494:	8082                	ret

0000000080003496 <sys_phys>:
    80003496:	fda00513          	li	a0,-38
    8000349a:	8082                	ret

000000008000349c <sys_lock>:
    8000349c:	fda00513          	li	a0,-38
    800034a0:	8082                	ret

00000000800034a2 <sys_mpx>:
    800034a2:	fda00513          	li	a0,-38
    800034a6:	8082                	ret

00000000800034a8 <sys_ulimit>:
    800034a8:	fda00513          	li	a0,-38
    800034ac:	8082                	ret

00000000800034ae <sys_time>:
    800034ae:	1101                	addi	sp,sp,-32
    800034b0:	0000c797          	auipc	a5,0xc
    800034b4:	74878793          	addi	a5,a5,1864 # 8000fbf8 <jiffies>
    800034b8:	e822                	sd	s0,16(sp)
    800034ba:	6380                	ld	s0,0(a5)
    800034bc:	06400793          	li	a5,100
    800034c0:	ec06                	sd	ra,24(sp)
    800034c2:	02f44433          	div	s0,s0,a5
    800034c6:	0000c797          	auipc	a5,0xc
    800034ca:	74278793          	addi	a5,a5,1858 # 8000fc08 <startup_time>
    800034ce:	639c                	ld	a5,0(a5)
    800034d0:	e42a                	sd	a0,8(sp)
    800034d2:	9c3d                	addw	s0,s0,a5
    800034d4:	cd09                	beqz	a0,800034ee <sys_time+0x40>
    800034d6:	45a1                	li	a1,8
    800034d8:	00000097          	auipc	ra,0x0
    800034dc:	c9c080e7          	jalr	-868(ra) # 80003174 <verify_area>
    800034e0:	0028                	addi	a0,sp,8
    800034e2:	00001097          	auipc	ra,0x1
    800034e6:	6a4080e7          	jalr	1700(ra) # 80004b86 <user_ptr_to_kernel>
    800034ea:	67a2                	ld	a5,8(sp)
    800034ec:	e380                	sd	s0,0(a5)
    800034ee:	8522                	mv	a0,s0
    800034f0:	60e2                	ld	ra,24(sp)
    800034f2:	6442                	ld	s0,16(sp)
    800034f4:	6105                	addi	sp,sp,32
    800034f6:	8082                	ret

00000000800034f8 <sys_setreuid>:
    800034f8:	0000c797          	auipc	a5,0xc
    800034fc:	6f878793          	addi	a5,a5,1784 # 8000fbf0 <current>
    80003500:	639c                	ld	a5,0(a5)
    80003502:	3807d683          	lhu	a3,896(a5)
    80003506:	00a05c63          	blez	a0,8000351e <sys_setreuid+0x26>
    8000350a:	3827d603          	lhu	a2,898(a5)
    8000350e:	00a60663          	beq	a2,a0,8000351a <sys_setreuid+0x22>
    80003512:	00d50463          	beq	a0,a3,8000351a <sys_setreuid+0x22>
    80003516:	577d                	li	a4,-1
    80003518:	ee19                	bnez	a2,80003536 <sys_setreuid+0x3e>
    8000351a:	38a79023          	sh	a0,896(a5)
    8000351e:	4701                	li	a4,0
    80003520:	c999                	beqz	a1,80003536 <sys_setreuid+0x3e>
    80003522:	00b68763          	beq	a3,a1,80003530 <sys_setreuid+0x38>
    80003526:	3827d703          	lhu	a4,898(a5)
    8000352a:	00b70363          	beq	a4,a1,80003530 <sys_setreuid+0x38>
    8000352e:	e711                	bnez	a4,8000353a <sys_setreuid+0x42>
    80003530:	38b79123          	sh	a1,898(a5)
    80003534:	4701                	li	a4,0
    80003536:	853a                	mv	a0,a4
    80003538:	8082                	ret
    8000353a:	38d79023          	sh	a3,896(a5)
    8000353e:	577d                	li	a4,-1
    80003540:	bfdd                	j	80003536 <sys_setreuid+0x3e>

0000000080003542 <sys_setuid>:
    80003542:	85aa                	mv	a1,a0
    80003544:	00000317          	auipc	t1,0x0
    80003548:	fb430067          	jr	-76(t1) # 800034f8 <sys_setreuid>

000000008000354c <sys_stime>:
    8000354c:	0000c797          	auipc	a5,0xc
    80003550:	6a478793          	addi	a5,a5,1700 # 8000fbf0 <current>
    80003554:	639c                	ld	a5,0(a5)
    80003556:	1101                	addi	sp,sp,-32
    80003558:	e42a                	sd	a0,8(sp)
    8000355a:	3827d783          	lhu	a5,898(a5)
    8000355e:	ec06                	sd	ra,24(sp)
    80003560:	557d                	li	a0,-1
    80003562:	e79d                	bnez	a5,80003590 <sys_stime+0x44>
    80003564:	0028                	addi	a0,sp,8
    80003566:	00001097          	auipc	ra,0x1
    8000356a:	620080e7          	jalr	1568(ra) # 80004b86 <user_ptr_to_kernel>
    8000356e:	0000c797          	auipc	a5,0xc
    80003572:	68a78793          	addi	a5,a5,1674 # 8000fbf8 <jiffies>
    80003576:	639c                	ld	a5,0(a5)
    80003578:	f9c00713          	li	a4,-100
    8000357c:	4501                	li	a0,0
    8000357e:	02e7c733          	div	a4,a5,a4
    80003582:	67a2                	ld	a5,8(sp)
    80003584:	639c                	ld	a5,0(a5)
    80003586:	97ba                	add	a5,a5,a4
    80003588:	0000c717          	auipc	a4,0xc
    8000358c:	68f73023          	sd	a5,1664(a4) # 8000fc08 <startup_time>
    80003590:	60e2                	ld	ra,24(sp)
    80003592:	6105                	addi	sp,sp,32
    80003594:	8082                	ret

0000000080003596 <sys_times>:
    80003596:	1101                	addi	sp,sp,-32
    80003598:	ec06                	sd	ra,24(sp)
    8000359a:	e42a                	sd	a0,8(sp)
    8000359c:	cd15                	beqz	a0,800035d8 <sys_times+0x42>
    8000359e:	02000593          	li	a1,32
    800035a2:	00000097          	auipc	ra,0x0
    800035a6:	bd2080e7          	jalr	-1070(ra) # 80003174 <verify_area>
    800035aa:	0028                	addi	a0,sp,8
    800035ac:	00001097          	auipc	ra,0x1
    800035b0:	5da080e7          	jalr	1498(ra) # 80004b86 <user_ptr_to_kernel>
    800035b4:	0000c797          	auipc	a5,0xc
    800035b8:	63c78793          	addi	a5,a5,1596 # 8000fbf0 <current>
    800035bc:	6398                	ld	a4,0(a5)
    800035be:	67a2                	ld	a5,8(sp)
    800035c0:	39873683          	ld	a3,920(a4)
    800035c4:	e394                	sd	a3,0(a5)
    800035c6:	3a073683          	ld	a3,928(a4)
    800035ca:	e794                	sd	a3,8(a5)
    800035cc:	3a873683          	ld	a3,936(a4)
    800035d0:	3b073703          	ld	a4,944(a4)
    800035d4:	eb94                	sd	a3,16(a5)
    800035d6:	ef98                	sd	a4,24(a5)
    800035d8:	60e2                	ld	ra,24(sp)
    800035da:	0000c797          	auipc	a5,0xc
    800035de:	61e78793          	addi	a5,a5,1566 # 8000fbf8 <jiffies>
    800035e2:	6388                	ld	a0,0(a5)
    800035e4:	6105                	addi	sp,sp,32
    800035e6:	8082                	ret

00000000800035e8 <sys_brk>:
    800035e8:	0000c797          	auipc	a5,0xc
    800035ec:	60878793          	addi	a5,a5,1544 # 8000fbf0 <current>
    800035f0:	639c                	ld	a5,0(a5)
    800035f2:	3387b703          	ld	a4,824(a5)
    800035f6:	00e56a63          	bltu	a0,a4,8000360a <sys_brk+0x22>
    800035fa:	3507b683          	ld	a3,848(a5)
    800035fe:	7771                	lui	a4,0xffffc
    80003600:	9736                	add	a4,a4,a3
    80003602:	00e57463          	bleu	a4,a0,8000360a <sys_brk+0x22>
    80003606:	34a7b423          	sd	a0,840(a5)
    8000360a:	3487b503          	ld	a0,840(a5)
    8000360e:	8082                	ret

0000000080003610 <sys_setpgid>:
    80003610:	e901                	bnez	a0,80003620 <sys_setpgid+0x10>
    80003612:	0000c797          	auipc	a5,0xc
    80003616:	5de78793          	addi	a5,a5,1502 # 8000fbf0 <current>
    8000361a:	639c                	ld	a5,0(a5)
    8000361c:	3587a503          	lw	a0,856(a5)
    80003620:	e981                	bnez	a1,80003630 <sys_setpgid+0x20>
    80003622:	0000c797          	auipc	a5,0xc
    80003626:	5ce78793          	addi	a5,a5,1486 # 8000fbf0 <current>
    8000362a:	639c                	ld	a5,0(a5)
    8000362c:	3587a583          	lw	a1,856(a5)
    80003630:	0000a717          	auipc	a4,0xa
    80003634:	38870713          	addi	a4,a4,904 # 8000d9b8 <task>
    80003638:	0000a697          	auipc	a3,0xa
    8000363c:	58068693          	addi	a3,a3,1408 # 8000dbb8 <mem_map>
    80003640:	631c                	ld	a5,0(a4)
    80003642:	c795                	beqz	a5,8000366e <sys_setpgid+0x5e>
    80003644:	3587b603          	ld	a2,856(a5)
    80003648:	02a61363          	bne	a2,a0,8000366e <sys_setpgid+0x5e>
    8000364c:	3787b503          	ld	a0,888(a5)
    80003650:	e505                	bnez	a0,80003678 <sys_setpgid+0x68>
    80003652:	0000c717          	auipc	a4,0xc
    80003656:	59e70713          	addi	a4,a4,1438 # 8000fbf0 <current>
    8000365a:	6318                	ld	a4,0(a4)
    8000365c:	3707b683          	ld	a3,880(a5)
    80003660:	37073703          	ld	a4,880(a4)
    80003664:	00e69a63          	bne	a3,a4,80003678 <sys_setpgid+0x68>
    80003668:	36b7b423          	sd	a1,872(a5)
    8000366c:	8082                	ret
    8000366e:	0721                	addi	a4,a4,8
    80003670:	fcd718e3          	bne	a4,a3,80003640 <sys_setpgid+0x30>
    80003674:	5575                	li	a0,-3
    80003676:	8082                	ret
    80003678:	557d                	li	a0,-1
    8000367a:	8082                	ret

000000008000367c <sys_getpgrp>:
    8000367c:	0000c797          	auipc	a5,0xc
    80003680:	57478793          	addi	a5,a5,1396 # 8000fbf0 <current>
    80003684:	639c                	ld	a5,0(a5)
    80003686:	3687b503          	ld	a0,872(a5)
    8000368a:	8082                	ret

000000008000368c <sys_setsid>:
    8000368c:	0000c797          	auipc	a5,0xc
    80003690:	56478793          	addi	a5,a5,1380 # 8000fbf0 <current>
    80003694:	639c                	ld	a5,0(a5)
    80003696:	3787b703          	ld	a4,888(a5)
    8000369a:	c709                	beqz	a4,800036a4 <sys_setsid+0x18>
    8000369c:	3827d703          	lhu	a4,898(a5)
    800036a0:	557d                	li	a0,-1
    800036a2:	ef09                	bnez	a4,800036bc <sys_setsid+0x30>
    800036a4:	3587b503          	ld	a0,856(a5)
    800036a8:	4705                	li	a4,1
    800036aa:	36e7bc23          	sd	a4,888(a5)
    800036ae:	577d                	li	a4,-1
    800036b0:	36a7b423          	sd	a0,872(a5)
    800036b4:	36a7b823          	sd	a0,880(a5)
    800036b8:	3ce7a023          	sw	a4,960(a5)
    800036bc:	8082                	ret

00000000800036be <sys_uname>:
    800036be:	1101                	addi	sp,sp,-32
    800036c0:	ec06                	sd	ra,24(sp)
    800036c2:	e42a                	sd	a0,8(sp)
    800036c4:	c91d                	beqz	a0,800036fa <sys_uname+0x3c>
    800036c6:	02d00593          	li	a1,45
    800036ca:	00000097          	auipc	ra,0x0
    800036ce:	aaa080e7          	jalr	-1366(ra) # 80003174 <verify_area>
    800036d2:	0028                	addi	a0,sp,8
    800036d4:	00001097          	auipc	ra,0x1
    800036d8:	4b2080e7          	jalr	1202(ra) # 80004b86 <user_ptr_to_kernel>
    800036dc:	6522                	ld	a0,8(sp)
    800036de:	02d00613          	li	a2,45
    800036e2:	00009597          	auipc	a1,0x9
    800036e6:	6a658593          	addi	a1,a1,1702 # 8000cd88 <thisname.5566>
    800036ea:	00003097          	auipc	ra,0x3
    800036ee:	150080e7          	jalr	336(ra) # 8000683a <memcpy>
    800036f2:	4501                	li	a0,0
    800036f4:	60e2                	ld	ra,24(sp)
    800036f6:	6105                	addi	sp,sp,32
    800036f8:	8082                	ret
    800036fa:	f9d00513          	li	a0,-99
    800036fe:	bfdd                	j	800036f4 <sys_uname+0x36>

0000000080003700 <sys_umask>:
    80003700:	0000c797          	auipc	a5,0xc
    80003704:	4f078793          	addi	a5,a5,1264 # 8000fbf0 <current>
    80003708:	639c                	ld	a5,0(a5)
    8000370a:	1ff57513          	andi	a0,a0,511
    8000370e:	3c47d703          	lhu	a4,964(a5)
    80003712:	3ca79223          	sh	a0,964(a5)
    80003716:	853a                	mv	a0,a4
    80003718:	8082                	ret

000000008000371a <sys_write>:
    8000371a:	1101                	addi	sp,sp,-32
    8000371c:	e42a                	sd	a0,8(sp)
    8000371e:	0028                	addi	a0,sp,8
    80003720:	ec06                	sd	ra,24(sp)
    80003722:	00001097          	auipc	ra,0x1
    80003726:	458080e7          	jalr	1112(ra) # 80004b7a <user_addr_to_kernel>
    8000372a:	66a2                	ld	a3,8(sp)
    8000372c:	00009517          	auipc	a0,0x9
    80003730:	64c50513          	addi	a0,a0,1612 # 8000cd78 <CSWTCH.0+0x358>
    80003734:	00009597          	auipc	a1,0x9
    80003738:	63c58593          	addi	a1,a1,1596 # 8000cd70 <CSWTCH.0+0x350>
    8000373c:	8636                	mv	a2,a3
    8000373e:	ffffe097          	auipc	ra,0xffffe
    80003742:	662080e7          	jalr	1634(ra) # 80001da0 <syslog_debug>
    80003746:	60e2                	ld	ra,24(sp)
    80003748:	4501                	li	a0,0
    8000374a:	6105                	addi	sp,sp,32
    8000374c:	8082                	ret

000000008000374e <sys_sgetmask>:
    8000374e:	0000c797          	auipc	a5,0xc
    80003752:	4a278793          	addi	a5,a5,1186 # 8000fbf0 <current>
    80003756:	639c                	ld	a5,0(a5)
    80003758:	3207a503          	lw	a0,800(a5)
    8000375c:	8082                	ret

000000008000375e <sys_ssetmask>:
    8000375e:	0000c797          	auipc	a5,0xc
    80003762:	49278793          	addi	a5,a5,1170 # 8000fbf0 <current>
    80003766:	639c                	ld	a5,0(a5)
    80003768:	eff57513          	andi	a0,a0,-257
    8000376c:	3207a703          	lw	a4,800(a5)
    80003770:	32a7b023          	sd	a0,800(a5)
    80003774:	853a                	mv	a0,a4
    80003776:	8082                	ret

0000000080003778 <sys_signal>:
    80003778:	fff5079b          	addiw	a5,a0,-1
    8000377c:	477d                	li	a4,31
    8000377e:	56fd                	li	a3,-1
    80003780:	02f76963          	bltu	a4,a5,800037b2 <sys_signal+0x3a>
    80003784:	4725                	li	a4,9
    80003786:	56fd                	li	a3,-1
    80003788:	02e50563          	beq	a0,a4,800037b2 <sys_signal+0x3a>
    8000378c:	46e1                	li	a3,24
    8000378e:	02d787b3          	mul	a5,a5,a3
    80003792:	0000c717          	auipc	a4,0xc
    80003796:	45e70713          	addi	a4,a4,1118 # 8000fbf0 <current>
    8000379a:	6318                	ld	a4,0(a4)
    8000379c:	00f706b3          	add	a3,a4,a5
    800037a0:	02078793          	addi	a5,a5,32
    800037a4:	97ba                	add	a5,a5,a4
    800037a6:	577d                	li	a4,-1
    800037a8:	177a                	slli	a4,a4,0x3e
    800037aa:	7294                	ld	a3,32(a3)
    800037ac:	e38c                	sd	a1,0(a5)
    800037ae:	e798                	sd	a4,8(a5)
    800037b0:	eb90                	sd	a2,16(a5)
    800037b2:	8536                	mv	a0,a3
    800037b4:	8082                	ret

00000000800037b6 <sys_sigaction>:
    800037b6:	711d                	addi	sp,sp,-96
    800037b8:	fc4e                	sd	s3,56(sp)
    800037ba:	ec86                	sd	ra,88(sp)
    800037bc:	e8a2                	sd	s0,80(sp)
    800037be:	e4a6                	sd	s1,72(sp)
    800037c0:	e0ca                	sd	s2,64(sp)
    800037c2:	f852                	sd	s4,48(sp)
    800037c4:	f456                	sd	s5,40(sp)
    800037c6:	f05a                	sd	s6,32(sp)
    800037c8:	fff5099b          	addiw	s3,a0,-1
    800037cc:	477d                	li	a4,31
    800037ce:	0d376463          	bltu	a4,s3,80003896 <sys_sigaction+0xe0>
    800037d2:	842a                	mv	s0,a0
    800037d4:	4725                	li	a4,9
    800037d6:	557d                	li	a0,-1
    800037d8:	08e40b63          	beq	s0,a4,8000386e <sys_sigaction+0xb8>
    800037dc:	4b61                	li	s6,24
    800037de:	8aae                	mv	s5,a1
    800037e0:	036985b3          	mul	a1,s3,s6
    800037e4:	0000ca17          	auipc	s4,0xc
    800037e8:	40ca0a13          	addi	s4,s4,1036 # 8000fbf0 <current>
    800037ec:	000a3483          	ld	s1,0(s4)
    800037f0:	8932                	mv	s2,a2
    800037f2:	0028                	addi	a0,sp,8
    800037f4:	4661                	li	a2,24
    800037f6:	95a6                	add	a1,a1,s1
    800037f8:	02058593          	addi	a1,a1,32
    800037fc:	00003097          	auipc	ra,0x3
    80003800:	03e080e7          	jalr	62(ra) # 8000683a <memcpy>
    80003804:	036407b3          	mul	a5,s0,s6
    80003808:	850a                	mv	a0,sp
    8000380a:	e056                	sd	s5,0(sp)
    8000380c:	00f48433          	add	s0,s1,a5
    80003810:	00001097          	auipc	ra,0x1
    80003814:	376080e7          	jalr	886(ra) # 80004b86 <user_ptr_to_kernel>
    80003818:	6582                	ld	a1,0(sp)
    8000381a:	0421                	addi	s0,s0,8
    8000381c:	4661                	li	a2,24
    8000381e:	8522                	mv	a0,s0
    80003820:	00003097          	auipc	ra,0x3
    80003824:	01a080e7          	jalr	26(ra) # 8000683a <memcpy>
    80003828:	02090563          	beqz	s2,80003852 <sys_sigaction+0x9c>
    8000382c:	45e1                	li	a1,24
    8000382e:	854a                	mv	a0,s2
    80003830:	e04a                	sd	s2,0(sp)
    80003832:	00000097          	auipc	ra,0x0
    80003836:	942080e7          	jalr	-1726(ra) # 80003174 <verify_area>
    8000383a:	850a                	mv	a0,sp
    8000383c:	00001097          	auipc	ra,0x1
    80003840:	34a080e7          	jalr	842(ra) # 80004b86 <user_ptr_to_kernel>
    80003844:	6502                	ld	a0,0(sp)
    80003846:	4661                	li	a2,24
    80003848:	002c                	addi	a1,sp,8
    8000384a:	00003097          	auipc	ra,0x3
    8000384e:	ff0080e7          	jalr	-16(ra) # 8000683a <memcpy>
    80003852:	4761                	li	a4,24
    80003854:	02e98733          	mul	a4,s3,a4
    80003858:	000a3783          	ld	a5,0(s4)
    8000385c:	97ba                	add	a5,a5,a4
    8000385e:	57d8                	lw	a4,44(a5)
    80003860:	02171693          	slli	a3,a4,0x21
    80003864:	0006df63          	bgez	a3,80003882 <sys_sigaction+0xcc>
    80003868:	0207a423          	sw	zero,40(a5)
    8000386c:	4501                	li	a0,0
    8000386e:	60e6                	ld	ra,88(sp)
    80003870:	6446                	ld	s0,80(sp)
    80003872:	64a6                	ld	s1,72(sp)
    80003874:	6906                	ld	s2,64(sp)
    80003876:	79e2                	ld	s3,56(sp)
    80003878:	7a42                	ld	s4,48(sp)
    8000387a:	7aa2                	ld	s5,40(sp)
    8000387c:	7b02                	ld	s6,32(sp)
    8000387e:	6125                	addi	sp,sp,96
    80003880:	8082                	ret
    80003882:	4705                	li	a4,1
    80003884:	0137173b          	sllw	a4,a4,s3
    80003888:	0287a983          	lw	s3,40(a5)
    8000388c:	00e9e9b3          	or	s3,s3,a4
    80003890:	0337a423          	sw	s3,40(a5)
    80003894:	bfe1                	j	8000386c <sys_sigaction+0xb6>
    80003896:	557d                	li	a0,-1
    80003898:	bfd9                	j	8000386e <sys_sigaction+0xb8>

000000008000389a <do_signal>:
    8000389a:	47e1                	li	a5,24
    8000389c:	02f507b3          	mul	a5,a0,a5
    800038a0:	715d                	addi	sp,sp,-80
    800038a2:	f44e                	sd	s3,40(sp)
    800038a4:	0000c997          	auipc	s3,0xc
    800038a8:	34c98993          	addi	s3,s3,844 # 8000fbf0 <current>
    800038ac:	e0a2                	sd	s0,64(sp)
    800038ae:	0009b403          	ld	s0,0(s3)
    800038b2:	ec56                	sd	s5,24(sp)
    800038b4:	e486                	sd	ra,72(sp)
    800038b6:	fc26                	sd	s1,56(sp)
    800038b8:	f84a                	sd	s2,48(sp)
    800038ba:	943e                	add	s0,s0,a5
    800038bc:	0421                	addi	s0,s0,8
    800038be:	00043a83          	ld	s5,0(s0)
    800038c2:	f052                	sd	s4,32(sp)
    800038c4:	4785                	li	a5,1
    800038c6:	0afa8f63          	beq	s5,a5,80003984 <do_signal+0xea>
    800038ca:	892a                	mv	s2,a0
    800038cc:	000a9d63          	bnez	s5,800038e6 <do_signal+0x4c>
    800038d0:	47c5                	li	a5,17
    800038d2:	0af50963          	beq	a0,a5,80003984 <do_signal+0xea>
    800038d6:	357d                	addiw	a0,a0,-1
    800038d8:	4785                	li	a5,1
    800038da:	00a7953b          	sllw	a0,a5,a0
    800038de:	00000097          	auipc	ra,0x0
    800038e2:	6a6080e7          	jalr	1702(ra) # 80003f84 <do_exit>
    800038e6:	445c                	lw	a5,12(s0)
    800038e8:	0007d463          	bgez	a5,800038f0 <do_signal+0x56>
    800038ec:	00043023          	sd	zero,0(s0)
    800038f0:	00013497          	auipc	s1,0x13
    800038f4:	76048493          	addi	s1,s1,1888 # 80017050 <trap_info>
    800038f8:	689c                	ld	a5,16(s1)
    800038fa:	21000593          	li	a1,528
    800038fe:	6b88                	ld	a0,16(a5)
    80003900:	fd050513          	addi	a0,a0,-48
    80003904:	e42a                	sd	a0,8(sp)
    80003906:	00000097          	auipc	ra,0x0
    8000390a:	86e080e7          	jalr	-1938(ra) # 80003174 <verify_area>
    8000390e:	0028                	addi	a0,sp,8
    80003910:	00001097          	auipc	ra,0x1
    80003914:	276080e7          	jalr	630(ra) # 80004b86 <user_ptr_to_kernel>
    80003918:	688c                	ld	a1,16(s1)
    8000391a:	6522                	ld	a0,8(sp)
    8000391c:	10000613          	li	a2,256
    80003920:	00003097          	auipc	ra,0x3
    80003924:	f1a080e7          	jalr	-230(ra) # 8000683a <memcpy>
    80003928:	6a22                	ld	s4,8(sp)
    8000392a:	6c8c                	ld	a1,24(s1)
    8000392c:	10000613          	li	a2,256
    80003930:	100a0513          	addi	a0,s4,256
    80003934:	00003097          	auipc	ra,0x3
    80003938:	f06080e7          	jalr	-250(ra) # 8000683a <memcpy>
    8000393c:	609c                	ld	a5,0(s1)
    8000393e:	20fa3023          	sd	a5,512(s4)
    80003942:	445c                	lw	a5,12(s0)
    80003944:	02179713          	slli	a4,a5,0x21
    80003948:	00074863          	bltz	a4,80003958 <do_signal+0xbe>
    8000394c:	0009b783          	ld	a5,0(s3)
    80003950:	3207b783          	ld	a5,800(a5)
    80003954:	20fa3423          	sd	a5,520(s4)
    80003958:	689c                	ld	a5,16(s1)
    8000395a:	6818                	ld	a4,16(s0)
    8000395c:	00846683          	lwu	a3,8(s0)
    80003960:	0527b823          	sd	s2,80(a5)
    80003964:	e798                	sd	a4,8(a5)
    80003966:	6b98                	ld	a4,16(a5)
    80003968:	df070713          	addi	a4,a4,-528
    8000396c:	eb98                	sd	a4,16(a5)
    8000396e:	0009b703          	ld	a4,0(s3)
    80003972:	00013797          	auipc	a5,0x13
    80003976:	6f57b323          	sd	s5,1766(a5) # 80017058 <trap_info+0x8>
    8000397a:	32073783          	ld	a5,800(a4)
    8000397e:	8fd5                	or	a5,a5,a3
    80003980:	32f73023          	sd	a5,800(a4)
    80003984:	60a6                	ld	ra,72(sp)
    80003986:	6406                	ld	s0,64(sp)
    80003988:	74e2                	ld	s1,56(sp)
    8000398a:	7942                	ld	s2,48(sp)
    8000398c:	79a2                	ld	s3,40(sp)
    8000398e:	7a02                	ld	s4,32(sp)
    80003990:	6ae2                	ld	s5,24(sp)
    80003992:	6161                	addi	sp,sp,80
    80003994:	8082                	ret

0000000080003996 <sys_alarm>:
    80003996:	0000c797          	auipc	a5,0xc
    8000399a:	25a78793          	addi	a5,a5,602 # 8000fbf0 <current>
    8000399e:	6394                	ld	a3,0(a5)
    800039a0:	3906a783          	lw	a5,912(a3)
    800039a4:	cf81                	beqz	a5,800039bc <sys_alarm+0x26>
    800039a6:	0000c717          	auipc	a4,0xc
    800039aa:	25270713          	addi	a4,a4,594 # 8000fbf8 <jiffies>
    800039ae:	6318                	ld	a4,0(a4)
    800039b0:	8f99                	sub	a5,a5,a4
    800039b2:	06400713          	li	a4,100
    800039b6:	02e7c7b3          	div	a5,a5,a4
    800039ba:	2781                	sext.w	a5,a5
    800039bc:	4701                	li	a4,0
    800039be:	00a05c63          	blez	a0,800039d6 <sys_alarm+0x40>
    800039c2:	06400613          	li	a2,100
    800039c6:	02c50533          	mul	a0,a0,a2
    800039ca:	0000c717          	auipc	a4,0xc
    800039ce:	22e70713          	addi	a4,a4,558 # 8000fbf8 <jiffies>
    800039d2:	6318                	ld	a4,0(a4)
    800039d4:	972a                	add	a4,a4,a0
    800039d6:	38e6b823          	sd	a4,912(a3)
    800039da:	853e                	mv	a0,a5
    800039dc:	8082                	ret

00000000800039de <sys_getpid>:
    800039de:	0000c797          	auipc	a5,0xc
    800039e2:	21278793          	addi	a5,a5,530 # 8000fbf0 <current>
    800039e6:	639c                	ld	a5,0(a5)
    800039e8:	3587b503          	ld	a0,856(a5)
    800039ec:	8082                	ret

00000000800039ee <sys_getppid>:
    800039ee:	0000c797          	auipc	a5,0xc
    800039f2:	20278793          	addi	a5,a5,514 # 8000fbf0 <current>
    800039f6:	639c                	ld	a5,0(a5)
    800039f8:	3607b503          	ld	a0,864(a5)
    800039fc:	8082                	ret

00000000800039fe <sys_getuid>:
    800039fe:	0000c797          	auipc	a5,0xc
    80003a02:	1f278793          	addi	a5,a5,498 # 8000fbf0 <current>
    80003a06:	639c                	ld	a5,0(a5)
    80003a08:	3807d503          	lhu	a0,896(a5)
    80003a0c:	8082                	ret

0000000080003a0e <sys_geteuid>:
    80003a0e:	0000c797          	auipc	a5,0xc
    80003a12:	1e278793          	addi	a5,a5,482 # 8000fbf0 <current>
    80003a16:	639c                	ld	a5,0(a5)
    80003a18:	3827d503          	lhu	a0,898(a5)
    80003a1c:	8082                	ret

0000000080003a1e <sys_getgid>:
    80003a1e:	0000c797          	auipc	a5,0xc
    80003a22:	1d278793          	addi	a5,a5,466 # 8000fbf0 <current>
    80003a26:	639c                	ld	a5,0(a5)
    80003a28:	3867d503          	lhu	a0,902(a5)
    80003a2c:	8082                	ret

0000000080003a2e <sys_nice>:
    80003a2e:	0000c797          	auipc	a5,0xc
    80003a32:	1c278793          	addi	a5,a5,450 # 8000fbf0 <current>
    80003a36:	6398                	ld	a4,0(a5)
    80003a38:	6b1c                	ld	a5,16(a4)
    80003a3a:	40a78533          	sub	a0,a5,a0
    80003a3e:	00a05363          	blez	a0,80003a44 <sys_nice+0x16>
    80003a42:	eb08                	sd	a0,16(a4)
    80003a44:	4501                	li	a0,0
    80003a46:	8082                	ret

0000000080003a48 <set_page_dir>:
    80003a48:	1141                	addi	sp,sp,-16
    80003a4a:	85aa                	mv	a1,a0
    80003a4c:	0000c797          	auipc	a5,0xc
    80003a50:	5aa7ba23          	sd	a0,1460(a5) # 80010000 <page_dir_table>
    80003a54:	00013517          	auipc	a0,0x13
    80003a58:	5c450513          	addi	a0,a0,1476 # 80017018 <page_root_table+0x18>
    80003a5c:	e406                	sd	ra,8(sp)
    80003a5e:	fffff097          	auipc	ra,0xfffff
    80003a62:	95c080e7          	jalr	-1700(ra) # 800023ba <pte_common_addr_to_ppn>
    80003a66:	60a2                	ld	ra,8(sp)
    80003a68:	0141                	addi	sp,sp,16
    80003a6a:	fffff317          	auipc	t1,0xfffff
    80003a6e:	a0630067          	jr	-1530(t1) # 80002470 <pte_refresh_tlb>

0000000080003a72 <switch_to>:
    80003a72:	7179                	addi	sp,sp,-48
    80003a74:	00351793          	slli	a5,a0,0x3
    80003a78:	f022                	sd	s0,32(sp)
    80003a7a:	0000a417          	auipc	s0,0xa
    80003a7e:	f3e40413          	addi	s0,s0,-194 # 8000d9b8 <task>
    80003a82:	943e                	add	s0,s0,a5
    80003a84:	ec26                	sd	s1,24(sp)
    80003a86:	e052                	sd	s4,0(sp)
    80003a88:	862a                	mv	a2,a0
    80003a8a:	0000ca17          	auipc	s4,0xc
    80003a8e:	166a0a13          	addi	s4,s4,358 # 8000fbf0 <current>
    80003a92:	84aa                	mv	s1,a0
    80003a94:	00009597          	auipc	a1,0x9
    80003a98:	32458593          	addi	a1,a1,804 # 8000cdb8 <thisname.5566+0x30>
    80003a9c:	00009517          	auipc	a0,0x9
    80003aa0:	32c50513          	addi	a0,a0,812 # 8000cdc8 <thisname.5566+0x40>
    80003aa4:	e84a                	sd	s2,16(sp)
    80003aa6:	e44e                	sd	s3,8(sp)
    80003aa8:	f406                	sd	ra,40(sp)
    80003aaa:	000a3983          	ld	s3,0(s4)
    80003aae:	00043903          	ld	s2,0(s0)
    80003ab2:	ffffe097          	auipc	ra,0xffffe
    80003ab6:	2ee080e7          	jalr	750(ra) # 80001da0 <syslog_debug>
    80003aba:	000a3783          	ld	a5,0(s4)
    80003abe:	4505                	li	a0,1
    80003ac0:	08f40e63          	beq	s0,a5,80003b5c <switch_to+0xea>
    80003ac4:	8626                	mv	a2,s1
    80003ac6:	00009597          	auipc	a1,0x9
    80003aca:	31258593          	addi	a1,a1,786 # 8000cdd8 <thisname.5566+0x50>
    80003ace:	00013497          	auipc	s1,0x13
    80003ad2:	58248493          	addi	s1,s1,1410 # 80017050 <trap_info>
    80003ad6:	00009517          	auipc	a0,0x9
    80003ada:	2f250513          	addi	a0,a0,754 # 8000cdc8 <thisname.5566+0x40>
    80003ade:	ffffe097          	auipc	ra,0xffffe
    80003ae2:	2c2080e7          	jalr	706(ra) # 80001da0 <syslog_debug>
    80003ae6:	0104ba03          	ld	s4,16(s1)
    80003aea:	10000613          	li	a2,256
    80003aee:	3f098513          	addi	a0,s3,1008
    80003af2:	85d2                	mv	a1,s4
    80003af4:	00003097          	auipc	ra,0x3
    80003af8:	d46080e7          	jalr	-698(ra) # 8000683a <memcpy>
    80003afc:	6c8c                	ld	a1,24(s1)
    80003afe:	10000613          	li	a2,256
    80003b02:	4f098513          	addi	a0,s3,1264
    80003b06:	00003097          	auipc	ra,0x3
    80003b0a:	d34080e7          	jalr	-716(ra) # 8000683a <memcpy>
    80003b0e:	609c                	ld	a5,0(s1)
    80003b10:	10000613          	li	a2,256
    80003b14:	3f090593          	addi	a1,s2,1008
    80003b18:	5ef9b823          	sd	a5,1520(s3)
    80003b1c:	8552                	mv	a0,s4
    80003b1e:	0000c797          	auipc	a5,0xc
    80003b22:	0c87b923          	sd	s0,210(a5) # 8000fbf0 <current>
    80003b26:	00003097          	auipc	ra,0x3
    80003b2a:	d14080e7          	jalr	-748(ra) # 8000683a <memcpy>
    80003b2e:	6c88                	ld	a0,24(s1)
    80003b30:	10000613          	li	a2,256
    80003b34:	4f090593          	addi	a1,s2,1264
    80003b38:	00003097          	auipc	ra,0x3
    80003b3c:	d02080e7          	jalr	-766(ra) # 8000683a <memcpy>
    80003b40:	601c                	ld	a5,0(s0)
    80003b42:	3c87b503          	ld	a0,968(a5)
    80003b46:	00000097          	auipc	ra,0x0
    80003b4a:	f02080e7          	jalr	-254(ra) # 80003a48 <set_page_dir>
    80003b4e:	5f093783          	ld	a5,1520(s2)
    80003b52:	4501                	li	a0,0
    80003b54:	00013717          	auipc	a4,0x13
    80003b58:	50f73223          	sd	a5,1284(a4) # 80017058 <trap_info+0x8>
    80003b5c:	70a2                	ld	ra,40(sp)
    80003b5e:	7402                	ld	s0,32(sp)
    80003b60:	64e2                	ld	s1,24(sp)
    80003b62:	6942                	ld	s2,16(sp)
    80003b64:	69a2                	ld	s3,8(sp)
    80003b66:	6a02                	ld	s4,0(sp)
    80003b68:	6145                	addi	sp,sp,48
    80003b6a:	8082                	ret

0000000080003b6c <schedule>:
    80003b6c:	1141                	addi	sp,sp,-16
    80003b6e:	450d                	li	a0,3
    80003b70:	e406                	sd	ra,8(sp)
    80003b72:	ffffe097          	auipc	ra,0xffffe
    80003b76:	45a080e7          	jalr	1114(ra) # 80001fcc <syslog_flagn>
    80003b7a:	fffc0637          	lui	a2,0xfffc0
    80003b7e:	0000a697          	auipc	a3,0xa
    80003b82:	03268693          	addi	a3,a3,50 # 8000dbb0 <task+0x1f8>
    80003b86:	eff60613          	addi	a2,a2,-257 # fffffffffffbfeff <_trapsp0+0xffffffff7ff8aebf>
    80003b8a:	4505                	li	a0,1
    80003b8c:	0000c817          	auipc	a6,0xc
    80003b90:	06c80813          	addi	a6,a6,108 # 8000fbf8 <jiffies>
    80003b94:	6889                	lui	a7,0x2
    80003b96:	0000a597          	auipc	a1,0xa
    80003b9a:	e2258593          	addi	a1,a1,-478 # 8000d9b8 <task>
    80003b9e:	629c                	ld	a5,0(a3)
    80003ba0:	cf95                	beqz	a5,80003bdc <schedule+0x70>
    80003ba2:	3907b703          	ld	a4,912(a5)
    80003ba6:	cb19                	beqz	a4,80003bbc <schedule+0x50>
    80003ba8:	00083303          	ld	t1,0(a6)
    80003bac:	00675863          	ble	t1,a4,80003bbc <schedule+0x50>
    80003bb0:	6f98                	ld	a4,24(a5)
    80003bb2:	3807b823          	sd	zero,912(a5)
    80003bb6:	01176733          	or	a4,a4,a7
    80003bba:	ef98                	sd	a4,24(a5)
    80003bbc:	3207b703          	ld	a4,800(a5)
    80003bc0:	0187b303          	ld	t1,24(a5)
    80003bc4:	02c70733          	mul	a4,a4,a2
    80003bc8:	fff74713          	not	a4,a4
    80003bcc:	00677733          	and	a4,a4,t1
    80003bd0:	c711                	beqz	a4,80003bdc <schedule+0x70>
    80003bd2:	6398                	ld	a4,0(a5)
    80003bd4:	00a71463          	bne	a4,a0,80003bdc <schedule+0x70>
    80003bd8:	0007b023          	sd	zero,0(a5)
    80003bdc:	16e1                	addi	a3,a3,-8
    80003bde:	fcb690e3          	bne	a3,a1,80003b9e <schedule+0x32>
    80003be2:	0000a697          	auipc	a3,0xa
    80003be6:	fd668693          	addi	a3,a3,-42 # 8000dbb8 <mem_map>
    80003bea:	577d                	li	a4,-1
    80003bec:	4501                	li	a0,0
    80003bee:	04000793          	li	a5,64
    80003bf2:	37fd                	addiw	a5,a5,-1
    80003bf4:	e38d                	bnez	a5,80003c16 <schedule+0xaa>
    80003bf6:	ef15                	bnez	a4,80003c32 <schedule+0xc6>
    80003bf8:	0000a717          	auipc	a4,0xa
    80003bfc:	fb870713          	addi	a4,a4,-72 # 8000dbb0 <task+0x1f8>
    80003c00:	6314                	ld	a3,0(a4)
    80003c02:	c691                	beqz	a3,80003c0e <schedule+0xa2>
    80003c04:	669c                	ld	a5,8(a3)
    80003c06:	6a90                	ld	a2,16(a3)
    80003c08:	8785                	srai	a5,a5,0x1
    80003c0a:	97b2                	add	a5,a5,a2
    80003c0c:	e69c                	sd	a5,8(a3)
    80003c0e:	1761                	addi	a4,a4,-8
    80003c10:	feb718e3          	bne	a4,a1,80003c00 <schedule+0x94>
    80003c14:	b7f9                	j	80003be2 <schedule+0x76>
    80003c16:	16e1                	addi	a3,a3,-8
    80003c18:	6290                	ld	a2,0(a3)
    80003c1a:	de61                	beqz	a2,80003bf2 <schedule+0x86>
    80003c1c:	00063803          	ld	a6,0(a2)
    80003c20:	fc0819e3          	bnez	a6,80003bf2 <schedule+0x86>
    80003c24:	6610                	ld	a2,8(a2)
    80003c26:	fcc756e3          	ble	a2,a4,80003bf2 <schedule+0x86>
    80003c2a:	0006071b          	sext.w	a4,a2
    80003c2e:	853e                	mv	a0,a5
    80003c30:	b7c9                	j	80003bf2 <schedule+0x86>
    80003c32:	60a2                	ld	ra,8(sp)
    80003c34:	0141                	addi	sp,sp,16
    80003c36:	00000317          	auipc	t1,0x0
    80003c3a:	e3c30067          	jr	-452(t1) # 80003a72 <switch_to>

0000000080003c3e <sys_pause>:
    80003c3e:	0000c797          	auipc	a5,0xc
    80003c42:	fb278793          	addi	a5,a5,-78 # 8000fbf0 <current>
    80003c46:	639c                	ld	a5,0(a5)
    80003c48:	1141                	addi	sp,sp,-16
    80003c4a:	e406                	sd	ra,8(sp)
    80003c4c:	4705                	li	a4,1
    80003c4e:	e398                	sd	a4,0(a5)
    80003c50:	00000097          	auipc	ra,0x0
    80003c54:	f1c080e7          	jalr	-228(ra) # 80003b6c <schedule>
    80003c58:	60a2                	ld	ra,8(sp)
    80003c5a:	4501                	li	a0,0
    80003c5c:	0141                	addi	sp,sp,16
    80003c5e:	8082                	ret

0000000080003c60 <do_timer>:
    80003c60:	7179                	addi	sp,sp,-48
    80003c62:	0000c797          	auipc	a5,0xc
    80003c66:	f8e78793          	addi	a5,a5,-114 # 8000fbf0 <current>
    80003c6a:	f022                	sd	s0,32(sp)
    80003c6c:	f406                	sd	ra,40(sp)
    80003c6e:	ec26                	sd	s1,24(sp)
    80003c70:	6398                	ld	a4,0(a5)
    80003c72:	843e                	mv	s0,a5
    80003c74:	e905                	bnez	a0,80003ca4 <do_timer+0x44>
    80003c76:	39873783          	ld	a5,920(a4)
    80003c7a:	0785                	addi	a5,a5,1
    80003c7c:	38f73c23          	sd	a5,920(a4)
    80003c80:	0000c797          	auipc	a5,0xc
    80003c84:	f8078793          	addi	a5,a5,-128 # 8000fc00 <next_timer>
    80003c88:	6398                	ld	a4,0(a5)
    80003c8a:	84be                	mv	s1,a5
    80003c8c:	e315                	bnez	a4,80003cb0 <do_timer+0x50>
    80003c8e:	6018                	ld	a4,0(s0)
    80003c90:	671c                	ld	a5,8(a4)
    80003c92:	17fd                	addi	a5,a5,-1
    80003c94:	04f05263          	blez	a5,80003cd8 <do_timer+0x78>
    80003c98:	e71c                	sd	a5,8(a4)
    80003c9a:	70a2                	ld	ra,40(sp)
    80003c9c:	7402                	ld	s0,32(sp)
    80003c9e:	64e2                	ld	s1,24(sp)
    80003ca0:	6145                	addi	sp,sp,48
    80003ca2:	8082                	ret
    80003ca4:	3a073783          	ld	a5,928(a4)
    80003ca8:	0785                	addi	a5,a5,1
    80003caa:	3af73023          	sd	a5,928(a4)
    80003cae:	bfc9                	j	80003c80 <do_timer+0x20>
    80003cb0:	631c                	ld	a5,0(a4)
    80003cb2:	17fd                	addi	a5,a5,-1
    80003cb4:	e31c                	sd	a5,0(a4)
    80003cb6:	609c                	ld	a5,0(s1)
    80003cb8:	dbf9                	beqz	a5,80003c8e <do_timer+0x2e>
    80003cba:	6398                	ld	a4,0(a5)
    80003cbc:	fce049e3          	bgtz	a4,80003c8e <do_timer+0x2e>
    80003cc0:	6798                	ld	a4,8(a5)
    80003cc2:	0007b423          	sd	zero,8(a5)
    80003cc6:	6b9c                	ld	a5,16(a5)
    80003cc8:	e42a                	sd	a0,8(sp)
    80003cca:	0000c697          	auipc	a3,0xc
    80003cce:	f2f6bb23          	sd	a5,-202(a3) # 8000fc00 <next_timer>
    80003cd2:	9702                	jalr	a4
    80003cd4:	6522                	ld	a0,8(sp)
    80003cd6:	b7c5                	j	80003cb6 <do_timer+0x56>
    80003cd8:	00073423          	sd	zero,8(a4)
    80003cdc:	fd5d                	bnez	a0,80003c9a <do_timer+0x3a>
    80003cde:	7402                	ld	s0,32(sp)
    80003ce0:	70a2                	ld	ra,40(sp)
    80003ce2:	64e2                	ld	s1,24(sp)
    80003ce4:	6145                	addi	sp,sp,48
    80003ce6:	00000317          	auipc	t1,0x0
    80003cea:	e8630067          	jr	-378(t1) # 80003b6c <schedule>

0000000080003cee <timer_interrupt>:
    80003cee:	1141                	addi	sp,sp,-16
    80003cf0:	e406                	sd	ra,8(sp)
    80003cf2:	ffffe097          	auipc	ra,0xffffe
    80003cf6:	42e080e7          	jalr	1070(ra) # 80002120 <privilege_get_previous_level>
    80003cfa:	2501                	sext.w	a0,a0
    80003cfc:	00000097          	auipc	ra,0x0
    80003d00:	f64080e7          	jalr	-156(ra) # 80003c60 <do_timer>
    80003d04:	60a2                	ld	ra,8(sp)
    80003d06:	4501                	li	a0,0
    80003d08:	0141                	addi	sp,sp,16
    80003d0a:	8082                	ret

0000000080003d0c <sched_init>:
    80003d0c:	1141                	addi	sp,sp,-16
    80003d0e:	e406                	sd	ra,8(sp)
    80003d10:	e022                	sd	s0,0(sp)
    80003d12:	0000a797          	auipc	a5,0xa
    80003d16:	ca678793          	addi	a5,a5,-858 # 8000d9b8 <task>
    80003d1a:	0000a717          	auipc	a4,0xa
    80003d1e:	e9670713          	addi	a4,a4,-362 # 8000dbb0 <task+0x1f8>
    80003d22:	0007b423          	sd	zero,8(a5)
    80003d26:	07a1                	addi	a5,a5,8
    80003d28:	fee79de3          	bne	a5,a4,80003d22 <sched_init+0x16>
    80003d2c:	00013417          	auipc	s0,0x13
    80003d30:	34440413          	addi	s0,s0,836 # 80017070 <init_task>
    80003d34:	5f800613          	li	a2,1528
    80003d38:	4581                	li	a1,0
    80003d3a:	8522                	mv	a0,s0
    80003d3c:	00003097          	auipc	ra,0x3
    80003d40:	bb4080e7          	jalr	-1100(ra) # 800068f0 <memset>
    80003d44:	47bd                	li	a5,15
    80003d46:	6585                	lui	a1,0x1
    80003d48:	00013717          	auipc	a4,0x13
    80003d4c:	32f73823          	sd	a5,816(a4) # 80017078 <init_task+0x8>
    80003d50:	00013717          	auipc	a4,0x13
    80003d54:	32f73823          	sd	a5,816(a4) # 80017080 <init_task+0x10>
    80003d58:	00015517          	auipc	a0,0x15
    80003d5c:	2a850513          	addi	a0,a0,680 # 80019000 <init_task_page_dir_table>
    80003d60:	57fd                	li	a5,-1
    80003d62:	80058593          	addi	a1,a1,-2048 # 800 <_stack_size-0x7800>
    80003d66:	00013717          	auipc	a4,0x13
    80003d6a:	66f73523          	sd	a5,1642(a4) # 800173d0 <init_task+0x360>
    80003d6e:	00013797          	auipc	a5,0x13
    80003d72:	6ca7b523          	sd	a0,1738(a5) # 80017438 <init_task+0x3c8>
    80003d76:	ffffe097          	auipc	ra,0xffffe
    80003d7a:	600080e7          	jalr	1536(ra) # 80002376 <pte_common_init>
    80003d7e:	000a07b7          	lui	a5,0xa0
    80003d82:	00013597          	auipc	a1,0x13
    80003d86:	7de58593          	addi	a1,a1,2014 # 80017560 <init_task+0x4f0>
    80003d8a:	00013517          	auipc	a0,0x13
    80003d8e:	6d650513          	addi	a0,a0,1750 # 80017460 <init_task+0x3f0>
    80003d92:	00013717          	auipc	a4,0x13
    80003d96:	6af73f23          	sd	a5,1726(a4) # 80017450 <init_task+0x3e0>
    80003d9a:	00013717          	auipc	a4,0x13
    80003d9e:	6af73f23          	sd	a5,1726(a4) # 80017458 <init_task+0x3e8>
    80003da2:	ffffe097          	auipc	ra,0xffffe
    80003da6:	6f2080e7          	jalr	1778(ra) # 80002494 <regs_backup>
    80003daa:	4501                	li	a0,0
    80003dac:	00013797          	auipc	a5,0x13
    80003db0:	6c87b223          	sd	s0,1732(a5) # 80017470 <init_task+0x400>
    80003db4:	ffffd097          	auipc	ra,0xffffd
    80003db8:	b02080e7          	jalr	-1278(ra) # 800008b6 <timer_init>
    80003dbc:	3b9ad637          	lui	a2,0x3b9ad
    80003dc0:	a0060613          	addi	a2,a2,-1536 # 3b9aca00 <_stack_size+0x3b9a4a00>
    80003dc4:	4581                	li	a1,0
    80003dc6:	4501                	li	a0,0
    80003dc8:	ffffd097          	auipc	ra,0xffffd
    80003dcc:	b2e080e7          	jalr	-1234(ra) # 800008f6 <timer_set_interval>
    80003dd0:	6402                	ld	s0,0(sp)
    80003dd2:	60a2                	ld	ra,8(sp)
    80003dd4:	4781                	li	a5,0
    80003dd6:	00000717          	auipc	a4,0x0
    80003dda:	f1870713          	addi	a4,a4,-232 # 80003cee <timer_interrupt>
    80003dde:	469d                	li	a3,7
    80003de0:	4601                	li	a2,0
    80003de2:	4581                	li	a1,0
    80003de4:	4501                	li	a0,0
    80003de6:	0141                	addi	sp,sp,16
    80003de8:	ffffd317          	auipc	t1,0xffffd
    80003dec:	bb830067          	jr	-1096(t1) # 800009a0 <timer_irq_register>

0000000080003df0 <send_sig>:
    80003df0:	cd95                	beqz	a1,80003e2c <send_sig+0x3c>
    80003df2:	fff5069b          	addiw	a3,a0,-1
    80003df6:	477d                	li	a4,31
    80003df8:	87b6                	mv	a5,a3
    80003dfa:	5529                	li	a0,-22
    80003dfc:	02d76963          	bltu	a4,a3,80003e2e <send_sig+0x3e>
    80003e00:	ee11                	bnez	a2,80003e1c <send_sig+0x2c>
    80003e02:	0000c717          	auipc	a4,0xc
    80003e06:	dee70713          	addi	a4,a4,-530 # 8000fbf0 <current>
    80003e0a:	6318                	ld	a4,0(a4)
    80003e0c:	3825d683          	lhu	a3,898(a1)
    80003e10:	38275703          	lhu	a4,898(a4)
    80003e14:	00e68463          	beq	a3,a4,80003e1c <send_sig+0x2c>
    80003e18:	557d                	li	a0,-1
    80003e1a:	eb11                	bnez	a4,80003e2e <send_sig+0x3e>
    80003e1c:	4505                	li	a0,1
    80003e1e:	00f5153b          	sllw	a0,a0,a5
    80003e22:	6d9c                	ld	a5,24(a1)
    80003e24:	8fc9                	or	a5,a5,a0
    80003e26:	ed9c                	sd	a5,24(a1)
    80003e28:	4501                	li	a0,0
    80003e2a:	8082                	ret
    80003e2c:	5529                	li	a0,-22
    80003e2e:	8082                	ret

0000000080003e30 <release>:
    80003e30:	c929                	beqz	a0,80003e82 <release+0x52>
    80003e32:	0000a717          	auipc	a4,0xa
    80003e36:	b8670713          	addi	a4,a4,-1146 # 8000d9b8 <task>
    80003e3a:	4785                	li	a5,1
    80003e3c:	86ba                	mv	a3,a4
    80003e3e:	04000613          	li	a2,64
    80003e42:	670c                	ld	a1,8(a4)
    80003e44:	02b51363          	bne	a0,a1,80003e6a <release+0x3a>
    80003e48:	1141                	addi	sp,sp,-16
    80003e4a:	078e                	slli	a5,a5,0x3
    80003e4c:	e406                	sd	ra,8(sp)
    80003e4e:	97b6                	add	a5,a5,a3
    80003e50:	4595                	li	a1,5
    80003e52:	0007b023          	sd	zero,0(a5)
    80003e56:	00001097          	auipc	ra,0x1
    80003e5a:	80e080e7          	jalr	-2034(ra) # 80004664 <free_pages>
    80003e5e:	60a2                	ld	ra,8(sp)
    80003e60:	0141                	addi	sp,sp,16
    80003e62:	00000317          	auipc	t1,0x0
    80003e66:	d0a30067          	jr	-758(t1) # 80003b6c <schedule>
    80003e6a:	2785                	addiw	a5,a5,1
    80003e6c:	0721                	addi	a4,a4,8
    80003e6e:	fcc79ae3          	bne	a5,a2,80003e42 <release+0x12>
    80003e72:	00009517          	auipc	a0,0x9
    80003e76:	f9e50513          	addi	a0,a0,-98 # 8000ce10 <thisname.5566+0x88>
    80003e7a:	00000317          	auipc	t1,0x0
    80003e7e:	3e830067          	jr	1000(t1) # 80004262 <panic>
    80003e82:	8082                	ret

0000000080003e84 <sys_kill>:
    80003e84:	7179                	addi	sp,sp,-48
    80003e86:	e84a                	sd	s2,16(sp)
    80003e88:	e052                	sd	s4,0(sp)
    80003e8a:	f406                	sd	ra,40(sp)
    80003e8c:	f022                	sd	s0,32(sp)
    80003e8e:	ec26                	sd	s1,24(sp)
    80003e90:	e44e                	sd	s3,8(sp)
    80003e92:	8a2e                	mv	s4,a1
    80003e94:	0000a917          	auipc	s2,0xa
    80003e98:	b2490913          	addi	s2,s2,-1244 # 8000d9b8 <task>
    80003e9c:	cd3d                	beqz	a0,80003f1a <sys_kill+0x96>
    80003e9e:	842a                	mv	s0,a0
    80003ea0:	0aa04a63          	bgtz	a0,80003f54 <sys_kill+0xd0>
    80003ea4:	57fd                	li	a5,-1
    80003ea6:	4481                	li	s1,0
    80003ea8:	0cf50963          	beq	a0,a5,80003f7a <sys_kill+0xf6>
    80003eac:	0000a997          	auipc	s3,0xa
    80003eb0:	d0c98993          	addi	s3,s3,-756 # 8000dbb8 <mem_map>
    80003eb4:	40a0043b          	negw	s0,a0
    80003eb8:	19e1                	addi	s3,s3,-8
    80003eba:	05298763          	beq	s3,s2,80003f08 <sys_kill+0x84>
    80003ebe:	0009b583          	ld	a1,0(s3)
    80003ec2:	d9fd                	beqz	a1,80003eb8 <sys_kill+0x34>
    80003ec4:	3685b783          	ld	a5,872(a1)
    80003ec8:	fe8798e3          	bne	a5,s0,80003eb8 <sys_kill+0x34>
    80003ecc:	4601                	li	a2,0
    80003ece:	8552                	mv	a0,s4
    80003ed0:	00000097          	auipc	ra,0x0
    80003ed4:	f20080e7          	jalr	-224(ra) # 80003df0 <send_sig>
    80003ed8:	d165                	beqz	a0,80003eb8 <sys_kill+0x34>
    80003eda:	84aa                	mv	s1,a0
    80003edc:	bff1                	j	80003eb8 <sys_kill+0x34>
    80003ede:	600c                	ld	a1,0(s0)
    80003ee0:	c18d                	beqz	a1,80003f02 <sys_kill+0x7e>
    80003ee2:	0009b783          	ld	a5,0(s3)
    80003ee6:	3685b703          	ld	a4,872(a1)
    80003eea:	3587b783          	ld	a5,856(a5)
    80003eee:	00f71a63          	bne	a4,a5,80003f02 <sys_kill+0x7e>
    80003ef2:	4605                	li	a2,1
    80003ef4:	8552                	mv	a0,s4
    80003ef6:	00000097          	auipc	ra,0x0
    80003efa:	efa080e7          	jalr	-262(ra) # 80003df0 <send_sig>
    80003efe:	c111                	beqz	a0,80003f02 <sys_kill+0x7e>
    80003f00:	84aa                	mv	s1,a0
    80003f02:	1461                	addi	s0,s0,-8
    80003f04:	fd241de3          	bne	s0,s2,80003ede <sys_kill+0x5a>
    80003f08:	70a2                	ld	ra,40(sp)
    80003f0a:	7402                	ld	s0,32(sp)
    80003f0c:	8526                	mv	a0,s1
    80003f0e:	6942                	ld	s2,16(sp)
    80003f10:	64e2                	ld	s1,24(sp)
    80003f12:	69a2                	ld	s3,8(sp)
    80003f14:	6a02                	ld	s4,0(sp)
    80003f16:	6145                	addi	sp,sp,48
    80003f18:	8082                	ret
    80003f1a:	4481                	li	s1,0
    80003f1c:	0000a417          	auipc	s0,0xa
    80003f20:	c9c40413          	addi	s0,s0,-868 # 8000dbb8 <mem_map>
    80003f24:	0000c997          	auipc	s3,0xc
    80003f28:	ccc98993          	addi	s3,s3,-820 # 8000fbf0 <current>
    80003f2c:	bfd9                	j	80003f02 <sys_kill+0x7e>
    80003f2e:	0009b583          	ld	a1,0(s3)
    80003f32:	cd89                	beqz	a1,80003f4c <sys_kill+0xc8>
    80003f34:	3585b783          	ld	a5,856(a1)
    80003f38:	00879a63          	bne	a5,s0,80003f4c <sys_kill+0xc8>
    80003f3c:	4601                	li	a2,0
    80003f3e:	8552                	mv	a0,s4
    80003f40:	00000097          	auipc	ra,0x0
    80003f44:	eb0080e7          	jalr	-336(ra) # 80003df0 <send_sig>
    80003f48:	c111                	beqz	a0,80003f4c <sys_kill+0xc8>
    80003f4a:	84aa                	mv	s1,a0
    80003f4c:	19e1                	addi	s3,s3,-8
    80003f4e:	ff2990e3          	bne	s3,s2,80003f2e <sys_kill+0xaa>
    80003f52:	bf5d                	j	80003f08 <sys_kill+0x84>
    80003f54:	4481                	li	s1,0
    80003f56:	0000a997          	auipc	s3,0xa
    80003f5a:	c6298993          	addi	s3,s3,-926 # 8000dbb8 <mem_map>
    80003f5e:	b7fd                	j	80003f4c <sys_kill+0xc8>
    80003f60:	600c                	ld	a1,0(s0)
    80003f62:	4601                	li	a2,0
    80003f64:	8552                	mv	a0,s4
    80003f66:	00000097          	auipc	ra,0x0
    80003f6a:	e8a080e7          	jalr	-374(ra) # 80003df0 <send_sig>
    80003f6e:	c111                	beqz	a0,80003f72 <sys_kill+0xee>
    80003f70:	84aa                	mv	s1,a0
    80003f72:	1461                	addi	s0,s0,-8
    80003f74:	ff2416e3          	bne	s0,s2,80003f60 <sys_kill+0xdc>
    80003f78:	bf41                	j	80003f08 <sys_kill+0x84>
    80003f7a:	0000a417          	auipc	s0,0xa
    80003f7e:	c3e40413          	addi	s0,s0,-962 # 8000dbb8 <mem_map>
    80003f82:	bfc5                	j	80003f72 <sys_kill+0xee>

0000000080003f84 <do_exit>:
    80003f84:	1101                	addi	sp,sp,-32
    80003f86:	e822                	sd	s0,16(sp)
    80003f88:	0000c417          	auipc	s0,0xc
    80003f8c:	c6840413          	addi	s0,s0,-920 # 8000fbf0 <current>
    80003f90:	601c                	ld	a5,0(s0)
    80003f92:	e426                	sd	s1,8(sp)
    80003f94:	84aa                	mv	s1,a0
    80003f96:	3c87b503          	ld	a0,968(a5)
    80003f9a:	ec06                	sd	ra,24(sp)
    80003f9c:	c901                	beqz	a0,80003fac <do_exit+0x28>
    80003f9e:	6585                	lui	a1,0x1
    80003fa0:	80058593          	addi	a1,a1,-2048 # 800 <_stack_size-0x7800>
    80003fa4:	00000097          	auipc	ra,0x0
    80003fa8:	6f0080e7          	jalr	1776(ra) # 80004694 <free_page_tables>
    80003fac:	0000a797          	auipc	a5,0xa
    80003fb0:	a0c78793          	addi	a5,a5,-1524 # 8000d9b8 <task>
    80003fb4:	6018                	ld	a4,0(s0)
    80003fb6:	678c                	ld	a1,8(a5)
    80003fb8:	0000a517          	auipc	a0,0xa
    80003fbc:	c0050513          	addi	a0,a0,-1024 # 8000dbb8 <mem_map>
    80003fc0:	86be                	mv	a3,a5
    80003fc2:	883e                	mv	a6,a5
    80003fc4:	4885                	li	a7,1
    80003fc6:	430d                	li	t1,3
    80003fc8:	6e41                	lui	t3,0x10
    80003fca:	6290                	ld	a2,0(a3)
    80003fcc:	c20d                	beqz	a2,80003fee <do_exit+0x6a>
    80003fce:	36063f03          	ld	t5,864(a2)
    80003fd2:	35873e83          	ld	t4,856(a4)
    80003fd6:	01df1c63          	bne	t5,t4,80003fee <do_exit+0x6a>
    80003fda:	37163023          	sd	a7,864(a2)
    80003fde:	6210                	ld	a2,0(a2)
    80003fe0:	00661763          	bne	a2,t1,80003fee <do_exit+0x6a>
    80003fe4:	c589                	beqz	a1,80003fee <do_exit+0x6a>
    80003fe6:	6d90                	ld	a2,24(a1)
    80003fe8:	01c66633          	or	a2,a2,t3
    80003fec:	ed90                	sd	a2,24(a1)
    80003fee:	06a1                	addi	a3,a3,8
    80003ff0:	fcd51de3          	bne	a0,a3,80003fca <do_exit+0x46>
    80003ff4:	37873683          	ld	a3,888(a4)
    80003ff8:	e6b1                	bnez	a3,80004044 <do_exit+0xc0>
    80003ffa:	468d                	li	a3,3
    80003ffc:	e314                	sd	a3,0(a4)
    80003ffe:	36072683          	lw	a3,864(a4)
    80004002:	32972423          	sw	s1,808(a4)
    80004006:	e6b9                	bnez	a3,80004054 <do_exit+0xd0>
    80004008:	00009517          	auipc	a0,0x9
    8000400c:	de850513          	addi	a0,a0,-536 # 8000cdf0 <thisname.5566+0x68>
    80004010:	00000097          	auipc	ra,0x0
    80004014:	1b2080e7          	jalr	434(ra) # 800041c2 <printk>
    80004018:	6008                	ld	a0,0(s0)
    8000401a:	00000097          	auipc	ra,0x0
    8000401e:	e16080e7          	jalr	-490(ra) # 80003e30 <release>
    80004022:	a099                	j	80004068 <do_exit+0xe4>
    80004024:	6290                	ld	a2,0(a3)
    80004026:	ca19                	beqz	a2,8000403c <do_exit+0xb8>
    80004028:	37063883          	ld	a7,880(a2)
    8000402c:	37073583          	ld	a1,880(a4)
    80004030:	00b89663          	bne	a7,a1,8000403c <do_exit+0xb8>
    80004034:	6e0c                	ld	a1,24(a2)
    80004036:	0015e593          	ori	a1,a1,1
    8000403a:	ee0c                	sd	a1,24(a2)
    8000403c:	16e1                	addi	a3,a3,-8
    8000403e:	ff0693e3          	bne	a3,a6,80004024 <do_exit+0xa0>
    80004042:	bf65                	j	80003ffa <do_exit+0x76>
    80004044:	0000a697          	auipc	a3,0xa
    80004048:	b7468693          	addi	a3,a3,-1164 # 8000dbb8 <mem_map>
    8000404c:	bfc5                	j	8000403c <do_exit+0xb8>
    8000404e:	07a1                	addi	a5,a5,8
    80004050:	faf50ce3          	beq	a0,a5,80004008 <do_exit+0x84>
    80004054:	6398                	ld	a4,0(a5)
    80004056:	df65                	beqz	a4,8000404e <do_exit+0xca>
    80004058:	35873603          	ld	a2,856(a4)
    8000405c:	fed619e3          	bne	a2,a3,8000404e <do_exit+0xca>
    80004060:	6f1c                	ld	a5,24(a4)
    80004062:	66c1                	lui	a3,0x10
    80004064:	8fd5                	or	a5,a5,a3
    80004066:	ef1c                	sd	a5,24(a4)
    80004068:	6442                	ld	s0,16(sp)
    8000406a:	60e2                	ld	ra,24(sp)
    8000406c:	64a2                	ld	s1,8(sp)
    8000406e:	6105                	addi	sp,sp,32
    80004070:	00000317          	auipc	t1,0x0
    80004074:	afc30067          	jr	-1284(t1) # 80003b6c <schedule>

0000000080004078 <sys_exit>:
    80004078:	67c1                	lui	a5,0x10
    8000407a:	17fd                	addi	a5,a5,-1
    8000407c:	0085151b          	slliw	a0,a0,0x8
    80004080:	8d7d                	and	a0,a0,a5
    80004082:	1141                	addi	sp,sp,-16
    80004084:	2501                	sext.w	a0,a0
    80004086:	e406                	sd	ra,8(sp)
    80004088:	00000097          	auipc	ra,0x0
    8000408c:	efc080e7          	jalr	-260(ra) # 80003f84 <do_exit>
    80004090:	60a2                	ld	ra,8(sp)
    80004092:	557d                	li	a0,-1
    80004094:	0141                	addi	sp,sp,16
    80004096:	8082                	ret

0000000080004098 <sys_waitpid>:
    80004098:	7139                	addi	sp,sp,-64
    8000409a:	f822                	sd	s0,48(sp)
    8000409c:	e42e                	sd	a1,8(sp)
    8000409e:	842a                	mv	s0,a0
    800040a0:	852e                	mv	a0,a1
    800040a2:	4591                	li	a1,4
    800040a4:	fc06                	sd	ra,56(sp)
    800040a6:	f426                	sd	s1,40(sp)
    800040a8:	f04a                	sd	s2,32(sp)
    800040aa:	84b2                	mv	s1,a2
    800040ac:	ec4e                	sd	s3,24(sp)
    800040ae:	e852                	sd	s4,16(sp)
    800040b0:	fffff097          	auipc	ra,0xfffff
    800040b4:	0c4080e7          	jalr	196(ra) # 80003174 <verify_area>
    800040b8:	0024f913          	andi	s2,s1,2
    800040bc:	0028                	addi	a0,sp,8
    800040be:	00001097          	auipc	ra,0x1
    800040c2:	ac8080e7          	jalr	-1336(ra) # 80004b86 <user_ptr_to_kernel>
    800040c6:	2901                	sext.w	s2,s2
    800040c8:	408009bb          	negw	s3,s0
    800040cc:	8885                	andi	s1,s1,1
    800040ce:	0000ca17          	auipc	s4,0xc
    800040d2:	b22a0a13          	addi	s4,s4,-1246 # 8000fbf0 <current>
    800040d6:	000a3783          	ld	a5,0(s4)
    800040da:	0000a717          	auipc	a4,0xa
    800040de:	ad670713          	addi	a4,a4,-1322 # 8000dbb0 <task+0x1f8>
    800040e2:	4681                	li	a3,0
    800040e4:	480d                	li	a6,3
    800040e6:	4891                	li	a7,4
    800040e8:	537d                	li	t1,-1
    800040ea:	0000a597          	auipc	a1,0xa
    800040ee:	8ce58593          	addi	a1,a1,-1842 # 8000d9b8 <task>
    800040f2:	6308                	ld	a0,0(a4)
    800040f4:	cd19                	beqz	a0,80004112 <sys_waitpid+0x7a>
    800040f6:	00f50e63          	beq	a0,a5,80004112 <sys_waitpid+0x7a>
    800040fa:	36053e03          	ld	t3,864(a0)
    800040fe:	3587b603          	ld	a2,856(a5) # 10358 <_stack_size+0x8358>
    80004102:	00ce1863          	bne	t3,a2,80004112 <sys_waitpid+0x7a>
    80004106:	02805b63          	blez	s0,8000413c <sys_waitpid+0xa4>
    8000410a:	35853603          	ld	a2,856(a0)
    8000410e:	02860e63          	beq	a2,s0,8000414a <sys_waitpid+0xb2>
    80004112:	1761                	addi	a4,a4,-8
    80004114:	fcb71fe3          	bne	a4,a1,800040f2 <sys_waitpid+0x5a>
    80004118:	c2cd                	beqz	a3,800041ba <sys_waitpid+0x122>
    8000411a:	e0d5                	bnez	s1,800041be <sys_waitpid+0x126>
    8000411c:	4705                	li	a4,1
    8000411e:	e398                	sd	a4,0(a5)
    80004120:	00000097          	auipc	ra,0x0
    80004124:	a4c080e7          	jalr	-1460(ra) # 80003b6c <schedule>
    80004128:	000a3683          	ld	a3,0(s4)
    8000412c:	7741                	lui	a4,0xffff0
    8000412e:	177d                	addi	a4,a4,-1
    80004130:	6e9c                	ld	a5,24(a3)
    80004132:	8ff9                	and	a5,a5,a4
    80004134:	ee9c                	sd	a5,24(a3)
    80004136:	dfc1                	beqz	a5,800040ce <sys_waitpid+0x36>
    80004138:	5571                	li	a0,-4
    8000413a:	a02d                	j	80004164 <sys_waitpid+0xcc>
    8000413c:	ec05                	bnez	s0,80004174 <sys_waitpid+0xdc>
    8000413e:	36853e03          	ld	t3,872(a0)
    80004142:	3687b603          	ld	a2,872(a5)
    80004146:	fcce16e3          	bne	t3,a2,80004112 <sys_waitpid+0x7a>
    8000414a:	6110                	ld	a2,0(a0)
    8000414c:	03060b63          	beq	a2,a6,80004182 <sys_waitpid+0xea>
    80004150:	07161363          	bne	a2,a7,800041b6 <sys_waitpid+0x11e>
    80004154:	fa090fe3          	beqz	s2,80004112 <sys_waitpid+0x7a>
    80004158:	67a2                	ld	a5,8(sp)
    8000415a:	35853503          	ld	a0,856(a0)
    8000415e:	07f00713          	li	a4,127
    80004162:	c398                	sw	a4,0(a5)
    80004164:	70e2                	ld	ra,56(sp)
    80004166:	7442                	ld	s0,48(sp)
    80004168:	74a2                	ld	s1,40(sp)
    8000416a:	7902                	ld	s2,32(sp)
    8000416c:	69e2                	ld	s3,24(sp)
    8000416e:	6a42                	ld	s4,16(sp)
    80004170:	6121                	addi	sp,sp,64
    80004172:	8082                	ret
    80004174:	fc640be3          	beq	s0,t1,8000414a <sys_waitpid+0xb2>
    80004178:	36853603          	ld	a2,872(a0)
    8000417c:	fd3607e3          	beq	a2,s3,8000414a <sys_waitpid+0xb2>
    80004180:	bf49                	j	80004112 <sys_waitpid+0x7a>
    80004182:	39853683          	ld	a3,920(a0)
    80004186:	3a87b703          	ld	a4,936(a5)
    8000418a:	32852483          	lw	s1,808(a0)
    8000418e:	35852403          	lw	s0,856(a0)
    80004192:	9736                	add	a4,a4,a3
    80004194:	3ae7b423          	sd	a4,936(a5)
    80004198:	3a053683          	ld	a3,928(a0)
    8000419c:	3b07b703          	ld	a4,944(a5)
    800041a0:	9736                	add	a4,a4,a3
    800041a2:	3ae7b823          	sd	a4,944(a5)
    800041a6:	00000097          	auipc	ra,0x0
    800041aa:	c8a080e7          	jalr	-886(ra) # 80003e30 <release>
    800041ae:	67a2                	ld	a5,8(sp)
    800041b0:	8522                	mv	a0,s0
    800041b2:	c384                	sw	s1,0(a5)
    800041b4:	bf45                	j	80004164 <sys_waitpid+0xcc>
    800041b6:	4685                	li	a3,1
    800041b8:	bfa9                	j	80004112 <sys_waitpid+0x7a>
    800041ba:	5559                	li	a0,-10
    800041bc:	b765                	j	80004164 <sys_waitpid+0xcc>
    800041be:	4501                	li	a0,0
    800041c0:	b755                	j	80004164 <sys_waitpid+0xcc>

00000000800041c2 <printk>:
    800041c2:	711d                	addi	sp,sp,-96
    800041c4:	f42e                	sd	a1,40(sp)
    800041c6:	102c                	addi	a1,sp,40
    800041c8:	ec06                	sd	ra,24(sp)
    800041ca:	f832                	sd	a2,48(sp)
    800041cc:	fc36                	sd	a3,56(sp)
    800041ce:	e0ba                	sd	a4,64(sp)
    800041d0:	e4be                	sd	a5,72(sp)
    800041d2:	e8c2                	sd	a6,80(sp)
    800041d4:	ecc6                	sd	a7,88(sp)
    800041d6:	e42e                	sd	a1,8(sp)
    800041d8:	ffffe097          	auipc	ra,0xffffe
    800041dc:	b7e080e7          	jalr	-1154(ra) # 80001d56 <syslog_vprint>
    800041e0:	60e2                	ld	ra,24(sp)
    800041e2:	6125                	addi	sp,sp,96
    800041e4:	8082                	ret

00000000800041e6 <kernel_mktime>:
    800041e6:	4954                	lw	a3,20(a0)
    800041e8:	6755                	lui	a4,0x15
    800041ea:	1807071b          	addiw	a4,a4,384
    800041ee:	fbb6879b          	addiw	a5,a3,-69
    800041f2:	4027d79b          	sraiw	a5,a5,0x2
    800041f6:	01e13637          	lui	a2,0x1e13
    800041fa:	02e787bb          	mulw	a5,a5,a4
    800041fe:	3806061b          	addiw	a2,a2,896
    80004202:	fba6871b          	addiw	a4,a3,-70
    80004206:	02c7073b          	mulw	a4,a4,a2
    8000420a:	4910                	lw	a2,16(a0)
    8000420c:	00261593          	slli	a1,a2,0x2
    80004210:	9fb9                	addw	a5,a5,a4
    80004212:	00009717          	auipc	a4,0x9
    80004216:	c2670713          	addi	a4,a4,-986 # 8000ce38 <month>
    8000421a:	972e                	add	a4,a4,a1
    8000421c:	4318                	lw	a4,0(a4)
    8000421e:	973e                	add	a4,a4,a5
    80004220:	4785                	li	a5,1
    80004222:	00c7d863          	ble	a2,a5,80004232 <kernel_mktime+0x4c>
    80004226:	8a8d                	andi	a3,a3,3
    80004228:	c689                	beqz	a3,80004232 <kernel_mktime+0x4c>
    8000422a:	77ad                	lui	a5,0xfffeb
    8000422c:	e8078793          	addi	a5,a5,-384 # fffffffffffeae80 <_trapsp0+0xffffffff7ffb5e40>
    80004230:	973e                	add	a4,a4,a5
    80004232:	455c                	lw	a5,12(a0)
    80004234:	66d5                	lui	a3,0x15
    80004236:	1806869b          	addiw	a3,a3,384
    8000423a:	2785                	addiw	a5,a5,1
    8000423c:	02d787bb          	mulw	a5,a5,a3
    80004240:	6685                	lui	a3,0x1
    80004242:	e106869b          	addiw	a3,a3,-496
    80004246:	97ba                	add	a5,a5,a4
    80004248:	4518                	lw	a4,8(a0)
    8000424a:	02d7073b          	mulw	a4,a4,a3
    8000424e:	4154                	lw	a3,4(a0)
    80004250:	4108                	lw	a0,0(a0)
    80004252:	973e                	add	a4,a4,a5
    80004254:	03c00793          	li	a5,60
    80004258:	02d787bb          	mulw	a5,a5,a3
    8000425c:	97ba                	add	a5,a5,a4
    8000425e:	953e                	add	a0,a0,a5
    80004260:	8082                	ret

0000000080004262 <panic>:
    80004262:	1141                	addi	sp,sp,-16
    80004264:	85aa                	mv	a1,a0
    80004266:	00009517          	auipc	a0,0x9
    8000426a:	c0250513          	addi	a0,a0,-1022 # 8000ce68 <month+0x30>
    8000426e:	e406                	sd	ra,8(sp)
    80004270:	00000097          	auipc	ra,0x0
    80004274:	f52080e7          	jalr	-174(ra) # 800041c2 <printk>
    80004278:	a001                	j	80004278 <panic+0x16>
	...

0000000080004300 <syscall_from_kernel>:
	...

0000000080004308 <bad_sys_call>:
    80004308:	557d                	li	a0,-1
    8000430a:	8082                	ret

000000008000430c <reschedule>:
    8000430c:	00000097          	auipc	ra,0x0
    80004310:	05808093          	addi	ra,ra,88 # 80004364 <ret_from_sys_call>
    80004314:	00000317          	auipc	t1,0x0
    80004318:	85830067          	jr	-1960(t1) # 80003b6c <schedule>

000000008000431c <system_call>:
    8000431c:	1141                	addi	sp,sp,-16
    8000431e:	e006                	sd	ra,0(sp)
    80004320:	e422                	sd	s0,8(sp)
    80004322:	04700293          	li	t0,71
    80004326:	40a282b3          	sub	t0,t0,a0
    8000432a:	fc02cfe3          	bltz	t0,80004308 <bad_sys_call>
    8000432e:	050e                	slli	a0,a0,0x3
    80004330:	00009297          	auipc	t0,0x9
    80004334:	44828293          	addi	t0,t0,1096 # 8000d778 <sys_call_table>
    80004338:	92aa                	add	t0,t0,a0
    8000433a:	0002b283          	ld	t0,0(t0)
    8000433e:	852e                	mv	a0,a1
    80004340:	85b2                	mv	a1,a2
    80004342:	8636                	mv	a2,a3
    80004344:	9282                	jalr	t0
    80004346:	842a                	mv	s0,a0
    80004348:	0000c297          	auipc	t0,0xc
    8000434c:	8a828293          	addi	t0,t0,-1880 # 8000fbf0 <current>
    80004350:	0002b283          	ld	t0,0(t0)
    80004354:	0002b303          	ld	t1,0(t0)
    80004358:	fa031ae3          	bnez	t1,8000430c <reschedule>
    8000435c:	0082b303          	ld	t1,8(t0)
    80004360:	fa0306e3          	beqz	t1,8000430c <reschedule>

0000000080004364 <ret_from_sys_call>:
    80004364:	0000c297          	auipc	t0,0xc
    80004368:	88c28293          	addi	t0,t0,-1908 # 8000fbf0 <current>
    8000436c:	0002b283          	ld	t0,0(t0)
    80004370:	00009317          	auipc	t1,0x9
    80004374:	64830313          	addi	t1,t1,1608 # 8000d9b8 <task>
    80004378:	00033303          	ld	t1,0(t1)
    8000437c:	40628333          	sub	t1,t0,t1
    80004380:	04030963          	beqz	t1,800043d2 <ret_from_sys_call+0x6e>
    80004384:	00000317          	auipc	t1,0x0
    80004388:	f7c30313          	addi	t1,t1,-132 # 80004300 <syscall_from_kernel>
    8000438c:	00033303          	ld	t1,0(t1)
    80004390:	04030163          	beqz	t1,800043d2 <ret_from_sys_call+0x6e>
    80004394:	0202b303          	ld	t1,32(t0)
    80004398:	3302b383          	ld	t2,816(t0)
    8000439c:	fff3c393          	not	t2,t2
    800043a0:	00737333          	and	t1,t1,t2
    800043a4:	851a                	mv	a0,t1
    800043a6:	ffffc097          	auipc	ra,0xffffc
    800043aa:	d86080e7          	jalr	-634(ra) # 8000012c <bitscan>
    800043ae:	00150e13          	addi	t3,a0,1
    800043b2:	020e0063          	beqz	t3,800043d2 <ret_from_sys_call+0x6e>
    800043b6:	4e05                	li	t3,1
    800043b8:	00ae1e33          	sll	t3,t3,a0
    800043bc:	fffe4e13          	not	t3,t3
    800043c0:	01c37333          	and	t1,t1,t3
    800043c4:	0262b023          	sd	t1,32(t0)
    800043c8:	0505                	addi	a0,a0,1
    800043ca:	fffff097          	auipc	ra,0xfffff
    800043ce:	4d0080e7          	jalr	1232(ra) # 8000389a <do_signal>
    800043d2:	8522                	mv	a0,s0
    800043d4:	6422                	ld	s0,8(sp)
    800043d6:	6082                	ld	ra,0(sp)
    800043d8:	0141                	addi	sp,sp,16
    800043da:	8082                	ret

00000000800043dc <sys_execve>:
    800043dc:	8082                	ret

00000000800043de <sys_fork>:
    800043de:	1161                	addi	sp,sp,-8
    800043e0:	e006                	sd	ra,0(sp)
    800043e2:	fffff097          	auipc	ra,0xfffff
    800043e6:	fc4080e7          	jalr	-60(ra) # 800033a6 <find_empty_process>
    800043ea:	00054863          	bltz	a0,800043fa <sys_fork+0x1c>
    800043ee:	fffff097          	auipc	ra,0xfffff
    800043f2:	e04080e7          	jalr	-508(ra) # 800031f2 <copy_process>
    800043f6:	6082                	ld	ra,0(sp)
    800043f8:	0121                	addi	sp,sp,8
    800043fa:	8082                	ret

00000000800043fc <sys_setup>:
    800043fc:	8082                	ret

00000000800043fe <sys_read>:
    800043fe:	8082                	ret

0000000080004400 <sys_open>:
    80004400:	8082                	ret

0000000080004402 <sys_close>:
    80004402:	8082                	ret

0000000080004404 <sys_creat>:
    80004404:	8082                	ret

0000000080004406 <sys_link>:
    80004406:	8082                	ret

0000000080004408 <sys_unlink>:
    80004408:	8082                	ret

000000008000440a <sys_chdir>:
    8000440a:	8082                	ret

000000008000440c <sys_mknod>:
    8000440c:	8082                	ret

000000008000440e <sys_chmod>:
    8000440e:	8082                	ret

0000000080004410 <sys_chown>:
    80004410:	8082                	ret

0000000080004412 <sys_stat>:
    80004412:	8082                	ret

0000000080004414 <sys_lseek>:
    80004414:	8082                	ret

0000000080004416 <sys_mount>:
    80004416:	8082                	ret

0000000080004418 <sys_umount>:
    80004418:	8082                	ret

000000008000441a <sys_fstat>:
    8000441a:	8082                	ret

000000008000441c <sys_utime>:
    8000441c:	8082                	ret

000000008000441e <sys_access>:
    8000441e:	8082                	ret

0000000080004420 <sys_sync>:
    80004420:	8082                	ret

0000000080004422 <sys_mkdir>:
    80004422:	8082                	ret

0000000080004424 <sys_rmdir>:
    80004424:	8082                	ret

0000000080004426 <sys_dup>:
    80004426:	8082                	ret

0000000080004428 <sys_pipe>:
    80004428:	8082                	ret

000000008000442a <sys_getegid>:
    8000442a:	8082                	ret

000000008000442c <sys_ioctl>:
    8000442c:	8082                	ret

000000008000442e <sys_fcntl>:
    8000442e:	8082                	ret

0000000080004430 <sys_chroot>:
    80004430:	8082                	ret

0000000080004432 <sys_ustat>:
    80004432:	8082                	ret

0000000080004434 <sys_dup2>:
    80004434:	8082                	ret
	...

0000000080004502 <oom>:
    80004502:	1141                	addi	sp,sp,-16
    80004504:	00009517          	auipc	a0,0x9
    80004508:	a6450513          	addi	a0,a0,-1436 # 8000cf68 <month+0x130>
    8000450c:	e406                	sd	ra,8(sp)
    8000450e:	00000097          	auipc	ra,0x0
    80004512:	cb4080e7          	jalr	-844(ra) # 800041c2 <printk>
    80004516:	60a2                	ld	ra,8(sp)
    80004518:	452d                	li	a0,11
    8000451a:	0141                	addi	sp,sp,16
    8000451c:	00000317          	auipc	t1,0x0
    80004520:	a6830067          	jr	-1432(t1) # 80003f84 <do_exit>

0000000080004524 <copy_page>:
    80004524:	20000793          	li	a5,512
    80004528:	6118                	ld	a4,0(a0)
    8000452a:	17fd                	addi	a5,a5,-1
    8000452c:	e198                	sd	a4,0(a1)
    8000452e:	ffed                	bnez	a5,80004528 <copy_page+0x4>
    80004530:	8082                	ret

0000000080004532 <get_free_page>:
    80004532:	6785                	lui	a5,0x1
    80004534:	f0078793          	addi	a5,a5,-256 # f00 <_stack_size-0x7100>
    80004538:	00009697          	auipc	a3,0x9
    8000453c:	68068693          	addi	a3,a3,1664 # 8000dbb8 <mem_map>
    80004540:	17fd                	addi	a5,a5,-1
    80004542:	e399                	bnez	a5,80004548 <get_free_page+0x16>
    80004544:	853e                	mv	a0,a5
    80004546:	8082                	ret
    80004548:	00d78733          	add	a4,a5,a3
    8000454c:	00074603          	lbu	a2,0(a4)
    80004550:	fa65                	bnez	a2,80004540 <get_free_page+0xe>
    80004552:	1141                	addi	sp,sp,-16
    80004554:	e406                	sd	ra,8(sp)
    80004556:	4685                	li	a3,1
    80004558:	00d70023          	sb	a3,0(a4)
    8000455c:	00801737          	lui	a4,0x801
    80004560:	0722                	slli	a4,a4,0x8
    80004562:	07b2                	slli	a5,a5,0xc
    80004564:	97ba                	add	a5,a5,a4
    80004566:	6605                	lui	a2,0x1
    80004568:	4581                	li	a1,0
    8000456a:	853e                	mv	a0,a5
    8000456c:	00002097          	auipc	ra,0x2
    80004570:	384080e7          	jalr	900(ra) # 800068f0 <memset>
    80004574:	60a2                	ld	ra,8(sp)
    80004576:	0141                	addi	sp,sp,16
    80004578:	8082                	ret

000000008000457a <get_free_pages>:
    8000457a:	6785                	lui	a5,0x1
    8000457c:	4605                	li	a2,1
    8000457e:	eff78793          	addi	a5,a5,-257 # eff <_stack_size-0x7101>
    80004582:	fff50593          	addi	a1,a0,-1
    80004586:	8e09                	sub	a2,a2,a0
    80004588:	00009817          	auipc	a6,0x9
    8000458c:	63080813          	addi	a6,a6,1584 # 8000dbb8 <mem_map>
    80004590:	00f5ee63          	bltu	a1,a5,800045ac <get_free_pages+0x32>
    80004594:	4781                	li	a5,0
    80004596:	853e                	mv	a0,a5
    80004598:	8082                	ret
    8000459a:	010688b3          	add	a7,a3,a6
    8000459e:	0008c883          	lbu	a7,0(a7) # 2000 <_stack_size-0x6000>
    800045a2:	16fd                	addi	a3,a3,-1
    800045a4:	00088763          	beqz	a7,800045b2 <get_free_pages+0x38>
    800045a8:	87b6                	mv	a5,a3
    800045aa:	b7dd                	j	80004590 <get_free_pages+0x16>
    800045ac:	86be                	mv	a3,a5
    800045ae:	00f60733          	add	a4,a2,a5
    800045b2:	fee6f4e3          	bleu	a4,a3,8000459a <get_free_pages+0x20>
    800045b6:	1141                	addi	sp,sp,-16
    800045b8:	e406                	sd	ra,8(sp)
    800045ba:	00009697          	auipc	a3,0x9
    800045be:	5fe68693          	addi	a3,a3,1534 # 8000dbb8 <mem_map>
    800045c2:	4605                	li	a2,1
    800045c4:	02e7f263          	bleu	a4,a5,800045e8 <get_free_pages+0x6e>
    800045c8:	008017b7          	lui	a5,0x801
    800045cc:	0732                	slli	a4,a4,0xc
    800045ce:	07a2                	slli	a5,a5,0x8
    800045d0:	97ba                	add	a5,a5,a4
    800045d2:	00c51613          	slli	a2,a0,0xc
    800045d6:	4581                	li	a1,0
    800045d8:	853e                	mv	a0,a5
    800045da:	00002097          	auipc	ra,0x2
    800045de:	316080e7          	jalr	790(ra) # 800068f0 <memset>
    800045e2:	60a2                	ld	ra,8(sp)
    800045e4:	0141                	addi	sp,sp,16
    800045e6:	8082                	ret
    800045e8:	00d785b3          	add	a1,a5,a3
    800045ec:	00c58023          	sb	a2,0(a1)
    800045f0:	17fd                	addi	a5,a5,-1
    800045f2:	bfc9                	j	800045c4 <get_free_pages+0x4a>

00000000800045f4 <free_page>:
    800045f4:	008017b7          	lui	a5,0x801
    800045f8:	07a2                	slli	a5,a5,0x8
    800045fa:	06f56463          	bltu	a0,a5,80004662 <free_page+0x6e>
    800045fe:	0000b797          	auipc	a5,0xb
    80004602:	61278793          	addi	a5,a5,1554 # 8000fc10 <HIGH_MEMORY>
    80004606:	639c                	ld	a5,0(a5)
    80004608:	1141                	addi	sp,sp,-16
    8000460a:	e022                	sd	s0,0(sp)
    8000460c:	e406                	sd	ra,8(sp)
    8000460e:	842a                	mv	s0,a0
    80004610:	00f56a63          	bltu	a0,a5,80004624 <free_page+0x30>
    80004614:	00009517          	auipc	a0,0x9
    80004618:	8bc50513          	addi	a0,a0,-1860 # 8000ced0 <month+0x98>
    8000461c:	00000097          	auipc	ra,0x0
    80004620:	c46080e7          	jalr	-954(ra) # 80004262 <panic>
    80004624:	ff7ff537          	lui	a0,0xff7ff
    80004628:	0522                	slli	a0,a0,0x8
    8000462a:	942a                	add	s0,s0,a0
    8000462c:	00009797          	auipc	a5,0x9
    80004630:	58c78793          	addi	a5,a5,1420 # 8000dbb8 <mem_map>
    80004634:	8031                	srli	s0,s0,0xc
    80004636:	943e                	add	s0,s0,a5
    80004638:	00044783          	lbu	a5,0(s0)
    8000463c:	cb81                	beqz	a5,8000464c <free_page+0x58>
    8000463e:	37fd                	addiw	a5,a5,-1
    80004640:	00f40023          	sb	a5,0(s0)
    80004644:	60a2                	ld	ra,8(sp)
    80004646:	6402                	ld	s0,0(sp)
    80004648:	0141                	addi	sp,sp,16
    8000464a:	8082                	ret
    8000464c:	6402                	ld	s0,0(sp)
    8000464e:	60a2                	ld	ra,8(sp)
    80004650:	00009517          	auipc	a0,0x9
    80004654:	8a050513          	addi	a0,a0,-1888 # 8000cef0 <month+0xb8>
    80004658:	0141                	addi	sp,sp,16
    8000465a:	00000317          	auipc	t1,0x0
    8000465e:	c0830067          	jr	-1016(t1) # 80004262 <panic>
    80004662:	8082                	ret

0000000080004664 <free_pages>:
    80004664:	7179                	addi	sp,sp,-48
    80004666:	f022                	sd	s0,32(sp)
    80004668:	ec26                	sd	s1,24(sp)
    8000466a:	f406                	sd	ra,40(sp)
    8000466c:	84aa                	mv	s1,a0
    8000466e:	4401                	li	s0,0
    80004670:	00c41513          	slli	a0,s0,0xc
    80004674:	9526                	add	a0,a0,s1
    80004676:	00b41763          	bne	s0,a1,80004684 <free_pages+0x20>
    8000467a:	70a2                	ld	ra,40(sp)
    8000467c:	7402                	ld	s0,32(sp)
    8000467e:	64e2                	ld	s1,24(sp)
    80004680:	6145                	addi	sp,sp,48
    80004682:	8082                	ret
    80004684:	e42e                	sd	a1,8(sp)
    80004686:	00000097          	auipc	ra,0x0
    8000468a:	f6e080e7          	jalr	-146(ra) # 800045f4 <free_page>
    8000468e:	0405                	addi	s0,s0,1
    80004690:	65a2                	ld	a1,8(sp)
    80004692:	bff9                	j	80004670 <free_pages+0xc>

0000000080004694 <free_page_tables>:
    80004694:	7179                	addi	sp,sp,-48
    80004696:	f022                	sd	s0,32(sp)
    80004698:	ec26                	sd	s1,24(sp)
    8000469a:	02b51793          	slli	a5,a0,0x2b
    8000469e:	f406                	sd	ra,40(sp)
    800046a0:	e84a                	sd	s2,16(sp)
    800046a2:	e44e                	sd	s3,8(sp)
    800046a4:	e052                	sd	s4,0(sp)
    800046a6:	842a                	mv	s0,a0
    800046a8:	84ae                	mv	s1,a1
    800046aa:	00009517          	auipc	a0,0x9
    800046ae:	86650513          	addi	a0,a0,-1946 # 8000cf10 <month+0xd8>
    800046b2:	e791                	bnez	a5,800046be <free_page_tables+0x2a>
    800046b4:	e809                	bnez	s0,800046c6 <free_page_tables+0x32>
    800046b6:	00009517          	auipc	a0,0x9
    800046ba:	88a50513          	addi	a0,a0,-1910 # 8000cf40 <month+0x108>
    800046be:	00000097          	auipc	ra,0x0
    800046c2:	ba4080e7          	jalr	-1116(ra) # 80004262 <panic>
    800046c6:	8055                	srli	s0,s0,0x15
    800046c8:	1ff47413          	andi	s0,s0,511
    800046cc:	002005b7          	lui	a1,0x200
    800046d0:	0000c717          	auipc	a4,0xc
    800046d4:	93070713          	addi	a4,a4,-1744 # 80010000 <page_dir_table>
    800046d8:	00341793          	slli	a5,s0,0x3
    800046dc:	15fd                	addi	a1,a1,-1
    800046de:	6300                	ld	s0,0(a4)
    800046e0:	94ae                	add	s1,s1,a1
    800046e2:	80d5                	srli	s1,s1,0x15
    800046e4:	943e                	add	s0,s0,a5
    800046e6:	048e                	slli	s1,s1,0x3
    800046e8:	94a2                	add	s1,s1,s0
    800046ea:	6985                	lui	s3,0x1
    800046ec:	00941e63          	bne	s0,s1,80004708 <free_page_tables+0x74>
    800046f0:	ffffe097          	auipc	ra,0xffffe
    800046f4:	d80080e7          	jalr	-640(ra) # 80002470 <pte_refresh_tlb>
    800046f8:	70a2                	ld	ra,40(sp)
    800046fa:	7402                	ld	s0,32(sp)
    800046fc:	64e2                	ld	s1,24(sp)
    800046fe:	6942                	ld	s2,16(sp)
    80004700:	69a2                	ld	s3,8(sp)
    80004702:	6a02                	ld	s4,0(sp)
    80004704:	6145                	addi	sp,sp,48
    80004706:	8082                	ret
    80004708:	401c                	lw	a5,0(s0)
    8000470a:	8b85                	andi	a5,a5,1
    8000470c:	cfb1                	beqz	a5,80004768 <free_page_tables+0xd4>
    8000470e:	8522                	mv	a0,s0
    80004710:	ffffe097          	auipc	ra,0xffffe
    80004714:	cca080e7          	jalr	-822(ra) # 800023da <pte_common_ppn_to_addr>
    80004718:	892a                	mv	s2,a0
    8000471a:	01350a33          	add	s4,a0,s3
    8000471e:	00092783          	lw	a5,0(s2)
    80004722:	8b85                	andi	a5,a5,1
    80004724:	cb91                	beqz	a5,80004738 <free_page_tables+0xa4>
    80004726:	854a                	mv	a0,s2
    80004728:	ffffe097          	auipc	ra,0xffffe
    8000472c:	cb2080e7          	jalr	-846(ra) # 800023da <pte_common_ppn_to_addr>
    80004730:	00000097          	auipc	ra,0x0
    80004734:	ec4080e7          	jalr	-316(ra) # 800045f4 <free_page>
    80004738:	854a                	mv	a0,s2
    8000473a:	4585                	li	a1,1
    8000473c:	0921                	addi	s2,s2,8
    8000473e:	ffffe097          	auipc	ra,0xffffe
    80004742:	c38080e7          	jalr	-968(ra) # 80002376 <pte_common_init>
    80004746:	fd491ce3          	bne	s2,s4,8000471e <free_page_tables+0x8a>
    8000474a:	8522                	mv	a0,s0
    8000474c:	ffffe097          	auipc	ra,0xffffe
    80004750:	c8e080e7          	jalr	-882(ra) # 800023da <pte_common_ppn_to_addr>
    80004754:	00000097          	auipc	ra,0x0
    80004758:	ea0080e7          	jalr	-352(ra) # 800045f4 <free_page>
    8000475c:	4585                	li	a1,1
    8000475e:	8522                	mv	a0,s0
    80004760:	ffffe097          	auipc	ra,0xffffe
    80004764:	c16080e7          	jalr	-1002(ra) # 80002376 <pte_common_init>
    80004768:	0421                	addi	s0,s0,8
    8000476a:	b749                	j	800046ec <free_page_tables+0x58>

000000008000476c <copy_page_tables>:
    8000476c:	7119                	addi	sp,sp,-128
    8000476e:	00b567b3          	or	a5,a0,a1
    80004772:	f8a2                	sd	s0,112(sp)
    80004774:	f0ca                	sd	s2,96(sp)
    80004776:	fc86                	sd	ra,120(sp)
    80004778:	f4a6                	sd	s1,104(sp)
    8000477a:	ecce                	sd	s3,88(sp)
    8000477c:	e8d2                	sd	s4,80(sp)
    8000477e:	e4d6                	sd	s5,72(sp)
    80004780:	e0da                	sd	s6,64(sp)
    80004782:	fc5e                	sd	s7,56(sp)
    80004784:	f862                	sd	s8,48(sp)
    80004786:	f466                	sd	s9,40(sp)
    80004788:	f06a                	sd	s10,32(sp)
    8000478a:	ec6e                	sd	s11,24(sp)
    8000478c:	02b79713          	slli	a4,a5,0x2b
    80004790:	842a                	mv	s0,a0
    80004792:	8932                	mv	s2,a2
    80004794:	cb19                	beqz	a4,800047aa <copy_page_tables+0x3e>
    80004796:	00008517          	auipc	a0,0x8
    8000479a:	6ea50513          	addi	a0,a0,1770 # 8000ce80 <month+0x48>
    8000479e:	e42e                	sd	a1,8(sp)
    800047a0:	00000097          	auipc	ra,0x0
    800047a4:	ac2080e7          	jalr	-1342(ra) # 80004262 <panic>
    800047a8:	65a2                	ld	a1,8(sp)
    800047aa:	0000c797          	auipc	a5,0xc
    800047ae:	85678793          	addi	a5,a5,-1962 # 80010000 <page_dir_table>
    800047b2:	00200637          	lui	a2,0x200
    800047b6:	0007ba03          	ld	s4,0(a5)
    800047ba:	8055                	srli	s0,s0,0x15
    800047bc:	81d5                	srli	a1,a1,0x15
    800047be:	167d                	addi	a2,a2,-1
    800047c0:	1ff47413          	andi	s0,s0,511
    800047c4:	1ff5f593          	andi	a1,a1,511
    800047c8:	9932                	add	s2,s2,a2
    800047ca:	040e                	slli	s0,s0,0x3
    800047cc:	058e                	slli	a1,a1,0x3
    800047ce:	01595913          	srli	s2,s2,0x15
    800047d2:	00801ab7          	lui	s5,0x801
    800047d6:	9452                	add	s0,s0,s4
    800047d8:	090e                	slli	s2,s2,0x3
    800047da:	9a2e                	add	s4,s4,a1
    800047dc:	4981                	li	s3,0
    800047de:	5bfd                	li	s7,-1
    800047e0:	0aa2                	slli	s5,s5,0x8
    800047e2:	00009c17          	auipc	s8,0x9
    800047e6:	3d6c0c13          	addi	s8,s8,982 # 8000dbb8 <mem_map>
    800047ea:	013a04b3          	add	s1,s4,s3
    800047ee:	01340cb3          	add	s9,s0,s3
    800047f2:	03391663          	bne	s2,s3,8000481e <copy_page_tables+0xb2>
    800047f6:	ffffe097          	auipc	ra,0xffffe
    800047fa:	c7a080e7          	jalr	-902(ra) # 80002470 <pte_refresh_tlb>
    800047fe:	4501                	li	a0,0
    80004800:	70e6                	ld	ra,120(sp)
    80004802:	7446                	ld	s0,112(sp)
    80004804:	74a6                	ld	s1,104(sp)
    80004806:	7906                	ld	s2,96(sp)
    80004808:	69e6                	ld	s3,88(sp)
    8000480a:	6a46                	ld	s4,80(sp)
    8000480c:	6aa6                	ld	s5,72(sp)
    8000480e:	6b06                	ld	s6,64(sp)
    80004810:	7be2                	ld	s7,56(sp)
    80004812:	7c42                	ld	s8,48(sp)
    80004814:	7ca2                	ld	s9,40(sp)
    80004816:	7d02                	ld	s10,32(sp)
    80004818:	6de2                	ld	s11,24(sp)
    8000481a:	6109                	addi	sp,sp,128
    8000481c:	8082                	ret
    8000481e:	409c                	lw	a5,0(s1)
    80004820:	8b85                	andi	a5,a5,1
    80004822:	cb89                	beqz	a5,80004834 <copy_page_tables+0xc8>
    80004824:	00008517          	auipc	a0,0x8
    80004828:	68c50513          	addi	a0,a0,1676 # 8000ceb0 <month+0x78>
    8000482c:	00000097          	auipc	ra,0x0
    80004830:	a36080e7          	jalr	-1482(ra) # 80004262 <panic>
    80004834:	000ca783          	lw	a5,0(s9)
    80004838:	8b85                	andi	a5,a5,1
    8000483a:	e399                	bnez	a5,80004840 <copy_page_tables+0xd4>
    8000483c:	09a1                	addi	s3,s3,8
    8000483e:	b775                	j	800047ea <copy_page_tables+0x7e>
    80004840:	8566                	mv	a0,s9
    80004842:	ffffe097          	auipc	ra,0xffffe
    80004846:	b98080e7          	jalr	-1128(ra) # 800023da <pte_common_ppn_to_addr>
    8000484a:	8caa                	mv	s9,a0
    8000484c:	00000097          	auipc	ra,0x0
    80004850:	ce6080e7          	jalr	-794(ra) # 80004532 <get_free_page>
    80004854:	8b2a                	mv	s6,a0
    80004856:	c151                	beqz	a0,800048da <copy_page_tables+0x16e>
    80004858:	85aa                	mv	a1,a0
    8000485a:	8526                	mv	a0,s1
    8000485c:	ffffe097          	auipc	ra,0xffffe
    80004860:	b5e080e7          	jalr	-1186(ra) # 800023ba <pte_common_addr_to_ppn>
    80004864:	4581                	li	a1,0
    80004866:	8526                	mv	a0,s1
    80004868:	ffffe097          	auipc	ra,0xffffe
    8000486c:	b1c080e7          	jalr	-1252(ra) # 80002384 <pte_common_set_accessibility>
    80004870:	8526                	mv	a0,s1
    80004872:	ffffe097          	auipc	ra,0xffffe
    80004876:	b80080e7          	jalr	-1152(ra) # 800023f2 <pte_common_enable_entry>
    8000487a:	4d81                	li	s11,0
    8000487c:	003d9493          	slli	s1,s11,0x3
    80004880:	009c8d33          	add	s10,s9,s1
    80004884:	94da                	add	s1,s1,s6
    80004886:	fb7d8be3          	beq	s11,s7,8000483c <copy_page_tables+0xd0>
    8000488a:	000d2703          	lw	a4,0(s10)
    8000488e:	8b05                	andi	a4,a4,1
    80004890:	c339                	beqz	a4,800048d6 <copy_page_tables+0x16a>
    80004892:	000d2703          	lw	a4,0(s10)
    80004896:	8526                	mv	a0,s1
    80004898:	4595                	li	a1,5
    8000489a:	c098                	sw	a4,0(s1)
    8000489c:	004d2703          	lw	a4,4(s10)
    800048a0:	c0d8                	sw	a4,4(s1)
    800048a2:	ffffe097          	auipc	ra,0xffffe
    800048a6:	ae2080e7          	jalr	-1310(ra) # 80002384 <pte_common_set_accessibility>
    800048aa:	8526                	mv	a0,s1
    800048ac:	ffffe097          	auipc	ra,0xffffe
    800048b0:	b2e080e7          	jalr	-1234(ra) # 800023da <pte_common_ppn_to_addr>
    800048b4:	02aaf163          	bleu	a0,s5,800048d6 <copy_page_tables+0x16a>
    800048b8:	4098                	lw	a4,0(s1)
    800048ba:	41550533          	sub	a0,a0,s5
    800048be:	8131                	srli	a0,a0,0xc
    800048c0:	00ed2023          	sw	a4,0(s10)
    800048c4:	40d8                	lw	a4,4(s1)
    800048c6:	9562                	add	a0,a0,s8
    800048c8:	00ed2223          	sw	a4,4(s10)
    800048cc:	00054703          	lbu	a4,0(a0)
    800048d0:	2705                	addiw	a4,a4,1
    800048d2:	00e50023          	sb	a4,0(a0)
    800048d6:	0d85                	addi	s11,s11,1
    800048d8:	b755                	j	8000487c <copy_page_tables+0x110>
    800048da:	557d                	li	a0,-1
    800048dc:	b715                	j	80004800 <copy_page_tables+0x94>

00000000800048de <put_page>:
    800048de:	7179                	addi	sp,sp,-48
    800048e0:	008017b7          	lui	a5,0x801
    800048e4:	ec26                	sd	s1,24(sp)
    800048e6:	e84a                	sd	s2,16(sp)
    800048e8:	f406                	sd	ra,40(sp)
    800048ea:	f022                	sd	s0,32(sp)
    800048ec:	e44e                	sd	s3,8(sp)
    800048ee:	07a2                	slli	a5,a5,0x8
    800048f0:	892a                	mv	s2,a0
    800048f2:	84ae                	mv	s1,a1
    800048f4:	00f56963          	bltu	a0,a5,80004906 <put_page+0x28>
    800048f8:	0000b797          	auipc	a5,0xb
    800048fc:	31878793          	addi	a5,a5,792 # 8000fc10 <HIGH_MEMORY>
    80004900:	639c                	ld	a5,0(a5)
    80004902:	00f56c63          	bltu	a0,a5,8000491a <put_page+0x3c>
    80004906:	8626                	mv	a2,s1
    80004908:	85ca                	mv	a1,s2
    8000490a:	00008517          	auipc	a0,0x8
    8000490e:	66e50513          	addi	a0,a0,1646 # 8000cf78 <month+0x140>
    80004912:	00000097          	auipc	ra,0x0
    80004916:	8b0080e7          	jalr	-1872(ra) # 800041c2 <printk>
    8000491a:	ff7ff7b7          	lui	a5,0xff7ff
    8000491e:	07a2                	slli	a5,a5,0x8
    80004920:	97ca                	add	a5,a5,s2
    80004922:	00009717          	auipc	a4,0x9
    80004926:	29670713          	addi	a4,a4,662 # 8000dbb8 <mem_map>
    8000492a:	83b1                	srli	a5,a5,0xc
    8000492c:	97ba                	add	a5,a5,a4
    8000492e:	0007c703          	lbu	a4,0(a5) # ffffffffff7ff000 <_trapsp0+0xffffffff7f7c9fc0>
    80004932:	4785                	li	a5,1
    80004934:	00f70c63          	beq	a4,a5,8000494c <put_page+0x6e>
    80004938:	8626                	mv	a2,s1
    8000493a:	85ca                	mv	a1,s2
    8000493c:	00008517          	auipc	a0,0x8
    80004940:	65450513          	addi	a0,a0,1620 # 8000cf90 <month+0x158>
    80004944:	00000097          	auipc	ra,0x0
    80004948:	87e080e7          	jalr	-1922(ra) # 800041c2 <printk>
    8000494c:	0154d993          	srli	s3,s1,0x15
    80004950:	1ff9f993          	andi	s3,s3,511
    80004954:	0000b717          	auipc	a4,0xb
    80004958:	6ac70713          	addi	a4,a4,1708 # 80010000 <page_dir_table>
    8000495c:	00399793          	slli	a5,s3,0x3
    80004960:	00073983          	ld	s3,0(a4)
    80004964:	99be                	add	s3,s3,a5
    80004966:	0009a783          	lw	a5,0(s3) # 1000 <_stack_size-0x7000>
    8000496a:	8b85                	andi	a5,a5,1
    8000496c:	cbb9                	beqz	a5,800049c2 <put_page+0xe4>
    8000496e:	854e                	mv	a0,s3
    80004970:	ffffe097          	auipc	ra,0xffffe
    80004974:	a6a080e7          	jalr	-1430(ra) # 800023da <pte_common_ppn_to_addr>
    80004978:	00c4d413          	srli	s0,s1,0xc
    8000497c:	1ff47413          	andi	s0,s0,511
    80004980:	040e                	slli	s0,s0,0x3
    80004982:	942a                	add	s0,s0,a0
    80004984:	8522                	mv	a0,s0
    80004986:	85ca                	mv	a1,s2
    80004988:	ffffe097          	auipc	ra,0xffffe
    8000498c:	a32080e7          	jalr	-1486(ra) # 800023ba <pte_common_addr_to_ppn>
    80004990:	459d                	li	a1,7
    80004992:	8522                	mv	a0,s0
    80004994:	ffffe097          	auipc	ra,0xffffe
    80004998:	9f0080e7          	jalr	-1552(ra) # 80002384 <pte_common_set_accessibility>
    8000499c:	8522                	mv	a0,s0
    8000499e:	ffffe097          	auipc	ra,0xffffe
    800049a2:	a86080e7          	jalr	-1402(ra) # 80002424 <pte_common_enable_user>
    800049a6:	8522                	mv	a0,s0
    800049a8:	ffffe097          	auipc	ra,0xffffe
    800049ac:	a4a080e7          	jalr	-1462(ra) # 800023f2 <pte_common_enable_entry>
    800049b0:	844a                	mv	s0,s2
    800049b2:	8522                	mv	a0,s0
    800049b4:	70a2                	ld	ra,40(sp)
    800049b6:	7402                	ld	s0,32(sp)
    800049b8:	64e2                	ld	s1,24(sp)
    800049ba:	6942                	ld	s2,16(sp)
    800049bc:	69a2                	ld	s3,8(sp)
    800049be:	6145                	addi	sp,sp,48
    800049c0:	8082                	ret
    800049c2:	00000097          	auipc	ra,0x0
    800049c6:	b70080e7          	jalr	-1168(ra) # 80004532 <get_free_page>
    800049ca:	842a                	mv	s0,a0
    800049cc:	d17d                	beqz	a0,800049b2 <put_page+0xd4>
    800049ce:	85aa                	mv	a1,a0
    800049d0:	854e                	mv	a0,s3
    800049d2:	ffffe097          	auipc	ra,0xffffe
    800049d6:	9e8080e7          	jalr	-1560(ra) # 800023ba <pte_common_addr_to_ppn>
    800049da:	4581                	li	a1,0
    800049dc:	854e                	mv	a0,s3
    800049de:	ffffe097          	auipc	ra,0xffffe
    800049e2:	9a6080e7          	jalr	-1626(ra) # 80002384 <pte_common_set_accessibility>
    800049e6:	854e                	mv	a0,s3
    800049e8:	ffffe097          	auipc	ra,0xffffe
    800049ec:	a0a080e7          	jalr	-1526(ra) # 800023f2 <pte_common_enable_entry>
    800049f0:	8522                	mv	a0,s0
    800049f2:	b759                	j	80004978 <put_page+0x9a>

00000000800049f4 <un_wp_page>:
    800049f4:	1101                	addi	sp,sp,-32
    800049f6:	e822                	sd	s0,16(sp)
    800049f8:	e426                	sd	s1,8(sp)
    800049fa:	ec06                	sd	ra,24(sp)
    800049fc:	e04a                	sd	s2,0(sp)
    800049fe:	84aa                	mv	s1,a0
    80004a00:	ffffe097          	auipc	ra,0xffffe
    80004a04:	9da080e7          	jalr	-1574(ra) # 800023da <pte_common_ppn_to_addr>
    80004a08:	008017b7          	lui	a5,0x801
    80004a0c:	07a2                	slli	a5,a5,0x8
    80004a0e:	842a                	mv	s0,a0
    80004a10:	02f56d63          	bltu	a0,a5,80004a4a <un_wp_page+0x56>
    80004a14:	40f507b3          	sub	a5,a0,a5
    80004a18:	00009717          	auipc	a4,0x9
    80004a1c:	1a070713          	addi	a4,a4,416 # 8000dbb8 <mem_map>
    80004a20:	83b1                	srli	a5,a5,0xc
    80004a22:	97ba                	add	a5,a5,a4
    80004a24:	0007c703          	lbu	a4,0(a5) # 801000 <_stack_size+0x7f9000>
    80004a28:	4785                	li	a5,1
    80004a2a:	02f71063          	bne	a4,a5,80004a4a <un_wp_page+0x56>
    80004a2e:	8526                	mv	a0,s1
    80004a30:	ffffe097          	auipc	ra,0xffffe
    80004a34:	9fe080e7          	jalr	-1538(ra) # 8000242e <pte_common_set_writeable>
    80004a38:	6442                	ld	s0,16(sp)
    80004a3a:	60e2                	ld	ra,24(sp)
    80004a3c:	64a2                	ld	s1,8(sp)
    80004a3e:	6902                	ld	s2,0(sp)
    80004a40:	6105                	addi	sp,sp,32
    80004a42:	ffffe317          	auipc	t1,0xffffe
    80004a46:	a2e30067          	jr	-1490(t1) # 80002470 <pte_refresh_tlb>
    80004a4a:	00000097          	auipc	ra,0x0
    80004a4e:	ae8080e7          	jalr	-1304(ra) # 80004532 <get_free_page>
    80004a52:	892a                	mv	s2,a0
    80004a54:	e509                	bnez	a0,80004a5e <un_wp_page+0x6a>
    80004a56:	00000097          	auipc	ra,0x0
    80004a5a:	aac080e7          	jalr	-1364(ra) # 80004502 <oom>
    80004a5e:	008017b7          	lui	a5,0x801
    80004a62:	07a2                	slli	a5,a5,0x8
    80004a64:	00f46f63          	bltu	s0,a5,80004a82 <un_wp_page+0x8e>
    80004a68:	40f407b3          	sub	a5,s0,a5
    80004a6c:	00009717          	auipc	a4,0x9
    80004a70:	14c70713          	addi	a4,a4,332 # 8000dbb8 <mem_map>
    80004a74:	83b1                	srli	a5,a5,0xc
    80004a76:	97ba                	add	a5,a5,a4
    80004a78:	0007c703          	lbu	a4,0(a5) # 801000 <_stack_size+0x7f9000>
    80004a7c:	377d                	addiw	a4,a4,-1
    80004a7e:	00e78023          	sb	a4,0(a5)
    80004a82:	85ca                	mv	a1,s2
    80004a84:	8526                	mv	a0,s1
    80004a86:	ffffe097          	auipc	ra,0xffffe
    80004a8a:	934080e7          	jalr	-1740(ra) # 800023ba <pte_common_addr_to_ppn>
    80004a8e:	459d                	li	a1,7
    80004a90:	8526                	mv	a0,s1
    80004a92:	ffffe097          	auipc	ra,0xffffe
    80004a96:	8f2080e7          	jalr	-1806(ra) # 80002384 <pte_common_set_accessibility>
    80004a9a:	8526                	mv	a0,s1
    80004a9c:	ffffe097          	auipc	ra,0xffffe
    80004aa0:	988080e7          	jalr	-1656(ra) # 80002424 <pte_common_enable_user>
    80004aa4:	8526                	mv	a0,s1
    80004aa6:	ffffe097          	auipc	ra,0xffffe
    80004aaa:	94c080e7          	jalr	-1716(ra) # 800023f2 <pte_common_enable_entry>
    80004aae:	ffffe097          	auipc	ra,0xffffe
    80004ab2:	9c2080e7          	jalr	-1598(ra) # 80002470 <pte_refresh_tlb>
    80004ab6:	8522                	mv	a0,s0
    80004ab8:	6442                	ld	s0,16(sp)
    80004aba:	60e2                	ld	ra,24(sp)
    80004abc:	64a2                	ld	s1,8(sp)
    80004abe:	85ca                	mv	a1,s2
    80004ac0:	6902                	ld	s2,0(sp)
    80004ac2:	6105                	addi	sp,sp,32
    80004ac4:	00000317          	auipc	t1,0x0
    80004ac8:	a6030067          	jr	-1440(t1) # 80004524 <copy_page>

0000000080004acc <write_verify>:
    80004acc:	1141                	addi	sp,sp,-16
    80004ace:	0000b717          	auipc	a4,0xb
    80004ad2:	53270713          	addi	a4,a4,1330 # 80010000 <page_dir_table>
    80004ad6:	6318                	ld	a4,0(a4)
    80004ad8:	e022                	sd	s0,0(sp)
    80004ada:	842a                	mv	s0,a0
    80004adc:	8155                	srli	a0,a0,0x15
    80004ade:	1ff57513          	andi	a0,a0,511
    80004ae2:	050e                	slli	a0,a0,0x3
    80004ae4:	953a                	add	a0,a0,a4
    80004ae6:	4118                	lw	a4,0(a0)
    80004ae8:	e406                	sd	ra,8(sp)
    80004aea:	8b05                	andi	a4,a4,1
    80004aec:	cb15                	beqz	a4,80004b20 <write_verify+0x54>
    80004aee:	ffffe097          	auipc	ra,0xffffe
    80004af2:	8ec080e7          	jalr	-1812(ra) # 800023da <pte_common_ppn_to_addr>
    80004af6:	00c45793          	srli	a5,s0,0xc
    80004afa:	1ff7f793          	andi	a5,a5,511
    80004afe:	078e                	slli	a5,a5,0x3
    80004b00:	953e                	add	a0,a0,a5
    80004b02:	411c                	lw	a5,0(a0)
    80004b04:	8b85                	andi	a5,a5,1
    80004b06:	cf89                	beqz	a5,80004b20 <write_verify+0x54>
    80004b08:	411c                	lw	a5,0(a0)
    80004b0a:	0027d79b          	srliw	a5,a5,0x2
    80004b0e:	8b85                	andi	a5,a5,1
    80004b10:	eb81                	bnez	a5,80004b20 <write_verify+0x54>
    80004b12:	6402                	ld	s0,0(sp)
    80004b14:	60a2                	ld	ra,8(sp)
    80004b16:	0141                	addi	sp,sp,16
    80004b18:	00000317          	auipc	t1,0x0
    80004b1c:	edc30067          	jr	-292(t1) # 800049f4 <un_wp_page>
    80004b20:	60a2                	ld	ra,8(sp)
    80004b22:	6402                	ld	s0,0(sp)
    80004b24:	0141                	addi	sp,sp,16
    80004b26:	8082                	ret

0000000080004b28 <do_no_page>:
    80004b28:	1101                	addi	sp,sp,-32
    80004b2a:	e426                	sd	s1,8(sp)
    80004b2c:	74fd                	lui	s1,0xfffff
    80004b2e:	e822                	sd	s0,16(sp)
    80004b30:	ec06                	sd	ra,24(sp)
    80004b32:	8ce9                	and	s1,s1,a0
    80004b34:	00000097          	auipc	ra,0x0
    80004b38:	9fe080e7          	jalr	-1538(ra) # 80004532 <get_free_page>
    80004b3c:	842a                	mv	s0,a0
    80004b3e:	e509                	bnez	a0,80004b48 <do_no_page+0x20>
    80004b40:	00000097          	auipc	ra,0x0
    80004b44:	9c2080e7          	jalr	-1598(ra) # 80004502 <oom>
    80004b48:	85a6                	mv	a1,s1
    80004b4a:	8522                	mv	a0,s0
    80004b4c:	00000097          	auipc	ra,0x0
    80004b50:	d92080e7          	jalr	-622(ra) # 800048de <put_page>
    80004b54:	ed11                	bnez	a0,80004b70 <do_no_page+0x48>
    80004b56:	8522                	mv	a0,s0
    80004b58:	00000097          	auipc	ra,0x0
    80004b5c:	a9c080e7          	jalr	-1380(ra) # 800045f4 <free_page>
    80004b60:	6442                	ld	s0,16(sp)
    80004b62:	60e2                	ld	ra,24(sp)
    80004b64:	64a2                	ld	s1,8(sp)
    80004b66:	6105                	addi	sp,sp,32
    80004b68:	00000317          	auipc	t1,0x0
    80004b6c:	99a30067          	jr	-1638(t1) # 80004502 <oom>
    80004b70:	60e2                	ld	ra,24(sp)
    80004b72:	6442                	ld	s0,16(sp)
    80004b74:	64a2                	ld	s1,8(sp)
    80004b76:	6105                	addi	sp,sp,32
    80004b78:	8082                	ret

0000000080004b7a <user_addr_to_kernel>:
    80004b7a:	6108                	ld	a0,0(a0)
    80004b7c:	478d                	li	a5,3
    80004b7e:	07fa                	slli	a5,a5,0x1e
    80004b80:	00f53533          	sltu	a0,a0,a5
    80004b84:	8082                	ret

0000000080004b86 <user_ptr_to_kernel>:
    80004b86:	00000317          	auipc	t1,0x0
    80004b8a:	ff430067          	jr	-12(t1) # 80004b7a <user_addr_to_kernel>

0000000080004b8e <mem_init>:
    80004b8e:	0000b797          	auipc	a5,0xb
    80004b92:	08b7b123          	sd	a1,130(a5) # 8000fc10 <HIGH_MEMORY>
    80004b96:	00009697          	auipc	a3,0x9
    80004b9a:	02268693          	addi	a3,a3,34 # 8000dbb8 <mem_map>
    80004b9e:	6705                	lui	a4,0x1
    80004ba0:	4781                	li	a5,0
    80004ba2:	06400893          	li	a7,100
    80004ba6:	f0070713          	addi	a4,a4,-256 # f00 <_stack_size-0x7100>
    80004baa:	8636                	mv	a2,a3
    80004bac:	00d78833          	add	a6,a5,a3
    80004bb0:	01180023          	sb	a7,0(a6)
    80004bb4:	0785                	addi	a5,a5,1
    80004bb6:	fee79be3          	bne	a5,a4,80004bac <mem_init+0x1e>
    80004bba:	ff7ff7b7          	lui	a5,0xff7ff
    80004bbe:	07a2                	slli	a5,a5,0x8
    80004bc0:	8d89                	sub	a1,a1,a0
    80004bc2:	953e                	add	a0,a0,a5
    80004bc4:	8131                	srli	a0,a0,0xc
    80004bc6:	81b1                	srli	a1,a1,0xc
    80004bc8:	2501                	sext.w	a0,a0
    80004bca:	57fd                	li	a5,-1
    80004bcc:	15fd                	addi	a1,a1,-1
    80004bce:	00f59363          	bne	a1,a5,80004bd4 <mem_init+0x46>
    80004bd2:	8082                	ret
    80004bd4:	00a60733          	add	a4,a2,a0
    80004bd8:	00070023          	sb	zero,0(a4)
    80004bdc:	0505                	addi	a0,a0,1
    80004bde:	b7fd                	j	80004bcc <mem_init+0x3e>

0000000080004be0 <ceil>:
    80004be0:	7139                	addi	sp,sp,-64
    80004be2:	42055793          	srai	a5,a0,0x20
    80004be6:	f822                	sd	s0,48(sp)
    80004be8:	0007841b          	sext.w	s0,a5
    80004bec:	f04a                	sd	s2,32(sp)
    80004bee:	4144591b          	sraiw	s2,s0,0x14
    80004bf2:	7ff97913          	andi	s2,s2,2047
    80004bf6:	f426                	sd	s1,40(sp)
    80004bf8:	ec4e                	sd	s3,24(sp)
    80004bfa:	e852                	sd	s4,16(sp)
    80004bfc:	fc06                	sd	ra,56(sp)
    80004bfe:	00050a1b          	sext.w	s4,a0
    80004c02:	e456                	sd	s5,8(sp)
    80004c04:	c019099b          	addiw	s3,s2,-1023
    80004c08:	474d                	li	a4,19
    80004c0a:	85aa                	mv	a1,a0
    80004c0c:	000a049b          	sext.w	s1,s4
    80004c10:	09374c63          	blt	a4,s3,80004ca8 <ceil+0xc8>
    80004c14:	0409d063          	bgez	s3,80004c54 <ceil+0x74>
    80004c18:	00008797          	auipc	a5,0x8
    80004c1c:	3a078793          	addi	a5,a5,928 # 8000cfb8 <month+0x180>
    80004c20:	638c                	ld	a1,0(a5)
    80004c22:	00000097          	auipc	ra,0x0
    80004c26:	412080e7          	jalr	1042(ra) # 80005034 <__adddf3>
    80004c2a:	00000593          	li	a1,0
    80004c2e:	00001097          	auipc	ra,0x1
    80004c32:	d42080e7          	jalr	-702(ra) # 80005970 <__gedf2>
    80004c36:	00a05963          	blez	a0,80004c48 <ceil+0x68>
    80004c3a:	0e044f63          	bltz	s0,80004d38 <ceil+0x158>
    80004c3e:	8c45                	or	s0,s0,s1
    80004c40:	4481                	li	s1,0
    80004c42:	c019                	beqz	s0,80004c48 <ceil+0x68>
    80004c44:	3ff00437          	lui	s0,0x3ff00
    80004c48:	1482                	slli	s1,s1,0x20
    80004c4a:	9081                	srli	s1,s1,0x20
    80004c4c:	1402                	slli	s0,s0,0x20
    80004c4e:	009465b3          	or	a1,s0,s1
    80004c52:	a885                	j	80004cc2 <ceil+0xe2>
    80004c54:	00100ab7          	lui	s5,0x100
    80004c58:	fffa891b          	addiw	s2,s5,-1
    80004c5c:	4139593b          	sraw	s2,s2,s3
    80004c60:	0127f7b3          	and	a5,a5,s2
    80004c64:	0147e7b3          	or	a5,a5,s4
    80004c68:	2781                	sext.w	a5,a5
    80004c6a:	cfa1                	beqz	a5,80004cc2 <ceil+0xe2>
    80004c6c:	00008797          	auipc	a5,0x8
    80004c70:	34c78793          	addi	a5,a5,844 # 8000cfb8 <month+0x180>
    80004c74:	638c                	ld	a1,0(a5)
    80004c76:	00000097          	auipc	ra,0x0
    80004c7a:	3be080e7          	jalr	958(ra) # 80005034 <__adddf3>
    80004c7e:	00000593          	li	a1,0
    80004c82:	00001097          	auipc	ra,0x1
    80004c86:	cee080e7          	jalr	-786(ra) # 80005970 <__gedf2>
    80004c8a:	faa05fe3          	blez	a0,80004c48 <ceil+0x68>
    80004c8e:	00805663          	blez	s0,80004c9a <ceil+0xba>
    80004c92:	413ad9bb          	sraw	s3,s5,s3
    80004c96:	0089843b          	addw	s0,s3,s0
    80004c9a:	fff94913          	not	s2,s2
    80004c9e:	00897433          	and	s0,s2,s0
    80004ca2:	2401                	sext.w	s0,s0
    80004ca4:	4481                	li	s1,0
    80004ca6:	b74d                	j	80004c48 <ceil+0x68>
    80004ca8:	03300793          	li	a5,51
    80004cac:	0337d563          	ble	s3,a5,80004cd6 <ceil+0xf6>
    80004cb0:	40000793          	li	a5,1024
    80004cb4:	00f99763          	bne	s3,a5,80004cc2 <ceil+0xe2>
    80004cb8:	00000097          	auipc	ra,0x0
    80004cbc:	37c080e7          	jalr	892(ra) # 80005034 <__adddf3>
    80004cc0:	85aa                	mv	a1,a0
    80004cc2:	70e2                	ld	ra,56(sp)
    80004cc4:	7442                	ld	s0,48(sp)
    80004cc6:	74a2                	ld	s1,40(sp)
    80004cc8:	7902                	ld	s2,32(sp)
    80004cca:	69e2                	ld	s3,24(sp)
    80004ccc:	6a42                	ld	s4,16(sp)
    80004cce:	6aa2                	ld	s5,8(sp)
    80004cd0:	852e                	mv	a0,a1
    80004cd2:	6121                	addi	sp,sp,64
    80004cd4:	8082                	ret
    80004cd6:	bed9079b          	addiw	a5,s2,-1043
    80004cda:	597d                	li	s2,-1
    80004cdc:	00f9593b          	srlw	s2,s2,a5
    80004ce0:	012a76b3          	and	a3,s4,s2
    80004ce4:	2681                	sext.w	a3,a3
    80004ce6:	def1                	beqz	a3,80004cc2 <ceil+0xe2>
    80004ce8:	00008797          	auipc	a5,0x8
    80004cec:	2d078793          	addi	a5,a5,720 # 8000cfb8 <month+0x180>
    80004cf0:	638c                	ld	a1,0(a5)
    80004cf2:	00000097          	auipc	ra,0x0
    80004cf6:	342080e7          	jalr	834(ra) # 80005034 <__adddf3>
    80004cfa:	00000593          	li	a1,0
    80004cfe:	00001097          	auipc	ra,0x1
    80004d02:	c72080e7          	jalr	-910(ra) # 80005970 <__gedf2>
    80004d06:	f4a051e3          	blez	a0,80004c48 <ceil+0x68>
    80004d0a:	02805163          	blez	s0,80004d2c <ceil+0x14c>
    80004d0e:	47d1                	li	a5,20
    80004d10:	00f99463          	bne	s3,a5,80004d18 <ceil+0x138>
    80004d14:	2405                	addiw	s0,s0,1
    80004d16:	a819                	j	80004d2c <ceil+0x14c>
    80004d18:	03400793          	li	a5,52
    80004d1c:	4137873b          	subw	a4,a5,s3
    80004d20:	4785                	li	a5,1
    80004d22:	00e797bb          	sllw	a5,a5,a4
    80004d26:	9cbd                	addw	s1,s1,a5
    80004d28:	ff44e6e3          	bltu	s1,s4,80004d14 <ceil+0x134>
    80004d2c:	fff94913          	not	s2,s2
    80004d30:	009974b3          	and	s1,s2,s1
    80004d34:	2481                	sext.w	s1,s1
    80004d36:	bf09                	j	80004c48 <ceil+0x68>
    80004d38:	4481                	li	s1,0
    80004d3a:	80000437          	lui	s0,0x80000
    80004d3e:	b729                	j	80004c48 <ceil+0x68>

0000000080004d40 <floor>:
    80004d40:	7139                	addi	sp,sp,-64
    80004d42:	42055793          	srai	a5,a0,0x20
    80004d46:	f822                	sd	s0,48(sp)
    80004d48:	0007841b          	sext.w	s0,a5
    80004d4c:	f04a                	sd	s2,32(sp)
    80004d4e:	4144591b          	sraiw	s2,s0,0x14
    80004d52:	7ff97913          	andi	s2,s2,2047
    80004d56:	f426                	sd	s1,40(sp)
    80004d58:	ec4e                	sd	s3,24(sp)
    80004d5a:	e852                	sd	s4,16(sp)
    80004d5c:	fc06                	sd	ra,56(sp)
    80004d5e:	00050a1b          	sext.w	s4,a0
    80004d62:	e456                	sd	s5,8(sp)
    80004d64:	c019099b          	addiw	s3,s2,-1023
    80004d68:	474d                	li	a4,19
    80004d6a:	85aa                	mv	a1,a0
    80004d6c:	000a049b          	sext.w	s1,s4
    80004d70:	0b374163          	blt	a4,s3,80004e12 <floor+0xd2>
    80004d74:	0409d563          	bgez	s3,80004dbe <floor+0x7e>
    80004d78:	00008797          	auipc	a5,0x8
    80004d7c:	24078793          	addi	a5,a5,576 # 8000cfb8 <month+0x180>
    80004d80:	638c                	ld	a1,0(a5)
    80004d82:	00000097          	auipc	ra,0x0
    80004d86:	2b2080e7          	jalr	690(ra) # 80005034 <__adddf3>
    80004d8a:	00000593          	li	a1,0
    80004d8e:	00001097          	auipc	ra,0x1
    80004d92:	be2080e7          	jalr	-1054(ra) # 80005970 <__gedf2>
    80004d96:	00a05e63          	blez	a0,80004db2 <floor+0x72>
    80004d9a:	10045463          	bgez	s0,80004ea2 <floor+0x162>
    80004d9e:	800007b7          	lui	a5,0x80000
    80004da2:	fff7c793          	not	a5,a5
    80004da6:	8fe1                	and	a5,a5,s0
    80004da8:	8cdd                	or	s1,s1,a5
    80004daa:	c481                	beqz	s1,80004db2 <floor+0x72>
    80004dac:	4481                	li	s1,0
    80004dae:	bff00437          	lui	s0,0xbff00
    80004db2:	1482                	slli	s1,s1,0x20
    80004db4:	9081                	srli	s1,s1,0x20
    80004db6:	1402                	slli	s0,s0,0x20
    80004db8:	009465b3          	or	a1,s0,s1
    80004dbc:	a885                	j	80004e2c <floor+0xec>
    80004dbe:	00100ab7          	lui	s5,0x100
    80004dc2:	fffa891b          	addiw	s2,s5,-1
    80004dc6:	4139593b          	sraw	s2,s2,s3
    80004dca:	0127f7b3          	and	a5,a5,s2
    80004dce:	0147e7b3          	or	a5,a5,s4
    80004dd2:	2781                	sext.w	a5,a5
    80004dd4:	cfa1                	beqz	a5,80004e2c <floor+0xec>
    80004dd6:	00008797          	auipc	a5,0x8
    80004dda:	1e278793          	addi	a5,a5,482 # 8000cfb8 <month+0x180>
    80004dde:	638c                	ld	a1,0(a5)
    80004de0:	00000097          	auipc	ra,0x0
    80004de4:	254080e7          	jalr	596(ra) # 80005034 <__adddf3>
    80004de8:	00000593          	li	a1,0
    80004dec:	00001097          	auipc	ra,0x1
    80004df0:	b84080e7          	jalr	-1148(ra) # 80005970 <__gedf2>
    80004df4:	faa05fe3          	blez	a0,80004db2 <floor+0x72>
    80004df8:	00045663          	bgez	s0,80004e04 <floor+0xc4>
    80004dfc:	413ad9bb          	sraw	s3,s5,s3
    80004e00:	0089843b          	addw	s0,s3,s0
    80004e04:	fff94913          	not	s2,s2
    80004e08:	00897433          	and	s0,s2,s0
    80004e0c:	2401                	sext.w	s0,s0
    80004e0e:	4481                	li	s1,0
    80004e10:	b74d                	j	80004db2 <floor+0x72>
    80004e12:	03300793          	li	a5,51
    80004e16:	0337d563          	ble	s3,a5,80004e40 <floor+0x100>
    80004e1a:	40000793          	li	a5,1024
    80004e1e:	00f99763          	bne	s3,a5,80004e2c <floor+0xec>
    80004e22:	00000097          	auipc	ra,0x0
    80004e26:	212080e7          	jalr	530(ra) # 80005034 <__adddf3>
    80004e2a:	85aa                	mv	a1,a0
    80004e2c:	70e2                	ld	ra,56(sp)
    80004e2e:	7442                	ld	s0,48(sp)
    80004e30:	74a2                	ld	s1,40(sp)
    80004e32:	7902                	ld	s2,32(sp)
    80004e34:	69e2                	ld	s3,24(sp)
    80004e36:	6a42                	ld	s4,16(sp)
    80004e38:	6aa2                	ld	s5,8(sp)
    80004e3a:	852e                	mv	a0,a1
    80004e3c:	6121                	addi	sp,sp,64
    80004e3e:	8082                	ret
    80004e40:	bed9079b          	addiw	a5,s2,-1043
    80004e44:	597d                	li	s2,-1
    80004e46:	00f9593b          	srlw	s2,s2,a5
    80004e4a:	012a76b3          	and	a3,s4,s2
    80004e4e:	2681                	sext.w	a3,a3
    80004e50:	def1                	beqz	a3,80004e2c <floor+0xec>
    80004e52:	00008797          	auipc	a5,0x8
    80004e56:	16678793          	addi	a5,a5,358 # 8000cfb8 <month+0x180>
    80004e5a:	638c                	ld	a1,0(a5)
    80004e5c:	00000097          	auipc	ra,0x0
    80004e60:	1d8080e7          	jalr	472(ra) # 80005034 <__adddf3>
    80004e64:	00000593          	li	a1,0
    80004e68:	00001097          	auipc	ra,0x1
    80004e6c:	b08080e7          	jalr	-1272(ra) # 80005970 <__gedf2>
    80004e70:	f4a051e3          	blez	a0,80004db2 <floor+0x72>
    80004e74:	02045163          	bgez	s0,80004e96 <floor+0x156>
    80004e78:	47d1                	li	a5,20
    80004e7a:	00f99463          	bne	s3,a5,80004e82 <floor+0x142>
    80004e7e:	2405                	addiw	s0,s0,1
    80004e80:	a819                	j	80004e96 <floor+0x156>
    80004e82:	03400793          	li	a5,52
    80004e86:	4137873b          	subw	a4,a5,s3
    80004e8a:	4785                	li	a5,1
    80004e8c:	00e797bb          	sllw	a5,a5,a4
    80004e90:	9cbd                	addw	s1,s1,a5
    80004e92:	ff44e6e3          	bltu	s1,s4,80004e7e <floor+0x13e>
    80004e96:	fff94913          	not	s2,s2
    80004e9a:	009974b3          	and	s1,s2,s1
    80004e9e:	2481                	sext.w	s1,s1
    80004ea0:	bf09                	j	80004db2 <floor+0x72>
    80004ea2:	4481                	li	s1,0
    80004ea4:	4401                	li	s0,0
    80004ea6:	b731                	j	80004db2 <floor+0x72>

0000000080004ea8 <rint>:
    80004ea8:	42055613          	srai	a2,a0,0x20
    80004eac:	00060e1b          	sext.w	t3,a2
    80004eb0:	414e581b          	sraiw	a6,t3,0x14
    80004eb4:	7139                	addi	sp,sp,-64
    80004eb6:	7ff87813          	andi	a6,a6,2047
    80004eba:	fc06                	sd	ra,56(sp)
    80004ebc:	f822                	sd	s0,48(sp)
    80004ebe:	f426                	sd	s1,40(sp)
    80004ec0:	f04a                	sd	s2,32(sp)
    80004ec2:	ec4e                	sd	s3,24(sp)
    80004ec4:	c018031b          	addiw	t1,a6,-1023
    80004ec8:	4f4d                	li	t5,19
    80004eca:	85aa                	mv	a1,a0
    80004ecc:	0005069b          	sext.w	a3,a0
    80004ed0:	01f6589b          	srliw	a7,a2,0x1f
    80004ed4:	106f4663          	blt	t5,t1,80004fe0 <rint+0x138>
    80004ed8:	08035863          	bgez	t1,80004f68 <rint+0xc0>
    80004edc:	80000937          	lui	s2,0x80000
    80004ee0:	fff94913          	not	s2,s2
    80004ee4:	012677b3          	and	a5,a2,s2
    80004ee8:	8fd5                	or	a5,a5,a3
    80004eea:	c7bd                	beqz	a5,80004f58 <rint+0xb0>
    80004eec:	001007b7          	lui	a5,0x100
    80004ef0:	17fd                	addi	a5,a5,-1
    80004ef2:	8ff1                	and	a5,a5,a2
    80004ef4:	8fd5                	or	a5,a5,a3
    80004ef6:	40f005bb          	negw	a1,a5
    80004efa:	8fcd                	or	a5,a5,a1
    80004efc:	00008717          	auipc	a4,0x8
    80004f00:	0c470713          	addi	a4,a4,196 # 8000cfc0 <TWO52>
    80004f04:	84c6                	mv	s1,a7
    80004f06:	000805b7          	lui	a1,0x80
    80004f0a:	00c7d79b          	srliw	a5,a5,0xc
    80004f0e:	088e                	slli	a7,a7,0x3
    80004f10:	98ba                	add	a7,a7,a4
    80004f12:	8fed                	and	a5,a5,a1
    80004f14:	7581                	lui	a1,0xfffe0
    80004f16:	00be75b3          	and	a1,t3,a1
    80004f1a:	0008b983          	ld	s3,0(a7)
    80004f1e:	547d                	li	s0,-1
    80004f20:	8fcd                	or	a5,a5,a1
    80004f22:	9001                	srli	s0,s0,0x20
    80004f24:	1782                	slli	a5,a5,0x20
    80004f26:	008575b3          	and	a1,a0,s0
    80004f2a:	8ddd                	or	a1,a1,a5
    80004f2c:	854e                	mv	a0,s3
    80004f2e:	00000097          	auipc	ra,0x0
    80004f32:	106080e7          	jalr	262(ra) # 80005034 <__adddf3>
    80004f36:	e42a                	sd	a0,8(sp)
    80004f38:	6522                	ld	a0,8(sp)
    80004f3a:	85ce                	mv	a1,s3
    80004f3c:	01f4949b          	slliw	s1,s1,0x1f
    80004f40:	00001097          	auipc	ra,0x1
    80004f44:	ebc080e7          	jalr	-324(ra) # 80005dfc <__subdf3>
    80004f48:	02055593          	srli	a1,a0,0x20
    80004f4c:	0125f5b3          	and	a1,a1,s2
    80004f50:	8dc5                	or	a1,a1,s1
    80004f52:	1582                	slli	a1,a1,0x20
    80004f54:	8c69                	and	s0,s0,a0
    80004f56:	8dc1                	or	a1,a1,s0
    80004f58:	70e2                	ld	ra,56(sp)
    80004f5a:	7442                	ld	s0,48(sp)
    80004f5c:	74a2                	ld	s1,40(sp)
    80004f5e:	7902                	ld	s2,32(sp)
    80004f60:	69e2                	ld	s3,24(sp)
    80004f62:	852e                	mv	a0,a1
    80004f64:	6121                	addi	sp,sp,64
    80004f66:	8082                	ret
    80004f68:	00100737          	lui	a4,0x100
    80004f6c:	377d                	addiw	a4,a4,-1
    80004f6e:	4067573b          	sraw	a4,a4,t1
    80004f72:	00e677b3          	and	a5,a2,a4
    80004f76:	8fd5                	or	a5,a5,a3
    80004f78:	2781                	sext.w	a5,a5
    80004f7a:	dff9                	beqz	a5,80004f58 <rint+0xb0>
    80004f7c:	0017571b          	srliw	a4,a4,0x1
    80004f80:	00e677b3          	and	a5,a2,a4
    80004f84:	8edd                	or	a3,a3,a5
    80004f86:	0006879b          	sext.w	a5,a3
    80004f8a:	4681                	li	a3,0
    80004f8c:	c385                	beqz	a5,80004fac <rint+0x104>
    80004f8e:	01e31463          	bne	t1,t5,80004f96 <rint+0xee>
    80004f92:	800006b7          	lui	a3,0x80000
    80004f96:	fff74713          	not	a4,a4
    80004f9a:	000407b7          	lui	a5,0x40
    80004f9e:	8f71                	and	a4,a4,a2
    80004fa0:	4067d33b          	sraw	t1,a5,t1
    80004fa4:	00676733          	or	a4,a4,t1
    80004fa8:	00070e1b          	sext.w	t3,a4
    80004fac:	00008797          	auipc	a5,0x8
    80004fb0:	01478793          	addi	a5,a5,20 # 8000cfc0 <TWO52>
    80004fb4:	088e                	slli	a7,a7,0x3
    80004fb6:	98be                	add	a7,a7,a5
    80004fb8:	0008b403          	ld	s0,0(a7)
    80004fbc:	1682                	slli	a3,a3,0x20
    80004fbe:	9281                	srli	a3,a3,0x20
    80004fc0:	020e1593          	slli	a1,t3,0x20
    80004fc4:	8dd5                	or	a1,a1,a3
    80004fc6:	8522                	mv	a0,s0
    80004fc8:	00000097          	auipc	ra,0x0
    80004fcc:	06c080e7          	jalr	108(ra) # 80005034 <__adddf3>
    80004fd0:	e42a                	sd	a0,8(sp)
    80004fd2:	6522                	ld	a0,8(sp)
    80004fd4:	85a2                	mv	a1,s0
    80004fd6:	00001097          	auipc	ra,0x1
    80004fda:	e26080e7          	jalr	-474(ra) # 80005dfc <__subdf3>
    80004fde:	a829                	j	80004ff8 <rint+0x150>
    80004fe0:	03300793          	li	a5,51
    80004fe4:	0067dc63          	ble	t1,a5,80004ffc <rint+0x154>
    80004fe8:	40000793          	li	a5,1024
    80004fec:	f6f316e3          	bne	t1,a5,80004f58 <rint+0xb0>
    80004ff0:	00000097          	auipc	ra,0x0
    80004ff4:	044080e7          	jalr	68(ra) # 80005034 <__adddf3>
    80004ff8:	85aa                	mv	a1,a0
    80004ffa:	bfb9                	j	80004f58 <rint+0xb0>
    80004ffc:	bed8081b          	addiw	a6,a6,-1043
    80005000:	567d                	li	a2,-1
    80005002:	0106563b          	srlw	a2,a2,a6
    80005006:	00c6f733          	and	a4,a3,a2
    8000500a:	2701                	sext.w	a4,a4
    8000500c:	87b6                	mv	a5,a3
    8000500e:	d729                	beqz	a4,80004f58 <rint+0xb0>
    80005010:	0016561b          	srliw	a2,a2,0x1
    80005014:	00c6f733          	and	a4,a3,a2
    80005018:	2701                	sext.w	a4,a4
    8000501a:	db49                	beqz	a4,80004fac <rint+0x104>
    8000501c:	fff64613          	not	a2,a2
    80005020:	00f676b3          	and	a3,a2,a5
    80005024:	400007b7          	lui	a5,0x40000
    80005028:	4107d83b          	sraw	a6,a5,a6
    8000502c:	0106e6b3          	or	a3,a3,a6
    80005030:	2681                	sext.w	a3,a3
    80005032:	bfad                	j	80004fac <rint+0x104>

0000000080005034 <__adddf3>:
    80005034:	7179                	addi	sp,sp,-48
    80005036:	f406                	sd	ra,40(sp)
    80005038:	f022                	sd	s0,32(sp)
    8000503a:	ec26                	sd	s1,24(sp)
    8000503c:	e84a                	sd	s2,16(sp)
    8000503e:	e44e                	sd	s3,8(sp)
    80005040:	002029f3          	frrm	s3
    80005044:	58fd                	li	a7,-1
    80005046:	00c8d693          	srli	a3,a7,0xc
    8000504a:	00b6f7b3          	and	a5,a3,a1
    8000504e:	00a6f433          	and	s0,a3,a0
    80005052:	03455493          	srli	s1,a0,0x34
    80005056:	0345d693          	srli	a3,a1,0x34
    8000505a:	7ff4f493          	andi	s1,s1,2047
    8000505e:	7ff6f693          	andi	a3,a3,2047
    80005062:	40d4873b          	subw	a4,s1,a3
    80005066:	03f55913          	srli	s2,a0,0x3f
    8000506a:	91fd                	srli	a1,a1,0x3f
    8000506c:	2981                	sext.w	s3,s3
    8000506e:	00341813          	slli	a6,s0,0x3
    80005072:	078e                	slli	a5,a5,0x3
    80005074:	0007061b          	sext.w	a2,a4
    80005078:	22b91c63          	bne	s2,a1,800052b0 <__adddf3+0x27c>
    8000507c:	0ac05463          	blez	a2,80005124 <__adddf3+0xf0>
    80005080:	eaad                	bnez	a3,800050f2 <__adddf3+0xbe>
    80005082:	ef99                	bnez	a5,800050a0 <__adddf3+0x6c>
    80005084:	7ff00793          	li	a5,2047
    80005088:	22f49c63          	bne	s1,a5,800052c0 <__adddf3+0x28c>
    8000508c:	4a080563          	beqz	a6,80005536 <__adddf3+0x502>
    80005090:	03685793          	srli	a5,a6,0x36
    80005094:	ebb9                	bnez	a5,800050ea <__adddf3+0xb6>
    80005096:	87c2                	mv	a5,a6
    80005098:	7ff00693          	li	a3,2047
    8000509c:	4601                	li	a2,0
    8000509e:	a05d                	j	80005144 <__adddf3+0x110>
    800050a0:	fff7061b          	addiw	a2,a4,-1
    800050a4:	ea0d                	bnez	a2,800050d6 <__adddf3+0xa2>
    800050a6:	983e                	add	a6,a6,a5
    800050a8:	00881793          	slli	a5,a6,0x8
    800050ac:	2007da63          	bgez	a5,800052c0 <__adddf3+0x28c>
    800050b0:	00148693          	addi	a3,s1,1 # fffffffffffff001 <_trapsp0+0xffffffff7ffc9fc1>
    800050b4:	7ff00793          	li	a5,2047
    800050b8:	1cf68863          	beq	a3,a5,80005288 <__adddf3+0x254>
    800050bc:	1ff00613          	li	a2,511
    800050c0:	165a                	slli	a2,a2,0x36
    800050c2:	00185413          	srli	s0,a6,0x1
    800050c6:	167d                	addi	a2,a2,-1
    800050c8:	00187713          	andi	a4,a6,1
    800050cc:	00c477b3          	and	a5,s0,a2
    800050d0:	8fd9                	or	a5,a5,a4
    800050d2:	4601                	li	a2,0
    800050d4:	a285                	j	80005234 <__adddf3+0x200>
    800050d6:	7ff00713          	li	a4,2047
    800050da:	02e49363          	bne	s1,a4,80005100 <__adddf3+0xcc>
    800050de:	44080c63          	beqz	a6,80005536 <__adddf3+0x502>
    800050e2:	00981793          	slli	a5,a6,0x9
    800050e6:	fa07d8e3          	bgez	a5,80005096 <__adddf3+0x62>
    800050ea:	87c2                	mv	a5,a6
    800050ec:	7ff00693          	li	a3,2047
    800050f0:	b7cd                	j	800050d2 <__adddf3+0x9e>
    800050f2:	7ff00713          	li	a4,2047
    800050f6:	fee484e3          	beq	s1,a4,800050de <__adddf3+0xaa>
    800050fa:	4705                	li	a4,1
    800050fc:	175e                	slli	a4,a4,0x37
    800050fe:	8fd9                	or	a5,a5,a4
    80005100:	03800713          	li	a4,56
    80005104:	00c75463          	ble	a2,a4,8000510c <__adddf3+0xd8>
    80005108:	4785                	li	a5,1
    8000510a:	bf71                	j	800050a6 <__adddf3+0x72>
    8000510c:	04000713          	li	a4,64
    80005110:	00c7d6b3          	srl	a3,a5,a2
    80005114:	40c7063b          	subw	a2,a4,a2
    80005118:	00c797b3          	sll	a5,a5,a2
    8000511c:	00f037b3          	snez	a5,a5
    80005120:	8fd5                	or	a5,a5,a3
    80005122:	b751                	j	800050a6 <__adddf3+0x72>
    80005124:	ca3d                	beqz	a2,8000519a <__adddf3+0x166>
    80005126:	ec95                	bnez	s1,80005162 <__adddf3+0x12e>
    80005128:	02081063          	bnez	a6,80005148 <__adddf3+0x114>
    8000512c:	7ff00713          	li	a4,2047
    80005130:	3ee69263          	bne	a3,a4,80005514 <__adddf3+0x4e0>
    80005134:	4701                	li	a4,0
    80005136:	28078463          	beqz	a5,800053be <__adddf3+0x38a>
    8000513a:	00979593          	slli	a1,a5,0x9
    8000513e:	4601                	li	a2,0
    80005140:	0805c263          	bltz	a1,800051c4 <__adddf3+0x190>
    80005144:	4741                	li	a4,16
    80005146:	a8bd                	j	800051c4 <__adddf3+0x190>
    80005148:	01161563          	bne	a2,a7,80005152 <__adddf3+0x11e>
    8000514c:	983e                	add	a6,a6,a5
    8000514e:	84b6                	mv	s1,a3
    80005150:	bfa1                	j	800050a8 <__adddf3+0x74>
    80005152:	7ff00613          	li	a2,2047
    80005156:	fcc68fe3          	beq	a3,a2,80005134 <__adddf3+0x100>
    8000515a:	fff74713          	not	a4,a4
    8000515e:	2701                	sext.w	a4,a4
    80005160:	a819                	j	80005176 <__adddf3+0x142>
    80005162:	7ff00613          	li	a2,2047
    80005166:	fcc687e3          	beq	a3,a2,80005134 <__adddf3+0x100>
    8000516a:	4605                	li	a2,1
    8000516c:	165e                	slli	a2,a2,0x37
    8000516e:	40e0073b          	negw	a4,a4
    80005172:	00c86833          	or	a6,a6,a2
    80005176:	03800613          	li	a2,56
    8000517a:	4405                	li	s0,1
    8000517c:	00e64c63          	blt	a2,a4,80005194 <__adddf3+0x160>
    80005180:	04000413          	li	s0,64
    80005184:	9c19                	subw	s0,s0,a4
    80005186:	00881433          	sll	s0,a6,s0
    8000518a:	00e85633          	srl	a2,a6,a4
    8000518e:	00803433          	snez	s0,s0
    80005192:	8c51                	or	s0,s0,a2
    80005194:	00f40833          	add	a6,s0,a5
    80005198:	bf5d                	j	8000514e <__adddf3+0x11a>
    8000519a:	00148593          	addi	a1,s1,1
    8000519e:	7fe5f713          	andi	a4,a1,2046
    800051a2:	e341                	bnez	a4,80005222 <__adddf3+0x1ee>
    800051a4:	e885                	bnez	s1,800051d4 <__adddf3+0x1a0>
    800051a6:	36080e63          	beqz	a6,80005522 <__adddf3+0x4ee>
    800051aa:	28078063          	beqz	a5,8000542a <__adddf3+0x3f6>
    800051ae:	983e                	add	a6,a6,a5
    800051b0:	00881793          	slli	a5,a6,0x8
    800051b4:	2607db63          	bgez	a5,8000542a <__adddf3+0x3f6>
    800051b8:	03789793          	slli	a5,a7,0x37
    800051bc:	17fd                	addi	a5,a5,-1
    800051be:	00f877b3          	and	a5,a6,a5
    800051c2:	4685                	li	a3,1
    800051c4:	0077f593          	andi	a1,a5,7
    800051c8:	e9d9                	bnez	a1,8000525e <__adddf3+0x22a>
    800051ca:	1e060a63          	beqz	a2,800053be <__adddf3+0x38a>
    800051ce:	00177613          	andi	a2,a4,1
    800051d2:	a075                	j	8000527e <__adddf3+0x24a>
    800051d4:	7ff00713          	li	a4,2047
    800051d8:	00e49e63          	bne	s1,a4,800051f4 <__adddf3+0x1c0>
    800051dc:	3c080e63          	beqz	a6,800055b8 <__adddf3+0x584>
    800051e0:	03685713          	srli	a4,a6,0x36
    800051e4:	8b05                	andi	a4,a4,1
    800051e6:	00173713          	seqz	a4,a4
    800051ea:	0712                	slli	a4,a4,0x4
    800051ec:	02969363          	bne	a3,s1,80005212 <__adddf3+0x1de>
    800051f0:	e799                	bnez	a5,800051fe <__adddf3+0x1ca>
    800051f2:	ae71                	j	8000558e <__adddf3+0x55a>
    800051f4:	00e69c63          	bne	a3,a4,8000520c <__adddf3+0x1d8>
    800051f8:	4701                	li	a4,0
    800051fa:	38078863          	beqz	a5,8000558a <__adddf3+0x556>
    800051fe:	00979693          	slli	a3,a5,0x9
    80005202:	3806d863          	bgez	a3,80005592 <__adddf3+0x55e>
    80005206:	34080163          	beqz	a6,80005548 <__adddf3+0x514>
    8000520a:	a031                	j	80005216 <__adddf3+0x1e2>
    8000520c:	4701                	li	a4,0
    8000520e:	32080d63          	beqz	a6,80005548 <__adddf3+0x514>
    80005212:	36078e63          	beqz	a5,8000558e <__adddf3+0x55a>
    80005216:	4785                	li	a5,1
    80005218:	4901                	li	s2,0
    8000521a:	17da                	slli	a5,a5,0x36
    8000521c:	7ff00693          	li	a3,2047
    80005220:	aa79                	j	800053be <__adddf3+0x38a>
    80005222:	7ff00713          	li	a4,2047
    80005226:	00e58963          	beq	a1,a4,80005238 <__adddf3+0x204>
    8000522a:	00f80433          	add	s0,a6,a5
    8000522e:	00145793          	srli	a5,s0,0x1
    80005232:	86ae                	mv	a3,a1
    80005234:	4701                	li	a4,0
    80005236:	b779                	j	800051c4 <__adddf3+0x190>
    80005238:	00098763          	beqz	s3,80005246 <__adddf3+0x212>
    8000523c:	478d                	li	a5,3
    8000523e:	00f99763          	bne	s3,a5,8000524c <__adddf3+0x218>
    80005242:	00091a63          	bnez	s2,80005256 <__adddf3+0x222>
    80005246:	7ff00693          	li	a3,2047
    8000524a:	a0b1                	j	80005296 <__adddf3+0x262>
    8000524c:	4789                	li	a5,2
    8000524e:	00f99463          	bne	s3,a5,80005256 <__adddf3+0x222>
    80005252:	fe091ae3          	bnez	s2,80005246 <__adddf3+0x212>
    80005256:	57fd                	li	a5,-1
    80005258:	7fe00693          	li	a3,2046
    8000525c:	4715                	li	a4,5
    8000525e:	4589                	li	a1,2
    80005260:	00176713          	ori	a4,a4,1
    80005264:	2eb98c63          	beq	s3,a1,8000555c <__adddf3+0x528>
    80005268:	458d                	li	a1,3
    8000526a:	2eb98563          	beq	s3,a1,80005554 <__adddf3+0x520>
    8000526e:	00099863          	bnez	s3,8000527e <__adddf3+0x24a>
    80005272:	00f7f593          	andi	a1,a5,15
    80005276:	4511                	li	a0,4
    80005278:	00a58363          	beq	a1,a0,8000527e <__adddf3+0x24a>
    8000527c:	0791                	addi	a5,a5,4
    8000527e:	14060063          	beqz	a2,800053be <__adddf3+0x38a>
    80005282:	00276713          	ori	a4,a4,2
    80005286:	aa25                	j	800053be <__adddf3+0x38a>
    80005288:	00098763          	beqz	s3,80005296 <__adddf3+0x262>
    8000528c:	478d                	li	a5,3
    8000528e:	00f99763          	bne	s3,a5,8000529c <__adddf3+0x268>
    80005292:	00091a63          	bnez	s2,800052a6 <__adddf3+0x272>
    80005296:	4781                	li	a5,0
    80005298:	4715                	li	a4,5
    8000529a:	a215                	j	800053be <__adddf3+0x38a>
    8000529c:	4789                	li	a5,2
    8000529e:	00f99463          	bne	s3,a5,800052a6 <__adddf3+0x272>
    800052a2:	fe091ae3          	bnez	s2,80005296 <__adddf3+0x262>
    800052a6:	57fd                	li	a5,-1
    800052a8:	7fe00693          	li	a3,2046
    800052ac:	4601                	li	a2,0
    800052ae:	b77d                	j	8000525c <__adddf3+0x228>
    800052b0:	06c05963          	blez	a2,80005322 <__adddf3+0x2ee>
    800052b4:	e2b9                	bnez	a3,800052fa <__adddf3+0x2c6>
    800052b6:	eb91                	bnez	a5,800052ca <__adddf3+0x296>
    800052b8:	7ff00793          	li	a5,2047
    800052bc:	e2f481e3          	beq	s1,a5,800050de <__adddf3+0xaa>
    800052c0:	16048363          	beqz	s1,80005426 <__adddf3+0x3f2>
    800052c4:	87c2                	mv	a5,a6
    800052c6:	86a6                	mv	a3,s1
    800052c8:	b529                	j	800050d2 <__adddf3+0x9e>
    800052ca:	fff7061b          	addiw	a2,a4,-1
    800052ce:	ee01                	bnez	a2,800052e6 <__adddf3+0x2b2>
    800052d0:	40f80833          	sub	a6,a6,a5
    800052d4:	00881793          	slli	a5,a6,0x8
    800052d8:	fe07d4e3          	bgez	a5,800052c0 <__adddf3+0x28c>
    800052dc:	56fd                	li	a3,-1
    800052de:	82a5                	srli	a3,a3,0x9
    800052e0:	00d87433          	and	s0,a6,a3
    800052e4:	a2e5                	j	800054cc <__adddf3+0x498>
    800052e6:	7ff00713          	li	a4,2047
    800052ea:	dee48ae3          	beq	s1,a4,800050de <__adddf3+0xaa>
    800052ee:	03800713          	li	a4,56
    800052f2:	00c75c63          	ble	a2,a4,8000530a <__adddf3+0x2d6>
    800052f6:	4785                	li	a5,1
    800052f8:	bfe1                	j	800052d0 <__adddf3+0x29c>
    800052fa:	7ff00713          	li	a4,2047
    800052fe:	dee480e3          	beq	s1,a4,800050de <__adddf3+0xaa>
    80005302:	4705                	li	a4,1
    80005304:	175e                	slli	a4,a4,0x37
    80005306:	8fd9                	or	a5,a5,a4
    80005308:	b7dd                	j	800052ee <__adddf3+0x2ba>
    8000530a:	04000713          	li	a4,64
    8000530e:	00c7d6b3          	srl	a3,a5,a2
    80005312:	40c7063b          	subw	a2,a4,a2
    80005316:	00c797b3          	sll	a5,a5,a2
    8000531a:	00f037b3          	snez	a5,a5
    8000531e:	8fd5                	or	a5,a5,a3
    80005320:	bf45                	j	800052d0 <__adddf3+0x29c>
    80005322:	ce25                	beqz	a2,8000539a <__adddf3+0x366>
    80005324:	ec9d                	bnez	s1,80005362 <__adddf3+0x32e>
    80005326:	00081f63          	bnez	a6,80005344 <__adddf3+0x310>
    8000532a:	7ff00713          	li	a4,2047
    8000532e:	1ee69663          	bne	a3,a4,8000551a <__adddf3+0x4e6>
    80005332:	20078763          	beqz	a5,80005540 <__adddf3+0x50c>
    80005336:	00979713          	slli	a4,a5,0x9
    8000533a:	892e                	mv	s2,a1
    8000533c:	4601                	li	a2,0
    8000533e:	ee074be3          	bltz	a4,80005234 <__adddf3+0x200>
    80005342:	b509                	j	80005144 <__adddf3+0x110>
    80005344:	01161763          	bne	a2,a7,80005352 <__adddf3+0x31e>
    80005348:	41078833          	sub	a6,a5,a6
    8000534c:	84b6                	mv	s1,a3
    8000534e:	892e                	mv	s2,a1
    80005350:	b751                	j	800052d4 <__adddf3+0x2a0>
    80005352:	7ff00613          	li	a2,2047
    80005356:	fcc68ee3          	beq	a3,a2,80005332 <__adddf3+0x2fe>
    8000535a:	fff74713          	not	a4,a4
    8000535e:	2701                	sext.w	a4,a4
    80005360:	a819                	j	80005376 <__adddf3+0x342>
    80005362:	7ff00613          	li	a2,2047
    80005366:	fcc686e3          	beq	a3,a2,80005332 <__adddf3+0x2fe>
    8000536a:	4605                	li	a2,1
    8000536c:	165e                	slli	a2,a2,0x37
    8000536e:	40e0073b          	negw	a4,a4
    80005372:	00c86833          	or	a6,a6,a2
    80005376:	03800613          	li	a2,56
    8000537a:	4405                	li	s0,1
    8000537c:	00e64c63          	blt	a2,a4,80005394 <__adddf3+0x360>
    80005380:	04000413          	li	s0,64
    80005384:	9c19                	subw	s0,s0,a4
    80005386:	00881433          	sll	s0,a6,s0
    8000538a:	00e85633          	srl	a2,a6,a4
    8000538e:	00803433          	snez	s0,s0
    80005392:	8c51                	or	s0,s0,a2
    80005394:	40878833          	sub	a6,a5,s0
    80005398:	bf55                	j	8000534c <__adddf3+0x318>
    8000539a:	00148713          	addi	a4,s1,1
    8000539e:	7fe77713          	andi	a4,a4,2046
    800053a2:	10071c63          	bnez	a4,800054ba <__adddf3+0x486>
    800053a6:	e0e9                	bnez	s1,80005468 <__adddf3+0x434>
    800053a8:	06081563          	bnez	a6,80005412 <__adddf3+0x3de>
    800053ac:	1e079b63          	bnez	a5,800055a2 <__adddf3+0x56e>
    800053b0:	ffe98913          	addi	s2,s3,-2
    800053b4:	00193913          	seqz	s2,s2
    800053b8:	4701                	li	a4,0
    800053ba:	4781                	li	a5,0
    800053bc:	4681                	li	a3,0
    800053be:	00879613          	slli	a2,a5,0x8
    800053c2:	00065b63          	bgez	a2,800053d8 <__adddf3+0x3a4>
    800053c6:	0685                	addi	a3,a3,1
    800053c8:	7ff00613          	li	a2,2047
    800053cc:	18c68b63          	beq	a3,a2,80005562 <__adddf3+0x52e>
    800053d0:	567d                	li	a2,-1
    800053d2:	165e                	slli	a2,a2,0x37
    800053d4:	167d                	addi	a2,a2,-1
    800053d6:	8ff1                	and	a5,a5,a2
    800053d8:	7ff00613          	li	a2,2047
    800053dc:	838d                	srli	a5,a5,0x3
    800053de:	00c69663          	bne	a3,a2,800053ea <__adddf3+0x3b6>
    800053e2:	c781                	beqz	a5,800053ea <__adddf3+0x3b6>
    800053e4:	4785                	li	a5,1
    800053e6:	17ce                	slli	a5,a5,0x33
    800053e8:	4901                	li	s2,0
    800053ea:	7ff6f513          	andi	a0,a3,2047
    800053ee:	56fd                	li	a3,-1
    800053f0:	82b1                	srli	a3,a3,0xc
    800053f2:	1552                	slli	a0,a0,0x34
    800053f4:	8ff5                	and	a5,a5,a3
    800053f6:	197e                	slli	s2,s2,0x3f
    800053f8:	8d5d                	or	a0,a0,a5
    800053fa:	01256533          	or	a0,a0,s2
    800053fe:	c319                	beqz	a4,80005404 <__adddf3+0x3d0>
    80005400:	00172073          	csrs	fflags,a4
    80005404:	70a2                	ld	ra,40(sp)
    80005406:	7402                	ld	s0,32(sp)
    80005408:	64e2                	ld	s1,24(sp)
    8000540a:	6942                	ld	s2,16(sp)
    8000540c:	69a2                	ld	s3,8(sp)
    8000540e:	6145                	addi	sp,sp,48
    80005410:	8082                	ret
    80005412:	cf81                	beqz	a5,8000542a <__adddf3+0x3f6>
    80005414:	40f80733          	sub	a4,a6,a5
    80005418:	00871693          	slli	a3,a4,0x8
    8000541c:	0406d363          	bgez	a3,80005462 <__adddf3+0x42e>
    80005420:	41078833          	sub	a6,a5,a6
    80005424:	892e                	mv	s2,a1
    80005426:	12080463          	beqz	a6,8000554e <__adddf3+0x51a>
    8000542a:	00181613          	slli	a2,a6,0x1
    8000542e:	00767793          	andi	a5,a2,7
    80005432:	4701                	li	a4,0
    80005434:	c385                	beqz	a5,80005454 <__adddf3+0x420>
    80005436:	4789                	li	a5,2
    80005438:	0ef98b63          	beq	s3,a5,8000552e <__adddf3+0x4fa>
    8000543c:	478d                	li	a5,3
    8000543e:	4705                	li	a4,1
    80005440:	0ef98363          	beq	s3,a5,80005526 <__adddf3+0x4f2>
    80005444:	00099863          	bnez	s3,80005454 <__adddf3+0x420>
    80005448:	00f67793          	andi	a5,a2,15
    8000544c:	4691                	li	a3,4
    8000544e:	00d78363          	beq	a5,a3,80005454 <__adddf3+0x420>
    80005452:	0611                	addi	a2,a2,4
    80005454:	9261                	srli	a2,a2,0x38
    80005456:	00164613          	xori	a2,a2,1
    8000545a:	8a05                	andi	a2,a2,1
    8000545c:	87c2                	mv	a5,a6
    8000545e:	4681                	li	a3,0
    80005460:	b395                	j	800051c4 <__adddf3+0x190>
    80005462:	d739                	beqz	a4,800053b0 <__adddf3+0x37c>
    80005464:	883a                	mv	a6,a4
    80005466:	b7d1                	j	8000542a <__adddf3+0x3f6>
    80005468:	7ff00713          	li	a4,2047
    8000546c:	00e49e63          	bne	s1,a4,80005488 <__adddf3+0x454>
    80005470:	12080c63          	beqz	a6,800055a8 <__adddf3+0x574>
    80005474:	03685713          	srli	a4,a6,0x36
    80005478:	8b05                	andi	a4,a4,1
    8000547a:	00173713          	seqz	a4,a4
    8000547e:	0712                	slli	a4,a4,0x4
    80005480:	d89699e3          	bne	a3,s1,80005212 <__adddf3+0x1de>
    80005484:	e799                	bnez	a5,80005492 <__adddf3+0x45e>
    80005486:	a221                	j	8000558e <__adddf3+0x55a>
    80005488:	00e69d63          	bne	a3,a4,800054a2 <__adddf3+0x46e>
    8000548c:	10078763          	beqz	a5,8000559a <__adddf3+0x566>
    80005490:	4701                	li	a4,0
    80005492:	00979693          	slli	a3,a5,0x9
    80005496:	1006d063          	bgez	a3,80005596 <__adddf3+0x562>
    8000549a:	d6081ee3          	bnez	a6,80005216 <__adddf3+0x1e2>
    8000549e:	892e                	mv	s2,a1
    800054a0:	a065                	j	80005548 <__adddf3+0x514>
    800054a2:	00081a63          	bnez	a6,800054b6 <__adddf3+0x482>
    800054a6:	efd9                	bnez	a5,80005544 <__adddf3+0x510>
    800054a8:	4785                	li	a5,1
    800054aa:	4901                	li	s2,0
    800054ac:	17da                	slli	a5,a5,0x36
    800054ae:	7ff00693          	li	a3,2047
    800054b2:	4741                	li	a4,16
    800054b4:	b729                	j	800053be <__adddf3+0x38a>
    800054b6:	4701                	li	a4,0
    800054b8:	bba9                	j	80005212 <__adddf3+0x1de>
    800054ba:	40f80433          	sub	s0,a6,a5
    800054be:	00841713          	slli	a4,s0,0x8
    800054c2:	04075063          	bgez	a4,80005502 <__adddf3+0x4ce>
    800054c6:	41078433          	sub	s0,a5,a6
    800054ca:	892e                	mv	s2,a1
    800054cc:	8522                	mv	a0,s0
    800054ce:	00001097          	auipc	ra,0x1
    800054d2:	330080e7          	jalr	816(ra) # 800067fe <__clzdi2>
    800054d6:	ff85079b          	addiw	a5,a0,-8
    800054da:	00f41433          	sll	s0,s0,a5
    800054de:	0297c463          	blt	a5,s1,80005506 <__adddf3+0x4d2>
    800054e2:	409784bb          	subw	s1,a5,s1
    800054e6:	2485                	addiw	s1,s1,1
    800054e8:	04000513          	li	a0,64
    800054ec:	00945833          	srl	a6,s0,s1
    800054f0:	409504bb          	subw	s1,a0,s1
    800054f4:	00941433          	sll	s0,s0,s1
    800054f8:	00803433          	snez	s0,s0
    800054fc:	00886833          	or	a6,a6,s0
    80005500:	b71d                	j	80005426 <__adddf3+0x3f2>
    80005502:	f469                	bnez	s0,800054cc <__adddf3+0x498>
    80005504:	b575                	j	800053b0 <__adddf3+0x37c>
    80005506:	587d                	li	a6,-1
    80005508:	185e                	slli	a6,a6,0x37
    8000550a:	187d                	addi	a6,a6,-1
    8000550c:	8c9d                	sub	s1,s1,a5
    8000550e:	01047833          	and	a6,s0,a6
    80005512:	b37d                	j	800052c0 <__adddf3+0x28c>
    80005514:	883e                	mv	a6,a5
    80005516:	84b6                	mv	s1,a3
    80005518:	b365                	j	800052c0 <__adddf3+0x28c>
    8000551a:	883e                	mv	a6,a5
    8000551c:	84b6                	mv	s1,a3
    8000551e:	892e                	mv	s2,a1
    80005520:	b345                	j	800052c0 <__adddf3+0x28c>
    80005522:	883e                	mv	a6,a5
    80005524:	b709                	j	80005426 <__adddf3+0x3f2>
    80005526:	f20917e3          	bnez	s2,80005454 <__adddf3+0x420>
    8000552a:	0621                	addi	a2,a2,8
    8000552c:	b725                	j	80005454 <__adddf3+0x420>
    8000552e:	4705                	li	a4,1
    80005530:	f20902e3          	beqz	s2,80005454 <__adddf3+0x420>
    80005534:	bfdd                	j	8000552a <__adddf3+0x4f6>
    80005536:	4781                	li	a5,0
    80005538:	7ff00693          	li	a3,2047
    8000553c:	4701                	li	a4,0
    8000553e:	b541                	j	800053be <__adddf3+0x38a>
    80005540:	892e                	mv	s2,a1
    80005542:	bfed                	j	8000553c <__adddf3+0x508>
    80005544:	892e                	mv	s2,a1
    80005546:	4701                	li	a4,0
    80005548:	7ff00693          	li	a3,2047
    8000554c:	b9a5                	j	800051c4 <__adddf3+0x190>
    8000554e:	4781                	li	a5,0
    80005550:	4681                	li	a3,0
    80005552:	b7ed                	j	8000553c <__adddf3+0x508>
    80005554:	d20915e3          	bnez	s2,8000527e <__adddf3+0x24a>
    80005558:	07a1                	addi	a5,a5,8
    8000555a:	b315                	j	8000527e <__adddf3+0x24a>
    8000555c:	d20901e3          	beqz	s2,8000527e <__adddf3+0x24a>
    80005560:	bfe5                	j	80005558 <__adddf3+0x524>
    80005562:	4781                	li	a5,0
    80005564:	02098063          	beqz	s3,80005584 <__adddf3+0x550>
    80005568:	460d                	li	a2,3
    8000556a:	00c99863          	bne	s3,a2,8000557a <__adddf3+0x546>
    8000556e:	00090b63          	beqz	s2,80005584 <__adddf3+0x550>
    80005572:	57fd                	li	a5,-1
    80005574:	7fe00693          	li	a3,2046
    80005578:	a031                	j	80005584 <__adddf3+0x550>
    8000557a:	4609                	li	a2,2
    8000557c:	fec99be3          	bne	s3,a2,80005572 <__adddf3+0x53e>
    80005580:	fe0909e3          	beqz	s2,80005572 <__adddf3+0x53e>
    80005584:	00576713          	ori	a4,a4,5
    80005588:	bd81                	j	800053d8 <__adddf3+0x3a4>
    8000558a:	c80809e3          	beqz	a6,8000521c <__adddf3+0x1e8>
    8000558e:	87c2                	mv	a5,a6
    80005590:	bf65                	j	80005548 <__adddf3+0x514>
    80005592:	4741                	li	a4,16
    80005594:	b98d                	j	80005206 <__adddf3+0x1d2>
    80005596:	4741                	li	a4,16
    80005598:	b709                	j	8000549a <__adddf3+0x466>
    8000559a:	00080b63          	beqz	a6,800055b0 <__adddf3+0x57c>
    8000559e:	4701                	li	a4,0
    800055a0:	b7fd                	j	8000558e <__adddf3+0x55a>
    800055a2:	883e                	mv	a6,a5
    800055a4:	892e                	mv	s2,a1
    800055a6:	b551                	j	8000542a <__adddf3+0x3f6>
    800055a8:	ee969fe3          	bne	a3,s1,800054a6 <__adddf3+0x472>
    800055ac:	ee0792e3          	bnez	a5,80005490 <__adddf3+0x45c>
    800055b0:	4785                	li	a5,1
    800055b2:	4901                	li	s2,0
    800055b4:	17da                	slli	a5,a5,0x36
    800055b6:	bdf5                	j	800054b2 <__adddf3+0x47e>
    800055b8:	c49680e3          	beq	a3,s1,800051f8 <__adddf3+0x1c4>
    800055bc:	7ff00693          	li	a3,2047
    800055c0:	b995                	j	80005234 <__adddf3+0x200>

00000000800055c2 <__divdf3>:
    800055c2:	715d                	addi	sp,sp,-80
    800055c4:	e45e                	sd	s7,8(sp)
    800055c6:	e486                	sd	ra,72(sp)
    800055c8:	e0a2                	sd	s0,64(sp)
    800055ca:	fc26                	sd	s1,56(sp)
    800055cc:	f84a                	sd	s2,48(sp)
    800055ce:	f44e                	sd	s3,40(sp)
    800055d0:	f052                	sd	s4,32(sp)
    800055d2:	ec56                	sd	s5,24(sp)
    800055d4:	e85a                	sd	s6,16(sp)
    800055d6:	8bae                	mv	s7,a1
    800055d8:	00202a73          	frrm	s4
    800055dc:	597d                	li	s2,-1
    800055de:	03455993          	srli	s3,a0,0x34
    800055e2:	00c95913          	srli	s2,s2,0xc
    800055e6:	7ff9f993          	andi	s3,s3,2047
    800055ea:	2a01                	sext.w	s4,s4
    800055ec:	00a97933          	and	s2,s2,a0
    800055f0:	03f55a93          	srli	s5,a0,0x3f
    800055f4:	02098063          	beqz	s3,80005614 <__divdf3+0x52>
    800055f8:	7ff00793          	li	a5,2047
    800055fc:	02f98d63          	beq	s3,a5,80005636 <__divdf3+0x74>
    80005600:	4785                	li	a5,1
    80005602:	090e                	slli	s2,s2,0x3
    80005604:	17de                	slli	a5,a5,0x37
    80005606:	00f96933          	or	s2,s2,a5
    8000560a:	c0198993          	addi	s3,s3,-1023
    8000560e:	4b01                	li	s6,0
    80005610:	4481                	li	s1,0
    80005612:	a825                	j	8000564a <__divdf3+0x88>
    80005614:	08090563          	beqz	s2,8000569e <__divdf3+0xdc>
    80005618:	854a                	mv	a0,s2
    8000561a:	00001097          	auipc	ra,0x1
    8000561e:	1e4080e7          	jalr	484(ra) # 800067fe <__clzdi2>
    80005622:	2501                	sext.w	a0,a0
    80005624:	ff85079b          	addiw	a5,a0,-8
    80005628:	c0d00993          	li	s3,-1011
    8000562c:	00f91933          	sll	s2,s2,a5
    80005630:	40a989b3          	sub	s3,s3,a0
    80005634:	bfe9                	j	8000560e <__divdf3+0x4c>
    80005636:	06090763          	beqz	s2,800056a4 <__divdf3+0xe2>
    8000563a:	00c91793          	slli	a5,s2,0xc
    8000563e:	7ff00993          	li	s3,2047
    80005642:	4b0d                	li	s6,3
    80005644:	44c1                	li	s1,16
    80005646:	fc07c5e3          	bltz	a5,80005610 <__divdf3+0x4e>
    8000564a:	034bd793          	srli	a5,s7,0x34
    8000564e:	547d                	li	s0,-1
    80005650:	8031                	srli	s0,s0,0xc
    80005652:	7ff7f793          	andi	a5,a5,2047
    80005656:	01747433          	and	s0,s0,s7
    8000565a:	03fbdb93          	srli	s7,s7,0x3f
    8000565e:	c7b9                	beqz	a5,800056ac <__divdf3+0xea>
    80005660:	7ff00713          	li	a4,2047
    80005664:	06e78363          	beq	a5,a4,800056ca <__divdf3+0x108>
    80005668:	4705                	li	a4,1
    8000566a:	040e                	slli	s0,s0,0x3
    8000566c:	175e                	slli	a4,a4,0x37
    8000566e:	8c59                	or	s0,s0,a4
    80005670:	c0178793          	addi	a5,a5,-1023 # 3ffffc01 <_stack_size+0x3fff7c01>
    80005674:	4701                	li	a4,0
    80005676:	002b1693          	slli	a3,s6,0x2
    8000567a:	8ed9                	or	a3,a3,a4
    8000567c:	40f989b3          	sub	s3,s3,a5
    80005680:	16fd                	addi	a3,a3,-1
    80005682:	47b9                	li	a5,14
    80005684:	017ac633          	xor	a2,s5,s7
    80005688:	06d7e663          	bltu	a5,a3,800056f4 <__divdf3+0x132>
    8000568c:	00008597          	auipc	a1,0x8
    80005690:	94458593          	addi	a1,a1,-1724 # 8000cfd0 <TWO52+0x10>
    80005694:	068a                	slli	a3,a3,0x2
    80005696:	96ae                	add	a3,a3,a1
    80005698:	429c                	lw	a5,0(a3)
    8000569a:	97ae                	add	a5,a5,a1
    8000569c:	8782                	jr	a5
    8000569e:	4981                	li	s3,0
    800056a0:	4b05                	li	s6,1
    800056a2:	b7bd                	j	80005610 <__divdf3+0x4e>
    800056a4:	7ff00993          	li	s3,2047
    800056a8:	4b09                	li	s6,2
    800056aa:	b79d                	j	80005610 <__divdf3+0x4e>
    800056ac:	c80d                	beqz	s0,800056de <__divdf3+0x11c>
    800056ae:	8522                	mv	a0,s0
    800056b0:	00001097          	auipc	ra,0x1
    800056b4:	14e080e7          	jalr	334(ra) # 800067fe <__clzdi2>
    800056b8:	2501                	sext.w	a0,a0
    800056ba:	ff85079b          	addiw	a5,a0,-8
    800056be:	00f41433          	sll	s0,s0,a5
    800056c2:	c0d00793          	li	a5,-1011
    800056c6:	8f89                	sub	a5,a5,a0
    800056c8:	b775                	j	80005674 <__divdf3+0xb2>
    800056ca:	cc09                	beqz	s0,800056e4 <__divdf3+0x122>
    800056cc:	00c41793          	slli	a5,s0,0xc
    800056d0:	0007ce63          	bltz	a5,800056ec <__divdf3+0x12a>
    800056d4:	7ff00793          	li	a5,2047
    800056d8:	470d                	li	a4,3
    800056da:	44c1                	li	s1,16
    800056dc:	bf69                	j	80005676 <__divdf3+0xb4>
    800056de:	4781                	li	a5,0
    800056e0:	4705                	li	a4,1
    800056e2:	bf51                	j	80005676 <__divdf3+0xb4>
    800056e4:	7ff00793          	li	a5,2047
    800056e8:	4709                	li	a4,2
    800056ea:	b771                	j	80005676 <__divdf3+0xb4>
    800056ec:	7ff00793          	li	a5,2047
    800056f0:	470d                	li	a4,3
    800056f2:	b751                	j	80005676 <__divdf3+0xb4>
    800056f4:	00841513          	slli	a0,s0,0x8
    800056f8:	10897863          	bleu	s0,s2,80005808 <__divdf3+0x246>
    800056fc:	19fd                	addi	s3,s3,-1
    800056fe:	4681                	li	a3,0
    80005700:	02055413          	srli	s0,a0,0x20
    80005704:	028958b3          	divu	a7,s2,s0
    80005708:	57fd                	li	a5,-1
    8000570a:	9381                	srli	a5,a5,0x20
    8000570c:	8fe9                	and	a5,a5,a0
    8000570e:	9281                	srli	a3,a3,0x20
    80005710:	02897733          	remu	a4,s2,s0
    80005714:	85c6                	mv	a1,a7
    80005716:	03178833          	mul	a6,a5,a7
    8000571a:	1702                	slli	a4,a4,0x20
    8000571c:	8f55                	or	a4,a4,a3
    8000571e:	01077c63          	bleu	a6,a4,80005736 <__divdf3+0x174>
    80005722:	972a                	add	a4,a4,a0
    80005724:	fff88593          	addi	a1,a7,-1
    80005728:	00a76763          	bltu	a4,a0,80005736 <__divdf3+0x174>
    8000572c:	01077563          	bleu	a6,a4,80005736 <__divdf3+0x174>
    80005730:	ffe88593          	addi	a1,a7,-2
    80005734:	972a                	add	a4,a4,a0
    80005736:	41070733          	sub	a4,a4,a6
    8000573a:	02875833          	divu	a6,a4,s0
    8000573e:	02877733          	remu	a4,a4,s0
    80005742:	030786b3          	mul	a3,a5,a6
    80005746:	02071793          	slli	a5,a4,0x20
    8000574a:	8742                	mv	a4,a6
    8000574c:	00d7fc63          	bleu	a3,a5,80005764 <__divdf3+0x1a2>
    80005750:	97aa                	add	a5,a5,a0
    80005752:	fff80713          	addi	a4,a6,-1
    80005756:	00a7e763          	bltu	a5,a0,80005764 <__divdf3+0x1a2>
    8000575a:	00d7f563          	bleu	a3,a5,80005764 <__divdf3+0x1a2>
    8000575e:	ffe80713          	addi	a4,a6,-2
    80005762:	97aa                	add	a5,a5,a0
    80005764:	02059413          	slli	s0,a1,0x20
    80005768:	8f95                	sub	a5,a5,a3
    8000576a:	8c59                	or	s0,s0,a4
    8000576c:	00f037b3          	snez	a5,a5
    80005770:	8c5d                	or	s0,s0,a5
    80005772:	3ff98793          	addi	a5,s3,1023
    80005776:	0ef05563          	blez	a5,80005860 <__divdf3+0x29e>
    8000577a:	00747713          	andi	a4,s0,7
    8000577e:	c30d                	beqz	a4,800057a0 <__divdf3+0x1de>
    80005780:	4709                	li	a4,2
    80005782:	0014e493          	ori	s1,s1,1
    80005786:	0cea0463          	beq	s4,a4,8000584e <__divdf3+0x28c>
    8000578a:	470d                	li	a4,3
    8000578c:	0aea0e63          	beq	s4,a4,80005848 <__divdf3+0x286>
    80005790:	000a1863          	bnez	s4,800057a0 <__divdf3+0x1de>
    80005794:	00f47713          	andi	a4,s0,15
    80005798:	4691                	li	a3,4
    8000579a:	00d70363          	beq	a4,a3,800057a0 <__divdf3+0x1de>
    8000579e:	0411                	addi	s0,s0,4
    800057a0:	00741713          	slli	a4,s0,0x7
    800057a4:	00075863          	bgez	a4,800057b4 <__divdf3+0x1f2>
    800057a8:	57fd                	li	a5,-1
    800057aa:	17e2                	slli	a5,a5,0x38
    800057ac:	17fd                	addi	a5,a5,-1
    800057ae:	8c7d                	and	s0,s0,a5
    800057b0:	40098793          	addi	a5,s3,1024
    800057b4:	7fe00713          	li	a4,2046
    800057b8:	800d                	srli	s0,s0,0x3
    800057ba:	00f75f63          	ble	a5,a4,800057d8 <__divdf3+0x216>
    800057be:	4789                	li	a5,2
    800057c0:	08fa0e63          	beq	s4,a5,8000585c <__divdf3+0x29a>
    800057c4:	478d                	li	a5,3
    800057c6:	08fa0663          	beq	s4,a5,80005852 <__divdf3+0x290>
    800057ca:	080a0563          	beqz	s4,80005854 <__divdf3+0x292>
    800057ce:	547d                	li	s0,-1
    800057d0:	7fe00793          	li	a5,2046
    800057d4:	0054e493          	ori	s1,s1,5
    800057d8:	557d                	li	a0,-1
    800057da:	7ff7f793          	andi	a5,a5,2047
    800057de:	8131                	srli	a0,a0,0xc
    800057e0:	8d61                	and	a0,a0,s0
    800057e2:	17d2                	slli	a5,a5,0x34
    800057e4:	03f61413          	slli	s0,a2,0x3f
    800057e8:	8d5d                	or	a0,a0,a5
    800057ea:	8d41                	or	a0,a0,s0
    800057ec:	c099                	beqz	s1,800057f2 <__divdf3+0x230>
    800057ee:	0014a073          	csrs	fflags,s1
    800057f2:	60a6                	ld	ra,72(sp)
    800057f4:	6406                	ld	s0,64(sp)
    800057f6:	74e2                	ld	s1,56(sp)
    800057f8:	7942                	ld	s2,48(sp)
    800057fa:	79a2                	ld	s3,40(sp)
    800057fc:	7a02                	ld	s4,32(sp)
    800057fe:	6ae2                	ld	s5,24(sp)
    80005800:	6b42                	ld	s6,16(sp)
    80005802:	6ba2                	ld	s7,8(sp)
    80005804:	6161                	addi	sp,sp,80
    80005806:	8082                	ret
    80005808:	03f91693          	slli	a3,s2,0x3f
    8000580c:	00195913          	srli	s2,s2,0x1
    80005810:	bdc5                	j	80005700 <__divdf3+0x13e>
    80005812:	8656                	mv	a2,s5
    80005814:	844a                	mv	s0,s2
    80005816:	875a                	mv	a4,s6
    80005818:	4789                	li	a5,2
    8000581a:	00f70e63          	beq	a4,a5,80005836 <__divdf3+0x274>
    8000581e:	478d                	li	a5,3
    80005820:	14f70263          	beq	a4,a5,80005964 <__divdf3+0x3a2>
    80005824:	4785                	li	a5,1
    80005826:	f4f716e3          	bne	a4,a5,80005772 <__divdf3+0x1b0>
    8000582a:	4401                	li	s0,0
    8000582c:	a205                	j	8000594c <__divdf3+0x38a>
    8000582e:	865e                	mv	a2,s7
    80005830:	b7e5                	j	80005818 <__divdf3+0x256>
    80005832:	0084e493          	ori	s1,s1,8
    80005836:	4401                	li	s0,0
    80005838:	7ff00793          	li	a5,2047
    8000583c:	bf71                	j	800057d8 <__divdf3+0x216>
    8000583e:	4405                	li	s0,1
    80005840:	144e                	slli	s0,s0,0x33
    80005842:	4601                	li	a2,0
    80005844:	470d                	li	a4,3
    80005846:	bfc9                	j	80005818 <__divdf3+0x256>
    80005848:	fe21                	bnez	a2,800057a0 <__divdf3+0x1de>
    8000584a:	0421                	addi	s0,s0,8
    8000584c:	bf91                	j	800057a0 <__divdf3+0x1de>
    8000584e:	da29                	beqz	a2,800057a0 <__divdf3+0x1de>
    80005850:	bfed                	j	8000584a <__divdf3+0x288>
    80005852:	fe35                	bnez	a2,800057ce <__divdf3+0x20c>
    80005854:	4401                	li	s0,0
    80005856:	7ff00793          	li	a5,2047
    8000585a:	bfad                	j	800057d4 <__divdf3+0x212>
    8000585c:	fe65                	bnez	a2,80005854 <__divdf3+0x292>
    8000585e:	bf85                	j	800057ce <__divdf3+0x20c>
    80005860:	4705                	li	a4,1
    80005862:	eb9d                	bnez	a5,80005898 <__divdf3+0x2d6>
    80005864:	00747693          	andi	a3,s0,7
    80005868:	8722                	mv	a4,s0
    8000586a:	c29d                	beqz	a3,80005890 <__divdf3+0x2ce>
    8000586c:	4709                	li	a4,2
    8000586e:	0014e493          	ori	s1,s1,1
    80005872:	08ea0b63          	beq	s4,a4,80005908 <__divdf3+0x346>
    80005876:	470d                	li	a4,3
    80005878:	08ea0363          	beq	s4,a4,800058fe <__divdf3+0x33c>
    8000587c:	8722                	mv	a4,s0
    8000587e:	000a1963          	bnez	s4,80005890 <__divdf3+0x2ce>
    80005882:	00f47693          	andi	a3,s0,15
    80005886:	4591                	li	a1,4
    80005888:	00b68463          	beq	a3,a1,80005890 <__divdf3+0x2ce>
    8000588c:	00440713          	addi	a4,s0,4 # ffffffffbff00004 <_trapsp0+0xffffffff3fecafc4>
    80005890:	9361                	srli	a4,a4,0x38
    80005892:	00174713          	xori	a4,a4,1
    80005896:	8b05                	andi	a4,a4,1
    80005898:	4505                	li	a0,1
    8000589a:	40f507b3          	sub	a5,a0,a5
    8000589e:	03800693          	li	a3,56
    800058a2:	08f6c263          	blt	a3,a5,80005926 <__divdf3+0x364>
    800058a6:	0007851b          	sext.w	a0,a5
    800058aa:	04000793          	li	a5,64
    800058ae:	9f89                	subw	a5,a5,a0
    800058b0:	00a456b3          	srl	a3,s0,a0
    800058b4:	00f41433          	sll	s0,s0,a5
    800058b8:	00803433          	snez	s0,s0
    800058bc:	8c55                	or	s0,s0,a3
    800058be:	00747793          	andi	a5,s0,7
    800058c2:	c38d                	beqz	a5,800058e4 <__divdf3+0x322>
    800058c4:	4789                	li	a5,2
    800058c6:	0014e493          	ori	s1,s1,1
    800058ca:	04fa0563          	beq	s4,a5,80005914 <__divdf3+0x352>
    800058ce:	478d                	li	a5,3
    800058d0:	02fa0f63          	beq	s4,a5,8000590e <__divdf3+0x34c>
    800058d4:	000a1863          	bnez	s4,800058e4 <__divdf3+0x322>
    800058d8:	00f47793          	andi	a5,s0,15
    800058dc:	4691                	li	a3,4
    800058de:	00d78363          	beq	a5,a3,800058e4 <__divdf3+0x322>
    800058e2:	0411                	addi	s0,s0,4
    800058e4:	00841793          	slli	a5,s0,0x8
    800058e8:	0207d863          	bgez	a5,80005918 <__divdf3+0x356>
    800058ec:	0014e493          	ori	s1,s1,1
    800058f0:	4401                	li	s0,0
    800058f2:	4785                	li	a5,1
    800058f4:	ee0702e3          	beqz	a4,800057d8 <__divdf3+0x216>
    800058f8:	0024e493          	ori	s1,s1,2
    800058fc:	bdf1                	j	800057d8 <__divdf3+0x216>
    800058fe:	8722                	mv	a4,s0
    80005900:	fa41                	bnez	a2,80005890 <__divdf3+0x2ce>
    80005902:	00840713          	addi	a4,s0,8
    80005906:	b769                	j	80005890 <__divdf3+0x2ce>
    80005908:	8722                	mv	a4,s0
    8000590a:	d259                	beqz	a2,80005890 <__divdf3+0x2ce>
    8000590c:	bfdd                	j	80005902 <__divdf3+0x340>
    8000590e:	fa79                	bnez	a2,800058e4 <__divdf3+0x322>
    80005910:	0421                	addi	s0,s0,8
    80005912:	bfc9                	j	800058e4 <__divdf3+0x322>
    80005914:	da61                	beqz	a2,800058e4 <__divdf3+0x322>
    80005916:	bfed                	j	80005910 <__divdf3+0x34e>
    80005918:	800d                	srli	s0,s0,0x3
    8000591a:	4781                	li	a5,0
    8000591c:	ea070ee3          	beqz	a4,800057d8 <__divdf3+0x216>
    80005920:	0014f713          	andi	a4,s1,1
    80005924:	bfc1                	j	800058f4 <__divdf3+0x332>
    80005926:	c00d                	beqz	s0,80005948 <__divdf3+0x386>
    80005928:	4789                	li	a5,2
    8000592a:	0014e493          	ori	s1,s1,1
    8000592e:	02fa0163          	beq	s4,a5,80005950 <__divdf3+0x38e>
    80005932:	478d                	li	a5,3
    80005934:	00fa0763          	beq	s4,a5,80005942 <__divdf3+0x380>
    80005938:	4415                	li	s0,5
    8000593a:	000a0663          	beqz	s4,80005946 <__divdf3+0x384>
    8000593e:	4405                	li	s0,1
    80005940:	a019                	j	80005946 <__divdf3+0x384>
    80005942:	4425                	li	s0,9
    80005944:	fe6d                	bnez	a2,8000593e <__divdf3+0x37c>
    80005946:	800d                	srli	s0,s0,0x3
    80005948:	0024e493          	ori	s1,s1,2
    8000594c:	4781                	li	a5,0
    8000594e:	b569                	j	800057d8 <__divdf3+0x216>
    80005950:	4425                	li	s0,9
    80005952:	fa75                	bnez	a2,80005946 <__divdf3+0x384>
    80005954:	b7ed                	j	8000593e <__divdf3+0x37c>
    80005956:	4405                	li	s0,1
    80005958:	144e                	slli	s0,s0,0x33
    8000595a:	7ff00793          	li	a5,2047
    8000595e:	4601                	li	a2,0
    80005960:	44c1                	li	s1,16
    80005962:	bd9d                	j	800057d8 <__divdf3+0x216>
    80005964:	4405                	li	s0,1
    80005966:	144e                	slli	s0,s0,0x33
    80005968:	7ff00793          	li	a5,2047
    8000596c:	4601                	li	a2,0
    8000596e:	b5ad                	j	800057d8 <__divdf3+0x216>

0000000080005970 <__gedf2>:
    80005970:	002027f3          	frrm	a5
    80005974:	577d                	li	a4,-1
    80005976:	8331                	srli	a4,a4,0xc
    80005978:	03455613          	srli	a2,a0,0x34
    8000597c:	00a77833          	and	a6,a4,a0
    80005980:	0345d693          	srli	a3,a1,0x34
    80005984:	03f55793          	srli	a5,a0,0x3f
    80005988:	7ff67613          	andi	a2,a2,2047
    8000598c:	7ff00513          	li	a0,2047
    80005990:	8f6d                	and	a4,a4,a1
    80005992:	7ff6f693          	andi	a3,a3,2047
    80005996:	91fd                	srli	a1,a1,0x3f
    80005998:	00a61863          	bne	a2,a0,800059a8 <__gedf2+0x38>
    8000599c:	04080963          	beqz	a6,800059ee <__gedf2+0x7e>
    800059a0:	00186073          	csrsi	fflags,16
    800059a4:	5579                	li	a0,-2
    800059a6:	8082                	ret
    800059a8:	00a69363          	bne	a3,a0,800059ae <__gedf2+0x3e>
    800059ac:	fb75                	bnez	a4,800059a0 <__gedf2+0x30>
    800059ae:	e231                	bnez	a2,800059f2 <__gedf2+0x82>
    800059b0:	e291                	bnez	a3,800059b4 <__gedf2+0x44>
    800059b2:	cb15                	beqz	a4,800059e6 <__gedf2+0x76>
    800059b4:	00080863          	beqz	a6,800059c4 <__gedf2+0x54>
    800059b8:	00b78a63          	beq	a5,a1,800059cc <__gedf2+0x5c>
    800059bc:	4505                	li	a0,1
    800059be:	c39d                	beqz	a5,800059e4 <__gedf2+0x74>
    800059c0:	557d                	li	a0,-1
    800059c2:	8082                	ret
    800059c4:	557d                	li	a0,-1
    800059c6:	cd99                	beqz	a1,800059e4 <__gedf2+0x74>
    800059c8:	4505                	li	a0,1
    800059ca:	8082                	ret
    800059cc:	fec6c8e3          	blt	a3,a2,800059bc <__gedf2+0x4c>
    800059d0:	00d65563          	ble	a3,a2,800059da <__gedf2+0x6a>
    800059d4:	557d                	li	a0,-1
    800059d6:	fbed                	bnez	a5,800059c8 <__gedf2+0x58>
    800059d8:	a031                	j	800059e4 <__gedf2+0x74>
    800059da:	ff0761e3          	bltu	a4,a6,800059bc <__gedf2+0x4c>
    800059de:	4501                	li	a0,0
    800059e0:	fee86ae3          	bltu	a6,a4,800059d4 <__gedf2+0x64>
    800059e4:	8082                	ret
    800059e6:	4501                	li	a0,0
    800059e8:	fe080ee3          	beqz	a6,800059e4 <__gedf2+0x74>
    800059ec:	bfc1                	j	800059bc <__gedf2+0x4c>
    800059ee:	fac68fe3          	beq	a3,a2,800059ac <__gedf2+0x3c>
    800059f2:	f2f9                	bnez	a3,800059b8 <__gedf2+0x48>
    800059f4:	d761                	beqz	a4,800059bc <__gedf2+0x4c>
    800059f6:	b7c9                	j	800059b8 <__gedf2+0x48>

00000000800059f8 <__ledf2>:
    800059f8:	002027f3          	frrm	a5
    800059fc:	577d                	li	a4,-1
    800059fe:	8331                	srli	a4,a4,0xc
    80005a00:	03455613          	srli	a2,a0,0x34
    80005a04:	00a77833          	and	a6,a4,a0
    80005a08:	0345d693          	srli	a3,a1,0x34
    80005a0c:	03f55793          	srli	a5,a0,0x3f
    80005a10:	7ff67613          	andi	a2,a2,2047
    80005a14:	7ff00513          	li	a0,2047
    80005a18:	8f6d                	and	a4,a4,a1
    80005a1a:	7ff6f693          	andi	a3,a3,2047
    80005a1e:	91fd                	srli	a1,a1,0x3f
    80005a20:	00a61863          	bne	a2,a0,80005a30 <__ledf2+0x38>
    80005a24:	04080963          	beqz	a6,80005a76 <__ledf2+0x7e>
    80005a28:	00186073          	csrsi	fflags,16
    80005a2c:	4509                	li	a0,2
    80005a2e:	8082                	ret
    80005a30:	00a69363          	bne	a3,a0,80005a36 <__ledf2+0x3e>
    80005a34:	fb75                	bnez	a4,80005a28 <__ledf2+0x30>
    80005a36:	e231                	bnez	a2,80005a7a <__ledf2+0x82>
    80005a38:	e291                	bnez	a3,80005a3c <__ledf2+0x44>
    80005a3a:	cb15                	beqz	a4,80005a6e <__ledf2+0x76>
    80005a3c:	00080863          	beqz	a6,80005a4c <__ledf2+0x54>
    80005a40:	00b78a63          	beq	a5,a1,80005a54 <__ledf2+0x5c>
    80005a44:	4505                	li	a0,1
    80005a46:	c39d                	beqz	a5,80005a6c <__ledf2+0x74>
    80005a48:	557d                	li	a0,-1
    80005a4a:	8082                	ret
    80005a4c:	557d                	li	a0,-1
    80005a4e:	cd99                	beqz	a1,80005a6c <__ledf2+0x74>
    80005a50:	4505                	li	a0,1
    80005a52:	8082                	ret
    80005a54:	fec6c8e3          	blt	a3,a2,80005a44 <__ledf2+0x4c>
    80005a58:	00d65563          	ble	a3,a2,80005a62 <__ledf2+0x6a>
    80005a5c:	557d                	li	a0,-1
    80005a5e:	fbed                	bnez	a5,80005a50 <__ledf2+0x58>
    80005a60:	a031                	j	80005a6c <__ledf2+0x74>
    80005a62:	ff0761e3          	bltu	a4,a6,80005a44 <__ledf2+0x4c>
    80005a66:	4501                	li	a0,0
    80005a68:	fee86ae3          	bltu	a6,a4,80005a5c <__ledf2+0x64>
    80005a6c:	8082                	ret
    80005a6e:	4501                	li	a0,0
    80005a70:	fe080ee3          	beqz	a6,80005a6c <__ledf2+0x74>
    80005a74:	bfc1                	j	80005a44 <__ledf2+0x4c>
    80005a76:	fac68fe3          	beq	a3,a2,80005a34 <__ledf2+0x3c>
    80005a7a:	f2f9                	bnez	a3,80005a40 <__ledf2+0x48>
    80005a7c:	d761                	beqz	a4,80005a44 <__ledf2+0x4c>
    80005a7e:	b7c9                	j	80005a40 <__ledf2+0x48>

0000000080005a80 <__muldf3>:
    80005a80:	715d                	addi	sp,sp,-80
    80005a82:	e45e                	sd	s7,8(sp)
    80005a84:	e486                	sd	ra,72(sp)
    80005a86:	e0a2                	sd	s0,64(sp)
    80005a88:	fc26                	sd	s1,56(sp)
    80005a8a:	f84a                	sd	s2,48(sp)
    80005a8c:	f44e                	sd	s3,40(sp)
    80005a8e:	f052                	sd	s4,32(sp)
    80005a90:	ec56                	sd	s5,24(sp)
    80005a92:	e85a                	sd	s6,16(sp)
    80005a94:	8bae                	mv	s7,a1
    80005a96:	00202af3          	frrm	s5
    80005a9a:	54fd                	li	s1,-1
    80005a9c:	03455913          	srli	s2,a0,0x34
    80005aa0:	80b1                	srli	s1,s1,0xc
    80005aa2:	7ff97913          	andi	s2,s2,2047
    80005aa6:	2a81                	sext.w	s5,s5
    80005aa8:	8ce9                	and	s1,s1,a0
    80005aaa:	03f55993          	srli	s3,a0,0x3f
    80005aae:	00090f63          	beqz	s2,80005acc <__muldf3+0x4c>
    80005ab2:	7ff00793          	li	a5,2047
    80005ab6:	02f90b63          	beq	s2,a5,80005aec <__muldf3+0x6c>
    80005aba:	4785                	li	a5,1
    80005abc:	048e                	slli	s1,s1,0x3
    80005abe:	17de                	slli	a5,a5,0x37
    80005ac0:	8cdd                	or	s1,s1,a5
    80005ac2:	c0190913          	addi	s2,s2,-1023 # ffffffff7ffffc01 <_trapsp0+0xfffffffefffcabc1>
    80005ac6:	4b01                	li	s6,0
    80005ac8:	4a01                	li	s4,0
    80005aca:	a815                	j	80005afe <__muldf3+0x7e>
    80005acc:	c4c1                	beqz	s1,80005b54 <__muldf3+0xd4>
    80005ace:	8526                	mv	a0,s1
    80005ad0:	00001097          	auipc	ra,0x1
    80005ad4:	d2e080e7          	jalr	-722(ra) # 800067fe <__clzdi2>
    80005ad8:	2501                	sext.w	a0,a0
    80005ada:	ff85079b          	addiw	a5,a0,-8
    80005ade:	c0d00913          	li	s2,-1011
    80005ae2:	00f494b3          	sll	s1,s1,a5
    80005ae6:	40a90933          	sub	s2,s2,a0
    80005aea:	bff1                	j	80005ac6 <__muldf3+0x46>
    80005aec:	c4bd                	beqz	s1,80005b5a <__muldf3+0xda>
    80005aee:	00c49793          	slli	a5,s1,0xc
    80005af2:	7ff00913          	li	s2,2047
    80005af6:	4b0d                	li	s6,3
    80005af8:	4a41                	li	s4,16
    80005afa:	fc07c7e3          	bltz	a5,80005ac8 <__muldf3+0x48>
    80005afe:	034bd793          	srli	a5,s7,0x34
    80005b02:	547d                	li	s0,-1
    80005b04:	8031                	srli	s0,s0,0xc
    80005b06:	7ff7f793          	andi	a5,a5,2047
    80005b0a:	01747433          	and	s0,s0,s7
    80005b0e:	03fbdb93          	srli	s7,s7,0x3f
    80005b12:	cba1                	beqz	a5,80005b62 <__muldf3+0xe2>
    80005b14:	7ff00713          	li	a4,2047
    80005b18:	06e78463          	beq	a5,a4,80005b80 <__muldf3+0x100>
    80005b1c:	4705                	li	a4,1
    80005b1e:	040e                	slli	s0,s0,0x3
    80005b20:	175e                	slli	a4,a4,0x37
    80005b22:	8c59                	or	s0,s0,a4
    80005b24:	c0178793          	addi	a5,a5,-1023
    80005b28:	4701                	li	a4,0
    80005b2a:	002b1693          	slli	a3,s6,0x2
    80005b2e:	8ed9                	or	a3,a3,a4
    80005b30:	97ca                	add	a5,a5,s2
    80005b32:	16fd                	addi	a3,a3,-1
    80005b34:	45b9                	li	a1,14
    80005b36:	0179c633          	xor	a2,s3,s7
    80005b3a:	00178813          	addi	a6,a5,1
    80005b3e:	0ad5e563          	bltu	a1,a3,80005be8 <__muldf3+0x168>
    80005b42:	00007597          	auipc	a1,0x7
    80005b46:	4ca58593          	addi	a1,a1,1226 # 8000d00c <TWO52+0x4c>
    80005b4a:	068a                	slli	a3,a3,0x2
    80005b4c:	96ae                	add	a3,a3,a1
    80005b4e:	429c                	lw	a5,0(a3)
    80005b50:	97ae                	add	a5,a5,a1
    80005b52:	8782                	jr	a5
    80005b54:	4901                	li	s2,0
    80005b56:	4b05                	li	s6,1
    80005b58:	bf85                	j	80005ac8 <__muldf3+0x48>
    80005b5a:	7ff00913          	li	s2,2047
    80005b5e:	4b09                	li	s6,2
    80005b60:	b7a5                	j	80005ac8 <__muldf3+0x48>
    80005b62:	c80d                	beqz	s0,80005b94 <__muldf3+0x114>
    80005b64:	8522                	mv	a0,s0
    80005b66:	00001097          	auipc	ra,0x1
    80005b6a:	c98080e7          	jalr	-872(ra) # 800067fe <__clzdi2>
    80005b6e:	2501                	sext.w	a0,a0
    80005b70:	ff85079b          	addiw	a5,a0,-8
    80005b74:	00f41433          	sll	s0,s0,a5
    80005b78:	c0d00793          	li	a5,-1011
    80005b7c:	8f89                	sub	a5,a5,a0
    80005b7e:	b76d                	j	80005b28 <__muldf3+0xa8>
    80005b80:	cc09                	beqz	s0,80005b9a <__muldf3+0x11a>
    80005b82:	00c41793          	slli	a5,s0,0xc
    80005b86:	0007ce63          	bltz	a5,80005ba2 <__muldf3+0x122>
    80005b8a:	7ff00793          	li	a5,2047
    80005b8e:	470d                	li	a4,3
    80005b90:	4a41                	li	s4,16
    80005b92:	bf61                	j	80005b2a <__muldf3+0xaa>
    80005b94:	4781                	li	a5,0
    80005b96:	4705                	li	a4,1
    80005b98:	bf49                	j	80005b2a <__muldf3+0xaa>
    80005b9a:	7ff00793          	li	a5,2047
    80005b9e:	4709                	li	a4,2
    80005ba0:	b769                	j	80005b2a <__muldf3+0xaa>
    80005ba2:	7ff00793          	li	a5,2047
    80005ba6:	470d                	li	a4,3
    80005ba8:	b749                	j	80005b2a <__muldf3+0xaa>
    80005baa:	4405                	li	s0,1
    80005bac:	144e                	slli	s0,s0,0x33
    80005bae:	7ff00793          	li	a5,2047
    80005bb2:	4601                	li	a2,0
    80005bb4:	4a41                	li	s4,16
    80005bb6:	557d                	li	a0,-1
    80005bb8:	7ff7f793          	andi	a5,a5,2047
    80005bbc:	8131                	srli	a0,a0,0xc
    80005bbe:	8d61                	and	a0,a0,s0
    80005bc0:	17d2                	slli	a5,a5,0x34
    80005bc2:	03f61413          	slli	s0,a2,0x3f
    80005bc6:	8d5d                	or	a0,a0,a5
    80005bc8:	8d41                	or	a0,a0,s0
    80005bca:	000a0463          	beqz	s4,80005bd2 <__muldf3+0x152>
    80005bce:	001a2073          	csrs	fflags,s4
    80005bd2:	60a6                	ld	ra,72(sp)
    80005bd4:	6406                	ld	s0,64(sp)
    80005bd6:	74e2                	ld	s1,56(sp)
    80005bd8:	7942                	ld	s2,48(sp)
    80005bda:	79a2                	ld	s3,40(sp)
    80005bdc:	7a02                	ld	s4,32(sp)
    80005bde:	6ae2                	ld	s5,24(sp)
    80005be0:	6b42                	ld	s6,16(sp)
    80005be2:	6ba2                	ld	s7,8(sp)
    80005be4:	6161                	addi	sp,sp,80
    80005be6:	8082                	ret
    80005be8:	577d                	li	a4,-1
    80005bea:	9301                	srli	a4,a4,0x20
    80005bec:	0204d693          	srli	a3,s1,0x20
    80005bf0:	02045593          	srli	a1,s0,0x20
    80005bf4:	8cf9                	and	s1,s1,a4
    80005bf6:	8c79                	and	s0,s0,a4
    80005bf8:	02940533          	mul	a0,s0,s1
    80005bfc:	02868433          	mul	s0,a3,s0
    80005c00:	02b686b3          	mul	a3,a3,a1
    80005c04:	029585b3          	mul	a1,a1,s1
    80005c08:	02055493          	srli	s1,a0,0x20
    80005c0c:	95a2                	add	a1,a1,s0
    80005c0e:	94ae                	add	s1,s1,a1
    80005c10:	0084f563          	bleu	s0,s1,80005c1a <__muldf3+0x19a>
    80005c14:	4705                	li	a4,1
    80005c16:	1702                	slli	a4,a4,0x20
    80005c18:	96ba                	add	a3,a3,a4
    80005c1a:	547d                	li	s0,-1
    80005c1c:	9001                	srli	s0,s0,0x20
    80005c1e:	0084f733          	and	a4,s1,s0
    80005c22:	8d61                	and	a0,a0,s0
    80005c24:	1702                	slli	a4,a4,0x20
    80005c26:	972a                	add	a4,a4,a0
    80005c28:	00971413          	slli	s0,a4,0x9
    80005c2c:	9081                	srli	s1,s1,0x20
    80005c2e:	00803433          	snez	s0,s0
    80005c32:	935d                	srli	a4,a4,0x37
    80005c34:	94b6                	add	s1,s1,a3
    80005c36:	8f41                	or	a4,a4,s0
    80005c38:	04a6                	slli	s1,s1,0x9
    80005c3a:	00e4e433          	or	s0,s1,a4
    80005c3e:	00741713          	slli	a4,s0,0x7
    80005c42:	08075a63          	bgez	a4,80005cd6 <__muldf3+0x256>
    80005c46:	00145793          	srli	a5,s0,0x1
    80005c4a:	8805                	andi	s0,s0,1
    80005c4c:	8c5d                	or	s0,s0,a5
    80005c4e:	3ff80793          	addi	a5,a6,1023
    80005c52:	0af05063          	blez	a5,80005cf2 <__muldf3+0x272>
    80005c56:	00747713          	andi	a4,s0,7
    80005c5a:	c30d                	beqz	a4,80005c7c <__muldf3+0x1fc>
    80005c5c:	4709                	li	a4,2
    80005c5e:	001a6a13          	ori	s4,s4,1
    80005c62:	06ea8f63          	beq	s5,a4,80005ce0 <__muldf3+0x260>
    80005c66:	470d                	li	a4,3
    80005c68:	06ea8963          	beq	s5,a4,80005cda <__muldf3+0x25a>
    80005c6c:	000a9863          	bnez	s5,80005c7c <__muldf3+0x1fc>
    80005c70:	00f47713          	andi	a4,s0,15
    80005c74:	4691                	li	a3,4
    80005c76:	00d70363          	beq	a4,a3,80005c7c <__muldf3+0x1fc>
    80005c7a:	0411                	addi	s0,s0,4
    80005c7c:	00741713          	slli	a4,s0,0x7
    80005c80:	00075863          	bgez	a4,80005c90 <__muldf3+0x210>
    80005c84:	57fd                	li	a5,-1
    80005c86:	17e2                	slli	a5,a5,0x38
    80005c88:	17fd                	addi	a5,a5,-1
    80005c8a:	8c7d                	and	s0,s0,a5
    80005c8c:	40080793          	addi	a5,a6,1024
    80005c90:	7fe00713          	li	a4,2046
    80005c94:	800d                	srli	s0,s0,0x3
    80005c96:	f2f750e3          	ble	a5,a4,80005bb6 <__muldf3+0x136>
    80005c9a:	4789                	li	a5,2
    80005c9c:	04fa8963          	beq	s5,a5,80005cee <__muldf3+0x26e>
    80005ca0:	478d                	li	a5,3
    80005ca2:	04fa8163          	beq	s5,a5,80005ce4 <__muldf3+0x264>
    80005ca6:	040a8063          	beqz	s5,80005ce6 <__muldf3+0x266>
    80005caa:	547d                	li	s0,-1
    80005cac:	7fe00793          	li	a5,2046
    80005cb0:	005a6a13          	ori	s4,s4,5
    80005cb4:	b709                	j	80005bb6 <__muldf3+0x136>
    80005cb6:	864e                	mv	a2,s3
    80005cb8:	8426                	mv	s0,s1
    80005cba:	875a                	mv	a4,s6
    80005cbc:	4789                	li	a5,2
    80005cbe:	12f70563          	beq	a4,a5,80005de8 <__muldf3+0x368>
    80005cc2:	478d                	li	a5,3
    80005cc4:	12f70663          	beq	a4,a5,80005df0 <__muldf3+0x370>
    80005cc8:	4785                	li	a5,1
    80005cca:	f8f712e3          	bne	a4,a5,80005c4e <__muldf3+0x1ce>
    80005cce:	4401                	li	s0,0
    80005cd0:	a239                	j	80005dde <__muldf3+0x35e>
    80005cd2:	865e                	mv	a2,s7
    80005cd4:	b7e5                	j	80005cbc <__muldf3+0x23c>
    80005cd6:	883e                	mv	a6,a5
    80005cd8:	bf9d                	j	80005c4e <__muldf3+0x1ce>
    80005cda:	f24d                	bnez	a2,80005c7c <__muldf3+0x1fc>
    80005cdc:	0421                	addi	s0,s0,8
    80005cde:	bf79                	j	80005c7c <__muldf3+0x1fc>
    80005ce0:	de51                	beqz	a2,80005c7c <__muldf3+0x1fc>
    80005ce2:	bfed                	j	80005cdc <__muldf3+0x25c>
    80005ce4:	f279                	bnez	a2,80005caa <__muldf3+0x22a>
    80005ce6:	4401                	li	s0,0
    80005ce8:	7ff00793          	li	a5,2047
    80005cec:	b7d1                	j	80005cb0 <__muldf3+0x230>
    80005cee:	fe65                	bnez	a2,80005ce6 <__muldf3+0x266>
    80005cf0:	bf6d                	j	80005caa <__muldf3+0x22a>
    80005cf2:	4705                	li	a4,1
    80005cf4:	eb9d                	bnez	a5,80005d2a <__muldf3+0x2aa>
    80005cf6:	00747693          	andi	a3,s0,7
    80005cfa:	8722                	mv	a4,s0
    80005cfc:	c29d                	beqz	a3,80005d22 <__muldf3+0x2a2>
    80005cfe:	4709                	li	a4,2
    80005d00:	001a6a13          	ori	s4,s4,1
    80005d04:	08ea8b63          	beq	s5,a4,80005d9a <__muldf3+0x31a>
    80005d08:	470d                	li	a4,3
    80005d0a:	08ea8363          	beq	s5,a4,80005d90 <__muldf3+0x310>
    80005d0e:	8722                	mv	a4,s0
    80005d10:	000a9963          	bnez	s5,80005d22 <__muldf3+0x2a2>
    80005d14:	00f47693          	andi	a3,s0,15
    80005d18:	4591                	li	a1,4
    80005d1a:	00b68463          	beq	a3,a1,80005d22 <__muldf3+0x2a2>
    80005d1e:	00440713          	addi	a4,s0,4
    80005d22:	9361                	srli	a4,a4,0x38
    80005d24:	00174713          	xori	a4,a4,1
    80005d28:	8b05                	andi	a4,a4,1
    80005d2a:	4505                	li	a0,1
    80005d2c:	40f507b3          	sub	a5,a0,a5
    80005d30:	03800693          	li	a3,56
    80005d34:	08f6c263          	blt	a3,a5,80005db8 <__muldf3+0x338>
    80005d38:	0007851b          	sext.w	a0,a5
    80005d3c:	04000793          	li	a5,64
    80005d40:	9f89                	subw	a5,a5,a0
    80005d42:	00a456b3          	srl	a3,s0,a0
    80005d46:	00f41433          	sll	s0,s0,a5
    80005d4a:	00803433          	snez	s0,s0
    80005d4e:	8c55                	or	s0,s0,a3
    80005d50:	00747793          	andi	a5,s0,7
    80005d54:	c38d                	beqz	a5,80005d76 <__muldf3+0x2f6>
    80005d56:	4789                	li	a5,2
    80005d58:	001a6a13          	ori	s4,s4,1
    80005d5c:	04fa8563          	beq	s5,a5,80005da6 <__muldf3+0x326>
    80005d60:	478d                	li	a5,3
    80005d62:	02fa8f63          	beq	s5,a5,80005da0 <__muldf3+0x320>
    80005d66:	000a9863          	bnez	s5,80005d76 <__muldf3+0x2f6>
    80005d6a:	00f47793          	andi	a5,s0,15
    80005d6e:	4691                	li	a3,4
    80005d70:	00d78363          	beq	a5,a3,80005d76 <__muldf3+0x2f6>
    80005d74:	0411                	addi	s0,s0,4
    80005d76:	00841793          	slli	a5,s0,0x8
    80005d7a:	0207d863          	bgez	a5,80005daa <__muldf3+0x32a>
    80005d7e:	001a6a13          	ori	s4,s4,1
    80005d82:	4401                	li	s0,0
    80005d84:	4785                	li	a5,1
    80005d86:	e20708e3          	beqz	a4,80005bb6 <__muldf3+0x136>
    80005d8a:	002a6a13          	ori	s4,s4,2
    80005d8e:	b525                	j	80005bb6 <__muldf3+0x136>
    80005d90:	8722                	mv	a4,s0
    80005d92:	fa41                	bnez	a2,80005d22 <__muldf3+0x2a2>
    80005d94:	00840713          	addi	a4,s0,8
    80005d98:	b769                	j	80005d22 <__muldf3+0x2a2>
    80005d9a:	8722                	mv	a4,s0
    80005d9c:	d259                	beqz	a2,80005d22 <__muldf3+0x2a2>
    80005d9e:	bfdd                	j	80005d94 <__muldf3+0x314>
    80005da0:	fa79                	bnez	a2,80005d76 <__muldf3+0x2f6>
    80005da2:	0421                	addi	s0,s0,8
    80005da4:	bfc9                	j	80005d76 <__muldf3+0x2f6>
    80005da6:	da61                	beqz	a2,80005d76 <__muldf3+0x2f6>
    80005da8:	bfed                	j	80005da2 <__muldf3+0x322>
    80005daa:	800d                	srli	s0,s0,0x3
    80005dac:	4781                	li	a5,0
    80005dae:	e00704e3          	beqz	a4,80005bb6 <__muldf3+0x136>
    80005db2:	001a7713          	andi	a4,s4,1
    80005db6:	bfc1                	j	80005d86 <__muldf3+0x306>
    80005db8:	c00d                	beqz	s0,80005dda <__muldf3+0x35a>
    80005dba:	4789                	li	a5,2
    80005dbc:	001a6a13          	ori	s4,s4,1
    80005dc0:	02fa8163          	beq	s5,a5,80005de2 <__muldf3+0x362>
    80005dc4:	478d                	li	a5,3
    80005dc6:	00fa8763          	beq	s5,a5,80005dd4 <__muldf3+0x354>
    80005dca:	4415                	li	s0,5
    80005dcc:	000a8663          	beqz	s5,80005dd8 <__muldf3+0x358>
    80005dd0:	4405                	li	s0,1
    80005dd2:	a019                	j	80005dd8 <__muldf3+0x358>
    80005dd4:	4425                	li	s0,9
    80005dd6:	fe6d                	bnez	a2,80005dd0 <__muldf3+0x350>
    80005dd8:	800d                	srli	s0,s0,0x3
    80005dda:	002a6a13          	ori	s4,s4,2
    80005dde:	4781                	li	a5,0
    80005de0:	bbd9                	j	80005bb6 <__muldf3+0x136>
    80005de2:	4425                	li	s0,9
    80005de4:	fa75                	bnez	a2,80005dd8 <__muldf3+0x358>
    80005de6:	b7ed                	j	80005dd0 <__muldf3+0x350>
    80005de8:	4401                	li	s0,0
    80005dea:	7ff00793          	li	a5,2047
    80005dee:	b3e1                	j	80005bb6 <__muldf3+0x136>
    80005df0:	4405                	li	s0,1
    80005df2:	144e                	slli	s0,s0,0x33
    80005df4:	7ff00793          	li	a5,2047
    80005df8:	4601                	li	a2,0
    80005dfa:	bb75                	j	80005bb6 <__muldf3+0x136>

0000000080005dfc <__subdf3>:
    80005dfc:	7179                	addi	sp,sp,-48
    80005dfe:	f406                	sd	ra,40(sp)
    80005e00:	f022                	sd	s0,32(sp)
    80005e02:	ec26                	sd	s1,24(sp)
    80005e04:	e84a                	sd	s2,16(sp)
    80005e06:	e44e                	sd	s3,8(sp)
    80005e08:	00202973          	frrm	s2
    80005e0c:	56fd                	li	a3,-1
    80005e0e:	82b1                	srli	a3,a3,0xc
    80005e10:	00a6f7b3          	and	a5,a3,a0
    80005e14:	03455893          	srli	a7,a0,0x34
    80005e18:	03f55493          	srli	s1,a0,0x3f
    80005e1c:	0345d513          	srli	a0,a1,0x34
    80005e20:	8eed                	and	a3,a3,a1
    80005e22:	7ff8f893          	andi	a7,a7,2047
    80005e26:	7ff57513          	andi	a0,a0,2047
    80005e2a:	7ff00713          	li	a4,2047
    80005e2e:	2901                	sext.w	s2,s2
    80005e30:	89c6                	mv	s3,a7
    80005e32:	078e                	slli	a5,a5,0x3
    80005e34:	862a                	mv	a2,a0
    80005e36:	91fd                	srli	a1,a1,0x3f
    80005e38:	068e                	slli	a3,a3,0x3
    80005e3a:	00e51363          	bne	a0,a4,80005e40 <__subdf3+0x44>
    80005e3e:	e299                	bnez	a3,80005e44 <__subdf3+0x48>
    80005e40:	0015c593          	xori	a1,a1,1
    80005e44:	40a8873b          	subw	a4,a7,a0
    80005e48:	0007081b          	sext.w	a6,a4
    80005e4c:	22959363          	bne	a1,s1,80006072 <__subdf3+0x276>
    80005e50:	09005e63          	blez	a6,80005eec <__subdf3+0xf0>
    80005e54:	e13d                	bnez	a0,80005eba <__subdf3+0xbe>
    80005e56:	ea89                	bnez	a3,80005e68 <__subdf3+0x6c>
    80005e58:	7ff00713          	li	a4,2047
    80005e5c:	04e88463          	beq	a7,a4,80005ea4 <__subdf3+0xa8>
    80005e60:	36098b63          	beqz	s3,800061d6 <__subdf3+0x3da>
    80005e64:	864e                	mv	a2,s3
    80005e66:	a80d                	j	80005e98 <__subdf3+0x9c>
    80005e68:	fff7081b          	addiw	a6,a4,-1
    80005e6c:	02081863          	bnez	a6,80005e9c <__subdf3+0xa0>
    80005e70:	97b6                	add	a5,a5,a3
    80005e72:	00879713          	slli	a4,a5,0x8
    80005e76:	fe0755e3          	bgez	a4,80005e60 <__subdf3+0x64>
    80005e7a:	00198613          	addi	a2,s3,1
    80005e7e:	7ff00713          	li	a4,2047
    80005e82:	1ce60663          	beq	a2,a4,8000604e <__subdf3+0x252>
    80005e86:	1ff00713          	li	a4,511
    80005e8a:	175a                	slli	a4,a4,0x36
    80005e8c:	0017f693          	andi	a3,a5,1
    80005e90:	177d                	addi	a4,a4,-1
    80005e92:	8385                	srli	a5,a5,0x1
    80005e94:	8ff9                	and	a5,a5,a4
    80005e96:	8fd5                	or	a5,a5,a3
    80005e98:	4801                	li	a6,0
    80005e9a:	a2a5                	j	80006002 <__subdf3+0x206>
    80005e9c:	7ff00713          	li	a4,2047
    80005ea0:	02e89463          	bne	a7,a4,80005ec8 <__subdf3+0xcc>
    80005ea4:	44078363          	beqz	a5,800062ea <__subdf3+0x4ee>
    80005ea8:	00979713          	slli	a4,a5,0x9
    80005eac:	7ff00613          	li	a2,2047
    80005eb0:	4801                	li	a6,0
    80005eb2:	14074863          	bltz	a4,80006002 <__subdf3+0x206>
    80005eb6:	4741                	li	a4,16
    80005eb8:	a8e1                	j	80005f90 <__subdf3+0x194>
    80005eba:	7ff00713          	li	a4,2047
    80005ebe:	fee883e3          	beq	a7,a4,80005ea4 <__subdf3+0xa8>
    80005ec2:	4705                	li	a4,1
    80005ec4:	175e                	slli	a4,a4,0x37
    80005ec6:	8ed9                	or	a3,a3,a4
    80005ec8:	03800713          	li	a4,56
    80005ecc:	01075463          	ble	a6,a4,80005ed4 <__subdf3+0xd8>
    80005ed0:	4685                	li	a3,1
    80005ed2:	bf79                	j	80005e70 <__subdf3+0x74>
    80005ed4:	04000713          	li	a4,64
    80005ed8:	0106d633          	srl	a2,a3,a6
    80005edc:	4107083b          	subw	a6,a4,a6
    80005ee0:	010696b3          	sll	a3,a3,a6
    80005ee4:	00d036b3          	snez	a3,a3
    80005ee8:	8ed1                	or	a3,a3,a2
    80005eea:	b759                	j	80005e70 <__subdf3+0x74>
    80005eec:	06080c63          	beqz	a6,80005f64 <__subdf3+0x168>
    80005ef0:	02089f63          	bnez	a7,80005f2e <__subdf3+0x132>
    80005ef4:	ef99                	bnez	a5,80005f12 <__subdf3+0x116>
    80005ef6:	7ff00713          	li	a4,2047
    80005efa:	3ce51463          	bne	a0,a4,800062c2 <__subdf3+0x4c6>
    80005efe:	4701                	li	a4,0
    80005f00:	26068863          	beqz	a3,80006170 <__subdf3+0x374>
    80005f04:	00969793          	slli	a5,a3,0x9
    80005f08:	3c07cd63          	bltz	a5,800062e2 <__subdf3+0x4e6>
    80005f0c:	87b6                	mv	a5,a3
    80005f0e:	4801                	li	a6,0
    80005f10:	b75d                	j	80005eb6 <__subdf3+0xba>
    80005f12:	55fd                	li	a1,-1
    80005f14:	00b81563          	bne	a6,a1,80005f1e <__subdf3+0x122>
    80005f18:	97b6                	add	a5,a5,a3
    80005f1a:	89aa                	mv	s3,a0
    80005f1c:	bf99                	j	80005e72 <__subdf3+0x76>
    80005f1e:	7ff00593          	li	a1,2047
    80005f22:	40b51363          	bne	a0,a1,80006328 <__subdf3+0x52c>
    80005f26:	fef9                	bnez	a3,80005f04 <__subdf3+0x108>
    80005f28:	4781                	li	a5,0
    80005f2a:	4701                	li	a4,0
    80005f2c:	a491                	j	80006170 <__subdf3+0x374>
    80005f2e:	7ff00593          	li	a1,2047
    80005f32:	feb50ae3          	beq	a0,a1,80005f26 <__subdf3+0x12a>
    80005f36:	4605                	li	a2,1
    80005f38:	165e                	slli	a2,a2,0x37
    80005f3a:	40e0073b          	negw	a4,a4
    80005f3e:	8fd1                	or	a5,a5,a2
    80005f40:	03800613          	li	a2,56
    80005f44:	00e65463          	ble	a4,a2,80005f4c <__subdf3+0x150>
    80005f48:	4785                	li	a5,1
    80005f4a:	b7f9                	j	80005f18 <__subdf3+0x11c>
    80005f4c:	04000613          	li	a2,64
    80005f50:	00e7d5b3          	srl	a1,a5,a4
    80005f54:	40e6073b          	subw	a4,a2,a4
    80005f58:	00e797b3          	sll	a5,a5,a4
    80005f5c:	00f037b3          	snez	a5,a5
    80005f60:	8fcd                	or	a5,a5,a1
    80005f62:	bf5d                	j	80005f18 <__subdf3+0x11c>
    80005f64:	00188613          	addi	a2,a7,1
    80005f68:	7fe67713          	andi	a4,a2,2046
    80005f6c:	e749                	bnez	a4,80005ff6 <__subdf3+0x1fa>
    80005f6e:	02089d63          	bnez	a7,80005fa8 <__subdf3+0x1ac>
    80005f72:	34078f63          	beqz	a5,800062d0 <__subdf3+0x4d4>
    80005f76:	26068363          	beqz	a3,800061dc <__subdf3+0x3e0>
    80005f7a:	97b6                	add	a5,a5,a3
    80005f7c:	00879713          	slli	a4,a5,0x8
    80005f80:	24075e63          	bgez	a4,800061dc <__subdf3+0x3e0>
    80005f84:	577d                	li	a4,-1
    80005f86:	175e                	slli	a4,a4,0x37
    80005f88:	177d                	addi	a4,a4,-1
    80005f8a:	8ff9                	and	a5,a5,a4
    80005f8c:	4605                	li	a2,1
    80005f8e:	4701                	li	a4,0
    80005f90:	0077f693          	andi	a3,a5,7
    80005f94:	ead1                	bnez	a3,80006028 <__subdf3+0x22c>
    80005f96:	1c080d63          	beqz	a6,80006170 <__subdf3+0x374>
    80005f9a:	00177693          	andi	a3,a4,1
    80005f9e:	1c068963          	beqz	a3,80006170 <__subdf3+0x374>
    80005fa2:	00276713          	ori	a4,a4,2
    80005fa6:	a2e9                	j	80006170 <__subdf3+0x374>
    80005fa8:	7ff00713          	li	a4,2047
    80005fac:	00e89e63          	bne	a7,a4,80005fc8 <__subdf3+0x1cc>
    80005fb0:	3a078d63          	beqz	a5,8000636a <__subdf3+0x56e>
    80005fb4:	0367d713          	srli	a4,a5,0x36
    80005fb8:	8b05                	andi	a4,a4,1
    80005fba:	00173713          	seqz	a4,a4
    80005fbe:	0712                	slli	a4,a4,0x4
    80005fc0:	03151363          	bne	a0,a7,80005fe6 <__subdf3+0x1ea>
    80005fc4:	e699                	bnez	a3,80005fd2 <__subdf3+0x1d6>
    80005fc6:	ac79                	j	80006264 <__subdf3+0x468>
    80005fc8:	00e51c63          	bne	a0,a4,80005fe0 <__subdf3+0x1e4>
    80005fcc:	36068463          	beqz	a3,80006334 <__subdf3+0x538>
    80005fd0:	4701                	li	a4,0
    80005fd2:	00969613          	slli	a2,a3,0x9
    80005fd6:	34065d63          	bgez	a2,80006330 <__subdf3+0x534>
    80005fda:	eb81                	bnez	a5,80005fea <__subdf3+0x1ee>
    80005fdc:	87b6                	mv	a5,a3
    80005fde:	a459                	j	80006264 <__subdf3+0x468>
    80005fe0:	30078363          	beqz	a5,800062e6 <__subdf3+0x4ea>
    80005fe4:	4701                	li	a4,0
    80005fe6:	26068f63          	beqz	a3,80006264 <__subdf3+0x468>
    80005fea:	4785                	li	a5,1
    80005fec:	4481                	li	s1,0
    80005fee:	17da                	slli	a5,a5,0x36
    80005ff0:	7ff00613          	li	a2,2047
    80005ff4:	aab5                	j	80006170 <__subdf3+0x374>
    80005ff6:	7ff00713          	li	a4,2047
    80005ffa:	00e60663          	beq	a2,a4,80006006 <__subdf3+0x20a>
    80005ffe:	97b6                	add	a5,a5,a3
    80006000:	8385                	srli	a5,a5,0x1
    80006002:	4701                	li	a4,0
    80006004:	b771                	j	80005f90 <__subdf3+0x194>
    80006006:	00090663          	beqz	s2,80006012 <__subdf3+0x216>
    8000600a:	478d                	li	a5,3
    8000600c:	00f91663          	bne	s2,a5,80006018 <__subdf3+0x21c>
    80006010:	e881                	bnez	s1,80006020 <__subdf3+0x224>
    80006012:	7ff00613          	li	a2,2047
    80006016:	a091                	j	8000605a <__subdf3+0x25e>
    80006018:	4789                	li	a5,2
    8000601a:	00f91363          	bne	s2,a5,80006020 <__subdf3+0x224>
    8000601e:	f8f5                	bnez	s1,80006012 <__subdf3+0x216>
    80006020:	57fd                	li	a5,-1
    80006022:	7fe00613          	li	a2,2046
    80006026:	4715                	li	a4,5
    80006028:	4689                	li	a3,2
    8000602a:	00176713          	ori	a4,a4,1
    8000602e:	2cd90863          	beq	s2,a3,800062fe <__subdf3+0x502>
    80006032:	468d                	li	a3,3
    80006034:	2cd90163          	beq	s2,a3,800062f6 <__subdf3+0x4fa>
    80006038:	00091863          	bnez	s2,80006048 <__subdf3+0x24c>
    8000603c:	00f7f693          	andi	a3,a5,15
    80006040:	4591                	li	a1,4
    80006042:	00b68363          	beq	a3,a1,80006048 <__subdf3+0x24c>
    80006046:	0791                	addi	a5,a5,4
    80006048:	f4081de3          	bnez	a6,80005fa2 <__subdf3+0x1a6>
    8000604c:	a215                	j	80006170 <__subdf3+0x374>
    8000604e:	00090663          	beqz	s2,8000605a <__subdf3+0x25e>
    80006052:	478d                	li	a5,3
    80006054:	00f91663          	bne	s2,a5,80006060 <__subdf3+0x264>
    80006058:	e881                	bnez	s1,80006068 <__subdf3+0x26c>
    8000605a:	4781                	li	a5,0
    8000605c:	4715                	li	a4,5
    8000605e:	aa09                	j	80006170 <__subdf3+0x374>
    80006060:	4789                	li	a5,2
    80006062:	00f91363          	bne	s2,a5,80006068 <__subdf3+0x26c>
    80006066:	f8f5                	bnez	s1,8000605a <__subdf3+0x25e>
    80006068:	57fd                	li	a5,-1
    8000606a:	7fe00613          	li	a2,2046
    8000606e:	4801                	li	a6,0
    80006070:	bf5d                	j	80006026 <__subdf3+0x22a>
    80006072:	07005063          	blez	a6,800060d2 <__subdf3+0x2d6>
    80006076:	e915                	bnez	a0,800060aa <__subdf3+0x2ae>
    80006078:	de0680e3          	beqz	a3,80005e58 <__subdf3+0x5c>
    8000607c:	fff7081b          	addiw	a6,a4,-1
    80006080:	00081b63          	bnez	a6,80006096 <__subdf3+0x29a>
    80006084:	8f95                	sub	a5,a5,a3
    80006086:	00879713          	slli	a4,a5,0x8
    8000608a:	dc075be3          	bgez	a4,80005e60 <__subdf3+0x64>
    8000608e:	547d                	li	s0,-1
    80006090:	8025                	srli	s0,s0,0x9
    80006092:	8c7d                	and	s0,s0,a5
    80006094:	a2e5                	j	8000627c <__subdf3+0x480>
    80006096:	7ff00713          	li	a4,2047
    8000609a:	e0e885e3          	beq	a7,a4,80005ea4 <__subdf3+0xa8>
    8000609e:	03800713          	li	a4,56
    800060a2:	01075c63          	ble	a6,a4,800060ba <__subdf3+0x2be>
    800060a6:	4685                	li	a3,1
    800060a8:	bff1                	j	80006084 <__subdf3+0x288>
    800060aa:	7ff00713          	li	a4,2047
    800060ae:	dee88be3          	beq	a7,a4,80005ea4 <__subdf3+0xa8>
    800060b2:	4705                	li	a4,1
    800060b4:	175e                	slli	a4,a4,0x37
    800060b6:	8ed9                	or	a3,a3,a4
    800060b8:	b7dd                	j	8000609e <__subdf3+0x2a2>
    800060ba:	04000713          	li	a4,64
    800060be:	0106d633          	srl	a2,a3,a6
    800060c2:	4107083b          	subw	a6,a4,a6
    800060c6:	010696b3          	sll	a3,a3,a6
    800060ca:	00d036b3          	snez	a3,a3
    800060ce:	8ed1                	or	a3,a3,a2
    800060d0:	bf55                	j	80006084 <__subdf3+0x288>
    800060d2:	06080d63          	beqz	a6,8000614c <__subdf3+0x350>
    800060d6:	02089f63          	bnez	a7,80006114 <__subdf3+0x318>
    800060da:	ef89                	bnez	a5,800060f4 <__subdf3+0x2f8>
    800060dc:	7ff00713          	li	a4,2047
    800060e0:	1ee51463          	bne	a0,a4,800062c8 <__subdf3+0x4cc>
    800060e4:	c695                	beqz	a3,80006110 <__subdf3+0x314>
    800060e6:	00969793          	slli	a5,a3,0x9
    800060ea:	2007c363          	bltz	a5,800062f0 <__subdf3+0x4f4>
    800060ee:	87b6                	mv	a5,a3
    800060f0:	84ae                	mv	s1,a1
    800060f2:	bd31                	j	80005f0e <__subdf3+0x112>
    800060f4:	58fd                	li	a7,-1
    800060f6:	01181763          	bne	a6,a7,80006104 <__subdf3+0x308>
    800060fa:	40f687b3          	sub	a5,a3,a5
    800060fe:	89aa                	mv	s3,a0
    80006100:	84ae                	mv	s1,a1
    80006102:	b751                	j	80006086 <__subdf3+0x28a>
    80006104:	7ff00813          	li	a6,2047
    80006108:	23051a63          	bne	a0,a6,8000633c <__subdf3+0x540>
    8000610c:	fee9                	bnez	a3,800060e6 <__subdf3+0x2ea>
    8000610e:	4781                	li	a5,0
    80006110:	84ae                	mv	s1,a1
    80006112:	bd21                	j	80005f2a <__subdf3+0x12e>
    80006114:	7ff00813          	li	a6,2047
    80006118:	ff050ae3          	beq	a0,a6,8000610c <__subdf3+0x310>
    8000611c:	4605                	li	a2,1
    8000611e:	165e                	slli	a2,a2,0x37
    80006120:	40e0073b          	negw	a4,a4
    80006124:	8fd1                	or	a5,a5,a2
    80006126:	03800613          	li	a2,56
    8000612a:	00e65463          	ble	a4,a2,80006132 <__subdf3+0x336>
    8000612e:	4785                	li	a5,1
    80006130:	b7e9                	j	800060fa <__subdf3+0x2fe>
    80006132:	04000613          	li	a2,64
    80006136:	00e7d833          	srl	a6,a5,a4
    8000613a:	40e6073b          	subw	a4,a2,a4
    8000613e:	00e797b3          	sll	a5,a5,a4
    80006142:	00f037b3          	snez	a5,a5
    80006146:	00f867b3          	or	a5,a6,a5
    8000614a:	bf45                	j	800060fa <__subdf3+0x2fe>
    8000614c:	00188713          	addi	a4,a7,1
    80006150:	7fe77713          	andi	a4,a4,2046
    80006154:	10071b63          	bnez	a4,8000626a <__subdf3+0x46e>
    80006158:	0c089263          	bnez	a7,8000621c <__subdf3+0x420>
    8000615c:	e3bd                	bnez	a5,800061c2 <__subdf3+0x3c6>
    8000615e:	1e069e63          	bnez	a3,8000635a <__subdf3+0x55e>
    80006162:	ffe90493          	addi	s1,s2,-2
    80006166:	0014b493          	seqz	s1,s1
    8000616a:	4701                	li	a4,0
    8000616c:	4781                	li	a5,0
    8000616e:	4601                	li	a2,0
    80006170:	00879693          	slli	a3,a5,0x8
    80006174:	0006db63          	bgez	a3,8000618a <__subdf3+0x38e>
    80006178:	0605                	addi	a2,a2,1
    8000617a:	7ff00693          	li	a3,2047
    8000617e:	18d60363          	beq	a2,a3,80006304 <__subdf3+0x508>
    80006182:	56fd                	li	a3,-1
    80006184:	16de                	slli	a3,a3,0x37
    80006186:	16fd                	addi	a3,a3,-1
    80006188:	8ff5                	and	a5,a5,a3
    8000618a:	7ff00693          	li	a3,2047
    8000618e:	838d                	srli	a5,a5,0x3
    80006190:	00d61663          	bne	a2,a3,8000619c <__subdf3+0x3a0>
    80006194:	c781                	beqz	a5,8000619c <__subdf3+0x3a0>
    80006196:	4785                	li	a5,1
    80006198:	17ce                	slli	a5,a5,0x33
    8000619a:	4481                	li	s1,0
    8000619c:	7ff67513          	andi	a0,a2,2047
    800061a0:	567d                	li	a2,-1
    800061a2:	8231                	srli	a2,a2,0xc
    800061a4:	1552                	slli	a0,a0,0x34
    800061a6:	8ff1                	and	a5,a5,a2
    800061a8:	14fe                	slli	s1,s1,0x3f
    800061aa:	8d5d                	or	a0,a0,a5
    800061ac:	8d45                	or	a0,a0,s1
    800061ae:	c319                	beqz	a4,800061b4 <__subdf3+0x3b8>
    800061b0:	00172073          	csrs	fflags,a4
    800061b4:	70a2                	ld	ra,40(sp)
    800061b6:	7402                	ld	s0,32(sp)
    800061b8:	64e2                	ld	s1,24(sp)
    800061ba:	6942                	ld	s2,16(sp)
    800061bc:	69a2                	ld	s3,8(sp)
    800061be:	6145                	addi	sp,sp,48
    800061c0:	8082                	ret
    800061c2:	ce89                	beqz	a3,800061dc <__subdf3+0x3e0>
    800061c4:	40d78733          	sub	a4,a5,a3
    800061c8:	00871613          	slli	a2,a4,0x8
    800061cc:	04065563          	bgez	a2,80006216 <__subdf3+0x41a>
    800061d0:	40f687b3          	sub	a5,a3,a5
    800061d4:	84ae                	mv	s1,a1
    800061d6:	4601                	li	a2,0
    800061d8:	d40789e3          	beqz	a5,80005f2a <__subdf3+0x12e>
    800061dc:	00179813          	slli	a6,a5,0x1
    800061e0:	00787693          	andi	a3,a6,7
    800061e4:	4701                	li	a4,0
    800061e6:	c285                	beqz	a3,80006206 <__subdf3+0x40a>
    800061e8:	4709                	li	a4,2
    800061ea:	0ee90963          	beq	s2,a4,800062dc <__subdf3+0x4e0>
    800061ee:	470d                	li	a4,3
    800061f0:	0ee90263          	beq	s2,a4,800062d4 <__subdf3+0x4d8>
    800061f4:	4705                	li	a4,1
    800061f6:	00091863          	bnez	s2,80006206 <__subdf3+0x40a>
    800061fa:	00f87693          	andi	a3,a6,15
    800061fe:	4611                	li	a2,4
    80006200:	00c68363          	beq	a3,a2,80006206 <__subdf3+0x40a>
    80006204:	0811                	addi	a6,a6,4
    80006206:	03885813          	srli	a6,a6,0x38
    8000620a:	00184813          	xori	a6,a6,1
    8000620e:	00187813          	andi	a6,a6,1
    80006212:	4601                	li	a2,0
    80006214:	bbb5                	j	80005f90 <__subdf3+0x194>
    80006216:	d731                	beqz	a4,80006162 <__subdf3+0x366>
    80006218:	87ba                	mv	a5,a4
    8000621a:	b7c9                	j	800061dc <__subdf3+0x3e0>
    8000621c:	7ff00713          	li	a4,2047
    80006220:	00e89e63          	bne	a7,a4,8000623c <__subdf3+0x440>
    80006224:	12078e63          	beqz	a5,80006360 <__subdf3+0x564>
    80006228:	0367d713          	srli	a4,a5,0x36
    8000622c:	8b05                	andi	a4,a4,1
    8000622e:	00173713          	seqz	a4,a4
    80006232:	0712                	slli	a4,a4,0x4
    80006234:	db1519e3          	bne	a0,a7,80005fe6 <__subdf3+0x1ea>
    80006238:	e699                	bnez	a3,80006246 <__subdf3+0x44a>
    8000623a:	bb99                	j	80005f90 <__subdf3+0x194>
    8000623c:	00e51e63          	bne	a0,a4,80006258 <__subdf3+0x45c>
    80006240:	10068263          	beqz	a3,80006344 <__subdf3+0x548>
    80006244:	4701                	li	a4,0
    80006246:	00969613          	slli	a2,a3,0x9
    8000624a:	10065663          	bgez	a2,80006356 <__subdf3+0x55a>
    8000624e:	d8079ee3          	bnez	a5,80005fea <__subdf3+0x1ee>
    80006252:	87b6                	mv	a5,a3
    80006254:	84ae                	mv	s1,a1
    80006256:	a039                	j	80006264 <__subdf3+0x468>
    80006258:	d80796e3          	bnez	a5,80005fe4 <__subdf3+0x1e8>
    8000625c:	c6f5                	beqz	a3,80006348 <__subdf3+0x54c>
    8000625e:	87b6                	mv	a5,a3
    80006260:	84ae                	mv	s1,a1
    80006262:	4701                	li	a4,0
    80006264:	7ff00613          	li	a2,2047
    80006268:	b325                	j	80005f90 <__subdf3+0x194>
    8000626a:	40d78433          	sub	s0,a5,a3
    8000626e:	00841713          	slli	a4,s0,0x8
    80006272:	02075f63          	bgez	a4,800062b0 <__subdf3+0x4b4>
    80006276:	40f68433          	sub	s0,a3,a5
    8000627a:	84ae                	mv	s1,a1
    8000627c:	8522                	mv	a0,s0
    8000627e:	00000097          	auipc	ra,0x0
    80006282:	580080e7          	jalr	1408(ra) # 800067fe <__clzdi2>
    80006286:	ff85079b          	addiw	a5,a0,-8
    8000628a:	00f41433          	sll	s0,s0,a5
    8000628e:	0337c363          	blt	a5,s3,800062b4 <__subdf3+0x4b8>
    80006292:	4137853b          	subw	a0,a5,s3
    80006296:	2505                	addiw	a0,a0,1
    80006298:	04000713          	li	a4,64
    8000629c:	00a457b3          	srl	a5,s0,a0
    800062a0:	40a7053b          	subw	a0,a4,a0
    800062a4:	00a41433          	sll	s0,s0,a0
    800062a8:	00803433          	snez	s0,s0
    800062ac:	8fc1                	or	a5,a5,s0
    800062ae:	b725                	j	800061d6 <__subdf3+0x3da>
    800062b0:	f471                	bnez	s0,8000627c <__subdf3+0x480>
    800062b2:	bd45                	j	80006162 <__subdf3+0x366>
    800062b4:	40f989b3          	sub	s3,s3,a5
    800062b8:	57fd                	li	a5,-1
    800062ba:	17de                	slli	a5,a5,0x37
    800062bc:	17fd                	addi	a5,a5,-1
    800062be:	8fe1                	and	a5,a5,s0
    800062c0:	b645                	j	80005e60 <__subdf3+0x64>
    800062c2:	87b6                	mv	a5,a3
    800062c4:	89aa                	mv	s3,a0
    800062c6:	be69                	j	80005e60 <__subdf3+0x64>
    800062c8:	87b6                	mv	a5,a3
    800062ca:	89aa                	mv	s3,a0
    800062cc:	84ae                	mv	s1,a1
    800062ce:	be49                	j	80005e60 <__subdf3+0x64>
    800062d0:	87b6                	mv	a5,a3
    800062d2:	b711                	j	800061d6 <__subdf3+0x3da>
    800062d4:	4705                	li	a4,1
    800062d6:	f885                	bnez	s1,80006206 <__subdf3+0x40a>
    800062d8:	0821                	addi	a6,a6,8
    800062da:	b735                	j	80006206 <__subdf3+0x40a>
    800062dc:	4705                	li	a4,1
    800062de:	d485                	beqz	s1,80006206 <__subdf3+0x40a>
    800062e0:	bfe5                	j	800062d8 <__subdf3+0x4dc>
    800062e2:	87b6                	mv	a5,a3
    800062e4:	be55                	j	80005e98 <__subdf3+0x9c>
    800062e6:	87b6                	mv	a5,a3
    800062e8:	bfad                	j	80006262 <__subdf3+0x466>
    800062ea:	7ff00613          	li	a2,2047
    800062ee:	b935                	j	80005f2a <__subdf3+0x12e>
    800062f0:	87b6                	mv	a5,a3
    800062f2:	84ae                	mv	s1,a1
    800062f4:	b655                	j	80005e98 <__subdf3+0x9c>
    800062f6:	d40499e3          	bnez	s1,80006048 <__subdf3+0x24c>
    800062fa:	07a1                	addi	a5,a5,8
    800062fc:	b3b1                	j	80006048 <__subdf3+0x24c>
    800062fe:	d40485e3          	beqz	s1,80006048 <__subdf3+0x24c>
    80006302:	bfe5                	j	800062fa <__subdf3+0x4fe>
    80006304:	4781                	li	a5,0
    80006306:	00090e63          	beqz	s2,80006322 <__subdf3+0x526>
    8000630a:	468d                	li	a3,3
    8000630c:	00d91763          	bne	s2,a3,8000631a <__subdf3+0x51e>
    80006310:	c889                	beqz	s1,80006322 <__subdf3+0x526>
    80006312:	57fd                	li	a5,-1
    80006314:	7fe00613          	li	a2,2046
    80006318:	a029                	j	80006322 <__subdf3+0x526>
    8000631a:	4689                	li	a3,2
    8000631c:	fed91be3          	bne	s2,a3,80006312 <__subdf3+0x516>
    80006320:	d8ed                	beqz	s1,80006312 <__subdf3+0x516>
    80006322:	00576713          	ori	a4,a4,5
    80006326:	b595                	j	8000618a <__subdf3+0x38e>
    80006328:	fff74713          	not	a4,a4
    8000632c:	2701                	sext.w	a4,a4
    8000632e:	b909                	j	80005f40 <__subdf3+0x144>
    80006330:	4741                	li	a4,16
    80006332:	b165                	j	80005fda <__subdf3+0x1de>
    80006334:	4701                	li	a4,0
    80006336:	ca078de3          	beqz	a5,80005ff0 <__subdf3+0x1f4>
    8000633a:	b725                	j	80006262 <__subdf3+0x466>
    8000633c:	fff74713          	not	a4,a4
    80006340:	2701                	sext.w	a4,a4
    80006342:	b3d5                	j	80006126 <__subdf3+0x32a>
    80006344:	ca079fe3          	bnez	a5,80006002 <__subdf3+0x206>
    80006348:	4785                	li	a5,1
    8000634a:	4481                	li	s1,0
    8000634c:	17da                	slli	a5,a5,0x36
    8000634e:	7ff00613          	li	a2,2047
    80006352:	4741                	li	a4,16
    80006354:	bd31                	j	80006170 <__subdf3+0x374>
    80006356:	4741                	li	a4,16
    80006358:	bddd                	j	8000624e <__subdf3+0x452>
    8000635a:	87b6                	mv	a5,a3
    8000635c:	84ae                	mv	s1,a1
    8000635e:	bdbd                	j	800061dc <__subdf3+0x3e0>
    80006360:	ef151ee3          	bne	a0,a7,8000625c <__subdf3+0x460>
    80006364:	ee0690e3          	bnez	a3,80006244 <__subdf3+0x448>
    80006368:	b7c5                	j	80006348 <__subdf3+0x54c>
    8000636a:	c71501e3          	beq	a0,a7,80005fcc <__subdf3+0x1d0>
    8000636e:	87b6                	mv	a5,a3
    80006370:	7ff00613          	li	a2,2047
    80006374:	b179                	j	80006002 <__subdf3+0x206>

0000000080006376 <__fixdfsi>:
    80006376:	002027f3          	frrm	a5
    8000637a:	57fd                	li	a5,-1
    8000637c:	03455713          	srli	a4,a0,0x34
    80006380:	83b1                	srli	a5,a5,0xc
    80006382:	7ff77713          	andi	a4,a4,2047
    80006386:	3fe00613          	li	a2,1022
    8000638a:	8fe9                	and	a5,a5,a0
    8000638c:	03f55693          	srli	a3,a0,0x3f
    80006390:	00e64663          	blt	a2,a4,8000639c <__fixdfsi+0x26>
    80006394:	4501                	li	a0,0
    80006396:	ef21                	bnez	a4,800063ee <__fixdfsi+0x78>
    80006398:	ebb9                	bnez	a5,800063ee <__fixdfsi+0x78>
    8000639a:	8082                	ret
    8000639c:	41d00613          	li	a2,1053
    800063a0:	02e65363          	ble	a4,a2,800063c6 <__fixdfsi+0x50>
    800063a4:	80000537          	lui	a0,0x80000
    800063a8:	fff54513          	not	a0,a0
    800063ac:	9d35                	addw	a0,a0,a3
    800063ae:	c2b1                	beqz	a3,800063f2 <__fixdfsi+0x7c>
    800063b0:	41e00613          	li	a2,1054
    800063b4:	46c1                	li	a3,16
    800063b6:	02c71f63          	bne	a4,a2,800063f4 <__fixdfsi+0x7e>
    800063ba:	0157d713          	srli	a4,a5,0x15
    800063be:	eb1d                	bnez	a4,800063f4 <__fixdfsi+0x7e>
    800063c0:	17ae                	slli	a5,a5,0x2b
    800063c2:	e795                	bnez	a5,800063ee <__fixdfsi+0x78>
    800063c4:	8082                	ret
    800063c6:	4505                	li	a0,1
    800063c8:	1552                	slli	a0,a0,0x34
    800063ca:	8fc9                	or	a5,a5,a0
    800063cc:	2701                	sext.w	a4,a4
    800063ce:	43300513          	li	a0,1075
    800063d2:	c0d7061b          	addiw	a2,a4,-1011
    800063d6:	40e5073b          	subw	a4,a0,a4
    800063da:	00c79633          	sll	a2,a5,a2
    800063de:	00e7d7b3          	srl	a5,a5,a4
    800063e2:	0007851b          	sext.w	a0,a5
    800063e6:	c299                	beqz	a3,800063ec <__fixdfsi+0x76>
    800063e8:	40a0053b          	negw	a0,a0
    800063ec:	c611                	beqz	a2,800063f8 <__fixdfsi+0x82>
    800063ee:	4685                	li	a3,1
    800063f0:	a011                	j	800063f4 <__fixdfsi+0x7e>
    800063f2:	46c1                	li	a3,16
    800063f4:	0016a073          	csrs	fflags,a3
    800063f8:	8082                	ret

00000000800063fa <__fixunsdfsi>:
    800063fa:	002027f3          	frrm	a5
    800063fe:	57fd                	li	a5,-1
    80006400:	03455713          	srli	a4,a0,0x34
    80006404:	83b1                	srli	a5,a5,0xc
    80006406:	7ff77713          	andi	a4,a4,2047
    8000640a:	3fe00693          	li	a3,1022
    8000640e:	8fe9                	and	a5,a5,a0
    80006410:	917d                	srli	a0,a0,0x3f
    80006412:	00e6c663          	blt	a3,a4,8000641e <__fixunsdfsi+0x24>
    80006416:	ef05                	bnez	a4,8000644e <__fixunsdfsi+0x54>
    80006418:	eb9d                	bnez	a5,8000644e <__fixunsdfsi+0x54>
    8000641a:	4501                	li	a0,0
    8000641c:	8082                	ret
    8000641e:	e91d                	bnez	a0,80006454 <__fixunsdfsi+0x5a>
    80006420:	41e00693          	li	a3,1054
    80006424:	02e6ca63          	blt	a3,a4,80006458 <__fixunsdfsi+0x5e>
    80006428:	4685                	li	a3,1
    8000642a:	2701                	sext.w	a4,a4
    8000642c:	16d2                	slli	a3,a3,0x34
    8000642e:	43300513          	li	a0,1075
    80006432:	8fd5                	or	a5,a5,a3
    80006434:	9d19                	subw	a0,a0,a4
    80006436:	c0d7071b          	addiw	a4,a4,-1011
    8000643a:	00a7d533          	srl	a0,a5,a0
    8000643e:	00e797b3          	sll	a5,a5,a4
    80006442:	2501                	sext.w	a0,a0
    80006444:	cf89                	beqz	a5,8000645e <__fixunsdfsi+0x64>
    80006446:	4785                	li	a5,1
    80006448:	0017a073          	csrs	fflags,a5
    8000644c:	8082                	ret
    8000644e:	4785                	li	a5,1
    80006450:	4501                	li	a0,0
    80006452:	bfdd                	j	80006448 <__fixunsdfsi+0x4e>
    80006454:	47c1                	li	a5,16
    80006456:	bfed                	j	80006450 <__fixunsdfsi+0x56>
    80006458:	47c1                	li	a5,16
    8000645a:	557d                	li	a0,-1
    8000645c:	b7f5                	j	80006448 <__fixunsdfsi+0x4e>
    8000645e:	8082                	ret

0000000080006460 <__floatsidf>:
    80006460:	1101                	addi	sp,sp,-32
    80006462:	ec06                	sd	ra,24(sp)
    80006464:	e822                	sd	s0,16(sp)
    80006466:	e426                	sd	s1,8(sp)
    80006468:	c929                	beqz	a0,800064ba <__floatsidf+0x5a>
    8000646a:	0005079b          	sext.w	a5,a0
    8000646e:	03f55493          	srli	s1,a0,0x3f
    80006472:	00055463          	bgez	a0,8000647a <__floatsidf+0x1a>
    80006476:	40f007bb          	negw	a5,a5
    8000647a:	02079413          	slli	s0,a5,0x20
    8000647e:	9001                	srli	s0,s0,0x20
    80006480:	8522                	mv	a0,s0
    80006482:	00000097          	auipc	ra,0x0
    80006486:	37c080e7          	jalr	892(ra) # 800067fe <__clzdi2>
    8000648a:	43e00793          	li	a5,1086
    8000648e:	40a7873b          	subw	a4,a5,a0
    80006492:	43300793          	li	a5,1075
    80006496:	9f99                	subw	a5,a5,a4
    80006498:	00f417b3          	sll	a5,s0,a5
    8000649c:	547d                	li	s0,-1
    8000649e:	8031                	srli	s0,s0,0xc
    800064a0:	8fe1                	and	a5,a5,s0
    800064a2:	60e2                	ld	ra,24(sp)
    800064a4:	6442                	ld	s0,16(sp)
    800064a6:	7ff77713          	andi	a4,a4,2047
    800064aa:	1752                	slli	a4,a4,0x34
    800064ac:	03f49513          	slli	a0,s1,0x3f
    800064b0:	8fd9                	or	a5,a5,a4
    800064b2:	64a2                	ld	s1,8(sp)
    800064b4:	8d5d                	or	a0,a0,a5
    800064b6:	6105                	addi	sp,sp,32
    800064b8:	8082                	ret
    800064ba:	4781                	li	a5,0
    800064bc:	4701                	li	a4,0
    800064be:	4481                	li	s1,0
    800064c0:	bff1                	j	8000649c <__floatsidf+0x3c>

00000000800064c2 <__floatunsidf>:
    800064c2:	1141                	addi	sp,sp,-16
    800064c4:	e406                	sd	ra,8(sp)
    800064c6:	e022                	sd	s0,0(sp)
    800064c8:	cd0d                	beqz	a0,80006502 <__floatunsidf+0x40>
    800064ca:	02051413          	slli	s0,a0,0x20
    800064ce:	9001                	srli	s0,s0,0x20
    800064d0:	8522                	mv	a0,s0
    800064d2:	00000097          	auipc	ra,0x0
    800064d6:	32c080e7          	jalr	812(ra) # 800067fe <__clzdi2>
    800064da:	43e00793          	li	a5,1086
    800064de:	9f89                	subw	a5,a5,a0
    800064e0:	43300713          	li	a4,1075
    800064e4:	40f7053b          	subw	a0,a4,a5
    800064e8:	00a41433          	sll	s0,s0,a0
    800064ec:	7ff7f513          	andi	a0,a5,2047
    800064f0:	57fd                	li	a5,-1
    800064f2:	83b1                	srli	a5,a5,0xc
    800064f4:	8c7d                	and	s0,s0,a5
    800064f6:	1552                	slli	a0,a0,0x34
    800064f8:	8d41                	or	a0,a0,s0
    800064fa:	60a2                	ld	ra,8(sp)
    800064fc:	6402                	ld	s0,0(sp)
    800064fe:	0141                	addi	sp,sp,16
    80006500:	8082                	ret
    80006502:	4401                	li	s0,0
    80006504:	4781                	li	a5,0
    80006506:	b7dd                	j	800064ec <__floatunsidf+0x2a>

0000000080006508 <__fixunsdfdi>:
    80006508:	002027f3          	frrm	a5
    8000650c:	57fd                	li	a5,-1
    8000650e:	03455713          	srli	a4,a0,0x34
    80006512:	83b1                	srli	a5,a5,0xc
    80006514:	7ff77713          	andi	a4,a4,2047
    80006518:	3fe00693          	li	a3,1022
    8000651c:	8fe9                	and	a5,a5,a0
    8000651e:	917d                	srli	a0,a0,0x3f
    80006520:	00e6c663          	blt	a3,a4,8000652c <__fixunsdfdi+0x24>
    80006524:	4501                	li	a0,0
    80006526:	e329                	bnez	a4,80006568 <__fixunsdfdi+0x60>
    80006528:	e3a1                	bnez	a5,80006568 <__fixunsdfdi+0x60>
    8000652a:	8082                	ret
    8000652c:	e131                	bnez	a0,80006570 <__fixunsdfdi+0x68>
    8000652e:	43e00693          	li	a3,1086
    80006532:	557d                	li	a0,-1
    80006534:	02e6cf63          	blt	a3,a4,80006572 <__fixunsdfdi+0x6a>
    80006538:	4685                	li	a3,1
    8000653a:	16d2                	slli	a3,a3,0x34
    8000653c:	43200613          	li	a2,1074
    80006540:	8fd5                	or	a5,a5,a3
    80006542:	0007069b          	sext.w	a3,a4
    80006546:	00e65763          	ble	a4,a2,80006554 <__fixunsdfdi+0x4c>
    8000654a:	bcd6851b          	addiw	a0,a3,-1075
    8000654e:	00a79533          	sll	a0,a5,a0
    80006552:	8082                	ret
    80006554:	43300513          	li	a0,1075
    80006558:	9d15                	subw	a0,a0,a3
    8000655a:	c0d6869b          	addiw	a3,a3,-1011
    8000655e:	00a7d533          	srl	a0,a5,a0
    80006562:	00d797b3          	sll	a5,a5,a3
    80006566:	cb81                	beqz	a5,80006576 <__fixunsdfdi+0x6e>
    80006568:	4785                	li	a5,1
    8000656a:	0017a073          	csrs	fflags,a5
    8000656e:	8082                	ret
    80006570:	4501                	li	a0,0
    80006572:	47c1                	li	a5,16
    80006574:	bfdd                	j	8000656a <__fixunsdfdi+0x62>
    80006576:	8082                	ret

0000000080006578 <__floatdidf>:
    80006578:	7179                	addi	sp,sp,-48
    8000657a:	f406                	sd	ra,40(sp)
    8000657c:	f022                	sd	s0,32(sp)
    8000657e:	ec26                	sd	s1,24(sp)
    80006580:	e84a                	sd	s2,16(sp)
    80006582:	e44e                	sd	s3,8(sp)
    80006584:	00202973          	frrm	s2
    80006588:	c57d                	beqz	a0,80006676 <__floatdidf+0xfe>
    8000658a:	2901                	sext.w	s2,s2
    8000658c:	842a                	mv	s0,a0
    8000658e:	03f55993          	srli	s3,a0,0x3f
    80006592:	00055463          	bgez	a0,8000659a <__floatdidf+0x22>
    80006596:	40a00433          	neg	s0,a0
    8000659a:	84aa                	mv	s1,a0
    8000659c:	8522                	mv	a0,s0
    8000659e:	00000097          	auipc	ra,0x0
    800065a2:	260080e7          	jalr	608(ra) # 800067fe <__clzdi2>
    800065a6:	43e00793          	li	a5,1086
    800065aa:	40a7873b          	subw	a4,a5,a0
    800065ae:	43300793          	li	a5,1075
    800065b2:	02e7cd63          	blt	a5,a4,800065ec <__floatdidf+0x74>
    800065b6:	4681                	li	a3,0
    800065b8:	00f70663          	beq	a4,a5,800065c4 <__floatdidf+0x4c>
    800065bc:	40e7853b          	subw	a0,a5,a4
    800065c0:	00a41433          	sll	s0,s0,a0
    800065c4:	557d                	li	a0,-1
    800065c6:	7ff77713          	andi	a4,a4,2047
    800065ca:	8131                	srli	a0,a0,0xc
    800065cc:	1752                	slli	a4,a4,0x34
    800065ce:	8d61                	and	a0,a0,s0
    800065d0:	19fe                	slli	s3,s3,0x3f
    800065d2:	8d59                	or	a0,a0,a4
    800065d4:	01356533          	or	a0,a0,s3
    800065d8:	c299                	beqz	a3,800065de <__floatdidf+0x66>
    800065da:	0010e073          	csrsi	fflags,1
    800065de:	70a2                	ld	ra,40(sp)
    800065e0:	7402                	ld	s0,32(sp)
    800065e2:	64e2                	ld	s1,24(sp)
    800065e4:	6942                	ld	s2,16(sp)
    800065e6:	69a2                	ld	s3,8(sp)
    800065e8:	6145                	addi	sp,sp,48
    800065ea:	8082                	ret
    800065ec:	43600793          	li	a5,1078
    800065f0:	06e7d163          	ble	a4,a5,80006652 <__floatdidf+0xda>
    800065f4:	47600793          	li	a5,1142
    800065f8:	bca7069b          	addiw	a3,a4,-1078
    800065fc:	40e7853b          	subw	a0,a5,a4
    80006600:	00d456b3          	srl	a3,s0,a3
    80006604:	00a41433          	sll	s0,s0,a0
    80006608:	00803433          	snez	s0,s0
    8000660c:	8c55                	or	s0,s0,a3
    8000660e:	57fd                	li	a5,-1
    80006610:	17de                	slli	a5,a5,0x37
    80006612:	17fd                	addi	a5,a5,-1
    80006614:	00747613          	andi	a2,s0,7
    80006618:	8fe1                	and	a5,a5,s0
    8000661a:	4681                	li	a3,0
    8000661c:	ce19                	beqz	a2,8000663a <__floatdidf+0xc2>
    8000661e:	4689                	li	a3,2
    80006620:	04d90763          	beq	s2,a3,8000666e <__floatdidf+0xf6>
    80006624:	468d                	li	a3,3
    80006626:	02d90f63          	beq	s2,a3,80006664 <__floatdidf+0xec>
    8000662a:	4685                	li	a3,1
    8000662c:	00091763          	bnez	s2,8000663a <__floatdidf+0xc2>
    80006630:	883d                	andi	s0,s0,15
    80006632:	4611                	li	a2,4
    80006634:	00c40363          	beq	s0,a2,8000663a <__floatdidf+0xc2>
    80006638:	0791                	addi	a5,a5,4
    8000663a:	00879613          	slli	a2,a5,0x8
    8000663e:	00065763          	bgez	a2,8000664c <__floatdidf+0xd4>
    80006642:	567d                	li	a2,-1
    80006644:	165e                	slli	a2,a2,0x37
    80006646:	167d                	addi	a2,a2,-1
    80006648:	8ff1                	and	a5,a5,a2
    8000664a:	0705                	addi	a4,a4,1
    8000664c:	0037d413          	srli	s0,a5,0x3
    80006650:	bf95                	j	800065c4 <__floatdidf+0x4c>
    80006652:	faf70ee3          	beq	a4,a5,8000660e <__floatdidf+0x96>
    80006656:	43600793          	li	a5,1078
    8000665a:	40e7853b          	subw	a0,a5,a4
    8000665e:	00a41433          	sll	s0,s0,a0
    80006662:	b775                	j	8000660e <__floatdidf+0x96>
    80006664:	4685                	li	a3,1
    80006666:	fc04cae3          	bltz	s1,8000663a <__floatdidf+0xc2>
    8000666a:	07a1                	addi	a5,a5,8
    8000666c:	b7f9                	j	8000663a <__floatdidf+0xc2>
    8000666e:	4685                	li	a3,1
    80006670:	fc04d5e3          	bgez	s1,8000663a <__floatdidf+0xc2>
    80006674:	bfdd                	j	8000666a <__floatdidf+0xf2>
    80006676:	4401                	li	s0,0
    80006678:	4701                	li	a4,0
    8000667a:	4981                	li	s3,0
    8000667c:	4681                	li	a3,0
    8000667e:	b799                	j	800065c4 <__floatdidf+0x4c>

0000000080006680 <__floatundidf>:
    80006680:	1101                	addi	sp,sp,-32
    80006682:	e822                	sd	s0,16(sp)
    80006684:	ec06                	sd	ra,24(sp)
    80006686:	e426                	sd	s1,8(sp)
    80006688:	842a                	mv	s0,a0
    8000668a:	002024f3          	frrm	s1
    8000668e:	cd5d                	beqz	a0,8000674c <__floatundidf+0xcc>
    80006690:	00000097          	auipc	ra,0x0
    80006694:	16e080e7          	jalr	366(ra) # 800067fe <__clzdi2>
    80006698:	43e00793          	li	a5,1086
    8000669c:	40a7873b          	subw	a4,a5,a0
    800066a0:	43300793          	li	a5,1075
    800066a4:	02e7c863          	blt	a5,a4,800066d4 <__floatundidf+0x54>
    800066a8:	4681                	li	a3,0
    800066aa:	00f70663          	beq	a4,a5,800066b6 <__floatundidf+0x36>
    800066ae:	40e7853b          	subw	a0,a5,a4
    800066b2:	00a41433          	sll	s0,s0,a0
    800066b6:	57fd                	li	a5,-1
    800066b8:	7ff77513          	andi	a0,a4,2047
    800066bc:	83b1                	srli	a5,a5,0xc
    800066be:	1552                	slli	a0,a0,0x34
    800066c0:	8c7d                	and	s0,s0,a5
    800066c2:	8d41                	or	a0,a0,s0
    800066c4:	c299                	beqz	a3,800066ca <__floatundidf+0x4a>
    800066c6:	0010e073          	csrsi	fflags,1
    800066ca:	60e2                	ld	ra,24(sp)
    800066cc:	6442                	ld	s0,16(sp)
    800066ce:	64a2                	ld	s1,8(sp)
    800066d0:	6105                	addi	sp,sp,32
    800066d2:	8082                	ret
    800066d4:	43600793          	li	a5,1078
    800066d8:	2481                	sext.w	s1,s1
    800066da:	02e7dc63          	ble	a4,a5,80006712 <__floatundidf+0x92>
    800066de:	47600793          	li	a5,1142
    800066e2:	9f99                	subw	a5,a5,a4
    800066e4:	00f417b3          	sll	a5,s0,a5
    800066e8:	bca7051b          	addiw	a0,a4,-1078
    800066ec:	00f037b3          	snez	a5,a5
    800066f0:	00a45433          	srl	s0,s0,a0
    800066f4:	8c5d                	or	s0,s0,a5
    800066f6:	57fd                	li	a5,-1
    800066f8:	17de                	slli	a5,a5,0x37
    800066fa:	17fd                	addi	a5,a5,-1
    800066fc:	00747613          	andi	a2,s0,7
    80006700:	8fe1                	and	a5,a5,s0
    80006702:	4681                	li	a3,0
    80006704:	c615                	beqz	a2,80006730 <__floatundidf+0xb0>
    80006706:	cc99                	beqz	s1,80006724 <__floatundidf+0xa4>
    80006708:	468d                	li	a3,3
    8000670a:	02d48f63          	beq	s1,a3,80006748 <__floatundidf+0xc8>
    8000670e:	4685                	li	a3,1
    80006710:	a005                	j	80006730 <__floatundidf+0xb0>
    80006712:	fef702e3          	beq	a4,a5,800066f6 <__floatundidf+0x76>
    80006716:	43600793          	li	a5,1078
    8000671a:	40e7853b          	subw	a0,a5,a4
    8000671e:	00a41433          	sll	s0,s0,a0
    80006722:	bfd1                	j	800066f6 <__floatundidf+0x76>
    80006724:	883d                	andi	s0,s0,15
    80006726:	4611                	li	a2,4
    80006728:	4685                	li	a3,1
    8000672a:	00c40363          	beq	s0,a2,80006730 <__floatundidf+0xb0>
    8000672e:	0791                	addi	a5,a5,4
    80006730:	00879613          	slli	a2,a5,0x8
    80006734:	00065763          	bgez	a2,80006742 <__floatundidf+0xc2>
    80006738:	567d                	li	a2,-1
    8000673a:	165e                	slli	a2,a2,0x37
    8000673c:	167d                	addi	a2,a2,-1
    8000673e:	8ff1                	and	a5,a5,a2
    80006740:	0705                	addi	a4,a4,1
    80006742:	0037d413          	srli	s0,a5,0x3
    80006746:	bf85                	j	800066b6 <__floatundidf+0x36>
    80006748:	07a1                	addi	a5,a5,8
    8000674a:	b7d1                	j	8000670e <__floatundidf+0x8e>
    8000674c:	4701                	li	a4,0
    8000674e:	4681                	li	a3,0
    80006750:	b79d                	j	800066b6 <__floatundidf+0x36>

0000000080006752 <__extendsfdf2>:
    80006752:	1101                	addi	sp,sp,-32
    80006754:	ec06                	sd	ra,24(sp)
    80006756:	e822                	sd	s0,16(sp)
    80006758:	e426                	sd	s1,8(sp)
    8000675a:	e04a                	sd	s2,0(sp)
    8000675c:	e0050553          	fmv.x.w	a0,fa0
    80006760:	002027f3          	frrm	a5
    80006764:	008007b7          	lui	a5,0x800
    80006768:	0175591b          	srliw	s2,a0,0x17
    8000676c:	17fd                	addi	a5,a5,-1
    8000676e:	8fe9                	and	a5,a5,a0
    80006770:	0ff97913          	andi	s2,s2,255
    80006774:	2781                	sext.w	a5,a5
    80006776:	01f5549b          	srliw	s1,a0,0x1f
    8000677a:	00190513          	addi	a0,s2,1
    8000677e:	02079413          	slli	s0,a5,0x20
    80006782:	0fe57513          	andi	a0,a0,254
    80006786:	9001                	srli	s0,s0,0x20
    80006788:	c511                	beqz	a0,80006794 <__extendsfdf2+0x42>
    8000678a:	38090513          	addi	a0,s2,896
    8000678e:	0476                	slli	s0,s0,0x1d
    80006790:	4781                	li	a5,0
    80006792:	a081                	j	800067d2 <__extendsfdf2+0x80>
    80006794:	02091263          	bnez	s2,800067b8 <__extendsfdf2+0x66>
    80006798:	4781                	li	a5,0
    8000679a:	cc05                	beqz	s0,800067d2 <__extendsfdf2+0x80>
    8000679c:	8522                	mv	a0,s0
    8000679e:	00000097          	auipc	ra,0x0
    800067a2:	060080e7          	jalr	96(ra) # 800067fe <__clzdi2>
    800067a6:	ff55079b          	addiw	a5,a0,-11
    800067aa:	00f41433          	sll	s0,s0,a5
    800067ae:	3a900793          	li	a5,937
    800067b2:	40a7853b          	subw	a0,a5,a0
    800067b6:	bfe9                	j	80006790 <__extendsfdf2+0x3e>
    800067b8:	c021                	beqz	s0,800067f8 <__extendsfdf2+0xa6>
    800067ba:	00400737          	lui	a4,0x400
    800067be:	8ff9                	and	a5,a5,a4
    800067c0:	4505                	li	a0,1
    800067c2:	154e                	slli	a0,a0,0x33
    800067c4:	0017b793          	seqz	a5,a5
    800067c8:	0476                	slli	s0,s0,0x1d
    800067ca:	8c49                	or	s0,s0,a0
    800067cc:	0792                	slli	a5,a5,0x4
    800067ce:	7ff00513          	li	a0,2047
    800067d2:	7ff57513          	andi	a0,a0,2047
    800067d6:	03451713          	slli	a4,a0,0x34
    800067da:	557d                	li	a0,-1
    800067dc:	8131                	srli	a0,a0,0xc
    800067de:	8d61                	and	a0,a0,s0
    800067e0:	14fe                	slli	s1,s1,0x3f
    800067e2:	8d59                	or	a0,a0,a4
    800067e4:	8d45                	or	a0,a0,s1
    800067e6:	c399                	beqz	a5,800067ec <__extendsfdf2+0x9a>
    800067e8:	0017a073          	csrs	fflags,a5
    800067ec:	60e2                	ld	ra,24(sp)
    800067ee:	6442                	ld	s0,16(sp)
    800067f0:	64a2                	ld	s1,8(sp)
    800067f2:	6902                	ld	s2,0(sp)
    800067f4:	6105                	addi	sp,sp,32
    800067f6:	8082                	ret
    800067f8:	7ff00513          	li	a0,2047
    800067fc:	bf51                	j	80006790 <__extendsfdf2+0x3e>

00000000800067fe <__clzdi2>:
    800067fe:	03800793          	li	a5,56
    80006802:	00f55733          	srl	a4,a0,a5
    80006806:	0ff77713          	andi	a4,a4,255
    8000680a:	e319                	bnez	a4,80006810 <__clzdi2+0x12>
    8000680c:	17e1                	addi	a5,a5,-8
    8000680e:	fbf5                	bnez	a5,80006802 <__clzdi2+0x4>
    80006810:	04000713          	li	a4,64
    80006814:	8f1d                	sub	a4,a4,a5
    80006816:	00f557b3          	srl	a5,a0,a5
    8000681a:	00007517          	auipc	a0,0x7
    8000681e:	82e50513          	addi	a0,a0,-2002 # 8000d048 <__clz_tab>
    80006822:	97aa                	add	a5,a5,a0
    80006824:	0007c503          	lbu	a0,0(a5) # 800000 <_stack_size+0x7f8000>
    80006828:	40a7053b          	subw	a0,a4,a0
    8000682c:	8082                	ret

000000008000682e <__errno>:
    8000682e:	00009797          	auipc	a5,0x9
    80006832:	3ea78793          	addi	a5,a5,1002 # 8000fc18 <_impure_ptr>
    80006836:	6388                	ld	a0,0(a5)
    80006838:	8082                	ret

000000008000683a <memcpy>:
    8000683a:	00a5c7b3          	xor	a5,a1,a0
    8000683e:	8b9d                	andi	a5,a5,7
    80006840:	00c50733          	add	a4,a0,a2
    80006844:	e781                	bnez	a5,8000684c <memcpy+0x12>
    80006846:	479d                	li	a5,7
    80006848:	00c7ee63          	bltu	a5,a2,80006864 <memcpy+0x2a>
    8000684c:	87aa                	mv	a5,a0
    8000684e:	0ae57063          	bleu	a4,a0,800068ee <memcpy+0xb4>
    80006852:	0005c683          	lbu	a3,0(a1)
    80006856:	0785                	addi	a5,a5,1
    80006858:	0585                	addi	a1,a1,1
    8000685a:	fed78fa3          	sb	a3,-1(a5)
    8000685e:	fee7eae3          	bltu	a5,a4,80006852 <memcpy+0x18>
    80006862:	8082                	ret
    80006864:	00757693          	andi	a3,a0,7
    80006868:	87aa                	mv	a5,a0
    8000686a:	ca91                	beqz	a3,8000687e <memcpy+0x44>
    8000686c:	0005c683          	lbu	a3,0(a1)
    80006870:	0785                	addi	a5,a5,1
    80006872:	0585                	addi	a1,a1,1
    80006874:	fed78fa3          	sb	a3,-1(a5)
    80006878:	0077f693          	andi	a3,a5,7
    8000687c:	b7fd                	j	8000686a <memcpy+0x30>
    8000687e:	ff877693          	andi	a3,a4,-8
    80006882:	fc068613          	addi	a2,a3,-64 # ffffffff7fffffc0 <_trapsp0+0xfffffffefffcaf80>
    80006886:	06c7f063          	bleu	a2,a5,800068e6 <memcpy+0xac>
    8000688a:	0005b383          	ld	t2,0(a1)
    8000688e:	0085b283          	ld	t0,8(a1)
    80006892:	0105bf83          	ld	t6,16(a1)
    80006896:	0185bf03          	ld	t5,24(a1)
    8000689a:	0205be83          	ld	t4,32(a1)
    8000689e:	0285be03          	ld	t3,40(a1)
    800068a2:	0305b303          	ld	t1,48(a1)
    800068a6:	0385b883          	ld	a7,56(a1)
    800068aa:	04858593          	addi	a1,a1,72
    800068ae:	0077b023          	sd	t2,0(a5)
    800068b2:	ff85b803          	ld	a6,-8(a1)
    800068b6:	0057b423          	sd	t0,8(a5)
    800068ba:	01f7b823          	sd	t6,16(a5)
    800068be:	01e7bc23          	sd	t5,24(a5)
    800068c2:	03d7b023          	sd	t4,32(a5)
    800068c6:	03c7b423          	sd	t3,40(a5)
    800068ca:	0267b823          	sd	t1,48(a5)
    800068ce:	0317bc23          	sd	a7,56(a5)
    800068d2:	04878793          	addi	a5,a5,72
    800068d6:	ff07bc23          	sd	a6,-8(a5)
    800068da:	b775                	j	80006886 <memcpy+0x4c>
    800068dc:	6190                	ld	a2,0(a1)
    800068de:	07a1                	addi	a5,a5,8
    800068e0:	05a1                	addi	a1,a1,8
    800068e2:	fec7bc23          	sd	a2,-8(a5)
    800068e6:	fed7ebe3          	bltu	a5,a3,800068dc <memcpy+0xa2>
    800068ea:	f6e7e4e3          	bltu	a5,a4,80006852 <memcpy+0x18>
    800068ee:	8082                	ret

00000000800068f0 <memset>:
    800068f0:	433d                	li	t1,15
    800068f2:	872a                	mv	a4,a0
    800068f4:	02c37163          	bleu	a2,t1,80006916 <memset+0x26>
    800068f8:	00f77793          	andi	a5,a4,15
    800068fc:	e3c1                	bnez	a5,8000697c <memset+0x8c>
    800068fe:	e1bd                	bnez	a1,80006964 <memset+0x74>
    80006900:	ff067693          	andi	a3,a2,-16
    80006904:	8a3d                	andi	a2,a2,15
    80006906:	96ba                	add	a3,a3,a4
    80006908:	e30c                	sd	a1,0(a4)
    8000690a:	e70c                	sd	a1,8(a4)
    8000690c:	0741                	addi	a4,a4,16
    8000690e:	fed76de3          	bltu	a4,a3,80006908 <memset+0x18>
    80006912:	e211                	bnez	a2,80006916 <memset+0x26>
    80006914:	8082                	ret
    80006916:	40c306b3          	sub	a3,t1,a2
    8000691a:	068a                	slli	a3,a3,0x2
    8000691c:	00000297          	auipc	t0,0x0
    80006920:	9696                	add	a3,a3,t0
    80006922:	00a68067          	jr	10(a3)
    80006926:	00b70723          	sb	a1,14(a4) # 40000e <_stack_size+0x3f800e>
    8000692a:	00b706a3          	sb	a1,13(a4)
    8000692e:	00b70623          	sb	a1,12(a4)
    80006932:	00b705a3          	sb	a1,11(a4)
    80006936:	00b70523          	sb	a1,10(a4)
    8000693a:	00b704a3          	sb	a1,9(a4)
    8000693e:	00b70423          	sb	a1,8(a4)
    80006942:	00b703a3          	sb	a1,7(a4)
    80006946:	00b70323          	sb	a1,6(a4)
    8000694a:	00b702a3          	sb	a1,5(a4)
    8000694e:	00b70223          	sb	a1,4(a4)
    80006952:	00b701a3          	sb	a1,3(a4)
    80006956:	00b70123          	sb	a1,2(a4)
    8000695a:	00b700a3          	sb	a1,1(a4)
    8000695e:	00b70023          	sb	a1,0(a4)
    80006962:	8082                	ret
    80006964:	0ff5f593          	andi	a1,a1,255
    80006968:	00859693          	slli	a3,a1,0x8
    8000696c:	8dd5                	or	a1,a1,a3
    8000696e:	01059693          	slli	a3,a1,0x10
    80006972:	8dd5                	or	a1,a1,a3
    80006974:	02059693          	slli	a3,a1,0x20
    80006978:	8dd5                	or	a1,a1,a3
    8000697a:	b759                	j	80006900 <memset+0x10>
    8000697c:	00279693          	slli	a3,a5,0x2
    80006980:	00000297          	auipc	t0,0x0
    80006984:	9696                	add	a3,a3,t0
    80006986:	8286                	mv	t0,ra
    80006988:	fa2680e7          	jalr	-94(a3)
    8000698c:	8096                	mv	ra,t0
    8000698e:	17c1                	addi	a5,a5,-16
    80006990:	8f1d                	sub	a4,a4,a5
    80006992:	963e                	add	a2,a2,a5
    80006994:	f8c371e3          	bleu	a2,t1,80006916 <memset+0x26>
    80006998:	b79d                	j	800068fe <memset+0xe>

000000008000699a <_vsprintf_r>:
    8000699a:	800007b7          	lui	a5,0x80000
    8000699e:	7155                	addi	sp,sp,-208
    800069a0:	fff7c793          	not	a5,a5
    800069a4:	d43e                	sw	a5,40(sp)
    800069a6:	ca3e                	sw	a5,20(sp)
    800069a8:	77c1                	lui	a5,0xffff0
    800069aa:	e42e                	sd	a1,8(sp)
    800069ac:	f02e                	sd	a1,32(sp)
    800069ae:	2087879b          	addiw	a5,a5,520
    800069b2:	002c                	addi	a1,sp,8
    800069b4:	e586                	sd	ra,200(sp)
    800069b6:	cc3e                	sw	a5,24(sp)
    800069b8:	00001097          	auipc	ra,0x1
    800069bc:	8b4080e7          	jalr	-1868(ra) # 8000726c <_svfprintf_r>
    800069c0:	67a2                	ld	a5,8(sp)
    800069c2:	00078023          	sb	zero,0(a5) # ffffffffffff0000 <_trapsp0+0xffffffff7ffbafc0>
    800069c6:	60ae                	ld	ra,200(sp)
    800069c8:	6169                	addi	sp,sp,208
    800069ca:	8082                	ret

00000000800069cc <vsprintf>:
    800069cc:	00009797          	auipc	a5,0x9
    800069d0:	24c78793          	addi	a5,a5,588 # 8000fc18 <_impure_ptr>
    800069d4:	86b2                	mv	a3,a2
    800069d6:	862e                	mv	a2,a1
    800069d8:	85aa                	mv	a1,a0
    800069da:	6388                	ld	a0,0(a5)
    800069dc:	00000317          	auipc	t1,0x0
    800069e0:	fbe30067          	jr	-66(t1) # 8000699a <_vsprintf_r>

00000000800069e4 <_malloc_trim_r>:
    800069e4:	7179                	addi	sp,sp,-48
    800069e6:	f022                	sd	s0,32(sp)
    800069e8:	ec26                	sd	s1,24(sp)
    800069ea:	e84a                	sd	s2,16(sp)
    800069ec:	e44e                	sd	s3,8(sp)
    800069ee:	842e                	mv	s0,a1
    800069f0:	f406                	sd	ra,40(sp)
    800069f2:	892a                	mv	s2,a0
    800069f4:	00009997          	auipc	s3,0x9
    800069f8:	82498993          	addi	s3,s3,-2012 # 8000f218 <__malloc_av_>
    800069fc:	00001097          	auipc	ra,0x1
    80006a00:	81a080e7          	jalr	-2022(ra) # 80007216 <__malloc_lock>
    80006a04:	0109b783          	ld	a5,16(s3)
    80006a08:	6705                	lui	a4,0x1
    80006a0a:	6784                	ld	s1,8(a5)
    80006a0c:	fdf70793          	addi	a5,a4,-33 # fdf <_stack_size-0x7021>
    80006a10:	40878433          	sub	s0,a5,s0
    80006a14:	98f1                	andi	s1,s1,-4
    80006a16:	9426                	add	s0,s0,s1
    80006a18:	8031                	srli	s0,s0,0xc
    80006a1a:	147d                	addi	s0,s0,-1
    80006a1c:	0432                	slli	s0,s0,0xc
    80006a1e:	00e45f63          	ble	a4,s0,80006a3c <_malloc_trim_r+0x58>
    80006a22:	854a                	mv	a0,s2
    80006a24:	00001097          	auipc	ra,0x1
    80006a28:	802080e7          	jalr	-2046(ra) # 80007226 <__malloc_unlock>
    80006a2c:	4501                	li	a0,0
    80006a2e:	70a2                	ld	ra,40(sp)
    80006a30:	7402                	ld	s0,32(sp)
    80006a32:	64e2                	ld	s1,24(sp)
    80006a34:	6942                	ld	s2,16(sp)
    80006a36:	69a2                	ld	s3,8(sp)
    80006a38:	6145                	addi	sp,sp,48
    80006a3a:	8082                	ret
    80006a3c:	4581                	li	a1,0
    80006a3e:	854a                	mv	a0,s2
    80006a40:	00000097          	auipc	ra,0x0
    80006a44:	7f6080e7          	jalr	2038(ra) # 80007236 <_sbrk_r>
    80006a48:	0109b783          	ld	a5,16(s3)
    80006a4c:	97a6                	add	a5,a5,s1
    80006a4e:	fcf51ae3          	bne	a0,a5,80006a22 <_malloc_trim_r+0x3e>
    80006a52:	408005b3          	neg	a1,s0
    80006a56:	854a                	mv	a0,s2
    80006a58:	00000097          	auipc	ra,0x0
    80006a5c:	7de080e7          	jalr	2014(ra) # 80007236 <_sbrk_r>
    80006a60:	57fd                	li	a5,-1
    80006a62:	02f51d63          	bne	a0,a5,80006a9c <_malloc_trim_r+0xb8>
    80006a66:	4581                	li	a1,0
    80006a68:	854a                	mv	a0,s2
    80006a6a:	00000097          	auipc	ra,0x0
    80006a6e:	7cc080e7          	jalr	1996(ra) # 80007236 <_sbrk_r>
    80006a72:	0109b703          	ld	a4,16(s3)
    80006a76:	46fd                	li	a3,31
    80006a78:	40e507b3          	sub	a5,a0,a4
    80006a7c:	faf6d3e3          	ble	a5,a3,80006a22 <_malloc_trim_r+0x3e>
    80006a80:	00009697          	auipc	a3,0x9
    80006a84:	1a068693          	addi	a3,a3,416 # 8000fc20 <__malloc_sbrk_base>
    80006a88:	6294                	ld	a3,0(a3)
    80006a8a:	0017e793          	ori	a5,a5,1
    80006a8e:	e71c                	sd	a5,8(a4)
    80006a90:	8d15                	sub	a0,a0,a3
    80006a92:	00016697          	auipc	a3,0x16
    80006a96:	56a6a723          	sw	a0,1390(a3) # 8001d000 <__malloc_current_mallinfo>
    80006a9a:	b761                	j	80006a22 <_malloc_trim_r+0x3e>
    80006a9c:	0109b783          	ld	a5,16(s3)
    80006aa0:	8c81                	sub	s1,s1,s0
    80006aa2:	0014e493          	ori	s1,s1,1
    80006aa6:	e784                	sd	s1,8(a5)
    80006aa8:	00016797          	auipc	a5,0x16
    80006aac:	55878793          	addi	a5,a5,1368 # 8001d000 <__malloc_current_mallinfo>
    80006ab0:	439c                	lw	a5,0(a5)
    80006ab2:	854a                	mv	a0,s2
    80006ab4:	4087843b          	subw	s0,a5,s0
    80006ab8:	00016797          	auipc	a5,0x16
    80006abc:	5487a423          	sw	s0,1352(a5) # 8001d000 <__malloc_current_mallinfo>
    80006ac0:	00000097          	auipc	ra,0x0
    80006ac4:	766080e7          	jalr	1894(ra) # 80007226 <__malloc_unlock>
    80006ac8:	4505                	li	a0,1
    80006aca:	b795                	j	80006a2e <_malloc_trim_r+0x4a>

0000000080006acc <_free_r>:
    80006acc:	1e058663          	beqz	a1,80006cb8 <_free_r+0x1ec>
    80006ad0:	1101                	addi	sp,sp,-32
    80006ad2:	e822                	sd	s0,16(sp)
    80006ad4:	e426                	sd	s1,8(sp)
    80006ad6:	842a                	mv	s0,a0
    80006ad8:	84ae                	mv	s1,a1
    80006ada:	ec06                	sd	ra,24(sp)
    80006adc:	00000097          	auipc	ra,0x0
    80006ae0:	73a080e7          	jalr	1850(ra) # 80007216 <__malloc_lock>
    80006ae4:	ff84b583          	ld	a1,-8(s1)
    80006ae8:	ff048693          	addi	a3,s1,-16
    80006aec:	00008517          	auipc	a0,0x8
    80006af0:	72c50513          	addi	a0,a0,1836 # 8000f218 <__malloc_av_>
    80006af4:	ffe5f793          	andi	a5,a1,-2
    80006af8:	00f68633          	add	a2,a3,a5
    80006afc:	6618                	ld	a4,8(a2)
    80006afe:	01053803          	ld	a6,16(a0)
    80006b02:	8985                	andi	a1,a1,1
    80006b04:	9b71                	andi	a4,a4,-4
    80006b06:	04c81d63          	bne	a6,a2,80006b60 <_free_r+0x94>
    80006b0a:	97ba                	add	a5,a5,a4
    80006b0c:	e989                	bnez	a1,80006b1e <_free_r+0x52>
    80006b0e:	ff04b703          	ld	a4,-16(s1)
    80006b12:	8e99                	sub	a3,a3,a4
    80006b14:	6a90                	ld	a2,16(a3)
    80006b16:	97ba                	add	a5,a5,a4
    80006b18:	6e98                	ld	a4,24(a3)
    80006b1a:	ee18                	sd	a4,24(a2)
    80006b1c:	eb10                	sd	a2,16(a4)
    80006b1e:	0017e713          	ori	a4,a5,1
    80006b22:	e698                	sd	a4,8(a3)
    80006b24:	00008717          	auipc	a4,0x8
    80006b28:	70d73223          	sd	a3,1796(a4) # 8000f228 <__malloc_av_+0x10>
    80006b2c:	00009717          	auipc	a4,0x9
    80006b30:	0fc70713          	addi	a4,a4,252 # 8000fc28 <__malloc_trim_threshold>
    80006b34:	6318                	ld	a4,0(a4)
    80006b36:	00e7ec63          	bltu	a5,a4,80006b4e <_free_r+0x82>
    80006b3a:	00009797          	auipc	a5,0x9
    80006b3e:	4de78793          	addi	a5,a5,1246 # 80010018 <__malloc_top_pad>
    80006b42:	638c                	ld	a1,0(a5)
    80006b44:	8522                	mv	a0,s0
    80006b46:	00000097          	auipc	ra,0x0
    80006b4a:	e9e080e7          	jalr	-354(ra) # 800069e4 <_malloc_trim_r>
    80006b4e:	8522                	mv	a0,s0
    80006b50:	6442                	ld	s0,16(sp)
    80006b52:	60e2                	ld	ra,24(sp)
    80006b54:	64a2                	ld	s1,8(sp)
    80006b56:	6105                	addi	sp,sp,32
    80006b58:	00000317          	auipc	t1,0x0
    80006b5c:	6ce30067          	jr	1742(t1) # 80007226 <__malloc_unlock>
    80006b60:	e618                	sd	a4,8(a2)
    80006b62:	4801                	li	a6,0
    80006b64:	e195                	bnez	a1,80006b88 <_free_r+0xbc>
    80006b66:	ff04b583          	ld	a1,-16(s1)
    80006b6a:	00008897          	auipc	a7,0x8
    80006b6e:	6be88893          	addi	a7,a7,1726 # 8000f228 <__malloc_av_+0x10>
    80006b72:	8e8d                	sub	a3,a3,a1
    80006b74:	97ae                	add	a5,a5,a1
    80006b76:	6a8c                	ld	a1,16(a3)
    80006b78:	09158a63          	beq	a1,a7,80006c0c <_free_r+0x140>
    80006b7c:	0186b883          	ld	a7,24(a3)
    80006b80:	0115bc23          	sd	a7,24(a1)
    80006b84:	00b8b823          	sd	a1,16(a7)
    80006b88:	00e605b3          	add	a1,a2,a4
    80006b8c:	658c                	ld	a1,8(a1)
    80006b8e:	8985                	andi	a1,a1,1
    80006b90:	e595                	bnez	a1,80006bbc <_free_r+0xf0>
    80006b92:	97ba                	add	a5,a5,a4
    80006b94:	6a18                	ld	a4,16(a2)
    80006b96:	06081d63          	bnez	a6,80006c10 <_free_r+0x144>
    80006b9a:	00008597          	auipc	a1,0x8
    80006b9e:	68e58593          	addi	a1,a1,1678 # 8000f228 <__malloc_av_+0x10>
    80006ba2:	06b71763          	bne	a4,a1,80006c10 <_free_r+0x144>
    80006ba6:	00008617          	auipc	a2,0x8
    80006baa:	68d63d23          	sd	a3,1690(a2) # 8000f240 <__malloc_av_+0x28>
    80006bae:	00008617          	auipc	a2,0x8
    80006bb2:	68d63523          	sd	a3,1674(a2) # 8000f238 <__malloc_av_+0x20>
    80006bb6:	ee98                	sd	a4,24(a3)
    80006bb8:	ea98                	sd	a4,16(a3)
    80006bba:	4805                	li	a6,1
    80006bbc:	0017e713          	ori	a4,a5,1
    80006bc0:	e698                	sd	a4,8(a3)
    80006bc2:	00f68733          	add	a4,a3,a5
    80006bc6:	e31c                	sd	a5,0(a4)
    80006bc8:	f80813e3          	bnez	a6,80006b4e <_free_r+0x82>
    80006bcc:	1ff00713          	li	a4,511
    80006bd0:	04f76463          	bltu	a4,a5,80006c18 <_free_r+0x14c>
    80006bd4:	0037d713          	srli	a4,a5,0x3
    80006bd8:	2701                	sext.w	a4,a4
    80006bda:	4027561b          	sraiw	a2,a4,0x2
    80006bde:	4785                	li	a5,1
    80006be0:	00c797b3          	sll	a5,a5,a2
    80006be4:	6510                	ld	a2,8(a0)
    80006be6:	8fd1                	or	a5,a5,a2
    80006be8:	00008617          	auipc	a2,0x8
    80006bec:	62f63c23          	sd	a5,1592(a2) # 8000f220 <__malloc_av_+0x8>
    80006bf0:	0017079b          	addiw	a5,a4,1
    80006bf4:	0017979b          	slliw	a5,a5,0x1
    80006bf8:	078e                	slli	a5,a5,0x3
    80006bfa:	97aa                	add	a5,a5,a0
    80006bfc:	6398                	ld	a4,0(a5)
    80006bfe:	ff078613          	addi	a2,a5,-16
    80006c02:	ee90                	sd	a2,24(a3)
    80006c04:	ea98                	sd	a4,16(a3)
    80006c06:	e394                	sd	a3,0(a5)
    80006c08:	ef14                	sd	a3,24(a4)
    80006c0a:	b791                	j	80006b4e <_free_r+0x82>
    80006c0c:	4805                	li	a6,1
    80006c0e:	bfad                	j	80006b88 <_free_r+0xbc>
    80006c10:	6e10                	ld	a2,24(a2)
    80006c12:	ef10                	sd	a2,24(a4)
    80006c14:	ea18                	sd	a4,16(a2)
    80006c16:	b75d                	j	80006bbc <_free_r+0xf0>
    80006c18:	0097d613          	srli	a2,a5,0x9
    80006c1c:	4711                	li	a4,4
    80006c1e:	04c76163          	bltu	a4,a2,80006c60 <_free_r+0x194>
    80006c22:	0067d713          	srli	a4,a5,0x6
    80006c26:	0387071b          	addiw	a4,a4,56
    80006c2a:	0017061b          	addiw	a2,a4,1
    80006c2e:	0016161b          	slliw	a2,a2,0x1
    80006c32:	060e                	slli	a2,a2,0x3
    80006c34:	962a                	add	a2,a2,a0
    80006c36:	ff060593          	addi	a1,a2,-16
    80006c3a:	6210                	ld	a2,0(a2)
    80006c3c:	06c59863          	bne	a1,a2,80006cac <_free_r+0x1e0>
    80006c40:	4785                	li	a5,1
    80006c42:	4027571b          	sraiw	a4,a4,0x2
    80006c46:	00e79733          	sll	a4,a5,a4
    80006c4a:	651c                	ld	a5,8(a0)
    80006c4c:	8f5d                	or	a4,a4,a5
    80006c4e:	00008797          	auipc	a5,0x8
    80006c52:	5ce7b923          	sd	a4,1490(a5) # 8000f220 <__malloc_av_+0x8>
    80006c56:	ee8c                	sd	a1,24(a3)
    80006c58:	ea90                	sd	a2,16(a3)
    80006c5a:	e994                	sd	a3,16(a1)
    80006c5c:	ee14                	sd	a3,24(a2)
    80006c5e:	bdc5                	j	80006b4e <_free_r+0x82>
    80006c60:	4751                	li	a4,20
    80006c62:	00c76563          	bltu	a4,a2,80006c6c <_free_r+0x1a0>
    80006c66:	05b6071b          	addiw	a4,a2,91
    80006c6a:	b7c1                	j	80006c2a <_free_r+0x15e>
    80006c6c:	05400713          	li	a4,84
    80006c70:	00c76763          	bltu	a4,a2,80006c7e <_free_r+0x1b2>
    80006c74:	00c7d713          	srli	a4,a5,0xc
    80006c78:	06e7071b          	addiw	a4,a4,110
    80006c7c:	b77d                	j	80006c2a <_free_r+0x15e>
    80006c7e:	15400713          	li	a4,340
    80006c82:	00c76763          	bltu	a4,a2,80006c90 <_free_r+0x1c4>
    80006c86:	00f7d713          	srli	a4,a5,0xf
    80006c8a:	0777071b          	addiw	a4,a4,119
    80006c8e:	bf71                	j	80006c2a <_free_r+0x15e>
    80006c90:	55400593          	li	a1,1364
    80006c94:	07e00713          	li	a4,126
    80006c98:	f8c5e9e3          	bltu	a1,a2,80006c2a <_free_r+0x15e>
    80006c9c:	0127d713          	srli	a4,a5,0x12
    80006ca0:	07c7071b          	addiw	a4,a4,124
    80006ca4:	b759                	j	80006c2a <_free_r+0x15e>
    80006ca6:	6a10                	ld	a2,16(a2)
    80006ca8:	00c58663          	beq	a1,a2,80006cb4 <_free_r+0x1e8>
    80006cac:	6618                	ld	a4,8(a2)
    80006cae:	9b71                	andi	a4,a4,-4
    80006cb0:	fee7ebe3          	bltu	a5,a4,80006ca6 <_free_r+0x1da>
    80006cb4:	6e0c                	ld	a1,24(a2)
    80006cb6:	b745                	j	80006c56 <_free_r+0x18a>
    80006cb8:	8082                	ret

0000000080006cba <_malloc_r>:
    80006cba:	711d                	addi	sp,sp,-96
    80006cbc:	ec86                	sd	ra,88(sp)
    80006cbe:	e8a2                	sd	s0,80(sp)
    80006cc0:	e4a6                	sd	s1,72(sp)
    80006cc2:	e0ca                	sd	s2,64(sp)
    80006cc4:	fc4e                	sd	s3,56(sp)
    80006cc6:	f852                	sd	s4,48(sp)
    80006cc8:	f456                	sd	s5,40(sp)
    80006cca:	f05a                	sd	s6,32(sp)
    80006ccc:	ec5e                	sd	s7,24(sp)
    80006cce:	e862                	sd	s8,16(sp)
    80006cd0:	e466                	sd	s9,8(sp)
    80006cd2:	01758793          	addi	a5,a1,23
    80006cd6:	02e00713          	li	a4,46
    80006cda:	02f77a63          	bleu	a5,a4,80006d0e <_malloc_r+0x54>
    80006cde:	ff07f493          	andi	s1,a5,-16
    80006ce2:	800007b7          	lui	a5,0x80000
    80006ce6:	fff7c793          	not	a5,a5
    80006cea:	0297f463          	bleu	s1,a5,80006d12 <_malloc_r+0x58>
    80006cee:	47b1                	li	a5,12
    80006cf0:	c11c                	sw	a5,0(a0)
    80006cf2:	4501                	li	a0,0
    80006cf4:	60e6                	ld	ra,88(sp)
    80006cf6:	6446                	ld	s0,80(sp)
    80006cf8:	64a6                	ld	s1,72(sp)
    80006cfa:	6906                	ld	s2,64(sp)
    80006cfc:	79e2                	ld	s3,56(sp)
    80006cfe:	7a42                	ld	s4,48(sp)
    80006d00:	7aa2                	ld	s5,40(sp)
    80006d02:	7b02                	ld	s6,32(sp)
    80006d04:	6be2                	ld	s7,24(sp)
    80006d06:	6c42                	ld	s8,16(sp)
    80006d08:	6ca2                	ld	s9,8(sp)
    80006d0a:	6125                	addi	sp,sp,96
    80006d0c:	8082                	ret
    80006d0e:	02000493          	li	s1,32
    80006d12:	fcb4eee3          	bltu	s1,a1,80006cee <_malloc_r+0x34>
    80006d16:	892a                	mv	s2,a0
    80006d18:	00000097          	auipc	ra,0x0
    80006d1c:	4fe080e7          	jalr	1278(ra) # 80007216 <__malloc_lock>
    80006d20:	1f700793          	li	a5,503
    80006d24:	00008997          	auipc	s3,0x8
    80006d28:	4f498993          	addi	s3,s3,1268 # 8000f218 <__malloc_av_>
    80006d2c:	0497e063          	bltu	a5,s1,80006d6c <_malloc_r+0xb2>
    80006d30:	0034d793          	srli	a5,s1,0x3
    80006d34:	2781                	sext.w	a5,a5
    80006d36:	0017871b          	addiw	a4,a5,1
    80006d3a:	0017171b          	slliw	a4,a4,0x1
    80006d3e:	070e                	slli	a4,a4,0x3
    80006d40:	974e                	add	a4,a4,s3
    80006d42:	6700                	ld	s0,8(a4)
    80006d44:	ff070693          	addi	a3,a4,-16
    80006d48:	00d41663          	bne	s0,a3,80006d54 <_malloc_r+0x9a>
    80006d4c:	6f00                	ld	s0,24(a4)
    80006d4e:	2789                	addiw	a5,a5,2
    80006d50:	04870e63          	beq	a4,s0,80006dac <_malloc_r+0xf2>
    80006d54:	641c                	ld	a5,8(s0)
    80006d56:	6c18                	ld	a4,24(s0)
    80006d58:	6814                	ld	a3,16(s0)
    80006d5a:	9bf1                	andi	a5,a5,-4
    80006d5c:	97a2                	add	a5,a5,s0
    80006d5e:	ee98                	sd	a4,24(a3)
    80006d60:	eb14                	sd	a3,16(a4)
    80006d62:	6798                	ld	a4,8(a5)
    80006d64:	00176713          	ori	a4,a4,1
    80006d68:	e798                	sd	a4,8(a5)
    80006d6a:	a061                	j	80006df2 <_malloc_r+0x138>
    80006d6c:	0094d713          	srli	a4,s1,0x9
    80006d70:	03f00793          	li	a5,63
    80006d74:	cb01                	beqz	a4,80006d84 <_malloc_r+0xca>
    80006d76:	4791                	li	a5,4
    80006d78:	08e7e563          	bltu	a5,a4,80006e02 <_malloc_r+0x148>
    80006d7c:	0064d793          	srli	a5,s1,0x6
    80006d80:	0387879b          	addiw	a5,a5,56
    80006d84:	0017871b          	addiw	a4,a5,1
    80006d88:	0017171b          	slliw	a4,a4,0x1
    80006d8c:	070e                	slli	a4,a4,0x3
    80006d8e:	974e                	add	a4,a4,s3
    80006d90:	6700                	ld	s0,8(a4)
    80006d92:	ff070593          	addi	a1,a4,-16
    80006d96:	457d                	li	a0,31
    80006d98:	00b40963          	beq	s0,a1,80006daa <_malloc_r+0xf0>
    80006d9c:	6418                	ld	a4,8(s0)
    80006d9e:	9b71                	andi	a4,a4,-4
    80006da0:	40970633          	sub	a2,a4,s1
    80006da4:	0ac55263          	ble	a2,a0,80006e48 <_malloc_r+0x18e>
    80006da8:	37fd                	addiw	a5,a5,-1
    80006daa:	2785                	addiw	a5,a5,1
    80006dac:	0209b403          	ld	s0,32(s3)
    80006db0:	00008597          	auipc	a1,0x8
    80006db4:	47858593          	addi	a1,a1,1144 # 8000f228 <__malloc_av_+0x10>
    80006db8:	10b40263          	beq	s0,a1,80006ebc <_malloc_r+0x202>
    80006dbc:	6418                	ld	a4,8(s0)
    80006dbe:	46fd                	li	a3,31
    80006dc0:	9b71                	andi	a4,a4,-4
    80006dc2:	40970633          	sub	a2,a4,s1
    80006dc6:	08c6dc63          	ble	a2,a3,80006e5e <_malloc_r+0x1a4>
    80006dca:	0014e793          	ori	a5,s1,1
    80006dce:	e41c                	sd	a5,8(s0)
    80006dd0:	009406b3          	add	a3,s0,s1
    80006dd4:	00008797          	auipc	a5,0x8
    80006dd8:	46d7b623          	sd	a3,1132(a5) # 8000f240 <__malloc_av_+0x28>
    80006ddc:	00008797          	auipc	a5,0x8
    80006de0:	44d7be23          	sd	a3,1116(a5) # 8000f238 <__malloc_av_+0x20>
    80006de4:	00166793          	ori	a5,a2,1
    80006de8:	ee8c                	sd	a1,24(a3)
    80006dea:	ea8c                	sd	a1,16(a3)
    80006dec:	e69c                	sd	a5,8(a3)
    80006dee:	9722                	add	a4,a4,s0
    80006df0:	e310                	sd	a2,0(a4)
    80006df2:	854a                	mv	a0,s2
    80006df4:	00000097          	auipc	ra,0x0
    80006df8:	432080e7          	jalr	1074(ra) # 80007226 <__malloc_unlock>
    80006dfc:	01040513          	addi	a0,s0,16
    80006e00:	bdd5                	j	80006cf4 <_malloc_r+0x3a>
    80006e02:	47d1                	li	a5,20
    80006e04:	00e7e563          	bltu	a5,a4,80006e0e <_malloc_r+0x154>
    80006e08:	05b7079b          	addiw	a5,a4,91
    80006e0c:	bfa5                	j	80006d84 <_malloc_r+0xca>
    80006e0e:	05400793          	li	a5,84
    80006e12:	00e7e763          	bltu	a5,a4,80006e20 <_malloc_r+0x166>
    80006e16:	00c4d793          	srli	a5,s1,0xc
    80006e1a:	06e7879b          	addiw	a5,a5,110
    80006e1e:	b79d                	j	80006d84 <_malloc_r+0xca>
    80006e20:	15400793          	li	a5,340
    80006e24:	00e7e763          	bltu	a5,a4,80006e32 <_malloc_r+0x178>
    80006e28:	00f4d793          	srli	a5,s1,0xf
    80006e2c:	0777879b          	addiw	a5,a5,119
    80006e30:	bf91                	j	80006d84 <_malloc_r+0xca>
    80006e32:	55400693          	li	a3,1364
    80006e36:	07e00793          	li	a5,126
    80006e3a:	f4e6e5e3          	bltu	a3,a4,80006d84 <_malloc_r+0xca>
    80006e3e:	0124d793          	srli	a5,s1,0x12
    80006e42:	07c7879b          	addiw	a5,a5,124
    80006e46:	bf3d                	j	80006d84 <_malloc_r+0xca>
    80006e48:	6c14                	ld	a3,24(s0)
    80006e4a:	00064863          	bltz	a2,80006e5a <_malloc_r+0x1a0>
    80006e4e:	681c                	ld	a5,16(s0)
    80006e50:	ef94                	sd	a3,24(a5)
    80006e52:	ea9c                	sd	a5,16(a3)
    80006e54:	00e407b3          	add	a5,s0,a4
    80006e58:	b729                	j	80006d62 <_malloc_r+0xa8>
    80006e5a:	8436                	mv	s0,a3
    80006e5c:	bf35                	j	80006d98 <_malloc_r+0xde>
    80006e5e:	00008697          	auipc	a3,0x8
    80006e62:	3eb6b123          	sd	a1,994(a3) # 8000f240 <__malloc_av_+0x28>
    80006e66:	00008697          	auipc	a3,0x8
    80006e6a:	3cb6b923          	sd	a1,978(a3) # 8000f238 <__malloc_av_+0x20>
    80006e6e:	00064863          	bltz	a2,80006e7e <_malloc_r+0x1c4>
    80006e72:	9722                	add	a4,a4,s0
    80006e74:	671c                	ld	a5,8(a4)
    80006e76:	0017e793          	ori	a5,a5,1
    80006e7a:	e71c                	sd	a5,8(a4)
    80006e7c:	bf9d                	j	80006df2 <_malloc_r+0x138>
    80006e7e:	1ff00693          	li	a3,511
    80006e82:	0089b803          	ld	a6,8(s3)
    80006e86:	16e6e263          	bltu	a3,a4,80006fea <_malloc_r+0x330>
    80006e8a:	830d                	srli	a4,a4,0x3
    80006e8c:	2701                	sext.w	a4,a4
    80006e8e:	4027561b          	sraiw	a2,a4,0x2
    80006e92:	2705                	addiw	a4,a4,1
    80006e94:	4685                	li	a3,1
    80006e96:	0017171b          	slliw	a4,a4,0x1
    80006e9a:	00c696b3          	sll	a3,a3,a2
    80006e9e:	070e                	slli	a4,a4,0x3
    80006ea0:	974e                	add	a4,a4,s3
    80006ea2:	0106e6b3          	or	a3,a3,a6
    80006ea6:	00008617          	auipc	a2,0x8
    80006eaa:	36d63d23          	sd	a3,890(a2) # 8000f220 <__malloc_av_+0x8>
    80006eae:	6314                	ld	a3,0(a4)
    80006eb0:	ff070613          	addi	a2,a4,-16
    80006eb4:	ec10                	sd	a2,24(s0)
    80006eb6:	e814                	sd	a3,16(s0)
    80006eb8:	e300                	sd	s0,0(a4)
    80006eba:	ee80                	sd	s0,24(a3)
    80006ebc:	4027d71b          	sraiw	a4,a5,0x2
    80006ec0:	4305                	li	t1,1
    80006ec2:	00e31333          	sll	t1,t1,a4
    80006ec6:	0089b703          	ld	a4,8(s3)
    80006eca:	06676263          	bltu	a4,t1,80006f2e <_malloc_r+0x274>
    80006ece:	006776b3          	and	a3,a4,t1
    80006ed2:	e699                	bnez	a3,80006ee0 <_malloc_r+0x226>
    80006ed4:	9bf1                	andi	a5,a5,-4
    80006ed6:	0306                	slli	t1,t1,0x1
    80006ed8:	006776b3          	and	a3,a4,t1
    80006edc:	2791                	addiw	a5,a5,4
    80006ede:	dee5                	beqz	a3,80006ed6 <_malloc_r+0x21c>
    80006ee0:	4e7d                	li	t3,31
    80006ee2:	0017871b          	addiw	a4,a5,1
    80006ee6:	0017171b          	slliw	a4,a4,0x1
    80006eea:	070e                	slli	a4,a4,0x3
    80006eec:	1741                	addi	a4,a4,-16
    80006eee:	974e                	add	a4,a4,s3
    80006ef0:	883a                	mv	a6,a4
    80006ef2:	853e                	mv	a0,a5
    80006ef4:	01883403          	ld	s0,24(a6)
    80006ef8:	19041963          	bne	s0,a6,8000708a <_malloc_r+0x3d0>
    80006efc:	2505                	addiw	a0,a0,1
    80006efe:	00357693          	andi	a3,a0,3
    80006f02:	0841                	addi	a6,a6,16
    80006f04:	fae5                	bnez	a3,80006ef4 <_malloc_r+0x23a>
    80006f06:	0037f693          	andi	a3,a5,3
    80006f0a:	1c069d63          	bnez	a3,800070e4 <_malloc_r+0x42a>
    80006f0e:	0089b703          	ld	a4,8(s3)
    80006f12:	fff34793          	not	a5,t1
    80006f16:	8ff9                	and	a5,a5,a4
    80006f18:	00008717          	auipc	a4,0x8
    80006f1c:	30f73423          	sd	a5,776(a4) # 8000f220 <__malloc_av_+0x8>
    80006f20:	0089b703          	ld	a4,8(s3)
    80006f24:	0306                	slli	t1,t1,0x1
    80006f26:	00676463          	bltu	a4,t1,80006f2e <_malloc_r+0x274>
    80006f2a:	1c031963          	bnez	t1,800070fc <_malloc_r+0x442>
    80006f2e:	0109bb83          	ld	s7,16(s3)
    80006f32:	008bb403          	ld	s0,8(s7)
    80006f36:	ffc47a93          	andi	s5,s0,-4
    80006f3a:	009ae763          	bltu	s5,s1,80006f48 <_malloc_r+0x28e>
    80006f3e:	409a8733          	sub	a4,s5,s1
    80006f42:	47fd                	li	a5,31
    80006f44:	2ae7cd63          	blt	a5,a4,800071fe <_malloc_r+0x544>
    80006f48:	00009797          	auipc	a5,0x9
    80006f4c:	0d078793          	addi	a5,a5,208 # 80010018 <__malloc_top_pad>
    80006f50:	00009717          	auipc	a4,0x9
    80006f54:	cd070713          	addi	a4,a4,-816 # 8000fc20 <__malloc_sbrk_base>
    80006f58:	6380                	ld	s0,0(a5)
    80006f5a:	6314                	ld	a3,0(a4)
    80006f5c:	57fd                	li	a5,-1
    80006f5e:	015b8c33          	add	s8,s7,s5
    80006f62:	9426                	add	s0,s0,s1
    80006f64:	8a3a                	mv	s4,a4
    80006f66:	18f69d63          	bne	a3,a5,80007100 <_malloc_r+0x446>
    80006f6a:	02040413          	addi	s0,s0,32
    80006f6e:	85a2                	mv	a1,s0
    80006f70:	854a                	mv	a0,s2
    80006f72:	00000097          	auipc	ra,0x0
    80006f76:	2c4080e7          	jalr	708(ra) # 80007236 <_sbrk_r>
    80006f7a:	57fd                	li	a5,-1
    80006f7c:	8b2a                	mv	s6,a0
    80006f7e:	20f50f63          	beq	a0,a5,8000719c <_malloc_r+0x4e2>
    80006f82:	01857463          	bleu	s8,a0,80006f8a <_malloc_r+0x2d0>
    80006f86:	213b9b63          	bne	s7,s3,8000719c <_malloc_r+0x4e2>
    80006f8a:	00016c97          	auipc	s9,0x16
    80006f8e:	076c8c93          	addi	s9,s9,118 # 8001d000 <__malloc_current_mallinfo>
    80006f92:	000ca703          	lw	a4,0(s9)
    80006f96:	9f21                	addw	a4,a4,s0
    80006f98:	00016797          	auipc	a5,0x16
    80006f9c:	06e7a423          	sw	a4,104(a5) # 8001d000 <__malloc_current_mallinfo>
    80006fa0:	176c1663          	bne	s8,s6,8000710c <_malloc_r+0x452>
    80006fa4:	034c1793          	slli	a5,s8,0x34
    80006fa8:	16079263          	bnez	a5,8000710c <_malloc_r+0x452>
    80006fac:	0109b783          	ld	a5,16(s3)
    80006fb0:	9456                	add	s0,s0,s5
    80006fb2:	00146413          	ori	s0,s0,1
    80006fb6:	e780                	sd	s0,8(a5)
    80006fb8:	00009717          	auipc	a4,0x9
    80006fbc:	05070713          	addi	a4,a4,80 # 80010008 <__malloc_max_sbrked_mem>
    80006fc0:	000ca783          	lw	a5,0(s9)
    80006fc4:	6318                	ld	a4,0(a4)
    80006fc6:	00f77663          	bleu	a5,a4,80006fd2 <_malloc_r+0x318>
    80006fca:	00009717          	auipc	a4,0x9
    80006fce:	02f73f23          	sd	a5,62(a4) # 80010008 <__malloc_max_sbrked_mem>
    80006fd2:	00009717          	auipc	a4,0x9
    80006fd6:	03e70713          	addi	a4,a4,62 # 80010010 <__malloc_max_total_mem>
    80006fda:	6318                	ld	a4,0(a4)
    80006fdc:	1cf77063          	bleu	a5,a4,8000719c <_malloc_r+0x4e2>
    80006fe0:	00009717          	auipc	a4,0x9
    80006fe4:	02f73823          	sd	a5,48(a4) # 80010010 <__malloc_max_total_mem>
    80006fe8:	aa55                	j	8000719c <_malloc_r+0x4e2>
    80006fea:	00975613          	srli	a2,a4,0x9
    80006fee:	4691                	li	a3,4
    80006ff0:	04c6e163          	bltu	a3,a2,80007032 <_malloc_r+0x378>
    80006ff4:	00675693          	srli	a3,a4,0x6
    80006ff8:	0386869b          	addiw	a3,a3,56
    80006ffc:	0016861b          	addiw	a2,a3,1
    80007000:	0016161b          	slliw	a2,a2,0x1
    80007004:	060e                	slli	a2,a2,0x3
    80007006:	964e                	add	a2,a2,s3
    80007008:	ff060513          	addi	a0,a2,-16
    8000700c:	6210                	ld	a2,0(a2)
    8000700e:	06c51863          	bne	a0,a2,8000707e <_malloc_r+0x3c4>
    80007012:	4705                	li	a4,1
    80007014:	4026d69b          	sraiw	a3,a3,0x2
    80007018:	00d716b3          	sll	a3,a4,a3
    8000701c:	0106e6b3          	or	a3,a3,a6
    80007020:	00008717          	auipc	a4,0x8
    80007024:	20d73023          	sd	a3,512(a4) # 8000f220 <__malloc_av_+0x8>
    80007028:	ec08                	sd	a0,24(s0)
    8000702a:	e810                	sd	a2,16(s0)
    8000702c:	e900                	sd	s0,16(a0)
    8000702e:	ee00                	sd	s0,24(a2)
    80007030:	b571                	j	80006ebc <_malloc_r+0x202>
    80007032:	46d1                	li	a3,20
    80007034:	00c6e563          	bltu	a3,a2,8000703e <_malloc_r+0x384>
    80007038:	05b6069b          	addiw	a3,a2,91
    8000703c:	b7c1                	j	80006ffc <_malloc_r+0x342>
    8000703e:	05400693          	li	a3,84
    80007042:	00c6e763          	bltu	a3,a2,80007050 <_malloc_r+0x396>
    80007046:	00c75693          	srli	a3,a4,0xc
    8000704a:	06e6869b          	addiw	a3,a3,110
    8000704e:	b77d                	j	80006ffc <_malloc_r+0x342>
    80007050:	15400693          	li	a3,340
    80007054:	00c6e763          	bltu	a3,a2,80007062 <_malloc_r+0x3a8>
    80007058:	00f75693          	srli	a3,a4,0xf
    8000705c:	0776869b          	addiw	a3,a3,119
    80007060:	bf71                	j	80006ffc <_malloc_r+0x342>
    80007062:	55400513          	li	a0,1364
    80007066:	07e00693          	li	a3,126
    8000706a:	f8c569e3          	bltu	a0,a2,80006ffc <_malloc_r+0x342>
    8000706e:	01275693          	srli	a3,a4,0x12
    80007072:	07c6869b          	addiw	a3,a3,124
    80007076:	b759                	j	80006ffc <_malloc_r+0x342>
    80007078:	6a10                	ld	a2,16(a2)
    8000707a:	00c50663          	beq	a0,a2,80007086 <_malloc_r+0x3cc>
    8000707e:	6614                	ld	a3,8(a2)
    80007080:	9af1                	andi	a3,a3,-4
    80007082:	fed76be3          	bltu	a4,a3,80007078 <_malloc_r+0x3be>
    80007086:	6e08                	ld	a0,24(a2)
    80007088:	b745                	j	80007028 <_malloc_r+0x36e>
    8000708a:	6414                	ld	a3,8(s0)
    8000708c:	6c10                	ld	a2,24(s0)
    8000708e:	9af1                	andi	a3,a3,-4
    80007090:	409688b3          	sub	a7,a3,s1
    80007094:	031e5b63          	ble	a7,t3,800070ca <_malloc_r+0x410>
    80007098:	0014e793          	ori	a5,s1,1
    8000709c:	e41c                	sd	a5,8(s0)
    8000709e:	681c                	ld	a5,16(s0)
    800070a0:	00940733          	add	a4,s0,s1
    800070a4:	96a2                	add	a3,a3,s0
    800070a6:	ef90                	sd	a2,24(a5)
    800070a8:	ea1c                	sd	a5,16(a2)
    800070aa:	00008797          	auipc	a5,0x8
    800070ae:	18e7bb23          	sd	a4,406(a5) # 8000f240 <__malloc_av_+0x28>
    800070b2:	00008797          	auipc	a5,0x8
    800070b6:	18e7b323          	sd	a4,390(a5) # 8000f238 <__malloc_av_+0x20>
    800070ba:	0018e793          	ori	a5,a7,1
    800070be:	ef0c                	sd	a1,24(a4)
    800070c0:	eb0c                	sd	a1,16(a4)
    800070c2:	e71c                	sd	a5,8(a4)
    800070c4:	0116b023          	sd	a7,0(a3)
    800070c8:	b32d                	j	80006df2 <_malloc_r+0x138>
    800070ca:	0008cb63          	bltz	a7,800070e0 <_malloc_r+0x426>
    800070ce:	96a2                	add	a3,a3,s0
    800070d0:	669c                	ld	a5,8(a3)
    800070d2:	0017e793          	ori	a5,a5,1
    800070d6:	e69c                	sd	a5,8(a3)
    800070d8:	681c                	ld	a5,16(s0)
    800070da:	ef90                	sd	a2,24(a5)
    800070dc:	ea1c                	sd	a5,16(a2)
    800070de:	bb11                	j	80006df2 <_malloc_r+0x138>
    800070e0:	8432                	mv	s0,a2
    800070e2:	bd19                	j	80006ef8 <_malloc_r+0x23e>
    800070e4:	1741                	addi	a4,a4,-16
    800070e6:	6b14                	ld	a3,16(a4)
    800070e8:	37fd                	addiw	a5,a5,-1
    800070ea:	e0e68ee3          	beq	a3,a4,80006f06 <_malloc_r+0x24c>
    800070ee:	bd0d                	j	80006f20 <_malloc_r+0x266>
    800070f0:	2791                	addiw	a5,a5,4
    800070f2:	0306                	slli	t1,t1,0x1
    800070f4:	006776b3          	and	a3,a4,t1
    800070f8:	dee5                	beqz	a3,800070f0 <_malloc_r+0x436>
    800070fa:	b3e5                	j	80006ee2 <_malloc_r+0x228>
    800070fc:	87aa                	mv	a5,a0
    800070fe:	bfdd                	j	800070f4 <_malloc_r+0x43a>
    80007100:	6705                	lui	a4,0x1
    80007102:	077d                	addi	a4,a4,31
    80007104:	943a                	add	s0,s0,a4
    80007106:	77fd                	lui	a5,0xfffff
    80007108:	8c7d                	and	s0,s0,a5
    8000710a:	b595                	j	80006f6e <_malloc_r+0x2b4>
    8000710c:	000a3683          	ld	a3,0(s4)
    80007110:	57fd                	li	a5,-1
    80007112:	0af69663          	bne	a3,a5,800071be <_malloc_r+0x504>
    80007116:	00009797          	auipc	a5,0x9
    8000711a:	b167b523          	sd	s6,-1270(a5) # 8000fc20 <__malloc_sbrk_base>
    8000711e:	00fb7c13          	andi	s8,s6,15
    80007122:	4781                	li	a5,0
    80007124:	000c0663          	beqz	s8,80007130 <_malloc_r+0x476>
    80007128:	47c1                	li	a5,16
    8000712a:	418787b3          	sub	a5,a5,s8
    8000712e:	9b3e                	add	s6,s6,a5
    80007130:	6505                	lui	a0,0x1
    80007132:	00a78a33          	add	s4,a5,a0
    80007136:	945a                	add	s0,s0,s6
    80007138:	157d                	addi	a0,a0,-1
    8000713a:	00a477b3          	and	a5,s0,a0
    8000713e:	40fa0a33          	sub	s4,s4,a5
    80007142:	00aa7a33          	and	s4,s4,a0
    80007146:	85d2                	mv	a1,s4
    80007148:	854a                	mv	a0,s2
    8000714a:	00000097          	auipc	ra,0x0
    8000714e:	0ec080e7          	jalr	236(ra) # 80007236 <_sbrk_r>
    80007152:	57fd                	li	a5,-1
    80007154:	00f51963          	bne	a0,a5,80007166 <_malloc_r+0x4ac>
    80007158:	8522                	mv	a0,s0
    8000715a:	000c0563          	beqz	s8,80007164 <_malloc_r+0x4aa>
    8000715e:	ff0c0513          	addi	a0,s8,-16
    80007162:	9522                	add	a0,a0,s0
    80007164:	4a01                	li	s4,0
    80007166:	000ca783          	lw	a5,0(s9)
    8000716a:	41650533          	sub	a0,a0,s6
    8000716e:	014787bb          	addw	a5,a5,s4
    80007172:	9a2a                	add	s4,s4,a0
    80007174:	00016717          	auipc	a4,0x16
    80007178:	e8f72623          	sw	a5,-372(a4) # 8001d000 <__malloc_current_mallinfo>
    8000717c:	001a6a13          	ori	s4,s4,1
    80007180:	00008797          	auipc	a5,0x8
    80007184:	0b67b423          	sd	s6,168(a5) # 8000f228 <__malloc_av_+0x10>
    80007188:	014b3423          	sd	s4,8(s6)
    8000718c:	e33b86e3          	beq	s7,s3,80006fb8 <_malloc_r+0x2fe>
    80007190:	477d                	li	a4,31
    80007192:	03576e63          	bltu	a4,s5,800071ce <_malloc_r+0x514>
    80007196:	4785                	li	a5,1
    80007198:	00fb3423          	sd	a5,8(s6)
    8000719c:	0109b783          	ld	a5,16(s3)
    800071a0:	679c                	ld	a5,8(a5)
    800071a2:	9bf1                	andi	a5,a5,-4
    800071a4:	40978733          	sub	a4,a5,s1
    800071a8:	0097e563          	bltu	a5,s1,800071b2 <_malloc_r+0x4f8>
    800071ac:	47fd                	li	a5,31
    800071ae:	04e7c863          	blt	a5,a4,800071fe <_malloc_r+0x544>
    800071b2:	854a                	mv	a0,s2
    800071b4:	00000097          	auipc	ra,0x0
    800071b8:	072080e7          	jalr	114(ra) # 80007226 <__malloc_unlock>
    800071bc:	be1d                	j	80006cf2 <_malloc_r+0x38>
    800071be:	418b07b3          	sub	a5,s6,s8
    800071c2:	9fb9                	addw	a5,a5,a4
    800071c4:	00016717          	auipc	a4,0x16
    800071c8:	e2f72e23          	sw	a5,-452(a4) # 8001d000 <__malloc_current_mallinfo>
    800071cc:	bf89                	j	8000711e <_malloc_r+0x464>
    800071ce:	008bb783          	ld	a5,8(s7)
    800071d2:	fe8a8413          	addi	s0,s5,-24 # fffe8 <_stack_size+0xf7fe8>
    800071d6:	9841                	andi	s0,s0,-16
    800071d8:	8b85                	andi	a5,a5,1
    800071da:	8fc1                	or	a5,a5,s0
    800071dc:	00fbb423          	sd	a5,8(s7)
    800071e0:	46a5                	li	a3,9
    800071e2:	008b87b3          	add	a5,s7,s0
    800071e6:	e794                	sd	a3,8(a5)
    800071e8:	eb94                	sd	a3,16(a5)
    800071ea:	dc8777e3          	bleu	s0,a4,80006fb8 <_malloc_r+0x2fe>
    800071ee:	010b8593          	addi	a1,s7,16
    800071f2:	854a                	mv	a0,s2
    800071f4:	00000097          	auipc	ra,0x0
    800071f8:	8d8080e7          	jalr	-1832(ra) # 80006acc <_free_r>
    800071fc:	bb75                	j	80006fb8 <_malloc_r+0x2fe>
    800071fe:	0109b403          	ld	s0,16(s3)
    80007202:	0014e793          	ori	a5,s1,1
    80007206:	e41c                	sd	a5,8(s0)
    80007208:	009407b3          	add	a5,s0,s1
    8000720c:	00008697          	auipc	a3,0x8
    80007210:	00f6be23          	sd	a5,28(a3) # 8000f228 <__malloc_av_+0x10>
    80007214:	be81                	j	80006d64 <_malloc_r+0xaa>

0000000080007216 <__malloc_lock>:
    80007216:	00009517          	auipc	a0,0x9
    8000721a:	e0a50513          	addi	a0,a0,-502 # 80010020 <__malloc_recursive_mutex>
    8000721e:	ffff9317          	auipc	t1,0xffff9
    80007222:	05030067          	jr	80(t1) # 8000026e <_lock_acquire_recursive>

0000000080007226 <__malloc_unlock>:
    80007226:	00009517          	auipc	a0,0x9
    8000722a:	dfa50513          	addi	a0,a0,-518 # 80010020 <__malloc_recursive_mutex>
    8000722e:	ffff9317          	auipc	t1,0xffff9
    80007232:	0e230067          	jr	226(t1) # 80000310 <_lock_release_recursive>

0000000080007236 <_sbrk_r>:
    80007236:	1141                	addi	sp,sp,-16
    80007238:	e022                	sd	s0,0(sp)
    8000723a:	842a                	mv	s0,a0
    8000723c:	852e                	mv	a0,a1
    8000723e:	00016797          	auipc	a5,0x16
    80007242:	de07a523          	sw	zero,-534(a5) # 8001d028 <errno>
    80007246:	e406                	sd	ra,8(sp)
    80007248:	00004097          	auipc	ra,0x4
    8000724c:	820080e7          	jalr	-2016(ra) # 8000aa68 <_sbrk>
    80007250:	57fd                	li	a5,-1
    80007252:	00f51963          	bne	a0,a5,80007264 <_sbrk_r+0x2e>
    80007256:	00016797          	auipc	a5,0x16
    8000725a:	dd278793          	addi	a5,a5,-558 # 8001d028 <errno>
    8000725e:	439c                	lw	a5,0(a5)
    80007260:	c391                	beqz	a5,80007264 <_sbrk_r+0x2e>
    80007262:	c01c                	sw	a5,0(s0)
    80007264:	60a2                	ld	ra,8(sp)
    80007266:	6402                	ld	s0,0(sp)
    80007268:	0141                	addi	sp,sp,16
    8000726a:	8082                	ret

000000008000726c <_svfprintf_r>:
    8000726c:	db010113          	addi	sp,sp,-592
    80007270:	24113423          	sd	ra,584(sp)
    80007274:	22913c23          	sd	s1,568(sp)
    80007278:	23213823          	sd	s2,560(sp)
    8000727c:	23313423          	sd	s3,552(sp)
    80007280:	21613823          	sd	s6,528(sp)
    80007284:	89ae                	mv	s3,a1
    80007286:	84b2                	mv	s1,a2
    80007288:	8b36                	mv	s6,a3
    8000728a:	24813023          	sd	s0,576(sp)
    8000728e:	23413023          	sd	s4,544(sp)
    80007292:	21513c23          	sd	s5,536(sp)
    80007296:	21713423          	sd	s7,520(sp)
    8000729a:	21813023          	sd	s8,512(sp)
    8000729e:	ffe6                	sd	s9,504(sp)
    800072a0:	fbea                	sd	s10,496(sp)
    800072a2:	f7ee                	sd	s11,488(sp)
    800072a4:	892a                	mv	s2,a0
    800072a6:	00003097          	auipc	ra,0x3
    800072aa:	f80080e7          	jalr	-128(ra) # 8000a226 <_localeconv_r>
    800072ae:	611c                	ld	a5,0(a0)
    800072b0:	853e                	mv	a0,a5
    800072b2:	e0be                	sd	a5,64(sp)
    800072b4:	00003097          	auipc	ra,0x3
    800072b8:	13c080e7          	jalr	316(ra) # 8000a3f0 <strlen>
    800072bc:	0109d783          	lhu	a5,16(s3)
    800072c0:	e82a                	sd	a0,16(sp)
    800072c2:	e982                	sd	zero,208(sp)
    800072c4:	ed82                	sd	zero,216(sp)
    800072c6:	0807f793          	andi	a5,a5,128
    800072ca:	cb95                	beqz	a5,800072fe <_svfprintf_r+0x92>
    800072cc:	0189b783          	ld	a5,24(s3)
    800072d0:	e79d                	bnez	a5,800072fe <_svfprintf_r+0x92>
    800072d2:	04000593          	li	a1,64
    800072d6:	854a                	mv	a0,s2
    800072d8:	00000097          	auipc	ra,0x0
    800072dc:	9e2080e7          	jalr	-1566(ra) # 80006cba <_malloc_r>
    800072e0:	00a9b023          	sd	a0,0(s3)
    800072e4:	00a9bc23          	sd	a0,24(s3)
    800072e8:	e519                	bnez	a0,800072f6 <_svfprintf_r+0x8a>
    800072ea:	47b1                	li	a5,12
    800072ec:	00f92023          	sw	a5,0(s2)
    800072f0:	57fd                	li	a5,-1
    800072f2:	f03e                	sd	a5,32(sp)
    800072f4:	ab5d                	j	800078aa <_svfprintf_r+0x63e>
    800072f6:	04000793          	li	a5,64
    800072fa:	02f9a023          	sw	a5,32(s3)
    800072fe:	129c                	addi	a5,sp,352
    80007300:	f1be                	sd	a5,224(sp)
    80007302:	f982                	sd	zero,240(sp)
    80007304:	d582                	sw	zero,232(sp)
    80007306:	4a01                	li	s4,0
    80007308:	8c3e                	mv	s8,a5
    8000730a:	ec82                	sd	zero,88(sp)
    8000730c:	e882                	sd	zero,80(sp)
    8000730e:	e002                	sd	zero,0(sp)
    80007310:	fc02                	sd	zero,56(sp)
    80007312:	e482                	sd	zero,72(sp)
    80007314:	f002                	sd	zero,32(sp)
    80007316:	8426                	mv	s0,s1
    80007318:	02500713          	li	a4,37
    8000731c:	00044783          	lbu	a5,0(s0)
    80007320:	c399                	beqz	a5,80007326 <_svfprintf_r+0xba>
    80007322:	08e79b63          	bne	a5,a4,800073b8 <_svfprintf_r+0x14c>
    80007326:	40940abb          	subw	s5,s0,s1
    8000732a:	040a8063          	beqz	s5,8000736a <_svfprintf_r+0xfe>
    8000732e:	77ce                	ld	a5,240(sp)
    80007330:	009c3023          	sd	s1,0(s8)
    80007334:	015c3423          	sd	s5,8(s8)
    80007338:	97d6                	add	a5,a5,s5
    8000733a:	f9be                	sd	a5,240(sp)
    8000733c:	57ae                	lw	a5,232(sp)
    8000733e:	0c41                	addi	s8,s8,16
    80007340:	0017871b          	addiw	a4,a5,1
    80007344:	d5ba                	sw	a4,232(sp)
    80007346:	479d                	li	a5,7
    80007348:	00e7dd63          	ble	a4,a5,80007362 <_svfprintf_r+0xf6>
    8000734c:	1190                	addi	a2,sp,224
    8000734e:	85ce                	mv	a1,s3
    80007350:	854a                	mv	a0,s2
    80007352:	00003097          	auipc	ra,0x3
    80007356:	0d4080e7          	jalr	212(ra) # 8000a426 <__ssprint_r>
    8000735a:	54051263          	bnez	a0,8000789e <_svfprintf_r+0x632>
    8000735e:	16010c13          	addi	s8,sp,352
    80007362:	7782                	ld	a5,32(sp)
    80007364:	015787bb          	addw	a5,a5,s5
    80007368:	f03e                	sd	a5,32(sp)
    8000736a:	00044783          	lbu	a5,0(s0)
    8000736e:	e399                	bnez	a5,80007374 <_svfprintf_r+0x108>
    80007370:	4ce0106f          	j	8000883e <_svfprintf_r+0x15d2>
    80007374:	00140793          	addi	a5,s0,1
    80007378:	0a0107a3          	sb	zero,175(sp)
    8000737c:	5dfd                	li	s11,-1
    8000737e:	ec02                	sd	zero,24(sp)
    80007380:	4401                	li	s0,0
    80007382:	4ba9                	li	s7,10
    80007384:	4d25                	li	s10,9
    80007386:	0007ca83          	lbu	s5,0(a5)
    8000738a:	00178713          	addi	a4,a5,1
    8000738e:	e43a                	sd	a4,8(sp)
    80007390:	05a00693          	li	a3,90
    80007394:	02a00613          	li	a2,42
    80007398:	fe0a879b          	addiw	a5,s5,-32
    8000739c:	0007871b          	sext.w	a4,a5
    800073a0:	44e6ebe3          	bltu	a3,a4,80007ff6 <_svfprintf_r+0xd8a>
    800073a4:	1782                	slli	a5,a5,0x20
    800073a6:	00006717          	auipc	a4,0x6
    800073aa:	da270713          	addi	a4,a4,-606 # 8000d148 <__clz_tab+0x100>
    800073ae:	83f9                	srli	a5,a5,0x1e
    800073b0:	97ba                	add	a5,a5,a4
    800073b2:	439c                	lw	a5,0(a5)
    800073b4:	97ba                	add	a5,a5,a4
    800073b6:	8782                	jr	a5
    800073b8:	0405                	addi	s0,s0,1
    800073ba:	b78d                	j	8000731c <_svfprintf_r+0xb0>
    800073bc:	854a                	mv	a0,s2
    800073be:	00003097          	auipc	ra,0x3
    800073c2:	e68080e7          	jalr	-408(ra) # 8000a226 <_localeconv_r>
    800073c6:	651c                	ld	a5,8(a0)
    800073c8:	853e                	mv	a0,a5
    800073ca:	e4be                	sd	a5,72(sp)
    800073cc:	00003097          	auipc	ra,0x3
    800073d0:	024080e7          	jalr	36(ra) # 8000a3f0 <strlen>
    800073d4:	fc2a                	sd	a0,56(sp)
    800073d6:	854a                	mv	a0,s2
    800073d8:	00003097          	auipc	ra,0x3
    800073dc:	e4e080e7          	jalr	-434(ra) # 8000a226 <_localeconv_r>
    800073e0:	691c                	ld	a5,16(a0)
    800073e2:	e03e                	sd	a5,0(sp)
    800073e4:	77e2                	ld	a5,56(sp)
    800073e6:	c38d                	beqz	a5,80007408 <_svfprintf_r+0x19c>
    800073e8:	6782                	ld	a5,0(sp)
    800073ea:	cf99                	beqz	a5,80007408 <_svfprintf_r+0x19c>
    800073ec:	0007c783          	lbu	a5,0(a5)
    800073f0:	cf81                	beqz	a5,80007408 <_svfprintf_r+0x19c>
    800073f2:	40046413          	ori	s0,s0,1024
    800073f6:	2401                	sext.w	s0,s0
    800073f8:	a801                	j	80007408 <_svfprintf_r+0x19c>
    800073fa:	0af14783          	lbu	a5,175(sp)
    800073fe:	e789                	bnez	a5,80007408 <_svfprintf_r+0x19c>
    80007400:	02000793          	li	a5,32
    80007404:	0af107a3          	sb	a5,175(sp)
    80007408:	67a2                	ld	a5,8(sp)
    8000740a:	bfb5                	j	80007386 <_svfprintf_r+0x11a>
    8000740c:	00146413          	ori	s0,s0,1
    80007410:	b7dd                	j	800073f6 <_svfprintf_r+0x18a>
    80007412:	000b2783          	lw	a5,0(s6)
    80007416:	0b21                	addi	s6,s6,8
    80007418:	ec3e                	sd	a5,24(sp)
    8000741a:	fe07d7e3          	bgez	a5,80007408 <_svfprintf_r+0x19c>
    8000741e:	40f007bb          	negw	a5,a5
    80007422:	ec3e                	sd	a5,24(sp)
    80007424:	00446413          	ori	s0,s0,4
    80007428:	b7f9                	j	800073f6 <_svfprintf_r+0x18a>
    8000742a:	02b00793          	li	a5,43
    8000742e:	bfd9                	j	80007404 <_svfprintf_r+0x198>
    80007430:	6722                	ld	a4,8(sp)
    80007432:	67a2                	ld	a5,8(sp)
    80007434:	00074a83          	lbu	s5,0(a4)
    80007438:	0785                	addi	a5,a5,1
    8000743a:	02ca9e63          	bne	s5,a2,80007476 <_svfprintf_r+0x20a>
    8000743e:	000b2e03          	lw	t3,0(s6)
    80007442:	008b0713          	addi	a4,s6,8
    80007446:	020e1693          	slli	a3,t3,0x20
    8000744a:	0006d363          	bgez	a3,80007450 <_svfprintf_r+0x1e4>
    8000744e:	5e7d                	li	t3,-1
    80007450:	000e0d9b          	sext.w	s11,t3
    80007454:	8b3a                	mv	s6,a4
    80007456:	e43e                	sd	a5,8(sp)
    80007458:	bf45                	j	80007408 <_svfprintf_r+0x19c>
    8000745a:	03bb8e3b          	mulw	t3,s7,s11
    8000745e:	0785                	addi	a5,a5,1
    80007460:	fff7ca83          	lbu	s5,-1(a5)
    80007464:	00ee0dbb          	addw	s11,t3,a4
    80007468:	fd0a859b          	addiw	a1,s5,-48
    8000746c:	872e                	mv	a4,a1
    8000746e:	febd76e3          	bleu	a1,s10,8000745a <_svfprintf_r+0x1ee>
    80007472:	e43e                	sd	a5,8(sp)
    80007474:	b715                	j	80007398 <_svfprintf_r+0x12c>
    80007476:	4d81                	li	s11,0
    80007478:	bfc5                	j	80007468 <_svfprintf_r+0x1fc>
    8000747a:	08046413          	ori	s0,s0,128
    8000747e:	bfa5                	j	800073f6 <_svfprintf_r+0x18a>
    80007480:	67a2                	ld	a5,8(sp)
    80007482:	ec02                	sd	zero,24(sp)
    80007484:	6762                	ld	a4,24(sp)
    80007486:	fd0a8a9b          	addiw	s5,s5,-48
    8000748a:	0785                	addi	a5,a5,1
    8000748c:	02eb873b          	mulw	a4,s7,a4
    80007490:	00ea873b          	addw	a4,s5,a4
    80007494:	fff7ca83          	lbu	s5,-1(a5)
    80007498:	ec3a                	sd	a4,24(sp)
    8000749a:	fd0a871b          	addiw	a4,s5,-48
    8000749e:	feed73e3          	bleu	a4,s10,80007484 <_svfprintf_r+0x218>
    800074a2:	bfc1                	j	80007472 <_svfprintf_r+0x206>
    800074a4:	00846413          	ori	s0,s0,8
    800074a8:	b7b9                	j	800073f6 <_svfprintf_r+0x18a>
    800074aa:	67a2                	ld	a5,8(sp)
    800074ac:	0007c703          	lbu	a4,0(a5)
    800074b0:	06800793          	li	a5,104
    800074b4:	00f71863          	bne	a4,a5,800074c4 <_svfprintf_r+0x258>
    800074b8:	67a2                	ld	a5,8(sp)
    800074ba:	20046413          	ori	s0,s0,512
    800074be:	0785                	addi	a5,a5,1
    800074c0:	e43e                	sd	a5,8(sp)
    800074c2:	bf15                	j	800073f6 <_svfprintf_r+0x18a>
    800074c4:	04046413          	ori	s0,s0,64
    800074c8:	b73d                	j	800073f6 <_svfprintf_r+0x18a>
    800074ca:	67a2                	ld	a5,8(sp)
    800074cc:	0007c703          	lbu	a4,0(a5)
    800074d0:	06c00793          	li	a5,108
    800074d4:	00f71863          	bne	a4,a5,800074e4 <_svfprintf_r+0x278>
    800074d8:	67a2                	ld	a5,8(sp)
    800074da:	0785                	addi	a5,a5,1
    800074dc:	e43e                	sd	a5,8(sp)
    800074de:	02046413          	ori	s0,s0,32
    800074e2:	bf11                	j	800073f6 <_svfprintf_r+0x18a>
    800074e4:	01046413          	ori	s0,s0,16
    800074e8:	b739                	j	800073f6 <_svfprintf_r+0x18a>
    800074ea:	008b0793          	addi	a5,s6,8
    800074ee:	f43e                	sd	a5,40(sp)
    800074f0:	000b2783          	lw	a5,0(s6)
    800074f4:	0a0107a3          	sb	zero,175(sp)
    800074f8:	0ef10c23          	sb	a5,248(sp)
    800074fc:	4b01                	li	s6,0
    800074fe:	4d85                	li	s11,1
    80007500:	4701                	li	a4,0
    80007502:	4d01                	li	s10,0
    80007504:	4b81                	li	s7,0
    80007506:	4c81                	li	s9,0
    80007508:	19a4                	addi	s1,sp,248
    8000750a:	86ba                	mv	a3,a4
    8000750c:	01b75363          	ble	s11,a4,80007512 <_svfprintf_r+0x2a6>
    80007510:	86ee                	mv	a3,s11
    80007512:	0af14603          	lbu	a2,175(sp)
    80007516:	0006879b          	sext.w	a5,a3
    8000751a:	f83e                	sd	a5,48(sp)
    8000751c:	c601                	beqz	a2,80007524 <_svfprintf_r+0x2b8>
    8000751e:	0016879b          	addiw	a5,a3,1
    80007522:	f83e                	sd	a5,48(sp)
    80007524:	00247693          	andi	a3,s0,2
    80007528:	0006879b          	sext.w	a5,a3
    8000752c:	f0be                	sd	a5,96(sp)
    8000752e:	c781                	beqz	a5,80007536 <_svfprintf_r+0x2ca>
    80007530:	77c2                	ld	a5,48(sp)
    80007532:	2789                	addiw	a5,a5,2
    80007534:	f83e                	sd	a5,48(sp)
    80007536:	08447793          	andi	a5,s0,132
    8000753a:	f4be                	sd	a5,104(sp)
    8000753c:	efb9                	bnez	a5,8000759a <_svfprintf_r+0x32e>
    8000753e:	67e2                	ld	a5,24(sp)
    80007540:	76c2                	ld	a3,48(sp)
    80007542:	40d786bb          	subw	a3,a5,a3
    80007546:	04d05a63          	blez	a3,8000759a <_svfprintf_r+0x32e>
    8000754a:	48c1                	li	a7,16
    8000754c:	00006817          	auipc	a6,0x6
    80007550:	df480813          	addi	a6,a6,-524 # 8000d340 <blanks.4811>
    80007554:	4e9d                	li	t4,7
    80007556:	55ae                	lw	a1,232(sp)
    80007558:	010c3023          	sd	a6,0(s8)
    8000755c:	764e                	ld	a2,240(sp)
    8000755e:	0015851b          	addiw	a0,a1,1
    80007562:	85aa                	mv	a1,a0
    80007564:	010c0f13          	addi	t5,s8,16
    80007568:	2ad8c0e3          	blt	a7,a3,80008008 <_svfprintf_r+0xd9c>
    8000756c:	00dc3423          	sd	a3,8(s8)
    80007570:	96b2                	add	a3,a3,a2
    80007572:	f9b6                	sd	a3,240(sp)
    80007574:	d5aa                	sw	a0,232(sp)
    80007576:	469d                	li	a3,7
    80007578:	8c7a                	mv	s8,t5
    8000757a:	02a6d063          	ble	a0,a3,8000759a <_svfprintf_r+0x32e>
    8000757e:	1190                	addi	a2,sp,224
    80007580:	85ce                	mv	a1,s3
    80007582:	854a                	mv	a0,s2
    80007584:	f8ba                	sd	a4,112(sp)
    80007586:	00003097          	auipc	ra,0x3
    8000758a:	ea0080e7          	jalr	-352(ra) # 8000a426 <__ssprint_r>
    8000758e:	c119                	beqz	a0,80007594 <_svfprintf_r+0x328>
    80007590:	2640106f          	j	800087f4 <_svfprintf_r+0x1588>
    80007594:	7746                	ld	a4,112(sp)
    80007596:	16010c13          	addi	s8,sp,352
    8000759a:	0af14683          	lbu	a3,175(sp)
    8000759e:	c2a9                	beqz	a3,800075e0 <_svfprintf_r+0x374>
    800075a0:	0af10693          	addi	a3,sp,175
    800075a4:	00dc3023          	sd	a3,0(s8)
    800075a8:	4685                	li	a3,1
    800075aa:	00dc3423          	sd	a3,8(s8)
    800075ae:	76ce                	ld	a3,240(sp)
    800075b0:	0c41                	addi	s8,s8,16
    800075b2:	0685                	addi	a3,a3,1
    800075b4:	f9b6                	sd	a3,240(sp)
    800075b6:	56ae                	lw	a3,232(sp)
    800075b8:	0016861b          	addiw	a2,a3,1
    800075bc:	d5b2                	sw	a2,232(sp)
    800075be:	469d                	li	a3,7
    800075c0:	02c6d063          	ble	a2,a3,800075e0 <_svfprintf_r+0x374>
    800075c4:	1190                	addi	a2,sp,224
    800075c6:	85ce                	mv	a1,s3
    800075c8:	854a                	mv	a0,s2
    800075ca:	f8ba                	sd	a4,112(sp)
    800075cc:	00003097          	auipc	ra,0x3
    800075d0:	e5a080e7          	jalr	-422(ra) # 8000a426 <__ssprint_r>
    800075d4:	c119                	beqz	a0,800075da <_svfprintf_r+0x36e>
    800075d6:	21e0106f          	j	800087f4 <_svfprintf_r+0x1588>
    800075da:	7746                	ld	a4,112(sp)
    800075dc:	16010c13          	addi	s8,sp,352
    800075e0:	7786                	ld	a5,96(sp)
    800075e2:	c3a1                	beqz	a5,80007622 <_svfprintf_r+0x3b6>
    800075e4:	1914                	addi	a3,sp,176
    800075e6:	00dc3023          	sd	a3,0(s8)
    800075ea:	4689                	li	a3,2
    800075ec:	00dc3423          	sd	a3,8(s8)
    800075f0:	76ce                	ld	a3,240(sp)
    800075f2:	0c41                	addi	s8,s8,16
    800075f4:	0689                	addi	a3,a3,2
    800075f6:	f9b6                	sd	a3,240(sp)
    800075f8:	56ae                	lw	a3,232(sp)
    800075fa:	0016861b          	addiw	a2,a3,1
    800075fe:	d5b2                	sw	a2,232(sp)
    80007600:	469d                	li	a3,7
    80007602:	02c6d063          	ble	a2,a3,80007622 <_svfprintf_r+0x3b6>
    80007606:	1190                	addi	a2,sp,224
    80007608:	85ce                	mv	a1,s3
    8000760a:	854a                	mv	a0,s2
    8000760c:	f0ba                	sd	a4,96(sp)
    8000760e:	00003097          	auipc	ra,0x3
    80007612:	e18080e7          	jalr	-488(ra) # 8000a426 <__ssprint_r>
    80007616:	c119                	beqz	a0,8000761c <_svfprintf_r+0x3b0>
    80007618:	1dc0106f          	j	800087f4 <_svfprintf_r+0x1588>
    8000761c:	7706                	ld	a4,96(sp)
    8000761e:	16010c13          	addi	s8,sp,352
    80007622:	77a6                	ld	a5,104(sp)
    80007624:	08000693          	li	a3,128
    80007628:	06d79063          	bne	a5,a3,80007688 <_svfprintf_r+0x41c>
    8000762c:	67e2                	ld	a5,24(sp)
    8000762e:	76c2                	ld	a3,48(sp)
    80007630:	40d786bb          	subw	a3,a5,a3
    80007634:	04d05a63          	blez	a3,80007688 <_svfprintf_r+0x41c>
    80007638:	4841                	li	a6,16
    8000763a:	489d                	li	a7,7
    8000763c:	55ae                	lw	a1,232(sp)
    8000763e:	00006797          	auipc	a5,0x6
    80007642:	d1278793          	addi	a5,a5,-750 # 8000d350 <zeroes.4812>
    80007646:	00fc3023          	sd	a5,0(s8)
    8000764a:	0015851b          	addiw	a0,a1,1
    8000764e:	764e                	ld	a2,240(sp)
    80007650:	85aa                	mv	a1,a0
    80007652:	010c0e93          	addi	t4,s8,16
    80007656:	1ed849e3          	blt	a6,a3,80008048 <_svfprintf_r+0xddc>
    8000765a:	00dc3423          	sd	a3,8(s8)
    8000765e:	96b2                	add	a3,a3,a2
    80007660:	f9b6                	sd	a3,240(sp)
    80007662:	d5aa                	sw	a0,232(sp)
    80007664:	469d                	li	a3,7
    80007666:	8c76                	mv	s8,t4
    80007668:	02a6d063          	ble	a0,a3,80007688 <_svfprintf_r+0x41c>
    8000766c:	1190                	addi	a2,sp,224
    8000766e:	85ce                	mv	a1,s3
    80007670:	854a                	mv	a0,s2
    80007672:	f0ba                	sd	a4,96(sp)
    80007674:	00003097          	auipc	ra,0x3
    80007678:	db2080e7          	jalr	-590(ra) # 8000a426 <__ssprint_r>
    8000767c:	c119                	beqz	a0,80007682 <_svfprintf_r+0x416>
    8000767e:	1760106f          	j	800087f4 <_svfprintf_r+0x1588>
    80007682:	7706                	ld	a4,96(sp)
    80007684:	16010c13          	addi	s8,sp,352
    80007688:	41b7073b          	subw	a4,a4,s11
    8000768c:	04e05863          	blez	a4,800076dc <_svfprintf_r+0x470>
    80007690:	4841                	li	a6,16
    80007692:	489d                	li	a7,7
    80007694:	562e                	lw	a2,232(sp)
    80007696:	00006797          	auipc	a5,0x6
    8000769a:	cba78793          	addi	a5,a5,-838 # 8000d350 <zeroes.4812>
    8000769e:	00fc3023          	sd	a5,0(s8)
    800076a2:	0016059b          	addiw	a1,a2,1
    800076a6:	76ce                	ld	a3,240(sp)
    800076a8:	862e                	mv	a2,a1
    800076aa:	010c0513          	addi	a0,s8,16
    800076ae:	1ce849e3          	blt	a6,a4,80008080 <_svfprintf_r+0xe14>
    800076b2:	00ec3423          	sd	a4,8(s8)
    800076b6:	9736                	add	a4,a4,a3
    800076b8:	f9ba                	sd	a4,240(sp)
    800076ba:	d5ae                	sw	a1,232(sp)
    800076bc:	471d                	li	a4,7
    800076be:	8c2a                	mv	s8,a0
    800076c0:	00b75e63          	ble	a1,a4,800076dc <_svfprintf_r+0x470>
    800076c4:	1190                	addi	a2,sp,224
    800076c6:	85ce                	mv	a1,s3
    800076c8:	854a                	mv	a0,s2
    800076ca:	00003097          	auipc	ra,0x3
    800076ce:	d5c080e7          	jalr	-676(ra) # 8000a426 <__ssprint_r>
    800076d2:	c119                	beqz	a0,800076d8 <_svfprintf_r+0x46c>
    800076d4:	1200106f          	j	800087f4 <_svfprintf_r+0x1588>
    800076d8:	16010c13          	addi	s8,sp,352
    800076dc:	10047693          	andi	a3,s0,256
    800076e0:	774e                	ld	a4,240(sp)
    800076e2:	1c0698e3          	bnez	a3,800080b2 <_svfprintf_r+0xe46>
    800076e6:	57ae                	lw	a5,232(sp)
    800076e8:	00ed8e33          	add	t3,s11,a4
    800076ec:	009c3023          	sd	s1,0(s8)
    800076f0:	0017871b          	addiw	a4,a5,1
    800076f4:	01bc3423          	sd	s11,8(s8)
    800076f8:	f9f2                	sd	t3,240(sp)
    800076fa:	d5ba                	sw	a4,232(sp)
    800076fc:	479d                	li	a5,7
    800076fe:	0c41                	addi	s8,s8,16
    80007700:	3ce7d2e3          	ble	a4,a5,800082c4 <_svfprintf_r+0x1058>
    80007704:	1190                	addi	a2,sp,224
    80007706:	85ce                	mv	a1,s3
    80007708:	854a                	mv	a0,s2
    8000770a:	00003097          	auipc	ra,0x3
    8000770e:	d1c080e7          	jalr	-740(ra) # 8000a426 <__ssprint_r>
    80007712:	c119                	beqz	a0,80007718 <_svfprintf_r+0x4ac>
    80007714:	0e00106f          	j	800087f4 <_svfprintf_r+0x1588>
    80007718:	16010c13          	addi	s8,sp,352
    8000771c:	3a90006f          	j	800082c4 <_svfprintf_r+0x1058>
    80007720:	01046413          	ori	s0,s0,16
    80007724:	2401                	sext.w	s0,s0
    80007726:	008b0793          	addi	a5,s6,8
    8000772a:	f43e                	sd	a5,40(sp)
    8000772c:	02047793          	andi	a5,s0,32
    80007730:	cf95                	beqz	a5,8000776c <_svfprintf_r+0x500>
    80007732:	000b3b03          	ld	s6,0(s6)
    80007736:	000b4463          	bltz	s6,8000773e <_svfprintf_r+0x4d2>
    8000773a:	11c0106f          	j	80008856 <_svfprintf_r+0x15ea>
    8000773e:	02d00793          	li	a5,45
    80007742:	0af107a3          	sb	a5,175(sp)
    80007746:	41600b33          	neg	s6,s6
    8000774a:	4785                	li	a5,1
    8000774c:	577d                	li	a4,-1
    8000774e:	7aed8963          	beq	s11,a4,80007f00 <_svfprintf_r+0xc94>
    80007752:	8722                	mv	a4,s0
    80007754:	f7f47413          	andi	s0,s0,-129
    80007758:	2401                	sext.w	s0,s0
    8000775a:	7a0b1363          	bnez	s6,80007f00 <_svfprintf_r+0xc94>
    8000775e:	080d82e3          	beqz	s11,80007fe2 <_svfprintf_r+0xd76>
    80007762:	4705                	li	a4,1
    80007764:	7ae79163          	bne	a5,a4,80007f06 <_svfprintf_r+0xc9a>
    80007768:	0fa0106f          	j	80008862 <_svfprintf_r+0x15f6>
    8000776c:	01047793          	andi	a5,s0,16
    80007770:	f3e9                	bnez	a5,80007732 <_svfprintf_r+0x4c6>
    80007772:	04047793          	andi	a5,s0,64
    80007776:	c781                	beqz	a5,8000777e <_svfprintf_r+0x512>
    80007778:	000b1b03          	lh	s6,0(s6)
    8000777c:	bf6d                	j	80007736 <_svfprintf_r+0x4ca>
    8000777e:	20047793          	andi	a5,s0,512
    80007782:	c781                	beqz	a5,8000778a <_svfprintf_r+0x51e>
    80007784:	000b0b03          	lb	s6,0(s6)
    80007788:	b77d                	j	80007736 <_svfprintf_r+0x4ca>
    8000778a:	000b2b03          	lw	s6,0(s6)
    8000778e:	b765                	j	80007736 <_svfprintf_r+0x4ca>
    80007790:	00847793          	andi	a5,s0,8
    80007794:	c7bd                	beqz	a5,80007802 <_svfprintf_r+0x596>
    80007796:	0b3d                	addi	s6,s6,15
    80007798:	ff0b7b13          	andi	s6,s6,-16
    8000779c:	010b0793          	addi	a5,s6,16
    800077a0:	f43e                	sd	a5,40(sp)
    800077a2:	000b3783          	ld	a5,0(s6)
    800077a6:	e9be                	sd	a5,208(sp)
    800077a8:	008b3783          	ld	a5,8(s6)
    800077ac:	edbe                	sd	a5,216(sp)
    800077ae:	0988                	addi	a0,sp,208
    800077b0:	00003097          	auipc	ra,0x3
    800077b4:	a38080e7          	jalr	-1480(ra) # 8000a1e8 <_ldcheck>
    800077b8:	dd2a                	sw	a0,184(sp)
    800077ba:	4789                	li	a5,2
    800077bc:	04f51f63          	bne	a0,a5,8000781a <_svfprintf_r+0x5ae>
    800077c0:	654e                	ld	a0,208(sp)
    800077c2:	65ee                	ld	a1,216(sp)
    800077c4:	4601                	li	a2,0
    800077c6:	4681                	li	a3,0
    800077c8:	00003097          	auipc	ra,0x3
    800077cc:	462080e7          	jalr	1122(ra) # 8000ac2a <__letf2>
    800077d0:	00055663          	bgez	a0,800077dc <_svfprintf_r+0x570>
    800077d4:	02d00793          	li	a5,45
    800077d8:	0af107a3          	sb	a5,175(sp)
    800077dc:	04700793          	li	a5,71
    800077e0:	00006497          	auipc	s1,0x6
    800077e4:	b1048493          	addi	s1,s1,-1264 # 8000d2f0 <__clz_tab+0x2a8>
    800077e8:	0157d663          	ble	s5,a5,800077f4 <_svfprintf_r+0x588>
    800077ec:	00006497          	auipc	s1,0x6
    800077f0:	b0c48493          	addi	s1,s1,-1268 # 8000d2f8 <__clz_tab+0x2b0>
    800077f4:	f7f47413          	andi	s0,s0,-129
    800077f8:	2401                	sext.w	s0,s0
    800077fa:	4b01                	li	s6,0
    800077fc:	4d8d                	li	s11,3
    800077fe:	4701                	li	a4,0
    80007800:	a7a1                	j	80007f48 <_svfprintf_r+0xcdc>
    80007802:	000b3503          	ld	a0,0(s6)
    80007806:	008b0793          	addi	a5,s6,8
    8000780a:	f43e                	sd	a5,40(sp)
    8000780c:	00004097          	auipc	ra,0x4
    80007810:	444080e7          	jalr	1092(ra) # 8000bc50 <__extenddftf2>
    80007814:	e9aa                	sd	a0,208(sp)
    80007816:	edae                	sd	a1,216(sp)
    80007818:	bf59                	j	800077ae <_svfprintf_r+0x542>
    8000781a:	4785                	li	a5,1
    8000781c:	02f51663          	bne	a0,a5,80007848 <_svfprintf_r+0x5dc>
    80007820:	67ee                	ld	a5,216(sp)
    80007822:	0007d663          	bgez	a5,8000782e <_svfprintf_r+0x5c2>
    80007826:	02d00793          	li	a5,45
    8000782a:	0af107a3          	sb	a5,175(sp)
    8000782e:	04700793          	li	a5,71
    80007832:	00006497          	auipc	s1,0x6
    80007836:	ace48493          	addi	s1,s1,-1330 # 8000d300 <__clz_tab+0x2b8>
    8000783a:	fb57dde3          	ble	s5,a5,800077f4 <_svfprintf_r+0x588>
    8000783e:	00006497          	auipc	s1,0x6
    80007842:	aca48493          	addi	s1,s1,-1334 # 8000d308 <__clz_tab+0x2c0>
    80007846:	b77d                	j	800077f4 <_svfprintf_r+0x588>
    80007848:	fdfafb93          	andi	s7,s5,-33
    8000784c:	04100793          	li	a5,65
    80007850:	08fb9863          	bne	s7,a5,800078e0 <_svfprintf_r+0x674>
    80007854:	03000793          	li	a5,48
    80007858:	0af10823          	sb	a5,176(sp)
    8000785c:	06100713          	li	a4,97
    80007860:	07800793          	li	a5,120
    80007864:	00ea8463          	beq	s5,a4,8000786c <_svfprintf_r+0x600>
    80007868:	05800793          	li	a5,88
    8000786c:	0af108a3          	sb	a5,177(sp)
    80007870:	00246413          	ori	s0,s0,2
    80007874:	06300793          	li	a5,99
    80007878:	2401                	sext.w	s0,s0
    8000787a:	2db7df63          	ble	s11,a5,80007b58 <_svfprintf_r+0x8ec>
    8000787e:	001d859b          	addiw	a1,s11,1
    80007882:	854a                	mv	a0,s2
    80007884:	fffff097          	auipc	ra,0xfffff
    80007888:	436080e7          	jalr	1078(ra) # 80006cba <_malloc_r>
    8000788c:	84aa                	mv	s1,a0
    8000788e:	2c051863          	bnez	a0,80007b5e <_svfprintf_r+0x8f2>
    80007892:	0109d783          	lhu	a5,16(s3)
    80007896:	0407e793          	ori	a5,a5,64
    8000789a:	00f99823          	sh	a5,16(s3)
    8000789e:	0109d783          	lhu	a5,16(s3)
    800078a2:	0407f793          	andi	a5,a5,64
    800078a6:	a40795e3          	bnez	a5,800072f0 <_svfprintf_r+0x84>
    800078aa:	24813083          	ld	ra,584(sp)
    800078ae:	24013403          	ld	s0,576(sp)
    800078b2:	7502                	ld	a0,32(sp)
    800078b4:	23813483          	ld	s1,568(sp)
    800078b8:	23013903          	ld	s2,560(sp)
    800078bc:	22813983          	ld	s3,552(sp)
    800078c0:	22013a03          	ld	s4,544(sp)
    800078c4:	21813a83          	ld	s5,536(sp)
    800078c8:	21013b03          	ld	s6,528(sp)
    800078cc:	20813b83          	ld	s7,520(sp)
    800078d0:	20013c03          	ld	s8,512(sp)
    800078d4:	7cfe                	ld	s9,504(sp)
    800078d6:	7d5e                	ld	s10,496(sp)
    800078d8:	7dbe                	ld	s11,488(sp)
    800078da:	25010113          	addi	sp,sp,592
    800078de:	8082                	ret
    800078e0:	57fd                	li	a5,-1
    800078e2:	28fd8063          	beq	s11,a5,80007b62 <_svfprintf_r+0x8f6>
    800078e6:	04700793          	li	a5,71
    800078ea:	4b01                	li	s6,0
    800078ec:	00fb9663          	bne	s7,a5,800078f8 <_svfprintf_r+0x68c>
    800078f0:	000d9463          	bnez	s11,800078f8 <_svfprintf_r+0x68c>
    800078f4:	8b6e                	mv	s6,s11
    800078f6:	4d85                	li	s11,1
    800078f8:	10046793          	ori	a5,s0,256
    800078fc:	6a6e                	ld	s4,216(sp)
    800078fe:	2781                	sext.w	a5,a5
    80007900:	f0be                	sd	a5,96(sp)
    80007902:	fc82                	sd	zero,120(sp)
    80007904:	6ece                	ld	t4,208(sp)
    80007906:	000a5963          	bgez	s4,80007918 <_svfprintf_r+0x6ac>
    8000790a:	57fd                	li	a5,-1
    8000790c:	17fe                	slli	a5,a5,0x3f
    8000790e:	00fa4a33          	xor	s4,s4,a5
    80007912:	02d00793          	li	a5,45
    80007916:	fcbe                	sd	a5,120(sp)
    80007918:	04100793          	li	a5,65
    8000791c:	26fb9f63          	bne	s7,a5,80007b9a <_svfprintf_r+0x92e>
    80007920:	8576                	mv	a0,t4
    80007922:	85d2                	mv	a1,s4
    80007924:	00004097          	auipc	ra,0x4
    80007928:	3f8080e7          	jalr	1016(ra) # 8000bd1c <__trunctfdf2>
    8000792c:	192c                	addi	a1,sp,184
    8000792e:	00003097          	auipc	ra,0x3
    80007932:	9d6080e7          	jalr	-1578(ra) # 8000a304 <frexp>
    80007936:	00004097          	auipc	ra,0x4
    8000793a:	31a080e7          	jalr	794(ra) # 8000bc50 <__extenddftf2>
    8000793e:	00006797          	auipc	a5,0x6
    80007942:	98278793          	addi	a5,a5,-1662 # 8000d2c0 <__clz_tab+0x278>
    80007946:	6794                	ld	a3,8(a5)
    80007948:	4601                	li	a2,0
    8000794a:	00003097          	auipc	ra,0x3
    8000794e:	392080e7          	jalr	914(ra) # 8000acdc <__multf3>
    80007952:	4601                	li	a2,0
    80007954:	4681                	li	a3,0
    80007956:	e12a                	sd	a0,128(sp)
    80007958:	8a2e                	mv	s4,a1
    8000795a:	00003097          	auipc	ra,0x3
    8000795e:	182080e7          	jalr	386(ra) # 8000aadc <__eqtf2>
    80007962:	e119                	bnez	a0,80007968 <_svfprintf_r+0x6fc>
    80007964:	4785                	li	a5,1
    80007966:	dd3e                	sw	a5,184(sp)
    80007968:	00006717          	auipc	a4,0x6
    8000796c:	9a870713          	addi	a4,a4,-1624 # 8000d310 <__clz_tab+0x2c8>
    80007970:	06100793          	li	a5,97
    80007974:	f83a                	sd	a4,48(sp)
    80007976:	00fa8763          	beq	s5,a5,80007984 <_svfprintf_r+0x718>
    8000797a:	00006797          	auipc	a5,0x6
    8000797e:	9ae78793          	addi	a5,a5,-1618 # 8000d328 <__clz_tab+0x2e0>
    80007982:	f83e                	sd	a5,48(sp)
    80007984:	00006697          	auipc	a3,0x6
    80007988:	94c68693          	addi	a3,a3,-1716 # 8000d2d0 <__clz_tab+0x288>
    8000798c:	669c                	ld	a5,8(a3)
    8000798e:	fffd871b          	addiw	a4,s11,-1
    80007992:	8ca6                	mv	s9,s1
    80007994:	e53e                	sd	a5,136(sp)
    80007996:	66aa                	ld	a3,136(sp)
    80007998:	650a                	ld	a0,128(sp)
    8000799a:	4601                	li	a2,0
    8000799c:	85d2                	mv	a1,s4
    8000799e:	f4ba                	sd	a4,104(sp)
    800079a0:	00003097          	auipc	ra,0x3
    800079a4:	33c080e7          	jalr	828(ra) # 8000acdc <__multf3>
    800079a8:	8a2e                	mv	s4,a1
    800079aa:	8d2a                	mv	s10,a0
    800079ac:	00004097          	auipc	ra,0x4
    800079b0:	1a6080e7          	jalr	422(ra) # 8000bb52 <__fixtfsi>
    800079b4:	0005079b          	sext.w	a5,a0
    800079b8:	f8be                	sd	a5,112(sp)
    800079ba:	00004097          	auipc	ra,0x4
    800079be:	228080e7          	jalr	552(ra) # 8000bbe2 <__floatsitf>
    800079c2:	86ae                	mv	a3,a1
    800079c4:	862a                	mv	a2,a0
    800079c6:	85d2                	mv	a1,s4
    800079c8:	856a                	mv	a0,s10
    800079ca:	00004097          	auipc	ra,0x4
    800079ce:	950080e7          	jalr	-1712(ra) # 8000b31a <__subtf3>
    800079d2:	77c2                	ld	a5,48(sp)
    800079d4:	7746                	ld	a4,112(sp)
    800079d6:	0c85                	addi	s9,s9,1
    800079d8:	e12a                	sd	a0,128(sp)
    800079da:	00e786b3          	add	a3,a5,a4
    800079de:	7726                	ld	a4,104(sp)
    800079e0:	0006c683          	lbu	a3,0(a3)
    800079e4:	88aa                	mv	a7,a0
    800079e6:	0007079b          	sext.w	a5,a4
    800079ea:	f4be                	sd	a5,104(sp)
    800079ec:	fedc8fa3          	sb	a3,-1(s9)
    800079f0:	57fd                	li	a5,-1
    800079f2:	8d2e                	mv	s10,a1
    800079f4:	8a2e                	mv	s4,a1
    800079f6:	16f70963          	beq	a4,a5,80007b68 <_svfprintf_r+0x8fc>
    800079fa:	377d                	addiw	a4,a4,-1
    800079fc:	4601                	li	a2,0
    800079fe:	4681                	li	a3,0
    80007a00:	e93a                	sd	a4,144(sp)
    80007a02:	ed2a                	sd	a0,152(sp)
    80007a04:	00003097          	auipc	ra,0x3
    80007a08:	0d8080e7          	jalr	216(ra) # 8000aadc <__eqtf2>
    80007a0c:	674a                	ld	a4,144(sp)
    80007a0e:	68ea                	ld	a7,152(sp)
    80007a10:	f159                	bnez	a0,80007996 <_svfprintf_r+0x72a>
    80007a12:	00006717          	auipc	a4,0x6
    80007a16:	8ce70713          	addi	a4,a4,-1842 # 8000d2e0 <__clz_tab+0x298>
    80007a1a:	00873a03          	ld	s4,8(a4)
    80007a1e:	4601                	li	a2,0
    80007a20:	8546                	mv	a0,a7
    80007a22:	86d2                	mv	a3,s4
    80007a24:	85ea                	mv	a1,s10
    80007a26:	e146                	sd	a7,128(sp)
    80007a28:	00003097          	auipc	ra,0x3
    80007a2c:	150080e7          	jalr	336(ra) # 8000ab78 <__getf2>
    80007a30:	02a04263          	bgtz	a0,80007a54 <_svfprintf_r+0x7e8>
    80007a34:	688a                	ld	a7,128(sp)
    80007a36:	4601                	li	a2,0
    80007a38:	86d2                	mv	a3,s4
    80007a3a:	8546                	mv	a0,a7
    80007a3c:	85ea                	mv	a1,s10
    80007a3e:	00003097          	auipc	ra,0x3
    80007a42:	09e080e7          	jalr	158(ra) # 8000aadc <__eqtf2>
    80007a46:	14051363          	bnez	a0,80007b8c <_svfprintf_r+0x920>
    80007a4a:	77c6                	ld	a5,112(sp)
    80007a4c:	0017f713          	andi	a4,a5,1
    80007a50:	12070e63          	beqz	a4,80007b8c <_svfprintf_r+0x920>
    80007a54:	77c2                	ld	a5,48(sp)
    80007a56:	e5e6                	sd	s9,200(sp)
    80007a58:	03000593          	li	a1,48
    80007a5c:	00f7c603          	lbu	a2,15(a5)
    80007a60:	66ae                	ld	a3,200(sp)
    80007a62:	fff68713          	addi	a4,a3,-1
    80007a66:	e5ba                	sd	a4,200(sp)
    80007a68:	fff6c703          	lbu	a4,-1(a3)
    80007a6c:	10c70163          	beq	a4,a2,80007b6e <_svfprintf_r+0x902>
    80007a70:	03900613          	li	a2,57
    80007a74:	10c71063          	bne	a4,a2,80007b74 <_svfprintf_r+0x908>
    80007a78:	77c2                	ld	a5,48(sp)
    80007a7a:	00a7c703          	lbu	a4,10(a5)
    80007a7e:	fee68fa3          	sb	a4,-1(a3)
    80007a82:	8a66                	mv	s4,s9
    80007a84:	04700713          	li	a4,71
    80007a88:	409a0a3b          	subw	s4,s4,s1
    80007a8c:	5cea                	lw	s9,184(sp)
    80007a8e:	1ceb9163          	bne	s7,a4,80007c50 <_svfprintf_r+0x9e4>
    80007a92:	5775                	li	a4,-3
    80007a94:	00ecc463          	blt	s9,a4,80007a9c <_svfprintf_r+0x830>
    80007a98:	219ddf63          	ble	s9,s11,80007cb6 <_svfprintf_r+0xa4a>
    80007a9c:	3af9                	addiw	s5,s5,-2
    80007a9e:	fffc869b          	addiw	a3,s9,-1
    80007aa2:	dd36                	sw	a3,184(sp)
    80007aa4:	fdfaf613          	andi	a2,s5,-33
    80007aa8:	04100513          	li	a0,65
    80007aac:	0ffaf713          	andi	a4,s5,255
    80007ab0:	4581                	li	a1,0
    80007ab2:	00a61663          	bne	a2,a0,80007abe <_svfprintf_r+0x852>
    80007ab6:	273d                	addiw	a4,a4,15
    80007ab8:	0ff77713          	andi	a4,a4,255
    80007abc:	4585                	li	a1,1
    80007abe:	0ce10023          	sb	a4,192(sp)
    80007ac2:	02b00793          	li	a5,43
    80007ac6:	0006d763          	bgez	a3,80007ad4 <_svfprintf_r+0x868>
    80007aca:	4685                	li	a3,1
    80007acc:	419686bb          	subw	a3,a3,s9
    80007ad0:	02d00793          	li	a5,45
    80007ad4:	0cf100a3          	sb	a5,193(sp)
    80007ad8:	47a5                	li	a5,9
    80007ada:	1ad7d963          	ble	a3,a5,80007c8c <_svfprintf_r+0xa20>
    80007ade:	0cf10713          	addi	a4,sp,207
    80007ae2:	853a                	mv	a0,a4
    80007ae4:	45a9                	li	a1,10
    80007ae6:	06300813          	li	a6,99
    80007aea:	02b6e7bb          	remw	a5,a3,a1
    80007aee:	fff70613          	addi	a2,a4,-1
    80007af2:	0307879b          	addiw	a5,a5,48
    80007af6:	fef70fa3          	sb	a5,-1(a4)
    80007afa:	02b6c7bb          	divw	a5,a3,a1
    80007afe:	16d84d63          	blt	a6,a3,80007c78 <_svfprintf_r+0xa0c>
    80007b02:	0307879b          	addiw	a5,a5,48
    80007b06:	fef60fa3          	sb	a5,-1(a2)
    80007b0a:	1779                	addi	a4,a4,-2
    80007b0c:	0c210613          	addi	a2,sp,194
    80007b10:	16a76763          	bltu	a4,a0,80007c7e <_svfprintf_r+0xa12>
    80007b14:	019c                	addi	a5,sp,192
    80007b16:	40f607bb          	subw	a5,a2,a5
    80007b1a:	e8be                	sd	a5,80(sp)
    80007b1c:	01478dbb          	addw	s11,a5,s4
    80007b20:	4705                	li	a4,1
    80007b22:	87ee                	mv	a5,s11
    80007b24:	01474563          	blt	a4,s4,80007b2e <_svfprintf_r+0x8c2>
    80007b28:	00147713          	andi	a4,s0,1
    80007b2c:	c701                	beqz	a4,80007b34 <_svfprintf_r+0x8c8>
    80007b2e:	6742                	ld	a4,16(sp)
    80007b30:	00e78dbb          	addw	s11,a5,a4
    80007b34:	bff47413          	andi	s0,s0,-1025
    80007b38:	2401                	sext.w	s0,s0
    80007b3a:	10046793          	ori	a5,s0,256
    80007b3e:	f0be                	sd	a5,96(sp)
    80007b40:	4d01                	li	s10,0
    80007b42:	4b81                	li	s7,0
    80007b44:	4c81                	li	s9,0
    80007b46:	77e6                	ld	a5,120(sp)
    80007b48:	c789                	beqz	a5,80007b52 <_svfprintf_r+0x8e6>
    80007b4a:	02d00713          	li	a4,45
    80007b4e:	0ae107a3          	sb	a4,175(sp)
    80007b52:	7406                	ld	s0,96(sp)
    80007b54:	4701                	li	a4,0
    80007b56:	ba55                	j	8000750a <_svfprintf_r+0x29e>
    80007b58:	4b01                	li	s6,0
    80007b5a:	19a4                	addi	s1,sp,248
    80007b5c:	bb71                	j	800078f8 <_svfprintf_r+0x68c>
    80007b5e:	8b2a                	mv	s6,a0
    80007b60:	bb61                	j	800078f8 <_svfprintf_r+0x68c>
    80007b62:	4b01                	li	s6,0
    80007b64:	4d99                	li	s11,6
    80007b66:	bb49                	j	800078f8 <_svfprintf_r+0x68c>
    80007b68:	57fd                	li	a5,-1
    80007b6a:	f4be                	sd	a5,104(sp)
    80007b6c:	b55d                	j	80007a12 <_svfprintf_r+0x7a6>
    80007b6e:	feb68fa3          	sb	a1,-1(a3)
    80007b72:	b5fd                	j	80007a60 <_svfprintf_r+0x7f4>
    80007b74:	2705                	addiw	a4,a4,1
    80007b76:	0ff77713          	andi	a4,a4,255
    80007b7a:	b711                	j	80007a7e <_svfprintf_r+0x812>
    80007b7c:	0a05                	addi	s4,s4,1
    80007b7e:	feda0fa3          	sb	a3,-1(s4)
    80007b82:	4147873b          	subw	a4,a5,s4
    80007b86:	fe075be3          	bgez	a4,80007b7c <_svfprintf_r+0x910>
    80007b8a:	bded                	j	80007a84 <_svfprintf_r+0x818>
    80007b8c:	77a6                	ld	a5,104(sp)
    80007b8e:	8a66                	mv	s4,s9
    80007b90:	03000693          	li	a3,48
    80007b94:	00fc87bb          	addw	a5,s9,a5
    80007b98:	b7ed                	j	80007b82 <_svfprintf_r+0x916>
    80007b9a:	04600793          	li	a5,70
    80007b9e:	00fb8b63          	beq	s7,a5,80007bb4 <_svfprintf_r+0x948>
    80007ba2:	04500793          	li	a5,69
    80007ba6:	8d6e                	mv	s10,s11
    80007ba8:	00fb9463          	bne	s7,a5,80007bb0 <_svfprintf_r+0x944>
    80007bac:	001d8d1b          	addiw	s10,s11,1
    80007bb0:	4689                	li	a3,2
    80007bb2:	a019                	j	80007bb8 <_svfprintf_r+0x94c>
    80007bb4:	8d6e                	mv	s10,s11
    80007bb6:	468d                	li	a3,3
    80007bb8:	193c                	addi	a5,sp,184
    80007bba:	85f6                	mv	a1,t4
    80007bbc:	0c810893          	addi	a7,sp,200
    80007bc0:	0bc10813          	addi	a6,sp,188
    80007bc4:	876a                	mv	a4,s10
    80007bc6:	8652                	mv	a2,s4
    80007bc8:	854a                	mv	a0,s2
    80007bca:	f876                	sd	t4,48(sp)
    80007bcc:	00002097          	auipc	ra,0x2
    80007bd0:	ba8080e7          	jalr	-1112(ra) # 80009774 <_ldtoa_r>
    80007bd4:	04700793          	li	a5,71
    80007bd8:	84aa                	mv	s1,a0
    80007bda:	7ec2                	ld	t4,48(sp)
    80007bdc:	00fb9763          	bne	s7,a5,80007bea <_svfprintf_r+0x97e>
    80007be0:	00147793          	andi	a5,s0,1
    80007be4:	e399                	bnez	a5,80007bea <_svfprintf_r+0x97e>
    80007be6:	6a2e                	ld	s4,200(sp)
    80007be8:	bd71                	j	80007a84 <_svfprintf_r+0x818>
    80007bea:	04600713          	li	a4,70
    80007bee:	01a48cb3          	add	s9,s1,s10
    80007bf2:	02eb9963          	bne	s7,a4,80007c24 <_svfprintf_r+0x9b8>
    80007bf6:	0004c683          	lbu	a3,0(s1)
    80007bfa:	03000713          	li	a4,48
    80007bfe:	02e69163          	bne	a3,a4,80007c20 <_svfprintf_r+0x9b4>
    80007c02:	8576                	mv	a0,t4
    80007c04:	4601                	li	a2,0
    80007c06:	4681                	li	a3,0
    80007c08:	85d2                	mv	a1,s4
    80007c0a:	f876                	sd	t4,48(sp)
    80007c0c:	00003097          	auipc	ra,0x3
    80007c10:	ed0080e7          	jalr	-304(ra) # 8000aadc <__eqtf2>
    80007c14:	7ec2                	ld	t4,48(sp)
    80007c16:	c509                	beqz	a0,80007c20 <_svfprintf_r+0x9b4>
    80007c18:	4705                	li	a4,1
    80007c1a:	41a70d3b          	subw	s10,a4,s10
    80007c1e:	dd6a                	sw	s10,184(sp)
    80007c20:	576a                	lw	a4,184(sp)
    80007c22:	9cba                	add	s9,s9,a4
    80007c24:	4601                	li	a2,0
    80007c26:	4681                	li	a3,0
    80007c28:	8576                	mv	a0,t4
    80007c2a:	85d2                	mv	a1,s4
    80007c2c:	00003097          	auipc	ra,0x3
    80007c30:	eb0080e7          	jalr	-336(ra) # 8000aadc <__eqtf2>
    80007c34:	e111                	bnez	a0,80007c38 <_svfprintf_r+0x9cc>
    80007c36:	e5e6                	sd	s9,200(sp)
    80007c38:	03000693          	li	a3,48
    80007c3c:	a031                	j	80007c48 <_svfprintf_r+0x9dc>
    80007c3e:	00170613          	addi	a2,a4,1
    80007c42:	e5b2                	sd	a2,200(sp)
    80007c44:	00d70023          	sb	a3,0(a4)
    80007c48:	672e                	ld	a4,200(sp)
    80007c4a:	ff976ae3          	bltu	a4,s9,80007c3e <_svfprintf_r+0x9d2>
    80007c4e:	bf61                	j	80007be6 <_svfprintf_r+0x97a>
    80007c50:	04600713          	li	a4,70
    80007c54:	e4eb95e3          	bne	s7,a4,80007a9e <_svfprintf_r+0x832>
    80007c58:	00147713          	andi	a4,s0,1
    80007c5c:	00ede733          	or	a4,s11,a4
    80007c60:	2701                	sext.w	a4,a4
    80007c62:	05905563          	blez	s9,80007cac <_svfprintf_r+0xa40>
    80007c66:	cf41                	beqz	a4,80007cfe <_svfprintf_r+0xa92>
    80007c68:	67c2                	ld	a5,16(sp)
    80007c6a:	0197873b          	addw	a4,a5,s9
    80007c6e:	01b70dbb          	addw	s11,a4,s11
    80007c72:	06600a93          	li	s5,102
    80007c76:	a0bd                	j	80007ce4 <_svfprintf_r+0xa78>
    80007c78:	8732                	mv	a4,a2
    80007c7a:	86be                	mv	a3,a5
    80007c7c:	b5bd                	j	80007aea <_svfprintf_r+0x87e>
    80007c7e:	0705                	addi	a4,a4,1
    80007c80:	fff74783          	lbu	a5,-1(a4)
    80007c84:	0605                	addi	a2,a2,1
    80007c86:	fef60fa3          	sb	a5,-1(a2)
    80007c8a:	b559                	j	80007b10 <_svfprintf_r+0x8a4>
    80007c8c:	0c210713          	addi	a4,sp,194
    80007c90:	e599                	bnez	a1,80007c9e <_svfprintf_r+0xa32>
    80007c92:	03000793          	li	a5,48
    80007c96:	0cf10123          	sb	a5,194(sp)
    80007c9a:	0c310713          	addi	a4,sp,195
    80007c9e:	0306879b          	addiw	a5,a3,48
    80007ca2:	00170613          	addi	a2,a4,1
    80007ca6:	00f70023          	sb	a5,0(a4)
    80007caa:	b5ad                	j	80007b14 <_svfprintf_r+0x8a8>
    80007cac:	cb39                	beqz	a4,80007d02 <_svfprintf_r+0xa96>
    80007cae:	67c2                	ld	a5,16(sp)
    80007cb0:	0017871b          	addiw	a4,a5,1
    80007cb4:	bf6d                	j	80007c6e <_svfprintf_r+0xa02>
    80007cb6:	014ccc63          	blt	s9,s4,80007cce <_svfprintf_r+0xa62>
    80007cba:	00147713          	andi	a4,s0,1
    80007cbe:	8de6                	mv	s11,s9
    80007cc0:	c701                	beqz	a4,80007cc8 <_svfprintf_r+0xa5c>
    80007cc2:	67c2                	ld	a5,16(sp)
    80007cc4:	01978dbb          	addw	s11,a5,s9
    80007cc8:	06700a93          	li	s5,103
    80007ccc:	a821                	j	80007ce4 <_svfprintf_r+0xa78>
    80007cce:	67c2                	ld	a5,16(sp)
    80007cd0:	06700a93          	li	s5,103
    80007cd4:	01478dbb          	addw	s11,a5,s4
    80007cd8:	01904663          	bgtz	s9,80007ce4 <_svfprintf_r+0xa78>
    80007cdc:	419d8e3b          	subw	t3,s11,s9
    80007ce0:	001e0d9b          	addiw	s11,t3,1
    80007ce4:	40047413          	andi	s0,s0,1024
    80007ce8:	00040b9b          	sext.w	s7,s0
    80007cec:	4d01                	li	s10,0
    80007cee:	e40b8ce3          	beqz	s7,80007b46 <_svfprintf_r+0x8da>
    80007cf2:	4b81                	li	s7,0
    80007cf4:	e59059e3          	blez	s9,80007b46 <_svfprintf_r+0x8da>
    80007cf8:	0ff00693          	li	a3,255
    80007cfc:	a01d                	j	80007d22 <_svfprintf_r+0xab6>
    80007cfe:	8de6                	mv	s11,s9
    80007d00:	bf8d                	j	80007c72 <_svfprintf_r+0xa06>
    80007d02:	06600a93          	li	s5,102
    80007d06:	4d85                	li	s11,1
    80007d08:	bff1                	j	80007ce4 <_svfprintf_r+0xa78>
    80007d0a:	2701                	sext.w	a4,a4
    80007d0c:	03975063          	ble	s9,a4,80007d2c <_svfprintf_r+0xac0>
    80007d10:	6782                	ld	a5,0(sp)
    80007d12:	40ec8cbb          	subw	s9,s9,a4
    80007d16:	0017c703          	lbu	a4,1(a5)
    80007d1a:	c30d                	beqz	a4,80007d3c <_svfprintf_r+0xad0>
    80007d1c:	0785                	addi	a5,a5,1
    80007d1e:	2b85                	addiw	s7,s7,1
    80007d20:	e03e                	sd	a5,0(sp)
    80007d22:	6782                	ld	a5,0(sp)
    80007d24:	0007c703          	lbu	a4,0(a5)
    80007d28:	fed711e3          	bne	a4,a3,80007d0a <_svfprintf_r+0xa9e>
    80007d2c:	77e2                	ld	a5,56(sp)
    80007d2e:	01ab873b          	addw	a4,s7,s10
    80007d32:	02f7073b          	mulw	a4,a4,a5
    80007d36:	01b70dbb          	addw	s11,a4,s11
    80007d3a:	b531                	j	80007b46 <_svfprintf_r+0x8da>
    80007d3c:	2d05                	addiw	s10,s10,1
    80007d3e:	b7d5                	j	80007d22 <_svfprintf_r+0xab6>
    80007d40:	008b0713          	addi	a4,s6,8
    80007d44:	f43a                	sd	a4,40(sp)
    80007d46:	02047713          	andi	a4,s0,32
    80007d4a:	000b3783          	ld	a5,0(s6)
    80007d4e:	c719                	beqz	a4,80007d5c <_svfprintf_r+0xaf0>
    80007d50:	7702                	ld	a4,32(sp)
    80007d52:	e398                	sd	a4,0(a5)
    80007d54:	7b22                	ld	s6,40(sp)
    80007d56:	64a2                	ld	s1,8(sp)
    80007d58:	dbeff06f          	j	80007316 <_svfprintf_r+0xaa>
    80007d5c:	01047713          	andi	a4,s0,16
    80007d60:	fb65                	bnez	a4,80007d50 <_svfprintf_r+0xae4>
    80007d62:	04047713          	andi	a4,s0,64
    80007d66:	c709                	beqz	a4,80007d70 <_svfprintf_r+0xb04>
    80007d68:	7702                	ld	a4,32(sp)
    80007d6a:	00e79023          	sh	a4,0(a5)
    80007d6e:	b7dd                	j	80007d54 <_svfprintf_r+0xae8>
    80007d70:	20047413          	andi	s0,s0,512
    80007d74:	7702                	ld	a4,32(sp)
    80007d76:	c401                	beqz	s0,80007d7e <_svfprintf_r+0xb12>
    80007d78:	00e78023          	sb	a4,0(a5)
    80007d7c:	bfe1                	j	80007d54 <_svfprintf_r+0xae8>
    80007d7e:	c398                	sw	a4,0(a5)
    80007d80:	bfd1                	j	80007d54 <_svfprintf_r+0xae8>
    80007d82:	01046413          	ori	s0,s0,16
    80007d86:	2401                	sext.w	s0,s0
    80007d88:	008b0793          	addi	a5,s6,8
    80007d8c:	f43e                	sd	a5,40(sp)
    80007d8e:	02047793          	andi	a5,s0,32
    80007d92:	cb91                	beqz	a5,80007da6 <_svfprintf_r+0xb3a>
    80007d94:	000b3b03          	ld	s6,0(s6)
    80007d98:	bff47413          	andi	s0,s0,-1025
    80007d9c:	2401                	sext.w	s0,s0
    80007d9e:	4781                	li	a5,0
    80007da0:	0a0107a3          	sb	zero,175(sp)
    80007da4:	b265                	j	8000774c <_svfprintf_r+0x4e0>
    80007da6:	01047793          	andi	a5,s0,16
    80007daa:	f7ed                	bnez	a5,80007d94 <_svfprintf_r+0xb28>
    80007dac:	04047793          	andi	a5,s0,64
    80007db0:	000b2b03          	lw	s6,0(s6)
    80007db4:	c789                	beqz	a5,80007dbe <_svfprintf_r+0xb52>
    80007db6:	1b42                	slli	s6,s6,0x30
    80007db8:	030b5b13          	srli	s6,s6,0x30
    80007dbc:	bff1                	j	80007d98 <_svfprintf_r+0xb2c>
    80007dbe:	20047793          	andi	a5,s0,512
    80007dc2:	c781                	beqz	a5,80007dca <_svfprintf_r+0xb5e>
    80007dc4:	0ffb7b13          	andi	s6,s6,255
    80007dc8:	bfc1                	j	80007d98 <_svfprintf_r+0xb2c>
    80007dca:	1b02                	slli	s6,s6,0x20
    80007dcc:	020b5b13          	srli	s6,s6,0x20
    80007dd0:	b7e1                	j	80007d98 <_svfprintf_r+0xb2c>
    80007dd2:	008b0793          	addi	a5,s6,8
    80007dd6:	f43e                	sd	a5,40(sp)
    80007dd8:	77e1                	lui	a5,0xffff8
    80007dda:	8307c793          	xori	a5,a5,-2000
    80007dde:	00246413          	ori	s0,s0,2
    80007de2:	0af11823          	sh	a5,176(sp)
    80007de6:	00005797          	auipc	a5,0x5
    80007dea:	52a78793          	addi	a5,a5,1322 # 8000d310 <__clz_tab+0x2c8>
    80007dee:	ecbe                	sd	a5,88(sp)
    80007df0:	000b3b03          	ld	s6,0(s6)
    80007df4:	2401                	sext.w	s0,s0
    80007df6:	4789                	li	a5,2
    80007df8:	07800a93          	li	s5,120
    80007dfc:	b755                	j	80007da0 <_svfprintf_r+0xb34>
    80007dfe:	008b0793          	addi	a5,s6,8
    80007e02:	f43e                	sd	a5,40(sp)
    80007e04:	0a0107a3          	sb	zero,175(sp)
    80007e08:	57fd                	li	a5,-1
    80007e0a:	000b3483          	ld	s1,0(s6)
    80007e0e:	02fd8063          	beq	s11,a5,80007e2e <_svfprintf_r+0xbc2>
    80007e12:	866e                	mv	a2,s11
    80007e14:	4581                	li	a1,0
    80007e16:	8526                	mv	a0,s1
    80007e18:	00002097          	auipc	ra,0x2
    80007e1c:	452080e7          	jalr	1106(ra) # 8000a26a <memchr>
    80007e20:	8b2a                	mv	s6,a0
    80007e22:	9c050ee3          	beqz	a0,800077fe <_svfprintf_r+0x592>
    80007e26:	40950dbb          	subw	s11,a0,s1
    80007e2a:	4b01                	li	s6,0
    80007e2c:	bac9                	j	800077fe <_svfprintf_r+0x592>
    80007e2e:	8526                	mv	a0,s1
    80007e30:	00002097          	auipc	ra,0x2
    80007e34:	5c0080e7          	jalr	1472(ra) # 8000a3f0 <strlen>
    80007e38:	00050d9b          	sext.w	s11,a0
    80007e3c:	b7fd                	j	80007e2a <_svfprintf_r+0xbbe>
    80007e3e:	01046413          	ori	s0,s0,16
    80007e42:	2401                	sext.w	s0,s0
    80007e44:	008b0793          	addi	a5,s6,8
    80007e48:	f43e                	sd	a5,40(sp)
    80007e4a:	02047793          	andi	a5,s0,32
    80007e4e:	c789                	beqz	a5,80007e58 <_svfprintf_r+0xbec>
    80007e50:	000b3b03          	ld	s6,0(s6)
    80007e54:	4785                	li	a5,1
    80007e56:	b7a9                	j	80007da0 <_svfprintf_r+0xb34>
    80007e58:	01047793          	andi	a5,s0,16
    80007e5c:	fbf5                	bnez	a5,80007e50 <_svfprintf_r+0xbe4>
    80007e5e:	04047793          	andi	a5,s0,64
    80007e62:	000b2b03          	lw	s6,0(s6)
    80007e66:	c789                	beqz	a5,80007e70 <_svfprintf_r+0xc04>
    80007e68:	1b42                	slli	s6,s6,0x30
    80007e6a:	030b5b13          	srli	s6,s6,0x30
    80007e6e:	b7dd                	j	80007e54 <_svfprintf_r+0xbe8>
    80007e70:	20047793          	andi	a5,s0,512
    80007e74:	c781                	beqz	a5,80007e7c <_svfprintf_r+0xc10>
    80007e76:	0ffb7b13          	andi	s6,s6,255
    80007e7a:	bfe9                	j	80007e54 <_svfprintf_r+0xbe8>
    80007e7c:	1b02                	slli	s6,s6,0x20
    80007e7e:	020b5b13          	srli	s6,s6,0x20
    80007e82:	bfc9                	j	80007e54 <_svfprintf_r+0xbe8>
    80007e84:	00005797          	auipc	a5,0x5
    80007e88:	4a478793          	addi	a5,a5,1188 # 8000d328 <__clz_tab+0x2e0>
    80007e8c:	ecbe                	sd	a5,88(sp)
    80007e8e:	008b0793          	addi	a5,s6,8
    80007e92:	f43e                	sd	a5,40(sp)
    80007e94:	02047793          	andi	a5,s0,32
    80007e98:	cb9d                	beqz	a5,80007ece <_svfprintf_r+0xc62>
    80007e9a:	000b3b03          	ld	s6,0(s6)
    80007e9e:	00147793          	andi	a5,s0,1
    80007ea2:	cf81                	beqz	a5,80007eba <_svfprintf_r+0xc4e>
    80007ea4:	000b0b63          	beqz	s6,80007eba <_svfprintf_r+0xc4e>
    80007ea8:	03000793          	li	a5,48
    80007eac:	00246413          	ori	s0,s0,2
    80007eb0:	0af10823          	sb	a5,176(sp)
    80007eb4:	0b5108a3          	sb	s5,177(sp)
    80007eb8:	2401                	sext.w	s0,s0
    80007eba:	bff47413          	andi	s0,s0,-1025
    80007ebe:	2401                	sext.w	s0,s0
    80007ec0:	4789                	li	a5,2
    80007ec2:	bdf9                	j	80007da0 <_svfprintf_r+0xb34>
    80007ec4:	00005797          	auipc	a5,0x5
    80007ec8:	44c78793          	addi	a5,a5,1100 # 8000d310 <__clz_tab+0x2c8>
    80007ecc:	b7c1                	j	80007e8c <_svfprintf_r+0xc20>
    80007ece:	01047793          	andi	a5,s0,16
    80007ed2:	f7e1                	bnez	a5,80007e9a <_svfprintf_r+0xc2e>
    80007ed4:	04047793          	andi	a5,s0,64
    80007ed8:	000b2b03          	lw	s6,0(s6)
    80007edc:	c789                	beqz	a5,80007ee6 <_svfprintf_r+0xc7a>
    80007ede:	1b42                	slli	s6,s6,0x30
    80007ee0:	030b5b13          	srli	s6,s6,0x30
    80007ee4:	bf6d                	j	80007e9e <_svfprintf_r+0xc32>
    80007ee6:	20047793          	andi	a5,s0,512
    80007eea:	c781                	beqz	a5,80007ef2 <_svfprintf_r+0xc86>
    80007eec:	0ffb7b13          	andi	s6,s6,255
    80007ef0:	b77d                	j	80007e9e <_svfprintf_r+0xc32>
    80007ef2:	1b02                	slli	s6,s6,0x20
    80007ef4:	020b5b13          	srli	s6,s6,0x20
    80007ef8:	b75d                	j	80007e9e <_svfprintf_r+0xc32>
    80007efa:	8722                	mv	a4,s0
    80007efc:	4785                	li	a5,1
    80007efe:	b899                	j	80007754 <_svfprintf_r+0x4e8>
    80007f00:	4705                	li	a4,1
    80007f02:	14e78de3          	beq	a5,a4,8000885c <_svfprintf_r+0x15f0>
    80007f06:	4709                	li	a4,2
    80007f08:	0ae78e63          	beq	a5,a4,80007fc4 <_svfprintf_r+0xd58>
    80007f0c:	0afc                	addi	a5,sp,348
    80007f0e:	007b7713          	andi	a4,s6,7
    80007f12:	03070713          	addi	a4,a4,48
    80007f16:	fee78fa3          	sb	a4,-1(a5)
    80007f1a:	003b5b13          	srli	s6,s6,0x3
    80007f1e:	fff78493          	addi	s1,a5,-1
    80007f22:	020b1863          	bnez	s6,80007f52 <_svfprintf_r+0xce6>
    80007f26:	00147693          	andi	a3,s0,1
    80007f2a:	ca89                	beqz	a3,80007f3c <_svfprintf_r+0xcd0>
    80007f2c:	03000693          	li	a3,48
    80007f30:	00d70663          	beq	a4,a3,80007f3c <_svfprintf_r+0xcd0>
    80007f34:	fed48fa3          	sb	a3,-1(s1)
    80007f38:	ffe78493          	addi	s1,a5,-2
    80007f3c:	15c10e13          	addi	t3,sp,348
    80007f40:	876e                	mv	a4,s11
    80007f42:	4b01                	li	s6,0
    80007f44:	409e0dbb          	subw	s11,t3,s1
    80007f48:	4d01                	li	s10,0
    80007f4a:	4b81                	li	s7,0
    80007f4c:	4c81                	li	s9,0
    80007f4e:	dbcff06f          	j	8000750a <_svfprintf_r+0x29e>
    80007f52:	87a6                	mv	a5,s1
    80007f54:	bf6d                	j	80007f0e <_svfprintf_r+0xca2>
    80007f56:	40047b93          	andi	s7,s0,1024
    80007f5a:	4a01                	li	s4,0
    80007f5c:	0afc                	addi	a5,sp,348
    80007f5e:	4ca9                	li	s9,10
    80007f60:	2b81                	sext.w	s7,s7
    80007f62:	0ff00813          	li	a6,255
    80007f66:	4d25                	li	s10,9
    80007f68:	039b7733          	remu	a4,s6,s9
    80007f6c:	fff78493          	addi	s1,a5,-1
    80007f70:	2a05                	addiw	s4,s4,1
    80007f72:	0307071b          	addiw	a4,a4,48
    80007f76:	fee78fa3          	sb	a4,-1(a5)
    80007f7a:	020b8e63          	beqz	s7,80007fb6 <_svfprintf_r+0xd4a>
    80007f7e:	6782                	ld	a5,0(sp)
    80007f80:	0007c783          	lbu	a5,0(a5)
    80007f84:	02fa1963          	bne	s4,a5,80007fb6 <_svfprintf_r+0xd4a>
    80007f88:	03078763          	beq	a5,a6,80007fb6 <_svfprintf_r+0xd4a>
    80007f8c:	036d7563          	bleu	s6,s10,80007fb6 <_svfprintf_r+0xd4a>
    80007f90:	77e2                	ld	a5,56(sp)
    80007f92:	65a6                	ld	a1,72(sp)
    80007f94:	4a01                	li	s4,0
    80007f96:	8c9d                	sub	s1,s1,a5
    80007f98:	863e                	mv	a2,a5
    80007f9a:	8526                	mv	a0,s1
    80007f9c:	00002097          	auipc	ra,0x2
    80007fa0:	466080e7          	jalr	1126(ra) # 8000a402 <strncpy>
    80007fa4:	6782                	ld	a5,0(sp)
    80007fa6:	0ff00813          	li	a6,255
    80007faa:	0017c783          	lbu	a5,1(a5)
    80007fae:	c781                	beqz	a5,80007fb6 <_svfprintf_r+0xd4a>
    80007fb0:	6782                	ld	a5,0(sp)
    80007fb2:	0785                	addi	a5,a5,1
    80007fb4:	e03e                	sd	a5,0(sp)
    80007fb6:	039b57b3          	divu	a5,s6,s9
    80007fba:	f96d71e3          	bleu	s6,s10,80007f3c <_svfprintf_r+0xcd0>
    80007fbe:	8b3e                	mv	s6,a5
    80007fc0:	87a6                	mv	a5,s1
    80007fc2:	b75d                	j	80007f68 <_svfprintf_r+0xcfc>
    80007fc4:	0ae4                	addi	s1,sp,348
    80007fc6:	6766                	ld	a4,88(sp)
    80007fc8:	00fb7793          	andi	a5,s6,15
    80007fcc:	14fd                	addi	s1,s1,-1
    80007fce:	97ba                	add	a5,a5,a4
    80007fd0:	0007c783          	lbu	a5,0(a5)
    80007fd4:	004b5b13          	srli	s6,s6,0x4
    80007fd8:	00f48023          	sb	a5,0(s1)
    80007fdc:	fe0b15e3          	bnez	s6,80007fc6 <_svfprintf_r+0xd5a>
    80007fe0:	bfb1                	j	80007f3c <_svfprintf_r+0xcd0>
    80007fe2:	0ae4                	addi	s1,sp,348
    80007fe4:	ffa1                	bnez	a5,80007f3c <_svfprintf_r+0xcd0>
    80007fe6:	8b05                	andi	a4,a4,1
    80007fe8:	db31                	beqz	a4,80007f3c <_svfprintf_r+0xcd0>
    80007fea:	03000793          	li	a5,48
    80007fee:	14f10da3          	sb	a5,347(sp)
    80007ff2:	0790006f          	j	8000886a <_svfprintf_r+0x15fe>
    80007ff6:	040a84e3          	beqz	s5,8000883e <_svfprintf_r+0x15d2>
    80007ffa:	0f510c23          	sb	s5,248(sp)
    80007ffe:	0a0107a3          	sb	zero,175(sp)
    80008002:	f45a                	sd	s6,40(sp)
    80008004:	cf8ff06f          	j	800074fc <_svfprintf_r+0x290>
    80008008:	0641                	addi	a2,a2,16
    8000800a:	011c3423          	sd	a7,8(s8)
    8000800e:	f9b2                	sd	a2,240(sp)
    80008010:	d5ae                	sw	a1,232(sp)
    80008012:	02aed763          	ble	a0,t4,80008040 <_svfprintf_r+0xdd4>
    80008016:	1190                	addi	a2,sp,224
    80008018:	85ce                	mv	a1,s3
    8000801a:	854a                	mv	a0,s2
    8000801c:	fcba                	sd	a4,120(sp)
    8000801e:	f8b6                	sd	a3,112(sp)
    80008020:	00002097          	auipc	ra,0x2
    80008024:	406080e7          	jalr	1030(ra) # 8000a426 <__ssprint_r>
    80008028:	7c051663          	bnez	a0,800087f4 <_svfprintf_r+0x1588>
    8000802c:	7766                	ld	a4,120(sp)
    8000802e:	76c6                	ld	a3,112(sp)
    80008030:	16010f13          	addi	t5,sp,352
    80008034:	4e9d                	li	t4,7
    80008036:	00005817          	auipc	a6,0x5
    8000803a:	30a80813          	addi	a6,a6,778 # 8000d340 <blanks.4811>
    8000803e:	48c1                	li	a7,16
    80008040:	36c1                	addiw	a3,a3,-16
    80008042:	8c7a                	mv	s8,t5
    80008044:	d12ff06f          	j	80007556 <_svfprintf_r+0x2ea>
    80008048:	0641                	addi	a2,a2,16
    8000804a:	010c3423          	sd	a6,8(s8)
    8000804e:	f9b2                	sd	a2,240(sp)
    80008050:	d5ae                	sw	a1,232(sp)
    80008052:	02a8d363          	ble	a0,a7,80008078 <_svfprintf_r+0xe0c>
    80008056:	1190                	addi	a2,sp,224
    80008058:	85ce                	mv	a1,s3
    8000805a:	854a                	mv	a0,s2
    8000805c:	f4ba                	sd	a4,104(sp)
    8000805e:	f0b6                	sd	a3,96(sp)
    80008060:	00002097          	auipc	ra,0x2
    80008064:	3c6080e7          	jalr	966(ra) # 8000a426 <__ssprint_r>
    80008068:	78051663          	bnez	a0,800087f4 <_svfprintf_r+0x1588>
    8000806c:	7726                	ld	a4,104(sp)
    8000806e:	7686                	ld	a3,96(sp)
    80008070:	16010e93          	addi	t4,sp,352
    80008074:	489d                	li	a7,7
    80008076:	4841                	li	a6,16
    80008078:	36c1                	addiw	a3,a3,-16
    8000807a:	8c76                	mv	s8,t4
    8000807c:	dc0ff06f          	j	8000763c <_svfprintf_r+0x3d0>
    80008080:	06c1                	addi	a3,a3,16
    80008082:	010c3423          	sd	a6,8(s8)
    80008086:	f9b6                	sd	a3,240(sp)
    80008088:	d5b2                	sw	a2,232(sp)
    8000808a:	02b8d063          	ble	a1,a7,800080aa <_svfprintf_r+0xe3e>
    8000808e:	1190                	addi	a2,sp,224
    80008090:	85ce                	mv	a1,s3
    80008092:	854a                	mv	a0,s2
    80008094:	f0ba                	sd	a4,96(sp)
    80008096:	00002097          	auipc	ra,0x2
    8000809a:	390080e7          	jalr	912(ra) # 8000a426 <__ssprint_r>
    8000809e:	74051b63          	bnez	a0,800087f4 <_svfprintf_r+0x1588>
    800080a2:	7706                	ld	a4,96(sp)
    800080a4:	1288                	addi	a0,sp,352
    800080a6:	489d                	li	a7,7
    800080a8:	4841                	li	a6,16
    800080aa:	3741                	addiw	a4,a4,-16
    800080ac:	8c2a                	mv	s8,a0
    800080ae:	de6ff06f          	j	80007694 <_svfprintf_r+0x428>
    800080b2:	06500693          	li	a3,101
    800080b6:	5956d563          	ble	s5,a3,80008640 <_svfprintf_r+0x13d4>
    800080ba:	654e                	ld	a0,208(sp)
    800080bc:	65ee                	ld	a1,216(sp)
    800080be:	4601                	li	a2,0
    800080c0:	4681                	li	a3,0
    800080c2:	f0ba                	sd	a4,96(sp)
    800080c4:	00003097          	auipc	ra,0x3
    800080c8:	a18080e7          	jalr	-1512(ra) # 8000aadc <__eqtf2>
    800080cc:	7706                	ld	a4,96(sp)
    800080ce:	ed6d                	bnez	a0,800081c8 <_svfprintf_r+0xf5c>
    800080d0:	00005797          	auipc	a5,0x5
    800080d4:	c6078793          	addi	a5,a5,-928 # 8000cd30 <CSWTCH.0+0x310>
    800080d8:	00fc3023          	sd	a5,0(s8)
    800080dc:	4785                	li	a5,1
    800080de:	00fc3423          	sd	a5,8(s8)
    800080e2:	57ae                	lw	a5,232(sp)
    800080e4:	0705                	addi	a4,a4,1
    800080e6:	f9ba                	sd	a4,240(sp)
    800080e8:	0017871b          	addiw	a4,a5,1
    800080ec:	d5ba                	sw	a4,232(sp)
    800080ee:	479d                	li	a5,7
    800080f0:	0c41                	addi	s8,s8,16
    800080f2:	00e7dd63          	ble	a4,a5,8000810c <_svfprintf_r+0xea0>
    800080f6:	1190                	addi	a2,sp,224
    800080f8:	85ce                	mv	a1,s3
    800080fa:	854a                	mv	a0,s2
    800080fc:	00002097          	auipc	ra,0x2
    80008100:	32a080e7          	jalr	810(ra) # 8000a426 <__ssprint_r>
    80008104:	6e051863          	bnez	a0,800087f4 <_svfprintf_r+0x1588>
    80008108:	16010c13          	addi	s8,sp,352
    8000810c:	57ea                	lw	a5,184(sp)
    8000810e:	0147c663          	blt	a5,s4,8000811a <_svfprintf_r+0xeae>
    80008112:	00147793          	andi	a5,s0,1
    80008116:	1a078763          	beqz	a5,800082c4 <_svfprintf_r+0x1058>
    8000811a:	6786                	ld	a5,64(sp)
    8000811c:	6742                	ld	a4,16(sp)
    8000811e:	0c41                	addi	s8,s8,16
    80008120:	fefc3823          	sd	a5,-16(s8)
    80008124:	67c2                	ld	a5,16(sp)
    80008126:	fefc3c23          	sd	a5,-8(s8)
    8000812a:	77ce                	ld	a5,240(sp)
    8000812c:	97ba                	add	a5,a5,a4
    8000812e:	f9be                	sd	a5,240(sp)
    80008130:	57ae                	lw	a5,232(sp)
    80008132:	0017871b          	addiw	a4,a5,1
    80008136:	d5ba                	sw	a4,232(sp)
    80008138:	479d                	li	a5,7
    8000813a:	00e7dd63          	ble	a4,a5,80008154 <_svfprintf_r+0xee8>
    8000813e:	1190                	addi	a2,sp,224
    80008140:	85ce                	mv	a1,s3
    80008142:	854a                	mv	a0,s2
    80008144:	00002097          	auipc	ra,0x2
    80008148:	2e2080e7          	jalr	738(ra) # 8000a426 <__ssprint_r>
    8000814c:	6a051463          	bnez	a0,800087f4 <_svfprintf_r+0x1588>
    80008150:	16010c13          	addi	s8,sp,352
    80008154:	fffa049b          	addiw	s1,s4,-1
    80008158:	16905663          	blez	s1,800082c4 <_svfprintf_r+0x1058>
    8000815c:	4ac1                	li	s5,16
    8000815e:	4b9d                	li	s7,7
    80008160:	572e                	lw	a4,232(sp)
    80008162:	77ce                	ld	a5,240(sp)
    80008164:	010c0613          	addi	a2,s8,16
    80008168:	0017069b          	addiw	a3,a4,1
    8000816c:	8736                	mv	a4,a3
    8000816e:	029ac363          	blt	s5,s1,80008194 <_svfprintf_r+0xf28>
    80008172:	00005717          	auipc	a4,0x5
    80008176:	1de70713          	addi	a4,a4,478 # 8000d350 <zeroes.4812>
    8000817a:	009c3423          	sd	s1,8(s8)
    8000817e:	00ec3023          	sd	a4,0(s8)
    80008182:	94be                	add	s1,s1,a5
    80008184:	f9a6                	sd	s1,240(sp)
    80008186:	d5b6                	sw	a3,232(sp)
    80008188:	479d                	li	a5,7
    8000818a:	8c32                	mv	s8,a2
    8000818c:	12d7dc63          	ble	a3,a5,800082c4 <_svfprintf_r+0x1058>
    80008190:	d74ff06f          	j	80007704 <_svfprintf_r+0x498>
    80008194:	00005597          	auipc	a1,0x5
    80008198:	1bc58593          	addi	a1,a1,444 # 8000d350 <zeroes.4812>
    8000819c:	07c1                	addi	a5,a5,16
    8000819e:	00bc3023          	sd	a1,0(s8)
    800081a2:	015c3423          	sd	s5,8(s8)
    800081a6:	f9be                	sd	a5,240(sp)
    800081a8:	d5ba                	sw	a4,232(sp)
    800081aa:	00dbdc63          	ble	a3,s7,800081c2 <_svfprintf_r+0xf56>
    800081ae:	1190                	addi	a2,sp,224
    800081b0:	85ce                	mv	a1,s3
    800081b2:	854a                	mv	a0,s2
    800081b4:	00002097          	auipc	ra,0x2
    800081b8:	272080e7          	jalr	626(ra) # 8000a426 <__ssprint_r>
    800081bc:	62051c63          	bnez	a0,800087f4 <_svfprintf_r+0x1588>
    800081c0:	1290                	addi	a2,sp,352
    800081c2:	34c1                	addiw	s1,s1,-16
    800081c4:	8c32                	mv	s8,a2
    800081c6:	bf69                	j	80008160 <_svfprintf_r+0xef4>
    800081c8:	56ea                	lw	a3,184(sp)
    800081ca:	16d04463          	bgtz	a3,80008332 <_svfprintf_r+0x10c6>
    800081ce:	00005797          	auipc	a5,0x5
    800081d2:	b6278793          	addi	a5,a5,-1182 # 8000cd30 <CSWTCH.0+0x310>
    800081d6:	00fc3023          	sd	a5,0(s8)
    800081da:	4785                	li	a5,1
    800081dc:	00fc3423          	sd	a5,8(s8)
    800081e0:	57ae                	lw	a5,232(sp)
    800081e2:	0705                	addi	a4,a4,1
    800081e4:	f9ba                	sd	a4,240(sp)
    800081e6:	0017871b          	addiw	a4,a5,1
    800081ea:	d5ba                	sw	a4,232(sp)
    800081ec:	479d                	li	a5,7
    800081ee:	0c41                	addi	s8,s8,16
    800081f0:	00e7dd63          	ble	a4,a5,8000820a <_svfprintf_r+0xf9e>
    800081f4:	1190                	addi	a2,sp,224
    800081f6:	85ce                	mv	a1,s3
    800081f8:	854a                	mv	a0,s2
    800081fa:	00002097          	auipc	ra,0x2
    800081fe:	22c080e7          	jalr	556(ra) # 8000a426 <__ssprint_r>
    80008202:	5e051963          	bnez	a0,800087f4 <_svfprintf_r+0x1588>
    80008206:	16010c13          	addi	s8,sp,352
    8000820a:	57ea                	lw	a5,184(sp)
    8000820c:	00147693          	andi	a3,s0,1
    80008210:	774e                	ld	a4,240(sp)
    80008212:	00fa67b3          	or	a5,s4,a5
    80008216:	8fd5                	or	a5,a5,a3
    80008218:	2781                	sext.w	a5,a5
    8000821a:	c7cd                	beqz	a5,800082c4 <_svfprintf_r+0x1058>
    8000821c:	6786                	ld	a5,64(sp)
    8000821e:	010c0313          	addi	t1,s8,16
    80008222:	00fc3023          	sd	a5,0(s8)
    80008226:	67c2                	ld	a5,16(sp)
    80008228:	00fc3423          	sd	a5,8(s8)
    8000822c:	97ba                	add	a5,a5,a4
    8000822e:	f9be                	sd	a5,240(sp)
    80008230:	57ae                	lw	a5,232(sp)
    80008232:	0017871b          	addiw	a4,a5,1
    80008236:	d5ba                	sw	a4,232(sp)
    80008238:	479d                	li	a5,7
    8000823a:	00e7dd63          	ble	a4,a5,80008254 <_svfprintf_r+0xfe8>
    8000823e:	1190                	addi	a2,sp,224
    80008240:	85ce                	mv	a1,s3
    80008242:	854a                	mv	a0,s2
    80008244:	00002097          	auipc	ra,0x2
    80008248:	1e2080e7          	jalr	482(ra) # 8000a426 <__ssprint_r>
    8000824c:	5a051463          	bnez	a0,800087f4 <_svfprintf_r+0x1588>
    80008250:	16010313          	addi	t1,sp,352
    80008254:	5aea                	lw	s5,184(sp)
    80008256:	040ad763          	bgez	s5,800082a4 <_svfprintf_r+0x1038>
    8000825a:	41500abb          	negw	s5,s5
    8000825e:	879a                	mv	a5,t1
    80008260:	4bc1                	li	s7,16
    80008262:	4d1d                	li	s10,7
    80008264:	56ae                	lw	a3,232(sp)
    80008266:	774e                	ld	a4,240(sp)
    80008268:	0341                	addi	t1,t1,16
    8000826a:	0016861b          	addiw	a2,a3,1
    8000826e:	86b2                	mv	a3,a2
    80008270:	095bc763          	blt	s7,s5,800082fe <_svfprintf_r+0x1092>
    80008274:	0157b423          	sd	s5,8(a5)
    80008278:	00005697          	auipc	a3,0x5
    8000827c:	0d868693          	addi	a3,a3,216 # 8000d350 <zeroes.4812>
    80008280:	9aba                	add	s5,s5,a4
    80008282:	e394                	sd	a3,0(a5)
    80008284:	f9d6                	sd	s5,240(sp)
    80008286:	d5b2                	sw	a2,232(sp)
    80008288:	479d                	li	a5,7
    8000828a:	00c7dd63          	ble	a2,a5,800082a4 <_svfprintf_r+0x1038>
    8000828e:	1190                	addi	a2,sp,224
    80008290:	85ce                	mv	a1,s3
    80008292:	854a                	mv	a0,s2
    80008294:	00002097          	auipc	ra,0x2
    80008298:	192080e7          	jalr	402(ra) # 8000a426 <__ssprint_r>
    8000829c:	54051c63          	bnez	a0,800087f4 <_svfprintf_r+0x1588>
    800082a0:	16010313          	addi	t1,sp,352
    800082a4:	77ce                	ld	a5,240(sp)
    800082a6:	00933023          	sd	s1,0(t1)
    800082aa:	01433423          	sd	s4,8(t1)
    800082ae:	97d2                	add	a5,a5,s4
    800082b0:	f9be                	sd	a5,240(sp)
    800082b2:	57ae                	lw	a5,232(sp)
    800082b4:	01030c13          	addi	s8,t1,16
    800082b8:	0017871b          	addiw	a4,a5,1
    800082bc:	d5ba                	sw	a4,232(sp)
    800082be:	479d                	li	a5,7
    800082c0:	c4e7c263          	blt	a5,a4,80007704 <_svfprintf_r+0x498>
    800082c4:	8811                	andi	s0,s0,4
    800082c6:	4e041163          	bnez	s0,800087a8 <_svfprintf_r+0x153c>
    800082ca:	6762                	ld	a4,24(sp)
    800082cc:	76c2                	ld	a3,48(sp)
    800082ce:	47e2                	lw	a5,24(sp)
    800082d0:	00d75363          	ble	a3,a4,800082d6 <_svfprintf_r+0x106a>
    800082d4:	57c2                	lw	a5,48(sp)
    800082d6:	7702                	ld	a4,32(sp)
    800082d8:	9fb9                	addw	a5,a5,a4
    800082da:	f03e                	sd	a5,32(sp)
    800082dc:	77ce                	ld	a5,240(sp)
    800082de:	cb91                	beqz	a5,800082f2 <_svfprintf_r+0x1086>
    800082e0:	1190                	addi	a2,sp,224
    800082e2:	85ce                	mv	a1,s3
    800082e4:	854a                	mv	a0,s2
    800082e6:	00002097          	auipc	ra,0x2
    800082ea:	140080e7          	jalr	320(ra) # 8000a426 <__ssprint_r>
    800082ee:	50051363          	bnez	a0,800087f4 <_svfprintf_r+0x1588>
    800082f2:	d582                	sw	zero,232(sp)
    800082f4:	520b1e63          	bnez	s6,80008830 <_svfprintf_r+0x15c4>
    800082f8:	16010c13          	addi	s8,sp,352
    800082fc:	bca1                	j	80007d54 <_svfprintf_r+0xae8>
    800082fe:	00005597          	auipc	a1,0x5
    80008302:	05258593          	addi	a1,a1,82 # 8000d350 <zeroes.4812>
    80008306:	0741                	addi	a4,a4,16
    80008308:	e38c                	sd	a1,0(a5)
    8000830a:	0177b423          	sd	s7,8(a5)
    8000830e:	f9ba                	sd	a4,240(sp)
    80008310:	d5b6                	sw	a3,232(sp)
    80008312:	00cd5d63          	ble	a2,s10,8000832c <_svfprintf_r+0x10c0>
    80008316:	1190                	addi	a2,sp,224
    80008318:	85ce                	mv	a1,s3
    8000831a:	854a                	mv	a0,s2
    8000831c:	00002097          	auipc	ra,0x2
    80008320:	10a080e7          	jalr	266(ra) # 8000a426 <__ssprint_r>
    80008324:	4c051863          	bnez	a0,800087f4 <_svfprintf_r+0x1588>
    80008328:	16010313          	addi	t1,sp,352
    8000832c:	3ac1                	addiw	s5,s5,-16
    8000832e:	879a                	mv	a5,t1
    80008330:	bf15                	j	80008264 <_svfprintf_r+0xff8>
    80008332:	86e6                	mv	a3,s9
    80008334:	019a5363          	ble	s9,s4,8000833a <_svfprintf_r+0x10ce>
    80008338:	86d2                	mv	a3,s4
    8000833a:	00068d9b          	sext.w	s11,a3
    8000833e:	03b05b63          	blez	s11,80008374 <_svfprintf_r+0x1108>
    80008342:	976e                	add	a4,a4,s11
    80008344:	f9ba                	sd	a4,240(sp)
    80008346:	572e                	lw	a4,232(sp)
    80008348:	009c3023          	sd	s1,0(s8)
    8000834c:	01bc3423          	sd	s11,8(s8)
    80008350:	0017061b          	addiw	a2,a4,1
    80008354:	d5b2                	sw	a2,232(sp)
    80008356:	471d                	li	a4,7
    80008358:	0c41                	addi	s8,s8,16
    8000835a:	00c75d63          	ble	a2,a4,80008374 <_svfprintf_r+0x1108>
    8000835e:	1190                	addi	a2,sp,224
    80008360:	85ce                	mv	a1,s3
    80008362:	854a                	mv	a0,s2
    80008364:	00002097          	auipc	ra,0x2
    80008368:	0c2080e7          	jalr	194(ra) # 8000a426 <__ssprint_r>
    8000836c:	48051463          	bnez	a0,800087f4 <_svfprintf_r+0x1588>
    80008370:	16010c13          	addi	s8,sp,352
    80008374:	8aee                	mv	s5,s11
    80008376:	000dd363          	bgez	s11,8000837c <_svfprintf_r+0x1110>
    8000837a:	4a81                	li	s5,0
    8000837c:	415c8abb          	subw	s5,s9,s5
    80008380:	05505763          	blez	s5,800083ce <_svfprintf_r+0x1162>
    80008384:	4dc1                	li	s11,16
    80008386:	489d                	li	a7,7
    80008388:	56ae                	lw	a3,232(sp)
    8000838a:	00005797          	auipc	a5,0x5
    8000838e:	fc678793          	addi	a5,a5,-58 # 8000d350 <zeroes.4812>
    80008392:	00fc3023          	sd	a5,0(s8)
    80008396:	0016861b          	addiw	a2,a3,1
    8000839a:	774e                	ld	a4,240(sp)
    8000839c:	86b2                	mv	a3,a2
    8000839e:	010c0593          	addi	a1,s8,16
    800083a2:	155dc163          	blt	s11,s5,800084e4 <_svfprintf_r+0x1278>
    800083a6:	015c3423          	sd	s5,8(s8)
    800083aa:	9aba                	add	s5,s5,a4
    800083ac:	f9d6                	sd	s5,240(sp)
    800083ae:	d5b2                	sw	a2,232(sp)
    800083b0:	471d                	li	a4,7
    800083b2:	8c2e                	mv	s8,a1
    800083b4:	00c75d63          	ble	a2,a4,800083ce <_svfprintf_r+0x1162>
    800083b8:	1190                	addi	a2,sp,224
    800083ba:	85ce                	mv	a1,s3
    800083bc:	854a                	mv	a0,s2
    800083be:	00002097          	auipc	ra,0x2
    800083c2:	068080e7          	jalr	104(ra) # 8000a426 <__ssprint_r>
    800083c6:	42051763          	bnez	a0,800087f4 <_svfprintf_r+0x1588>
    800083ca:	16010c13          	addi	s8,sp,352
    800083ce:	40047793          	andi	a5,s0,1024
    800083d2:	01948ab3          	add	s5,s1,s9
    800083d6:	cf91                	beqz	a5,800083f2 <_svfprintf_r+0x1186>
    800083d8:	014487b3          	add	a5,s1,s4
    800083dc:	4d9d                	li	s11,7
    800083de:	8cbe                	mv	s9,a5
    800083e0:	120b9763          	bnez	s7,8000850e <_svfprintf_r+0x12a2>
    800083e4:	120d1763          	bnez	s10,80008512 <_svfprintf_r+0x12a6>
    800083e8:	014487b3          	add	a5,s1,s4
    800083ec:	0157f363          	bleu	s5,a5,800083f2 <_svfprintf_r+0x1186>
    800083f0:	8abe                	mv	s5,a5
    800083f2:	57ea                	lw	a5,184(sp)
    800083f4:	0147c563          	blt	a5,s4,800083fe <_svfprintf_r+0x1192>
    800083f8:	00147793          	andi	a5,s0,1
    800083fc:	cf95                	beqz	a5,80008438 <_svfprintf_r+0x11cc>
    800083fe:	6786                	ld	a5,64(sp)
    80008400:	6742                	ld	a4,16(sp)
    80008402:	0c41                	addi	s8,s8,16
    80008404:	fefc3823          	sd	a5,-16(s8)
    80008408:	67c2                	ld	a5,16(sp)
    8000840a:	fefc3c23          	sd	a5,-8(s8)
    8000840e:	77ce                	ld	a5,240(sp)
    80008410:	97ba                	add	a5,a5,a4
    80008412:	f9be                	sd	a5,240(sp)
    80008414:	57ae                	lw	a5,232(sp)
    80008416:	0017871b          	addiw	a4,a5,1
    8000841a:	d5ba                	sw	a4,232(sp)
    8000841c:	479d                	li	a5,7
    8000841e:	00e7dd63          	ble	a4,a5,80008438 <_svfprintf_r+0x11cc>
    80008422:	1190                	addi	a2,sp,224
    80008424:	85ce                	mv	a1,s3
    80008426:	854a                	mv	a0,s2
    80008428:	00002097          	auipc	ra,0x2
    8000842c:	ffe080e7          	jalr	-2(ra) # 8000a426 <__ssprint_r>
    80008430:	3c051263          	bnez	a0,800087f4 <_svfprintf_r+0x1588>
    80008434:	16010c13          	addi	s8,sp,352
    80008438:	5bea                	lw	s7,184(sp)
    8000843a:	94d2                	add	s1,s1,s4
    8000843c:	415484bb          	subw	s1,s1,s5
    80008440:	417a07bb          	subw	a5,s4,s7
    80008444:	8bbe                	mv	s7,a5
    80008446:	00f4d463          	ble	a5,s1,8000844e <_svfprintf_r+0x11e2>
    8000844a:	00048b9b          	sext.w	s7,s1
    8000844e:	03705c63          	blez	s7,80008486 <_svfprintf_r+0x121a>
    80008452:	77ce                	ld	a5,240(sp)
    80008454:	015c3023          	sd	s5,0(s8)
    80008458:	017c3423          	sd	s7,8(s8)
    8000845c:	97de                	add	a5,a5,s7
    8000845e:	f9be                	sd	a5,240(sp)
    80008460:	57ae                	lw	a5,232(sp)
    80008462:	0c41                	addi	s8,s8,16
    80008464:	0017871b          	addiw	a4,a5,1
    80008468:	d5ba                	sw	a4,232(sp)
    8000846a:	479d                	li	a5,7
    8000846c:	00e7dd63          	ble	a4,a5,80008486 <_svfprintf_r+0x121a>
    80008470:	1190                	addi	a2,sp,224
    80008472:	85ce                	mv	a1,s3
    80008474:	854a                	mv	a0,s2
    80008476:	00002097          	auipc	ra,0x2
    8000847a:	fb0080e7          	jalr	-80(ra) # 8000a426 <__ssprint_r>
    8000847e:	36051b63          	bnez	a0,800087f4 <_svfprintf_r+0x1588>
    80008482:	16010c13          	addi	s8,sp,352
    80008486:	87de                	mv	a5,s7
    80008488:	000bd363          	bgez	s7,8000848e <_svfprintf_r+0x1222>
    8000848c:	4781                	li	a5,0
    8000848e:	54ea                	lw	s1,184(sp)
    80008490:	409a04bb          	subw	s1,s4,s1
    80008494:	9c9d                	subw	s1,s1,a5
    80008496:	e29057e3          	blez	s1,800082c4 <_svfprintf_r+0x1058>
    8000849a:	4ac1                	li	s5,16
    8000849c:	4b9d                	li	s7,7
    8000849e:	572e                	lw	a4,232(sp)
    800084a0:	77ce                	ld	a5,240(sp)
    800084a2:	010c0613          	addi	a2,s8,16
    800084a6:	0017069b          	addiw	a3,a4,1
    800084aa:	8736                	mv	a4,a3
    800084ac:	cc9ad3e3          	ble	s1,s5,80008172 <_svfprintf_r+0xf06>
    800084b0:	00005597          	auipc	a1,0x5
    800084b4:	ea058593          	addi	a1,a1,-352 # 8000d350 <zeroes.4812>
    800084b8:	07c1                	addi	a5,a5,16
    800084ba:	00bc3023          	sd	a1,0(s8)
    800084be:	015c3423          	sd	s5,8(s8)
    800084c2:	f9be                	sd	a5,240(sp)
    800084c4:	d5ba                	sw	a4,232(sp)
    800084c6:	00dbdc63          	ble	a3,s7,800084de <_svfprintf_r+0x1272>
    800084ca:	1190                	addi	a2,sp,224
    800084cc:	85ce                	mv	a1,s3
    800084ce:	854a                	mv	a0,s2
    800084d0:	00002097          	auipc	ra,0x2
    800084d4:	f56080e7          	jalr	-170(ra) # 8000a426 <__ssprint_r>
    800084d8:	30051e63          	bnez	a0,800087f4 <_svfprintf_r+0x1588>
    800084dc:	1290                	addi	a2,sp,352
    800084de:	34c1                	addiw	s1,s1,-16
    800084e0:	8c32                	mv	s8,a2
    800084e2:	bf75                	j	8000849e <_svfprintf_r+0x1232>
    800084e4:	0741                	addi	a4,a4,16
    800084e6:	01bc3423          	sd	s11,8(s8)
    800084ea:	f9ba                	sd	a4,240(sp)
    800084ec:	d5b6                	sw	a3,232(sp)
    800084ee:	00c8dd63          	ble	a2,a7,80008508 <_svfprintf_r+0x129c>
    800084f2:	1190                	addi	a2,sp,224
    800084f4:	85ce                	mv	a1,s3
    800084f6:	854a                	mv	a0,s2
    800084f8:	00002097          	auipc	ra,0x2
    800084fc:	f2e080e7          	jalr	-210(ra) # 8000a426 <__ssprint_r>
    80008500:	2e051a63          	bnez	a0,800087f4 <_svfprintf_r+0x1588>
    80008504:	128c                	addi	a1,sp,352
    80008506:	489d                	li	a7,7
    80008508:	3ac1                	addiw	s5,s5,-16
    8000850a:	8c2e                	mv	s8,a1
    8000850c:	bdb5                	j	80008388 <_svfprintf_r+0x111c>
    8000850e:	0a0d0563          	beqz	s10,800085b8 <_svfprintf_r+0x134c>
    80008512:	3d7d                	addiw	s10,s10,-1
    80008514:	67a6                	ld	a5,72(sp)
    80008516:	7762                	ld	a4,56(sp)
    80008518:	0c41                	addi	s8,s8,16
    8000851a:	fefc3823          	sd	a5,-16(s8)
    8000851e:	77e2                	ld	a5,56(sp)
    80008520:	fefc3c23          	sd	a5,-8(s8)
    80008524:	77ce                	ld	a5,240(sp)
    80008526:	97ba                	add	a5,a5,a4
    80008528:	f9be                	sd	a5,240(sp)
    8000852a:	57ae                	lw	a5,232(sp)
    8000852c:	0017871b          	addiw	a4,a5,1
    80008530:	d5ba                	sw	a4,232(sp)
    80008532:	00eddd63          	ble	a4,s11,8000854c <_svfprintf_r+0x12e0>
    80008536:	1190                	addi	a2,sp,224
    80008538:	85ce                	mv	a1,s3
    8000853a:	854a                	mv	a0,s2
    8000853c:	00002097          	auipc	ra,0x2
    80008540:	eea080e7          	jalr	-278(ra) # 8000a426 <__ssprint_r>
    80008544:	2a051863          	bnez	a0,800087f4 <_svfprintf_r+0x1588>
    80008548:	16010c13          	addi	s8,sp,352
    8000854c:	6702                	ld	a4,0(sp)
    8000854e:	415c87bb          	subw	a5,s9,s5
    80008552:	00074703          	lbu	a4,0(a4)
    80008556:	00e7d463          	ble	a4,a5,8000855e <_svfprintf_r+0x12f2>
    8000855a:	0007871b          	sext.w	a4,a5
    8000855e:	02e05d63          	blez	a4,80008598 <_svfprintf_r+0x132c>
    80008562:	77ce                	ld	a5,240(sp)
    80008564:	015c3023          	sd	s5,0(s8)
    80008568:	00ec3423          	sd	a4,8(s8)
    8000856c:	97ba                	add	a5,a5,a4
    8000856e:	f9be                	sd	a5,240(sp)
    80008570:	57ae                	lw	a5,232(sp)
    80008572:	0c41                	addi	s8,s8,16
    80008574:	0017869b          	addiw	a3,a5,1
    80008578:	d5b6                	sw	a3,232(sp)
    8000857a:	00dddf63          	ble	a3,s11,80008598 <_svfprintf_r+0x132c>
    8000857e:	1190                	addi	a2,sp,224
    80008580:	85ce                	mv	a1,s3
    80008582:	854a                	mv	a0,s2
    80008584:	f0ba                	sd	a4,96(sp)
    80008586:	00002097          	auipc	ra,0x2
    8000858a:	ea0080e7          	jalr	-352(ra) # 8000a426 <__ssprint_r>
    8000858e:	26051363          	bnez	a0,800087f4 <_svfprintf_r+0x1588>
    80008592:	7706                	ld	a4,96(sp)
    80008594:	16010c13          	addi	s8,sp,352
    80008598:	86ba                	mv	a3,a4
    8000859a:	00075363          	bgez	a4,800085a0 <_svfprintf_r+0x1334>
    8000859e:	4681                	li	a3,0
    800085a0:	6782                	ld	a5,0(sp)
    800085a2:	4841                	li	a6,16
    800085a4:	0007c783          	lbu	a5,0(a5)
    800085a8:	9f95                	subw	a5,a5,a3
    800085aa:	04f04863          	bgtz	a5,800085fa <_svfprintf_r+0x138e>
    800085ae:	6782                	ld	a5,0(sp)
    800085b0:	0007c783          	lbu	a5,0(a5)
    800085b4:	9abe                	add	s5,s5,a5
    800085b6:	b52d                	j	800083e0 <_svfprintf_r+0x1174>
    800085b8:	6782                	ld	a5,0(sp)
    800085ba:	3bfd                	addiw	s7,s7,-1
    800085bc:	17fd                	addi	a5,a5,-1
    800085be:	e03e                	sd	a5,0(sp)
    800085c0:	bf91                	j	80008514 <_svfprintf_r+0x12a8>
    800085c2:	00005517          	auipc	a0,0x5
    800085c6:	d8e50513          	addi	a0,a0,-626 # 8000d350 <zeroes.4812>
    800085ca:	0741                	addi	a4,a4,16
    800085cc:	00ac3023          	sd	a0,0(s8)
    800085d0:	010c3423          	sd	a6,8(s8)
    800085d4:	f9ba                	sd	a4,240(sp)
    800085d6:	d5b6                	sw	a3,232(sp)
    800085d8:	00cddf63          	ble	a2,s11,800085f6 <_svfprintf_r+0x138a>
    800085dc:	1190                	addi	a2,sp,224
    800085de:	85ce                	mv	a1,s3
    800085e0:	854a                	mv	a0,s2
    800085e2:	f0be                	sd	a5,96(sp)
    800085e4:	00002097          	auipc	ra,0x2
    800085e8:	e42080e7          	jalr	-446(ra) # 8000a426 <__ssprint_r>
    800085ec:	20051463          	bnez	a0,800087f4 <_svfprintf_r+0x1588>
    800085f0:	7786                	ld	a5,96(sp)
    800085f2:	128c                	addi	a1,sp,352
    800085f4:	4841                	li	a6,16
    800085f6:	37c1                	addiw	a5,a5,-16
    800085f8:	8c2e                	mv	s8,a1
    800085fa:	56ae                	lw	a3,232(sp)
    800085fc:	774e                	ld	a4,240(sp)
    800085fe:	010c0593          	addi	a1,s8,16
    80008602:	0016861b          	addiw	a2,a3,1
    80008606:	86b2                	mv	a3,a2
    80008608:	faf84de3          	blt	a6,a5,800085c2 <_svfprintf_r+0x1356>
    8000860c:	00fc3423          	sd	a5,8(s8)
    80008610:	00005697          	auipc	a3,0x5
    80008614:	d4068693          	addi	a3,a3,-704 # 8000d350 <zeroes.4812>
    80008618:	97ba                	add	a5,a5,a4
    8000861a:	00dc3023          	sd	a3,0(s8)
    8000861e:	f9be                	sd	a5,240(sp)
    80008620:	d5b2                	sw	a2,232(sp)
    80008622:	8c2e                	mv	s8,a1
    80008624:	f8cdd5e3          	ble	a2,s11,800085ae <_svfprintf_r+0x1342>
    80008628:	1190                	addi	a2,sp,224
    8000862a:	85ce                	mv	a1,s3
    8000862c:	854a                	mv	a0,s2
    8000862e:	00002097          	auipc	ra,0x2
    80008632:	df8080e7          	jalr	-520(ra) # 8000a426 <__ssprint_r>
    80008636:	1a051f63          	bnez	a0,800087f4 <_svfprintf_r+0x1588>
    8000863a:	16010c13          	addi	s8,sp,352
    8000863e:	bf85                	j	800085ae <_svfprintf_r+0x1342>
    80008640:	57ae                	lw	a5,232(sp)
    80008642:	4605                	li	a2,1
    80008644:	009c3023          	sd	s1,0(s8)
    80008648:	0017869b          	addiw	a3,a5,1
    8000864c:	0705                	addi	a4,a4,1
    8000864e:	87b6                	mv	a5,a3
    80008650:	010c0b93          	addi	s7,s8,16
    80008654:	01464663          	blt	a2,s4,80008660 <_svfprintf_r+0x13f4>
    80008658:	00147593          	andi	a1,s0,1
    8000865c:	14058063          	beqz	a1,8000879c <_svfprintf_r+0x1530>
    80008660:	4605                	li	a2,1
    80008662:	d5be                	sw	a5,232(sp)
    80008664:	00cc3423          	sd	a2,8(s8)
    80008668:	f9ba                	sd	a4,240(sp)
    8000866a:	479d                	li	a5,7
    8000866c:	00d7dd63          	ble	a3,a5,80008686 <_svfprintf_r+0x141a>
    80008670:	1190                	addi	a2,sp,224
    80008672:	85ce                	mv	a1,s3
    80008674:	854a                	mv	a0,s2
    80008676:	00002097          	auipc	ra,0x2
    8000867a:	db0080e7          	jalr	-592(ra) # 8000a426 <__ssprint_r>
    8000867e:	16051b63          	bnez	a0,800087f4 <_svfprintf_r+0x1588>
    80008682:	16010b93          	addi	s7,sp,352
    80008686:	6786                	ld	a5,64(sp)
    80008688:	6742                	ld	a4,16(sp)
    8000868a:	0bc1                	addi	s7,s7,16
    8000868c:	fefbb823          	sd	a5,-16(s7)
    80008690:	67c2                	ld	a5,16(sp)
    80008692:	fefbbc23          	sd	a5,-8(s7)
    80008696:	77ce                	ld	a5,240(sp)
    80008698:	97ba                	add	a5,a5,a4
    8000869a:	f9be                	sd	a5,240(sp)
    8000869c:	57ae                	lw	a5,232(sp)
    8000869e:	0017871b          	addiw	a4,a5,1
    800086a2:	d5ba                	sw	a4,232(sp)
    800086a4:	479d                	li	a5,7
    800086a6:	00e7dd63          	ble	a4,a5,800086c0 <_svfprintf_r+0x1454>
    800086aa:	1190                	addi	a2,sp,224
    800086ac:	85ce                	mv	a1,s3
    800086ae:	854a                	mv	a0,s2
    800086b0:	00002097          	auipc	ra,0x2
    800086b4:	d76080e7          	jalr	-650(ra) # 8000a426 <__ssprint_r>
    800086b8:	12051e63          	bnez	a0,800087f4 <_svfprintf_r+0x1588>
    800086bc:	16010b93          	addi	s7,sp,352
    800086c0:	654e                	ld	a0,208(sp)
    800086c2:	65ee                	ld	a1,216(sp)
    800086c4:	4601                	li	a2,0
    800086c6:	4681                	li	a3,0
    800086c8:	fffa0a9b          	addiw	s5,s4,-1
    800086cc:	00002097          	auipc	ra,0x2
    800086d0:	410080e7          	jalr	1040(ra) # 8000aadc <__eqtf2>
    800086d4:	c125                	beqz	a0,80008734 <_svfprintf_r+0x14c8>
    800086d6:	572e                	lw	a4,232(sp)
    800086d8:	77ce                	ld	a5,240(sp)
    800086da:	0485                	addi	s1,s1,1
    800086dc:	0017069b          	addiw	a3,a4,1
    800086e0:	97d6                	add	a5,a5,s5
    800086e2:	009bb023          	sd	s1,0(s7)
    800086e6:	015bb423          	sd	s5,8(s7)
    800086ea:	f9be                	sd	a5,240(sp)
    800086ec:	d5b6                	sw	a3,232(sp)
    800086ee:	479d                	li	a5,7
    800086f0:	0bc1                	addi	s7,s7,16
    800086f2:	00d7dc63          	ble	a3,a5,8000870a <_svfprintf_r+0x149e>
    800086f6:	1190                	addi	a2,sp,224
    800086f8:	85ce                	mv	a1,s3
    800086fa:	854a                	mv	a0,s2
    800086fc:	00002097          	auipc	ra,0x2
    80008700:	d2a080e7          	jalr	-726(ra) # 8000a426 <__ssprint_r>
    80008704:	e965                	bnez	a0,800087f4 <_svfprintf_r+0x1588>
    80008706:	16010b93          	addi	s7,sp,352
    8000870a:	019c                	addi	a5,sp,192
    8000870c:	00fbb023          	sd	a5,0(s7)
    80008710:	67c6                	ld	a5,80(sp)
    80008712:	6746                	ld	a4,80(sp)
    80008714:	010b8c13          	addi	s8,s7,16
    80008718:	00fbb423          	sd	a5,8(s7)
    8000871c:	77ce                	ld	a5,240(sp)
    8000871e:	97ba                	add	a5,a5,a4
    80008720:	f9be                	sd	a5,240(sp)
    80008722:	57ae                	lw	a5,232(sp)
    80008724:	0017871b          	addiw	a4,a5,1
    80008728:	d5ba                	sw	a4,232(sp)
    8000872a:	479d                	li	a5,7
    8000872c:	b8e7dce3          	ble	a4,a5,800082c4 <_svfprintf_r+0x1058>
    80008730:	fd5fe06f          	j	80007704 <_svfprintf_r+0x498>
    80008734:	fd505be3          	blez	s5,8000870a <_svfprintf_r+0x149e>
    80008738:	44c1                	li	s1,16
    8000873a:	4d1d                	li	s10,7
    8000873c:	572e                	lw	a4,232(sp)
    8000873e:	77ce                	ld	a5,240(sp)
    80008740:	010b8613          	addi	a2,s7,16
    80008744:	0017069b          	addiw	a3,a4,1
    80008748:	8736                	mv	a4,a3
    8000874a:	0354c063          	blt	s1,s5,8000876a <_svfprintf_r+0x14fe>
    8000874e:	97d6                	add	a5,a5,s5
    80008750:	00005717          	auipc	a4,0x5
    80008754:	c0070713          	addi	a4,a4,-1024 # 8000d350 <zeroes.4812>
    80008758:	00ebb023          	sd	a4,0(s7)
    8000875c:	015bb423          	sd	s5,8(s7)
    80008760:	f9be                	sd	a5,240(sp)
    80008762:	d5b6                	sw	a3,232(sp)
    80008764:	479d                	li	a5,7
    80008766:	8bb2                	mv	s7,a2
    80008768:	b769                	j	800086f2 <_svfprintf_r+0x1486>
    8000876a:	00005597          	auipc	a1,0x5
    8000876e:	be658593          	addi	a1,a1,-1050 # 8000d350 <zeroes.4812>
    80008772:	07c1                	addi	a5,a5,16
    80008774:	00bbb023          	sd	a1,0(s7)
    80008778:	009bb423          	sd	s1,8(s7)
    8000877c:	f9be                	sd	a5,240(sp)
    8000877e:	d5ba                	sw	a4,232(sp)
    80008780:	00dd5b63          	ble	a3,s10,80008796 <_svfprintf_r+0x152a>
    80008784:	1190                	addi	a2,sp,224
    80008786:	85ce                	mv	a1,s3
    80008788:	854a                	mv	a0,s2
    8000878a:	00002097          	auipc	ra,0x2
    8000878e:	c9c080e7          	jalr	-868(ra) # 8000a426 <__ssprint_r>
    80008792:	e12d                	bnez	a0,800087f4 <_svfprintf_r+0x1588>
    80008794:	1290                	addi	a2,sp,352
    80008796:	3ac1                	addiw	s5,s5,-16
    80008798:	8bb2                	mv	s7,a2
    8000879a:	b74d                	j	8000873c <_svfprintf_r+0x14d0>
    8000879c:	00cc3423          	sd	a2,8(s8)
    800087a0:	f9ba                	sd	a4,240(sp)
    800087a2:	d5b6                	sw	a3,232(sp)
    800087a4:	479d                	li	a5,7
    800087a6:	b7b1                	j	800086f2 <_svfprintf_r+0x1486>
    800087a8:	67e2                	ld	a5,24(sp)
    800087aa:	7742                	ld	a4,48(sp)
    800087ac:	40e7843b          	subw	s0,a5,a4
    800087b0:	b0805de3          	blez	s0,800082ca <_svfprintf_r+0x105e>
    800087b4:	4ac1                	li	s5,16
    800087b6:	00005497          	auipc	s1,0x5
    800087ba:	b8a48493          	addi	s1,s1,-1142 # 8000d340 <blanks.4811>
    800087be:	4b9d                	li	s7,7
    800087c0:	572e                	lw	a4,232(sp)
    800087c2:	009c3023          	sd	s1,0(s8)
    800087c6:	77ce                	ld	a5,240(sp)
    800087c8:	0017069b          	addiw	a3,a4,1
    800087cc:	8736                	mv	a4,a3
    800087ce:	028acd63          	blt	s5,s0,80008808 <_svfprintf_r+0x159c>
    800087d2:	008c3423          	sd	s0,8(s8)
    800087d6:	943e                	add	s0,s0,a5
    800087d8:	f9a2                	sd	s0,240(sp)
    800087da:	d5b6                	sw	a3,232(sp)
    800087dc:	479d                	li	a5,7
    800087de:	aed7d6e3          	ble	a3,a5,800082ca <_svfprintf_r+0x105e>
    800087e2:	1190                	addi	a2,sp,224
    800087e4:	85ce                	mv	a1,s3
    800087e6:	854a                	mv	a0,s2
    800087e8:	00002097          	auipc	ra,0x2
    800087ec:	c3e080e7          	jalr	-962(ra) # 8000a426 <__ssprint_r>
    800087f0:	ac050de3          	beqz	a0,800082ca <_svfprintf_r+0x105e>
    800087f4:	8a0b0563          	beqz	s6,8000789e <_svfprintf_r+0x632>
    800087f8:	85da                	mv	a1,s6
    800087fa:	854a                	mv	a0,s2
    800087fc:	ffffe097          	auipc	ra,0xffffe
    80008800:	2d0080e7          	jalr	720(ra) # 80006acc <_free_r>
    80008804:	89aff06f          	j	8000789e <_svfprintf_r+0x632>
    80008808:	07c1                	addi	a5,a5,16
    8000880a:	015c3423          	sd	s5,8(s8)
    8000880e:	f9be                	sd	a5,240(sp)
    80008810:	d5ba                	sw	a4,232(sp)
    80008812:	0c41                	addi	s8,s8,16
    80008814:	00dbdc63          	ble	a3,s7,8000882c <_svfprintf_r+0x15c0>
    80008818:	1190                	addi	a2,sp,224
    8000881a:	85ce                	mv	a1,s3
    8000881c:	854a                	mv	a0,s2
    8000881e:	00002097          	auipc	ra,0x2
    80008822:	c08080e7          	jalr	-1016(ra) # 8000a426 <__ssprint_r>
    80008826:	f579                	bnez	a0,800087f4 <_svfprintf_r+0x1588>
    80008828:	16010c13          	addi	s8,sp,352
    8000882c:	3441                	addiw	s0,s0,-16
    8000882e:	bf49                	j	800087c0 <_svfprintf_r+0x1554>
    80008830:	85da                	mv	a1,s6
    80008832:	854a                	mv	a0,s2
    80008834:	ffffe097          	auipc	ra,0xffffe
    80008838:	298080e7          	jalr	664(ra) # 80006acc <_free_r>
    8000883c:	bc75                	j	800082f8 <_svfprintf_r+0x108c>
    8000883e:	77ce                	ld	a5,240(sp)
    80008840:	84078f63          	beqz	a5,8000789e <_svfprintf_r+0x632>
    80008844:	1190                	addi	a2,sp,224
    80008846:	85ce                	mv	a1,s3
    80008848:	854a                	mv	a0,s2
    8000884a:	00002097          	auipc	ra,0x2
    8000884e:	bdc080e7          	jalr	-1060(ra) # 8000a426 <__ssprint_r>
    80008852:	84cff06f          	j	8000789e <_svfprintf_r+0x632>
    80008856:	57fd                	li	a5,-1
    80008858:	eafd9163          	bne	s11,a5,80007efa <_svfprintf_r+0xc8e>
    8000885c:	47a5                	li	a5,9
    8000885e:	ef67ec63          	bltu	a5,s6,80007f56 <_svfprintf_r+0xcea>
    80008862:	030b0b1b          	addiw	s6,s6,48
    80008866:	15610da3          	sb	s6,347(sp)
    8000886a:	15b10493          	addi	s1,sp,347
    8000886e:	eceff06f          	j	80007f3c <_svfprintf_r+0xcd0>

0000000080008872 <eclear>:
    80008872:	01450793          	addi	a5,a0,20
    80008876:	0509                	addi	a0,a0,2
    80008878:	fe051f23          	sh	zero,-2(a0)
    8000887c:	fef51de3          	bne	a0,a5,80008876 <eclear+0x4>
    80008880:	8082                	ret

0000000080008882 <emov>:
    80008882:	4781                	li	a5,0
    80008884:	4751                	li	a4,20
    80008886:	00f506b3          	add	a3,a0,a5
    8000888a:	0006d603          	lhu	a2,0(a3)
    8000888e:	00f586b3          	add	a3,a1,a5
    80008892:	0789                	addi	a5,a5,2
    80008894:	00c69023          	sh	a2,0(a3)
    80008898:	fee797e3          	bne	a5,a4,80008886 <emov+0x4>
    8000889c:	8082                	ret

000000008000889e <ecleaz>:
    8000889e:	01a50793          	addi	a5,a0,26
    800088a2:	0509                	addi	a0,a0,2
    800088a4:	fe051f23          	sh	zero,-2(a0)
    800088a8:	fef51de3          	bne	a0,a5,800088a2 <ecleaz+0x4>
    800088ac:	8082                	ret

00000000800088ae <emovz>:
    800088ae:	4781                	li	a5,0
    800088b0:	4761                	li	a4,24
    800088b2:	00f506b3          	add	a3,a0,a5
    800088b6:	0006d603          	lhu	a2,0(a3)
    800088ba:	00f586b3          	add	a3,a1,a5
    800088be:	0789                	addi	a5,a5,2
    800088c0:	00c69023          	sh	a2,0(a3)
    800088c4:	fee797e3          	bne	a5,a4,800088b2 <emovz+0x4>
    800088c8:	00059c23          	sh	zero,24(a1)
    800088cc:	8082                	ret

00000000800088ce <ecmpm>:
    800088ce:	4791                	li	a5,4
    800088d0:	4669                	li	a2,26
    800088d2:	00f506b3          	add	a3,a0,a5
    800088d6:	00f58733          	add	a4,a1,a5
    800088da:	0006d683          	lhu	a3,0(a3)
    800088de:	00075703          	lhu	a4,0(a4)
    800088e2:	00e68763          	beq	a3,a4,800088f0 <ecmpm+0x22>
    800088e6:	4505                	li	a0,1
    800088e8:	00d76863          	bltu	a4,a3,800088f8 <ecmpm+0x2a>
    800088ec:	557d                	li	a0,-1
    800088ee:	8082                	ret
    800088f0:	0789                	addi	a5,a5,2
    800088f2:	fec790e3          	bne	a5,a2,800088d2 <ecmpm+0x4>
    800088f6:	4501                	li	a0,0
    800088f8:	8082                	ret

00000000800088fa <eshdn1>:
    800088fa:	00450693          	addi	a3,a0,4
    800088fe:	4781                	li	a5,0
    80008900:	0569                	addi	a0,a0,26
    80008902:	7661                	lui	a2,0xffff8
    80008904:	0006d703          	lhu	a4,0(a3)
    80008908:	00177593          	andi	a1,a4,1
    8000890c:	c199                	beqz	a1,80008912 <eshdn1+0x18>
    8000890e:	0017e793          	ori	a5,a5,1
    80008912:	0027f593          	andi	a1,a5,2
    80008916:	8305                	srli	a4,a4,0x1
    80008918:	e999                	bnez	a1,8000892e <eshdn1+0x34>
    8000891a:	0017979b          	slliw	a5,a5,0x1
    8000891e:	00e69023          	sh	a4,0(a3)
    80008922:	17c2                	slli	a5,a5,0x30
    80008924:	0689                	addi	a3,a3,2
    80008926:	93c1                	srli	a5,a5,0x30
    80008928:	fcd51ee3          	bne	a0,a3,80008904 <eshdn1+0xa>
    8000892c:	8082                	ret
    8000892e:	8f51                	or	a4,a4,a2
    80008930:	b7ed                	j	8000891a <eshdn1+0x20>

0000000080008932 <eshup1>:
    80008932:	01650693          	addi	a3,a0,22
    80008936:	4701                	li	a4,0
    80008938:	0026d783          	lhu	a5,2(a3)
    8000893c:	0107961b          	slliw	a2,a5,0x10
    80008940:	4106561b          	sraiw	a2,a2,0x10
    80008944:	02061593          	slli	a1,a2,0x20
    80008948:	0005d463          	bgez	a1,80008950 <eshup1+0x1e>
    8000894c:	00176713          	ori	a4,a4,1
    80008950:	0017979b          	slliw	a5,a5,0x1
    80008954:	17c2                	slli	a5,a5,0x30
    80008956:	00277613          	andi	a2,a4,2
    8000895a:	93c1                	srli	a5,a5,0x30
    8000895c:	ea19                	bnez	a2,80008972 <eshup1+0x40>
    8000895e:	0017171b          	slliw	a4,a4,0x1
    80008962:	00f69123          	sh	a5,2(a3)
    80008966:	1742                	slli	a4,a4,0x30
    80008968:	16f9                	addi	a3,a3,-2
    8000896a:	9341                	srli	a4,a4,0x30
    8000896c:	fcd516e3          	bne	a0,a3,80008938 <eshup1+0x6>
    80008970:	8082                	ret
    80008972:	0017e793          	ori	a5,a5,1
    80008976:	b7e5                	j	8000895e <eshup1+0x2c>

0000000080008978 <eshdn8>:
    80008978:	00450793          	addi	a5,a0,4
    8000897c:	4701                	li	a4,0
    8000897e:	0569                	addi	a0,a0,26
    80008980:	0007d683          	lhu	a3,0(a5)
    80008984:	0789                	addi	a5,a5,2
    80008986:	0086d61b          	srliw	a2,a3,0x8
    8000898a:	8f51                	or	a4,a4,a2
    8000898c:	fee79f23          	sh	a4,-2(a5)
    80008990:	0086971b          	slliw	a4,a3,0x8
    80008994:	1742                	slli	a4,a4,0x30
    80008996:	9341                	srli	a4,a4,0x30
    80008998:	fef514e3          	bne	a0,a5,80008980 <eshdn8+0x8>
    8000899c:	8082                	ret

000000008000899e <eshup8>:
    8000899e:	01650793          	addi	a5,a0,22
    800089a2:	4701                	li	a4,0
    800089a4:	0027d683          	lhu	a3,2(a5)
    800089a8:	17f9                	addi	a5,a5,-2
    800089aa:	00869613          	slli	a2,a3,0x8
    800089ae:	8f51                	or	a4,a4,a2
    800089b0:	00e79223          	sh	a4,4(a5)
    800089b4:	0086d713          	srli	a4,a3,0x8
    800089b8:	fef516e3          	bne	a0,a5,800089a4 <eshup8+0x6>
    800089bc:	8082                	ret

00000000800089be <eshup6>:
    800089be:	00450793          	addi	a5,a0,4
    800089c2:	01850713          	addi	a4,a0,24
    800089c6:	0789                	addi	a5,a5,2
    800089c8:	0007d683          	lhu	a3,0(a5)
    800089cc:	fed79f23          	sh	a3,-2(a5)
    800089d0:	fef71be3          	bne	a4,a5,800089c6 <eshup6+0x8>
    800089d4:	00051c23          	sh	zero,24(a0)
    800089d8:	8082                	ret

00000000800089da <eshdn6>:
    800089da:	01850793          	addi	a5,a0,24
    800089de:	00450713          	addi	a4,a0,4
    800089e2:	17f9                	addi	a5,a5,-2
    800089e4:	0007d683          	lhu	a3,0(a5)
    800089e8:	00d79123          	sh	a3,2(a5)
    800089ec:	fef71be3          	bne	a4,a5,800089e2 <eshdn6+0x8>
    800089f0:	00051223          	sh	zero,4(a0)
    800089f4:	8082                	ret

00000000800089f6 <eaddm>:
    800089f6:	05e1                	addi	a1,a1,24
    800089f8:	01650713          	addi	a4,a0,22
    800089fc:	4681                	li	a3,0
    800089fe:	0005d783          	lhu	a5,0(a1)
    80008a02:	1779                	addi	a4,a4,-2
    80008a04:	15f9                	addi	a1,a1,-2
    80008a06:	97b6                	add	a5,a5,a3
    80008a08:	00475683          	lhu	a3,4(a4)
    80008a0c:	97b6                	add	a5,a5,a3
    80008a0e:	00f59123          	sh	a5,2(a1)
    80008a12:	83c1                	srli	a5,a5,0x10
    80008a14:	0017f693          	andi	a3,a5,1
    80008a18:	fee513e3          	bne	a0,a4,800089fe <eaddm+0x8>
    80008a1c:	8082                	ret

0000000080008a1e <esubm>:
    80008a1e:	05e1                	addi	a1,a1,24
    80008a20:	01650713          	addi	a4,a0,22
    80008a24:	4681                	li	a3,0
    80008a26:	0005d783          	lhu	a5,0(a1)
    80008a2a:	1779                	addi	a4,a4,-2
    80008a2c:	15f9                	addi	a1,a1,-2
    80008a2e:	8f95                	sub	a5,a5,a3
    80008a30:	00475683          	lhu	a3,4(a4)
    80008a34:	8f95                	sub	a5,a5,a3
    80008a36:	00f59123          	sh	a5,2(a1)
    80008a3a:	83c1                	srli	a5,a5,0x10
    80008a3c:	0017f693          	andi	a3,a5,1
    80008a40:	fee513e3          	bne	a0,a4,80008a26 <esubm+0x8>
    80008a44:	8082                	ret

0000000080008a46 <m16m>:
    80008a46:	1101                	addi	sp,sp,-32
    80008a48:	6341                	lui	t1,0x10
    80008a4a:	01858893          	addi	a7,a1,24
    80008a4e:	00011b23          	sh	zero,22(sp)
    80008a52:	00011c23          	sh	zero,24(sp)
    80008a56:	0591                	addi	a1,a1,4
    80008a58:	0834                	addi	a3,sp,24
    80008a5a:	137d                	addi	t1,t1,-1
    80008a5c:	0008d703          	lhu	a4,0(a7)
    80008a60:	16f9                	addi	a3,a3,-2
    80008a62:	18f9                	addi	a7,a7,-2
    80008a64:	e705                	bnez	a4,80008a8c <m16m+0x46>
    80008a66:	fe069f23          	sh	zero,-2(a3)
    80008a6a:	ff1599e3          	bne	a1,a7,80008a5c <m16m+0x16>
    80008a6e:	4791                	li	a5,4
    80008a70:	4769                	li	a4,26
    80008a72:	00f105b3          	add	a1,sp,a5
    80008a76:	0005d583          	lhu	a1,0(a1)
    80008a7a:	00f606b3          	add	a3,a2,a5
    80008a7e:	0789                	addi	a5,a5,2
    80008a80:	00b69023          	sh	a1,0(a3)
    80008a84:	fee797e3          	bne	a5,a4,80008a72 <m16m+0x2c>
    80008a88:	6105                	addi	sp,sp,32
    80008a8a:	8082                	ret
    80008a8c:	02a70733          	mul	a4,a4,a0
    80008a90:	0026d803          	lhu	a6,2(a3)
    80008a94:	006777b3          	and	a5,a4,t1
    80008a98:	97c2                	add	a5,a5,a6
    80008a9a:	0107d813          	srli	a6,a5,0x10
    80008a9e:	00f69123          	sh	a5,2(a3)
    80008aa2:	01075793          	srli	a5,a4,0x10
    80008aa6:	0006d703          	lhu	a4,0(a3)
    80008aaa:	97ba                	add	a5,a5,a4
    80008aac:	97c2                	add	a5,a5,a6
    80008aae:	00f69023          	sh	a5,0(a3)
    80008ab2:	83c1                	srli	a5,a5,0x10
    80008ab4:	fef69f23          	sh	a5,-2(a3)
    80008ab8:	bf4d                	j	80008a6a <m16m+0x24>

0000000080008aba <eisnan>:
    80008aba:	01255783          	lhu	a5,18(a0)
    80008abe:	fff7c793          	not	a5,a5
    80008ac2:	03179713          	slli	a4,a5,0x31
    80008ac6:	eb09                	bnez	a4,80008ad8 <eisnan+0x1e>
    80008ac8:	01250793          	addi	a5,a0,18
    80008acc:	0509                	addi	a0,a0,2
    80008ace:	ffe55703          	lhu	a4,-2(a0)
    80008ad2:	e709                	bnez	a4,80008adc <eisnan+0x22>
    80008ad4:	fea79ce3          	bne	a5,a0,80008acc <eisnan+0x12>
    80008ad8:	4501                	li	a0,0
    80008ada:	8082                	ret
    80008adc:	4505                	li	a0,1
    80008ade:	8082                	ret

0000000080008ae0 <eisneg>:
    80008ae0:	1141                	addi	sp,sp,-16
    80008ae2:	e022                	sd	s0,0(sp)
    80008ae4:	e406                	sd	ra,8(sp)
    80008ae6:	842a                	mv	s0,a0
    80008ae8:	00000097          	auipc	ra,0x0
    80008aec:	fd2080e7          	jalr	-46(ra) # 80008aba <eisnan>
    80008af0:	e909                	bnez	a0,80008b02 <eisneg+0x22>
    80008af2:	01241503          	lh	a0,18(s0)
    80008af6:	01f5551b          	srliw	a0,a0,0x1f
    80008afa:	60a2                	ld	ra,8(sp)
    80008afc:	6402                	ld	s0,0(sp)
    80008afe:	0141                	addi	sp,sp,16
    80008b00:	8082                	ret
    80008b02:	4501                	li	a0,0
    80008b04:	bfdd                	j	80008afa <eisneg+0x1a>

0000000080008b06 <emovi>:
    80008b06:	01251783          	lh	a5,18(a0)
    80008b0a:	1101                	addi	sp,sp,-32
    80008b0c:	ec06                	sd	ra,24(sp)
    80008b0e:	e822                	sd	s0,16(sp)
    80008b10:	e426                	sd	s1,8(sp)
    80008b12:	e04a                	sd	s2,0(sp)
    80008b14:	0407db63          	bgez	a5,80008b6a <emovi+0x64>
    80008b18:	57fd                	li	a5,-1
    80008b1a:	00f59023          	sh	a5,0(a1)
    80008b1e:	01255703          	lhu	a4,18(a0)
    80008b22:	67a1                	lui	a5,0x8
    80008b24:	17fd                	addi	a5,a5,-1
    80008b26:	8f7d                	and	a4,a4,a5
    80008b28:	00e59123          	sh	a4,2(a1)
    80008b2c:	01050913          	addi	s2,a0,16
    80008b30:	04f71a63          	bne	a4,a5,80008b84 <emovi+0x7e>
    80008b34:	842e                	mv	s0,a1
    80008b36:	84aa                	mv	s1,a0
    80008b38:	00000097          	auipc	ra,0x0
    80008b3c:	f82080e7          	jalr	-126(ra) # 80008aba <eisnan>
    80008b40:	c905                	beqz	a0,80008b70 <emovi+0x6a>
    80008b42:	00640793          	addi	a5,s0,6
    80008b46:	00041223          	sh	zero,4(s0)
    80008b4a:	ffc48513          	addi	a0,s1,-4
    80008b4e:	1979                	addi	s2,s2,-2
    80008b50:	00295703          	lhu	a4,2(s2)
    80008b54:	0789                	addi	a5,a5,2
    80008b56:	fee79f23          	sh	a4,-2(a5) # 7ffe <_stack_size-0x2>
    80008b5a:	fea91ae3          	bne	s2,a0,80008b4e <emovi+0x48>
    80008b5e:	60e2                	ld	ra,24(sp)
    80008b60:	6442                	ld	s0,16(sp)
    80008b62:	64a2                	ld	s1,8(sp)
    80008b64:	6902                	ld	s2,0(sp)
    80008b66:	6105                	addi	sp,sp,32
    80008b68:	8082                	ret
    80008b6a:	00059023          	sh	zero,0(a1)
    80008b6e:	bf45                	j	80008b1e <emovi+0x18>
    80008b70:	00440793          	addi	a5,s0,4
    80008b74:	01a40593          	addi	a1,s0,26
    80008b78:	0789                	addi	a5,a5,2
    80008b7a:	fe079f23          	sh	zero,-2(a5)
    80008b7e:	feb79de3          	bne	a5,a1,80008b78 <emovi+0x72>
    80008b82:	bff1                	j	80008b5e <emovi+0x58>
    80008b84:	00658793          	addi	a5,a1,6
    80008b88:	00059223          	sh	zero,4(a1)
    80008b8c:	1579                	addi	a0,a0,-2
    80008b8e:	1979                	addi	s2,s2,-2
    80008b90:	00295703          	lhu	a4,2(s2)
    80008b94:	0789                	addi	a5,a5,2
    80008b96:	fee79f23          	sh	a4,-2(a5)
    80008b9a:	fea91ae3          	bne	s2,a0,80008b8e <emovi+0x88>
    80008b9e:	00059c23          	sh	zero,24(a1)
    80008ba2:	bf75                	j	80008b5e <emovi+0x58>

0000000080008ba4 <ecmp>:
    80008ba4:	711d                	addi	sp,sp,-96
    80008ba6:	e4a6                	sd	s1,72(sp)
    80008ba8:	e0ca                	sd	s2,64(sp)
    80008baa:	ec86                	sd	ra,88(sp)
    80008bac:	e8a2                	sd	s0,80(sp)
    80008bae:	892a                	mv	s2,a0
    80008bb0:	84ae                	mv	s1,a1
    80008bb2:	00000097          	auipc	ra,0x0
    80008bb6:	f08080e7          	jalr	-248(ra) # 80008aba <eisnan>
    80008bba:	ed49                	bnez	a0,80008c54 <ecmp+0xb0>
    80008bbc:	8526                	mv	a0,s1
    80008bbe:	00000097          	auipc	ra,0x0
    80008bc2:	efc080e7          	jalr	-260(ra) # 80008aba <eisnan>
    80008bc6:	842a                	mv	s0,a0
    80008bc8:	e551                	bnez	a0,80008c54 <ecmp+0xb0>
    80008bca:	858a                	mv	a1,sp
    80008bcc:	854a                	mv	a0,s2
    80008bce:	00000097          	auipc	ra,0x0
    80008bd2:	f38080e7          	jalr	-200(ra) # 80008b06 <emovi>
    80008bd6:	100c                	addi	a1,sp,32
    80008bd8:	8526                	mv	a0,s1
    80008bda:	00000097          	auipc	ra,0x0
    80008bde:	f2c080e7          	jalr	-212(ra) # 80008b06 <emovi>
    80008be2:	00015703          	lhu	a4,0(sp)
    80008be6:	02015783          	lhu	a5,32(sp)
    80008bea:	02e78c63          	beq	a5,a4,80008c22 <ecmp+0x7e>
    80008bee:	4789                	li	a5,2
    80008bf0:	46e1                	li	a3,24
    80008bf2:	00f10633          	add	a2,sp,a5
    80008bf6:	00065603          	lhu	a2,0(a2) # ffffffffffff8000 <_trapsp0+0xffffffff7ffc2fc0>
    80008bfa:	e205                	bnez	a2,80008c1a <ecmp+0x76>
    80008bfc:	1010                	addi	a2,sp,32
    80008bfe:	963e                	add	a2,a2,a5
    80008c00:	00065603          	lhu	a2,0(a2)
    80008c04:	ea19                	bnez	a2,80008c1a <ecmp+0x76>
    80008c06:	0789                	addi	a5,a5,2
    80008c08:	fed795e3          	bne	a5,a3,80008bf2 <ecmp+0x4e>
    80008c0c:	8522                	mv	a0,s0
    80008c0e:	60e6                	ld	ra,88(sp)
    80008c10:	6446                	ld	s0,80(sp)
    80008c12:	64a6                	ld	s1,72(sp)
    80008c14:	6906                	ld	s2,64(sp)
    80008c16:	6125                	addi	sp,sp,96
    80008c18:	8082                	ret
    80008c1a:	4405                	li	s0,1
    80008c1c:	db65                	beqz	a4,80008c0c <ecmp+0x68>
    80008c1e:	547d                	li	s0,-1
    80008c20:	b7f5                	j	80008c0c <ecmp+0x68>
    80008c22:	4685                	li	a3,1
    80008c24:	c311                	beqz	a4,80008c28 <ecmp+0x84>
    80008c26:	56fd                	li	a3,-1
    80008c28:	4781                	li	a5,0
    80008c2a:	45e1                	li	a1,24
    80008c2c:	00f10733          	add	a4,sp,a5
    80008c30:	00075603          	lhu	a2,0(a4)
    80008c34:	1018                	addi	a4,sp,32
    80008c36:	973e                	add	a4,a4,a5
    80008c38:	00075703          	lhu	a4,0(a4)
    80008c3c:	00e60863          	beq	a2,a4,80008c4c <ecmp+0xa8>
    80008c40:	8436                	mv	s0,a3
    80008c42:	fcc765e3          	bltu	a4,a2,80008c0c <ecmp+0x68>
    80008c46:	40d0043b          	negw	s0,a3
    80008c4a:	b7c9                	j	80008c0c <ecmp+0x68>
    80008c4c:	0789                	addi	a5,a5,2
    80008c4e:	fcb79fe3          	bne	a5,a1,80008c2c <ecmp+0x88>
    80008c52:	bf6d                	j	80008c0c <ecmp+0x68>
    80008c54:	5479                	li	s0,-2
    80008c56:	bf5d                	j	80008c0c <ecmp+0x68>

0000000080008c58 <eisinf>:
    80008c58:	01255783          	lhu	a5,18(a0)
    80008c5c:	fff7c793          	not	a5,a5
    80008c60:	03179713          	slli	a4,a5,0x31
    80008c64:	ef01                	bnez	a4,80008c7c <eisinf+0x24>
    80008c66:	1141                	addi	sp,sp,-16
    80008c68:	e406                	sd	ra,8(sp)
    80008c6a:	00000097          	auipc	ra,0x0
    80008c6e:	e50080e7          	jalr	-432(ra) # 80008aba <eisnan>
    80008c72:	60a2                	ld	ra,8(sp)
    80008c74:	00153513          	seqz	a0,a0
    80008c78:	0141                	addi	sp,sp,16
    80008c7a:	8082                	ret
    80008c7c:	4501                	li	a0,0
    80008c7e:	8082                	ret

0000000080008c80 <einfin.isra.2>:
    80008c80:	01250713          	addi	a4,a0,18
    80008c84:	87aa                	mv	a5,a0
    80008c86:	0789                	addi	a5,a5,2
    80008c88:	fe079f23          	sh	zero,-2(a5)
    80008c8c:	fee79de3          	bne	a5,a4,80008c86 <einfin.isra.2+0x6>
    80008c90:	01255783          	lhu	a5,18(a0)
    80008c94:	6721                	lui	a4,0x8
    80008c96:	177d                	addi	a4,a4,-1
    80008c98:	8fd9                	or	a5,a5,a4
    80008c9a:	00f51923          	sh	a5,18(a0)
    80008c9e:	8082                	ret

0000000080008ca0 <eshift.part.3>:
    80008ca0:	7139                	addi	sp,sp,-64
    80008ca2:	f822                	sd	s0,48(sp)
    80008ca4:	ec4e                	sd	s3,24(sp)
    80008ca6:	fc06                	sd	ra,56(sp)
    80008ca8:	f426                	sd	s1,40(sp)
    80008caa:	f04a                	sd	s2,32(sp)
    80008cac:	e852                	sd	s4,16(sp)
    80008cae:	e456                	sd	s5,8(sp)
    80008cb0:	89aa                	mv	s3,a0
    80008cb2:	842e                	mv	s0,a1
    80008cb4:	0c05d163          	bgez	a1,80008d76 <eshift.part.3+0xd6>
    80008cb8:	40b00a3b          	negw	s4,a1
    80008cbc:	8952                	mv	s2,s4
    80008cbe:	4481                	li	s1,0
    80008cc0:	4abd                	li	s5,15
    80008cc2:	034ac763          	blt	s5,s4,80008cf0 <eshift.part.3+0x50>
    80008cc6:	0049591b          	srliw	s2,s2,0x4
    80008cca:	55c1                	li	a1,-16
    80008ccc:	02b905bb          	mulw	a1,s2,a1
    80008cd0:	4a1d                	li	s4,7
    80008cd2:	4085893b          	subw	s2,a1,s0
    80008cd6:	844a                	mv	s0,s2
    80008cd8:	032a4663          	blt	s4,s2,80008d04 <eshift.part.3+0x64>
    80008cdc:	0034559b          	srliw	a1,s0,0x3
    80008ce0:	57e1                	li	a5,-8
    80008ce2:	02f585bb          	mulw	a1,a1,a5
    80008ce6:	9c2d                	addw	s0,s0,a1
    80008ce8:	e805                	bnez	s0,80008d18 <eshift.part.3+0x78>
    80008cea:	00903533          	snez	a0,s1
    80008cee:	a89d                	j	80008d64 <eshift.part.3+0xc4>
    80008cf0:	0189d783          	lhu	a5,24(s3)
    80008cf4:	854e                	mv	a0,s3
    80008cf6:	3a41                	addiw	s4,s4,-16
    80008cf8:	8cdd                	or	s1,s1,a5
    80008cfa:	00000097          	auipc	ra,0x0
    80008cfe:	ce0080e7          	jalr	-800(ra) # 800089da <eshdn6>
    80008d02:	b7c1                	j	80008cc2 <eshift.part.3+0x22>
    80008d04:	0189c783          	lbu	a5,24(s3)
    80008d08:	854e                	mv	a0,s3
    80008d0a:	3961                	addiw	s2,s2,-8
    80008d0c:	8cdd                	or	s1,s1,a5
    80008d0e:	00000097          	auipc	ra,0x0
    80008d12:	c6a080e7          	jalr	-918(ra) # 80008978 <eshdn8>
    80008d16:	b7c9                	j	80008cd8 <eshift.part.3+0x38>
    80008d18:	0189d783          	lhu	a5,24(s3)
    80008d1c:	854e                	mv	a0,s3
    80008d1e:	347d                	addiw	s0,s0,-1
    80008d20:	8b85                	andi	a5,a5,1
    80008d22:	8cdd                	or	s1,s1,a5
    80008d24:	00000097          	auipc	ra,0x0
    80008d28:	bd6080e7          	jalr	-1066(ra) # 800088fa <eshdn1>
    80008d2c:	bf75                	j	80008ce8 <eshift.part.3+0x48>
    80008d2e:	854e                	mv	a0,s3
    80008d30:	00000097          	auipc	ra,0x0
    80008d34:	c8e080e7          	jalr	-882(ra) # 800089be <eshup6>
    80008d38:	34c1                	addiw	s1,s1,-16
    80008d3a:	fe994ae3          	blt	s2,s1,80008d2e <eshift.part.3+0x8e>
    80008d3e:	0044559b          	srliw	a1,s0,0x4
    80008d42:	57c1                	li	a5,-16
    80008d44:	02f585bb          	mulw	a1,a1,a5
    80008d48:	491d                	li	s2,7
    80008d4a:	00b404bb          	addw	s1,s0,a1
    80008d4e:	8426                	mv	s0,s1
    80008d50:	02994663          	blt	s2,s1,80008d7c <eshift.part.3+0xdc>
    80008d54:	0034559b          	srliw	a1,s0,0x3
    80008d58:	57e1                	li	a5,-8
    80008d5a:	02f585bb          	mulw	a1,a1,a5
    80008d5e:	9c2d                	addw	s0,s0,a1
    80008d60:	e40d                	bnez	s0,80008d8a <eshift.part.3+0xea>
    80008d62:	4501                	li	a0,0
    80008d64:	70e2                	ld	ra,56(sp)
    80008d66:	7442                	ld	s0,48(sp)
    80008d68:	74a2                	ld	s1,40(sp)
    80008d6a:	7902                	ld	s2,32(sp)
    80008d6c:	69e2                	ld	s3,24(sp)
    80008d6e:	6a42                	ld	s4,16(sp)
    80008d70:	6aa2                	ld	s5,8(sp)
    80008d72:	6121                	addi	sp,sp,64
    80008d74:	8082                	ret
    80008d76:	84ae                	mv	s1,a1
    80008d78:	493d                	li	s2,15
    80008d7a:	b7c1                	j	80008d3a <eshift.part.3+0x9a>
    80008d7c:	854e                	mv	a0,s3
    80008d7e:	00000097          	auipc	ra,0x0
    80008d82:	c20080e7          	jalr	-992(ra) # 8000899e <eshup8>
    80008d86:	34e1                	addiw	s1,s1,-8
    80008d88:	b7e1                	j	80008d50 <eshift.part.3+0xb0>
    80008d8a:	854e                	mv	a0,s3
    80008d8c:	00000097          	auipc	ra,0x0
    80008d90:	ba6080e7          	jalr	-1114(ra) # 80008932 <eshup1>
    80008d94:	347d                	addiw	s0,s0,-1
    80008d96:	b7e9                	j	80008d60 <eshift.part.3+0xc0>

0000000080008d98 <enormlz>:
    80008d98:	00455783          	lhu	a5,4(a0)
    80008d9c:	1101                	addi	sp,sp,-32
    80008d9e:	e426                	sd	s1,8(sp)
    80008da0:	ec06                	sd	ra,24(sp)
    80008da2:	e822                	sd	s0,16(sp)
    80008da4:	e04a                	sd	s2,0(sp)
    80008da6:	84aa                	mv	s1,a0
    80008da8:	cf89                	beqz	a5,80008dc2 <enormlz+0x2a>
    80008daa:	f007f793          	andi	a5,a5,-256
    80008dae:	4401                	li	s0,0
    80008db0:	c791                	beqz	a5,80008dbc <enormlz+0x24>
    80008db2:	00000097          	auipc	ra,0x0
    80008db6:	bc6080e7          	jalr	-1082(ra) # 80008978 <eshdn8>
    80008dba:	5461                	li	s0,-8
    80008dbc:	f6f00913          	li	s2,-145
    80008dc0:	a8ad                	j	80008e3a <enormlz+0xa2>
    80008dc2:	00651783          	lh	a5,6(a0)
    80008dc6:	4401                	li	s0,0
    80008dc8:	0a000913          	li	s2,160
    80008dcc:	0207d163          	bgez	a5,80008dee <enormlz+0x56>
    80008dd0:	8522                	mv	a0,s0
    80008dd2:	60e2                	ld	ra,24(sp)
    80008dd4:	6442                	ld	s0,16(sp)
    80008dd6:	64a2                	ld	s1,8(sp)
    80008dd8:	6902                	ld	s2,0(sp)
    80008dda:	6105                	addi	sp,sp,32
    80008ddc:	8082                	ret
    80008dde:	8526                	mv	a0,s1
    80008de0:	2441                	addiw	s0,s0,16
    80008de2:	00000097          	auipc	ra,0x0
    80008de6:	bdc080e7          	jalr	-1060(ra) # 800089be <eshup6>
    80008dea:	ff2403e3          	beq	s0,s2,80008dd0 <enormlz+0x38>
    80008dee:	0064d783          	lhu	a5,6(s1)
    80008df2:	d7f5                	beqz	a5,80008dde <enormlz+0x46>
    80008df4:	0064d783          	lhu	a5,6(s1)
    80008df8:	f007f793          	andi	a5,a5,-256
    80008dfc:	c385                	beqz	a5,80008e1c <enormlz+0x84>
    80008dfe:	0a000913          	li	s2,160
    80008e02:	00649783          	lh	a5,6(s1)
    80008e06:	fc07c5e3          	bltz	a5,80008dd0 <enormlz+0x38>
    80008e0a:	8526                	mv	a0,s1
    80008e0c:	2405                	addiw	s0,s0,1
    80008e0e:	00000097          	auipc	ra,0x0
    80008e12:	b24080e7          	jalr	-1244(ra) # 80008932 <eshup1>
    80008e16:	fe8956e3          	ble	s0,s2,80008e02 <enormlz+0x6a>
    80008e1a:	bf5d                	j	80008dd0 <enormlz+0x38>
    80008e1c:	8526                	mv	a0,s1
    80008e1e:	00000097          	auipc	ra,0x0
    80008e22:	b80080e7          	jalr	-1152(ra) # 8000899e <eshup8>
    80008e26:	2421                	addiw	s0,s0,8
    80008e28:	b7f1                	j	80008df4 <enormlz+0x5c>
    80008e2a:	8526                	mv	a0,s1
    80008e2c:	347d                	addiw	s0,s0,-1
    80008e2e:	00000097          	auipc	ra,0x0
    80008e32:	acc080e7          	jalr	-1332(ra) # 800088fa <eshdn1>
    80008e36:	f9240de3          	beq	s0,s2,80008dd0 <enormlz+0x38>
    80008e3a:	0044d783          	lhu	a5,4(s1)
    80008e3e:	f7f5                	bnez	a5,80008e2a <enormlz+0x92>
    80008e40:	bf41                	j	80008dd0 <enormlz+0x38>

0000000080008e42 <enan.constprop.12>:
    80008e42:	01050713          	addi	a4,a0,16
    80008e46:	87aa                	mv	a5,a0
    80008e48:	0789                	addi	a5,a5,2
    80008e4a:	fe079f23          	sh	zero,-2(a5)
    80008e4e:	fee79de3          	bne	a5,a4,80008e48 <enan.constprop.12+0x6>
    80008e52:	7fffc7b7          	lui	a5,0x7fffc
    80008e56:	c91c                	sw	a5,16(a0)
    80008e58:	8082                	ret

0000000080008e5a <emovo.isra.6>:
    80008e5a:	872a                	mv	a4,a0
    80008e5c:	00075683          	lhu	a3,0(a4) # 8000 <_stack_size>
    80008e60:	852e                	mv	a0,a1
    80008e62:	00275783          	lhu	a5,2(a4)
    80008e66:	c299                	beqz	a3,80008e6c <emovo.isra.6+0x12>
    80008e68:	76e1                	lui	a3,0xffff8
    80008e6a:	8fd5                	or	a5,a5,a3
    80008e6c:	00f51923          	sh	a5,18(a0)
    80008e70:	00275603          	lhu	a2,2(a4)
    80008e74:	66a1                	lui	a3,0x8
    80008e76:	16fd                	addi	a3,a3,-1
    80008e78:	00670793          	addi	a5,a4,6
    80008e7c:	00d61d63          	bne	a2,a3,80008e96 <emovo.isra.6+0x3c>
    80008e80:	0769                	addi	a4,a4,26
    80008e82:	0007d683          	lhu	a3,0(a5) # 7fffc000 <_stack_size+0x7fff4000>
    80008e86:	e29d                	bnez	a3,80008eac <emovo.isra.6+0x52>
    80008e88:	0789                	addi	a5,a5,2
    80008e8a:	fee79ce3          	bne	a5,a4,80008e82 <emovo.isra.6+0x28>
    80008e8e:	00000317          	auipc	t1,0x0
    80008e92:	df230067          	jr	-526(t1) # 80008c80 <einfin.isra.2>
    80008e96:	0541                	addi	a0,a0,16
    80008e98:	0761                	addi	a4,a4,24
    80008e9a:	0789                	addi	a5,a5,2
    80008e9c:	ffe7d683          	lhu	a3,-2(a5)
    80008ea0:	1579                	addi	a0,a0,-2
    80008ea2:	00d51123          	sh	a3,2(a0)
    80008ea6:	fee79ae3          	bne	a5,a4,80008e9a <emovo.isra.6+0x40>
    80008eaa:	8082                	ret
    80008eac:	00000317          	auipc	t1,0x0
    80008eb0:	f9630067          	jr	-106(t1) # 80008e42 <enan.constprop.12>

0000000080008eb4 <e113toe.isra.8>:
    80008eb4:	7139                	addi	sp,sp,-64
    80008eb6:	f426                	sd	s1,40(sp)
    80008eb8:	84aa                	mv	s1,a0
    80008eba:	850a                	mv	a0,sp
    80008ebc:	f822                	sd	s0,48(sp)
    80008ebe:	fc06                	sd	ra,56(sp)
    80008ec0:	842e                	mv	s0,a1
    80008ec2:	00000097          	auipc	ra,0x0
    80008ec6:	9dc080e7          	jalr	-1572(ra) # 8000889e <ecleaz>
    80008eca:	00e4d703          	lhu	a4,14(s1)
    80008ece:	0107179b          	slliw	a5,a4,0x10
    80008ed2:	4107d79b          	sraiw	a5,a5,0x10
    80008ed6:	02079693          	slli	a3,a5,0x20
    80008eda:	0206c963          	bltz	a3,80008f0c <e113toe.isra.8+0x58>
    80008ede:	00011023          	sh	zero,0(sp)
    80008ee2:	66a1                	lui	a3,0x8
    80008ee4:	16fd                	addi	a3,a3,-1
    80008ee6:	8f75                	and	a4,a4,a3
    80008ee8:	00e48793          	addi	a5,s1,14
    80008eec:	06d71263          	bne	a4,a3,80008f50 <e113toe.isra.8+0x9c>
    80008ef0:	8726                	mv	a4,s1
    80008ef2:	00075683          	lhu	a3,0(a4)
    80008ef6:	ce99                	beqz	a3,80008f14 <e113toe.isra.8+0x60>
    80008ef8:	8522                	mv	a0,s0
    80008efa:	00000097          	auipc	ra,0x0
    80008efe:	f48080e7          	jalr	-184(ra) # 80008e42 <enan.constprop.12>
    80008f02:	70e2                	ld	ra,56(sp)
    80008f04:	7442                	ld	s0,48(sp)
    80008f06:	74a2                	ld	s1,40(sp)
    80008f08:	6121                	addi	sp,sp,64
    80008f0a:	8082                	ret
    80008f0c:	57fd                	li	a5,-1
    80008f0e:	00f11023          	sh	a5,0(sp)
    80008f12:	bfc1                	j	80008ee2 <e113toe.isra.8+0x2e>
    80008f14:	0709                	addi	a4,a4,2
    80008f16:	fce79ee3          	bne	a5,a4,80008ef2 <e113toe.isra.8+0x3e>
    80008f1a:	8522                	mv	a0,s0
    80008f1c:	00000097          	auipc	ra,0x0
    80008f20:	956080e7          	jalr	-1706(ra) # 80008872 <eclear>
    80008f24:	8522                	mv	a0,s0
    80008f26:	00000097          	auipc	ra,0x0
    80008f2a:	d5a080e7          	jalr	-678(ra) # 80008c80 <einfin.isra.2>
    80008f2e:	00e49783          	lh	a5,14(s1)
    80008f32:	fc07d8e3          	bgez	a5,80008f02 <e113toe.isra.8+0x4e>
    80008f36:	8522                	mv	a0,s0
    80008f38:	00000097          	auipc	ra,0x0
    80008f3c:	b82080e7          	jalr	-1150(ra) # 80008aba <eisnan>
    80008f40:	f169                	bnez	a0,80008f02 <e113toe.isra.8+0x4e>
    80008f42:	01245783          	lhu	a5,18(s0)
    80008f46:	7761                	lui	a4,0xffff8
    80008f48:	8fb9                	xor	a5,a5,a4
    80008f4a:	00f41923          	sh	a5,18(s0)
    80008f4e:	bf55                	j	80008f02 <e113toe.isra.8+0x4e>
    80008f50:	00e11123          	sh	a4,2(sp)
    80008f54:	868a                	mv	a3,sp
    80008f56:	17f9                	addi	a5,a5,-2
    80008f58:	0007d603          	lhu	a2,0(a5)
    80008f5c:	0689                	addi	a3,a3,2
    80008f5e:	00c69223          	sh	a2,4(a3) # 8004 <_stack_size+0x4>
    80008f62:	fef49ae3          	bne	s1,a5,80008f56 <e113toe.isra.8+0xa2>
    80008f66:	eb11                	bnez	a4,80008f7a <e113toe.isra.8+0xc6>
    80008f68:	00011223          	sh	zero,4(sp)
    80008f6c:	85a2                	mv	a1,s0
    80008f6e:	850a                	mv	a0,sp
    80008f70:	00000097          	auipc	ra,0x0
    80008f74:	eea080e7          	jalr	-278(ra) # 80008e5a <emovo.isra.6>
    80008f78:	b769                	j	80008f02 <e113toe.isra.8+0x4e>
    80008f7a:	4785                	li	a5,1
    80008f7c:	55fd                	li	a1,-1
    80008f7e:	850a                	mv	a0,sp
    80008f80:	00f11223          	sh	a5,4(sp)
    80008f84:	00000097          	auipc	ra,0x0
    80008f88:	d1c080e7          	jalr	-740(ra) # 80008ca0 <eshift.part.3>
    80008f8c:	b7c5                	j	80008f6c <e113toe.isra.8+0xb8>

0000000080008f8e <emdnorm>:
    80008f8e:	7139                	addi	sp,sp,-64
    80008f90:	f822                	sd	s0,48(sp)
    80008f92:	f426                	sd	s1,40(sp)
    80008f94:	f04a                	sd	s2,32(sp)
    80008f96:	ec4e                	sd	s3,24(sp)
    80008f98:	e852                	sd	s4,16(sp)
    80008f9a:	e456                	sd	s5,8(sp)
    80008f9c:	8936                	mv	s2,a3
    80008f9e:	843e                	mv	s0,a5
    80008fa0:	fc06                	sd	ra,56(sp)
    80008fa2:	84aa                	mv	s1,a0
    80008fa4:	89ae                	mv	s3,a1
    80008fa6:	8a32                	mv	s4,a2
    80008fa8:	8aba                	mv	s5,a4
    80008faa:	00000097          	auipc	ra,0x0
    80008fae:	dee080e7          	jalr	-530(ra) # 80008d98 <enormlz>
    80008fb2:	09000793          	li	a5,144
    80008fb6:	40a90933          	sub	s2,s2,a0
    80008fba:	02a7d763          	ble	a0,a5,80008fe8 <emdnorm+0x5a>
    80008fbe:	67a1                	lui	a5,0x8
    80008fc0:	17f9                	addi	a5,a5,-2
    80008fc2:	0527c263          	blt	a5,s2,80009006 <emdnorm+0x78>
    80008fc6:	00248793          	addi	a5,s1,2
    80008fca:	04e9                	addi	s1,s1,26
    80008fcc:	0789                	addi	a5,a5,2
    80008fce:	fe079f23          	sh	zero,-2(a5) # 7ffe <_stack_size-0x2>
    80008fd2:	fe979de3          	bne	a5,s1,80008fcc <emdnorm+0x3e>
    80008fd6:	70e2                	ld	ra,56(sp)
    80008fd8:	7442                	ld	s0,48(sp)
    80008fda:	74a2                	ld	s1,40(sp)
    80008fdc:	7902                	ld	s2,32(sp)
    80008fde:	69e2                	ld	s3,24(sp)
    80008fe0:	6a42                	ld	s4,16(sp)
    80008fe2:	6aa2                	ld	s5,8(sp)
    80008fe4:	6121                	addi	sp,sp,64
    80008fe6:	8082                	ret
    80008fe8:	00095f63          	bgez	s2,80009006 <emdnorm+0x78>
    80008fec:	f7000793          	li	a5,-144
    80008ff0:	14f94363          	blt	s2,a5,80009136 <emdnorm+0x1a8>
    80008ff4:	0009059b          	sext.w	a1,s2
    80008ff8:	8526                	mv	a0,s1
    80008ffa:	00000097          	auipc	ra,0x0
    80008ffe:	ca6080e7          	jalr	-858(ra) # 80008ca0 <eshift.part.3>
    80009002:	14051363          	bnez	a0,80009148 <emdnorm+0x1ba>
    80009006:	100a8463          	beqz	s5,8000910e <emdnorm+0x180>
    8000900a:	4058                	lw	a4,4(s0)
    8000900c:	401c                	lw	a5,0(s0)
    8000900e:	04f70a63          	beq	a4,a5,80009062 <emdnorm+0xd4>
    80009012:	01a40513          	addi	a0,s0,26
    80009016:	00000097          	auipc	ra,0x0
    8000901a:	888080e7          	jalr	-1912(ra) # 8000889e <ecleaz>
    8000901e:	405c                	lw	a5,4(s0)
    80009020:	03800713          	li	a4,56
    80009024:	16e78263          	beq	a5,a4,80009188 <emdnorm+0x1fa>
    80009028:	12f74263          	blt	a4,a5,8000914c <emdnorm+0x1be>
    8000902c:	4761                	li	a4,24
    8000902e:	18e78363          	beq	a5,a4,800091b4 <emdnorm+0x226>
    80009032:	03500713          	li	a4,53
    80009036:	16e78663          	beq	a5,a4,800091a2 <emdnorm+0x214>
    8000903a:	80010737          	lui	a4,0x80010
    8000903e:	377d                	addiw	a4,a4,-1
    80009040:	c858                	sw	a4,20(s0)
    80009042:	4705                	li	a4,1
    80009044:	00e41c23          	sh	a4,24(s0)
    80009048:	472d                	li	a4,11
    8000904a:	1702                	slli	a4,a4,0x20
    8000904c:	0731                	addi	a4,a4,12
    8000904e:	e418                	sd	a4,8(s0)
    80009050:	4458                	lw	a4,12(s0)
    80009052:	01845683          	lhu	a3,24(s0)
    80009056:	0721                	addi	a4,a4,8
    80009058:	0706                	slli	a4,a4,0x1
    8000905a:	9722                	add	a4,a4,s0
    8000905c:	00d71523          	sh	a3,10(a4) # ffffffff8001000a <_trapsp0+0xfffffffefffdafca>
    80009060:	c01c                	sw	a5,0(s0)
    80009062:	03204163          	bgtz	s2,80009084 <emdnorm+0xf6>
    80009066:	4058                	lw	a4,4(s0)
    80009068:	09000793          	li	a5,144
    8000906c:	00f70c63          	beq	a4,a5,80009084 <emdnorm+0xf6>
    80009070:	0184d783          	lhu	a5,24(s1)
    80009074:	8526                	mv	a0,s1
    80009076:	8b85                	andi	a5,a5,1
    80009078:	00f9e9b3          	or	s3,s3,a5
    8000907c:	00000097          	auipc	ra,0x0
    80009080:	87e080e7          	jalr	-1922(ra) # 800088fa <eshdn1>
    80009084:	441c                	lw	a5,8(s0)
    80009086:	01445603          	lhu	a2,20(s0)
    8000908a:	404c                	lw	a1,4(s0)
    8000908c:	00179693          	slli	a3,a5,0x1
    80009090:	96a6                	add	a3,a3,s1
    80009092:	0006d703          	lhu	a4,0(a3)
    80009096:	8f71                	and	a4,a4,a2
    80009098:	08f00613          	li	a2,143
    8000909c:	00b64863          	blt	a2,a1,800090ac <emdnorm+0x11e>
    800090a0:	2785                	addiw	a5,a5,1
    800090a2:	45b1                	li	a1,12
    800090a4:	0007861b          	sext.w	a2,a5
    800090a8:	12c5d363          	ble	a2,a1,800091ce <emdnorm+0x240>
    800090ac:	01445783          	lhu	a5,20(s0)
    800090b0:	0006d603          	lhu	a2,0(a3)
    800090b4:	fff7c793          	not	a5,a5
    800090b8:	8ff1                	and	a5,a5,a2
    800090ba:	00f69023          	sh	a5,0(a3)
    800090be:	01645783          	lhu	a5,22(s0)
    800090c2:	00e7f6b3          	and	a3,a5,a4
    800090c6:	ce99                	beqz	a3,800090e4 <emdnorm+0x156>
    800090c8:	12e79163          	bne	a5,a4,800091ea <emdnorm+0x25c>
    800090cc:	10099d63          	bnez	s3,800091e6 <emdnorm+0x258>
    800090d0:	445c                	lw	a5,12(s0)
    800090d2:	01845703          	lhu	a4,24(s0)
    800090d6:	0786                	slli	a5,a5,0x1
    800090d8:	97a6                	add	a5,a5,s1
    800090da:	0007d783          	lhu	a5,0(a5)
    800090de:	8ff9                	and	a5,a5,a4
    800090e0:	10079563          	bnez	a5,800091ea <emdnorm+0x25c>
    800090e4:	01204c63          	bgtz	s2,800090fc <emdnorm+0x16e>
    800090e8:	4058                	lw	a4,4(s0)
    800090ea:	09000793          	li	a5,144
    800090ee:	00f70763          	beq	a4,a5,800090fc <emdnorm+0x16e>
    800090f2:	8526                	mv	a0,s1
    800090f4:	00000097          	auipc	ra,0x0
    800090f8:	83e080e7          	jalr	-1986(ra) # 80008932 <eshup1>
    800090fc:	0044d783          	lhu	a5,4(s1)
    80009100:	c799                	beqz	a5,8000910e <emdnorm+0x180>
    80009102:	8526                	mv	a0,s1
    80009104:	fffff097          	auipc	ra,0xfffff
    80009108:	7f6080e7          	jalr	2038(ra) # 800088fa <eshdn1>
    8000910c:	0905                	addi	s2,s2,1
    8000910e:	67a1                	lui	a5,0x8
    80009110:	00049c23          	sh	zero,24(s1)
    80009114:	17f9                	addi	a5,a5,-2
    80009116:	0f27d263          	ble	s2,a5,800091fa <emdnorm+0x26c>
    8000911a:	77e1                	lui	a5,0xffff8
    8000911c:	fff7c793          	not	a5,a5
    80009120:	00f49123          	sh	a5,2(s1)
    80009124:	00448793          	addi	a5,s1,4
    80009128:	04e1                	addi	s1,s1,24
    8000912a:	00079023          	sh	zero,0(a5) # ffffffffffff8000 <_trapsp0+0xffffffff7ffc2fc0>
    8000912e:	0789                	addi	a5,a5,2
    80009130:	fef49de3          	bne	s1,a5,8000912a <emdnorm+0x19c>
    80009134:	b54d                	j	80008fd6 <emdnorm+0x48>
    80009136:	00248793          	addi	a5,s1,2
    8000913a:	04e9                	addi	s1,s1,26
    8000913c:	0789                	addi	a5,a5,2
    8000913e:	fe079f23          	sh	zero,-2(a5)
    80009142:	fe979de3          	bne	a5,s1,8000913c <emdnorm+0x1ae>
    80009146:	bd41                	j	80008fd6 <emdnorm+0x48>
    80009148:	4985                	li	s3,1
    8000914a:	bd75                	j	80009006 <emdnorm+0x78>
    8000914c:	04000713          	li	a4,64
    80009150:	02e78163          	beq	a5,a4,80009172 <emdnorm+0x1e4>
    80009154:	07100713          	li	a4,113
    80009158:	eee791e3          	bne	a5,a4,8000903a <emdnorm+0xac>
    8000915c:	40008737          	lui	a4,0x40008
    80009160:	377d                	addiw	a4,a4,-1
    80009162:	c858                	sw	a4,20(s0)
    80009164:	7761                	lui	a4,0xffff8
    80009166:	00e41c23          	sh	a4,24(s0)
    8000916a:	4729                	li	a4,10
    8000916c:	1702                	slli	a4,a4,0x20
    8000916e:	0729                	addi	a4,a4,10
    80009170:	bdf9                	j	8000904e <emdnorm+0xc0>
    80009172:	80010737          	lui	a4,0x80010
    80009176:	377d                	addiw	a4,a4,-1
    80009178:	c858                	sw	a4,20(s0)
    8000917a:	4705                	li	a4,1
    8000917c:	00e41c23          	sh	a4,24(s0)
    80009180:	470d                	li	a4,3
    80009182:	1706                	slli	a4,a4,0x21
    80009184:	071d                	addi	a4,a4,7
    80009186:	b5e1                	j	8000904e <emdnorm+0xc0>
    80009188:	00800737          	lui	a4,0x800
    8000918c:	0ff7071b          	addiw	a4,a4,255
    80009190:	c858                	sw	a4,20(s0)
    80009192:	10000713          	li	a4,256
    80009196:	00e41c23          	sh	a4,24(s0)
    8000919a:	4719                	li	a4,6
    8000919c:	1702                	slli	a4,a4,0x20
    8000919e:	0719                	addi	a4,a4,6
    800091a0:	b57d                	j	8000904e <emdnorm+0xc0>
    800091a2:	04000737          	lui	a4,0x4000
    800091a6:	7ff7071b          	addiw	a4,a4,2047
    800091aa:	c858                	sw	a4,20(s0)
    800091ac:	6705                	lui	a4,0x1
    800091ae:	8007071b          	addiw	a4,a4,-2048
    800091b2:	b7d5                	j	80009196 <emdnorm+0x208>
    800091b4:	00800737          	lui	a4,0x800
    800091b8:	0ff7071b          	addiw	a4,a4,255
    800091bc:	c858                	sw	a4,20(s0)
    800091be:	10000713          	li	a4,256
    800091c2:	00e41c23          	sh	a4,24(s0)
    800091c6:	4711                	li	a4,4
    800091c8:	1702                	slli	a4,a4,0x20
    800091ca:	0711                	addi	a4,a4,4
    800091cc:	b549                	j	8000904e <emdnorm+0xc0>
    800091ce:	00179613          	slli	a2,a5,0x1
    800091d2:	9626                	add	a2,a2,s1
    800091d4:	00065503          	lhu	a0,0(a2)
    800091d8:	c119                	beqz	a0,800091de <emdnorm+0x250>
    800091da:	00176713          	ori	a4,a4,1
    800091de:	00061023          	sh	zero,0(a2)
    800091e2:	0785                	addi	a5,a5,1
    800091e4:	b5c1                	j	800090a4 <emdnorm+0x116>
    800091e6:	ee0a1fe3          	bnez	s4,800090e4 <emdnorm+0x156>
    800091ea:	85a6                	mv	a1,s1
    800091ec:	01a40513          	addi	a0,s0,26
    800091f0:	00000097          	auipc	ra,0x0
    800091f4:	806080e7          	jalr	-2042(ra) # 800089f6 <eaddm>
    800091f8:	b5f5                	j	800090e4 <emdnorm+0x156>
    800091fa:	00095563          	bgez	s2,80009204 <emdnorm+0x276>
    800091fe:	00049123          	sh	zero,2(s1)
    80009202:	bbd1                	j	80008fd6 <emdnorm+0x48>
    80009204:	01249123          	sh	s2,2(s1)
    80009208:	b3f9                	j	80008fd6 <emdnorm+0x48>

000000008000920a <eiremain>:
    8000920a:	7139                	addi	sp,sp,-64
    8000920c:	e852                	sd	s4,16(sp)
    8000920e:	00255a03          	lhu	s4,2(a0)
    80009212:	f822                	sd	s0,48(sp)
    80009214:	842e                	mv	s0,a1
    80009216:	fc06                	sd	ra,56(sp)
    80009218:	f426                	sd	s1,40(sp)
    8000921a:	f04a                	sd	s2,32(sp)
    8000921c:	e456                	sd	s5,8(sp)
    8000921e:	e05a                	sd	s6,0(sp)
    80009220:	8932                	mv	s2,a2
    80009222:	03460b13          	addi	s6,a2,52
    80009226:	ec4e                	sd	s3,24(sp)
    80009228:	8aaa                	mv	s5,a0
    8000922a:	00000097          	auipc	ra,0x0
    8000922e:	b6e080e7          	jalr	-1170(ra) # 80008d98 <enormlz>
    80009232:	00245483          	lhu	s1,2(s0)
    80009236:	40aa0a33          	sub	s4,s4,a0
    8000923a:	8522                	mv	a0,s0
    8000923c:	00000097          	auipc	ra,0x0
    80009240:	b5c080e7          	jalr	-1188(ra) # 80008d98 <enormlz>
    80009244:	8c89                	sub	s1,s1,a0
    80009246:	855a                	mv	a0,s6
    80009248:	fffff097          	auipc	ra,0xfffff
    8000924c:	656080e7          	jalr	1622(ra) # 8000889e <ecleaz>
    80009250:	0344d563          	ble	s4,s1,8000927a <eiremain+0x70>
    80009254:	8522                	mv	a0,s0
    80009256:	7442                	ld	s0,48(sp)
    80009258:	70e2                	ld	ra,56(sp)
    8000925a:	69e2                	ld	s3,24(sp)
    8000925c:	6a42                	ld	s4,16(sp)
    8000925e:	6aa2                	ld	s5,8(sp)
    80009260:	6b02                	ld	s6,0(sp)
    80009262:	87ca                	mv	a5,s2
    80009264:	86a6                	mv	a3,s1
    80009266:	7902                	ld	s2,32(sp)
    80009268:	74a2                	ld	s1,40(sp)
    8000926a:	4701                	li	a4,0
    8000926c:	4601                	li	a2,0
    8000926e:	4581                	li	a1,0
    80009270:	6121                	addi	sp,sp,64
    80009272:	00000317          	auipc	t1,0x0
    80009276:	d1c30067          	jr	-740(t1) # 80008f8e <emdnorm>
    8000927a:	85a2                	mv	a1,s0
    8000927c:	8556                	mv	a0,s5
    8000927e:	fffff097          	auipc	ra,0xfffff
    80009282:	650080e7          	jalr	1616(ra) # 800088ce <ecmpm>
    80009286:	4981                	li	s3,0
    80009288:	00a04963          	bgtz	a0,8000929a <eiremain+0x90>
    8000928c:	85a2                	mv	a1,s0
    8000928e:	8556                	mv	a0,s5
    80009290:	fffff097          	auipc	ra,0xfffff
    80009294:	78e080e7          	jalr	1934(ra) # 80008a1e <esubm>
    80009298:	4985                	li	s3,1
    8000929a:	855a                	mv	a0,s6
    8000929c:	fffff097          	auipc	ra,0xfffff
    800092a0:	696080e7          	jalr	1686(ra) # 80008932 <eshup1>
    800092a4:	04c95783          	lhu	a5,76(s2)
    800092a8:	8522                	mv	a0,s0
    800092aa:	14fd                	addi	s1,s1,-1
    800092ac:	00f9e9b3          	or	s3,s3,a5
    800092b0:	05391623          	sh	s3,76(s2)
    800092b4:	fffff097          	auipc	ra,0xfffff
    800092b8:	67e080e7          	jalr	1662(ra) # 80008932 <eshup1>
    800092bc:	bf51                	j	80009250 <eiremain+0x46>

00000000800092be <emul>:
    800092be:	7171                	addi	sp,sp,-176
    800092c0:	f122                	sd	s0,160(sp)
    800092c2:	ed26                	sd	s1,152(sp)
    800092c4:	e54e                	sd	s3,136(sp)
    800092c6:	e152                	sd	s4,128(sp)
    800092c8:	f506                	sd	ra,168(sp)
    800092ca:	e94a                	sd	s2,144(sp)
    800092cc:	fcd6                	sd	s5,120(sp)
    800092ce:	f8da                	sd	s6,112(sp)
    800092d0:	f4de                	sd	s7,104(sp)
    800092d2:	f0e2                	sd	s8,96(sp)
    800092d4:	84aa                	mv	s1,a0
    800092d6:	842e                	mv	s0,a1
    800092d8:	89b2                	mv	s3,a2
    800092da:	8a36                	mv	s4,a3
    800092dc:	fffff097          	auipc	ra,0xfffff
    800092e0:	7de080e7          	jalr	2014(ra) # 80008aba <eisnan>
    800092e4:	c11d                	beqz	a0,8000930a <emul+0x4c>
    800092e6:	85ce                	mv	a1,s3
    800092e8:	8526                	mv	a0,s1
    800092ea:	fffff097          	auipc	ra,0xfffff
    800092ee:	598080e7          	jalr	1432(ra) # 80008882 <emov>
    800092f2:	70aa                	ld	ra,168(sp)
    800092f4:	740a                	ld	s0,160(sp)
    800092f6:	64ea                	ld	s1,152(sp)
    800092f8:	694a                	ld	s2,144(sp)
    800092fa:	69aa                	ld	s3,136(sp)
    800092fc:	6a0a                	ld	s4,128(sp)
    800092fe:	7ae6                	ld	s5,120(sp)
    80009300:	7b46                	ld	s6,112(sp)
    80009302:	7ba6                	ld	s7,104(sp)
    80009304:	7c06                	ld	s8,96(sp)
    80009306:	614d                	addi	sp,sp,176
    80009308:	8082                	ret
    8000930a:	8522                	mv	a0,s0
    8000930c:	fffff097          	auipc	ra,0xfffff
    80009310:	7ae080e7          	jalr	1966(ra) # 80008aba <eisnan>
    80009314:	c501                	beqz	a0,8000931c <emul+0x5e>
    80009316:	85ce                	mv	a1,s3
    80009318:	8522                	mv	a0,s0
    8000931a:	bfc1                	j	800092ea <emul+0x2c>
    8000931c:	8526                	mv	a0,s1
    8000931e:	00000097          	auipc	ra,0x0
    80009322:	93a080e7          	jalr	-1734(ra) # 80008c58 <eisinf>
    80009326:	e13d                	bnez	a0,8000938c <emul+0xce>
    80009328:	8522                	mv	a0,s0
    8000932a:	00000097          	auipc	ra,0x0
    8000932e:	92e080e7          	jalr	-1746(ra) # 80008c58 <eisinf>
    80009332:	c919                	beqz	a0,80009348 <emul+0x8a>
    80009334:	00004597          	auipc	a1,0x4
    80009338:	2b458593          	addi	a1,a1,692 # 8000d5e8 <ezero>
    8000933c:	8526                	mv	a0,s1
    8000933e:	00000097          	auipc	ra,0x0
    80009342:	866080e7          	jalr	-1946(ra) # 80008ba4 <ecmp>
    80009346:	cd29                	beqz	a0,800093a0 <emul+0xe2>
    80009348:	8526                	mv	a0,s1
    8000934a:	00000097          	auipc	ra,0x0
    8000934e:	90e080e7          	jalr	-1778(ra) # 80008c58 <eisinf>
    80009352:	e519                	bnez	a0,80009360 <emul+0xa2>
    80009354:	8522                	mv	a0,s0
    80009356:	00000097          	auipc	ra,0x0
    8000935a:	902080e7          	jalr	-1790(ra) # 80008c58 <eisinf>
    8000935e:	c931                	beqz	a0,800093b2 <emul+0xf4>
    80009360:	8526                	mv	a0,s1
    80009362:	fffff097          	auipc	ra,0xfffff
    80009366:	77e080e7          	jalr	1918(ra) # 80008ae0 <eisneg>
    8000936a:	84aa                	mv	s1,a0
    8000936c:	8522                	mv	a0,s0
    8000936e:	fffff097          	auipc	ra,0xfffff
    80009372:	772080e7          	jalr	1906(ra) # 80008ae0 <eisneg>
    80009376:	02a48b63          	beq	s1,a0,800093ac <emul+0xee>
    8000937a:	77e1                	lui	a5,0xffff8
    8000937c:	00f99923          	sh	a5,18(s3)
    80009380:	854e                	mv	a0,s3
    80009382:	00000097          	auipc	ra,0x0
    80009386:	8fe080e7          	jalr	-1794(ra) # 80008c80 <einfin.isra.2>
    8000938a:	b7a5                	j	800092f2 <emul+0x34>
    8000938c:	00004597          	auipc	a1,0x4
    80009390:	25c58593          	addi	a1,a1,604 # 8000d5e8 <ezero>
    80009394:	8522                	mv	a0,s0
    80009396:	00000097          	auipc	ra,0x0
    8000939a:	80e080e7          	jalr	-2034(ra) # 80008ba4 <ecmp>
    8000939e:	f549                	bnez	a0,80009328 <emul+0x6a>
    800093a0:	854e                	mv	a0,s3
    800093a2:	00000097          	auipc	ra,0x0
    800093a6:	aa0080e7          	jalr	-1376(ra) # 80008e42 <enan.constprop.12>
    800093aa:	b7a1                	j	800092f2 <emul+0x34>
    800093ac:	00099923          	sh	zero,18(s3)
    800093b0:	bfc1                	j	80009380 <emul+0xc2>
    800093b2:	8526                	mv	a0,s1
    800093b4:	858a                	mv	a1,sp
    800093b6:	fffff097          	auipc	ra,0xfffff
    800093ba:	750080e7          	jalr	1872(ra) # 80008b06 <emovi>
    800093be:	8522                	mv	a0,s0
    800093c0:	100c                	addi	a1,sp,32
    800093c2:	fffff097          	auipc	ra,0xfffff
    800093c6:	744080e7          	jalr	1860(ra) # 80008b06 <emovi>
    800093ca:	00215403          	lhu	s0,2(sp)
    800093ce:	02215483          	lhu	s1,34(sp)
    800093d2:	c469                	beqz	s0,8000949c <emul+0x1de>
    800093d4:	02215783          	lhu	a5,34(sp)
    800093d8:	8b26                	mv	s6,s1
    800093da:	cbf9                	beqz	a5,800094b0 <emul+0x1f2>
    800093dc:	5782                	lw	a5,32(sp)
    800093de:	034a0913          	addi	s2,s4,52
    800093e2:	04ea0b93          	addi	s7,s4,78
    800093e6:	02fa2a23          	sw	a5,52(s4)
    800093ea:	038a0793          	addi	a5,s4,56
    800093ee:	00079023          	sh	zero,0(a5) # ffffffffffff8000 <_trapsp0+0xffffffff7ffc2fc0>
    800093f2:	0789                	addi	a5,a5,2
    800093f4:	ff779de3          	bne	a5,s7,800093ee <emul+0x130>
    800093f8:	848a                	mv	s1,sp
    800093fa:	fec10c13          	addi	s8,sp,-20
    800093fe:	4a81                	li	s5,0
    80009400:	0184d503          	lhu	a0,24(s1)
    80009404:	cd09                	beqz	a0,8000941e <emul+0x160>
    80009406:	100c                	addi	a1,sp,32
    80009408:	0090                	addi	a2,sp,64
    8000940a:	fffff097          	auipc	ra,0xfffff
    8000940e:	63c080e7          	jalr	1596(ra) # 80008a46 <m16m>
    80009412:	85ca                	mv	a1,s2
    80009414:	0088                	addi	a0,sp,64
    80009416:	fffff097          	auipc	ra,0xfffff
    8000941a:	5e0080e7          	jalr	1504(ra) # 800089f6 <eaddm>
    8000941e:	04ca5783          	lhu	a5,76(s4)
    80009422:	854a                	mv	a0,s2
    80009424:	14f9                	addi	s1,s1,-2
    80009426:	00faeab3          	or	s5,s5,a5
    8000942a:	fffff097          	auipc	ra,0xfffff
    8000942e:	5b0080e7          	jalr	1456(ra) # 800089da <eshdn6>
    80009432:	fc9c17e3          	bne	s8,s1,80009400 <emul+0x142>
    80009436:	85ca                	mv	a1,s2
    80009438:	101c                	addi	a5,sp,32
    8000943a:	0005d703          	lhu	a4,0(a1)
    8000943e:	0589                	addi	a1,a1,2
    80009440:	0789                	addi	a5,a5,2
    80009442:	fee79f23          	sh	a4,-2(a5)
    80009446:	ff759ae3          	bne	a1,s7,8000943a <emul+0x17c>
    8000944a:	76f1                	lui	a3,0xffffc
    8000944c:	945a                	add	s0,s0,s6
    8000944e:	0689                	addi	a3,a3,2
    80009450:	87d2                	mv	a5,s4
    80009452:	04000713          	li	a4,64
    80009456:	96a2                	add	a3,a3,s0
    80009458:	4601                	li	a2,0
    8000945a:	85d6                	mv	a1,s5
    8000945c:	1008                	addi	a0,sp,32
    8000945e:	00000097          	auipc	ra,0x0
    80009462:	b30080e7          	jalr	-1232(ra) # 80008f8e <emdnorm>
    80009466:	00015703          	lhu	a4,0(sp)
    8000946a:	02015783          	lhu	a5,32(sp)
    8000946e:	06f71163          	bne	a4,a5,800094d0 <emul+0x212>
    80009472:	02011023          	sh	zero,32(sp)
    80009476:	85ce                	mv	a1,s3
    80009478:	1008                	addi	a0,sp,32
    8000947a:	00000097          	auipc	ra,0x0
    8000947e:	9e0080e7          	jalr	-1568(ra) # 80008e5a <emovo.isra.6>
    80009482:	bd85                	j	800092f2 <emul+0x34>
    80009484:	0789                	addi	a5,a5,2
    80009486:	0027d683          	lhu	a3,2(a5)
    8000948a:	ca99                	beqz	a3,800094a0 <emul+0x1e2>
    8000948c:	850a                	mv	a0,sp
    8000948e:	00000097          	auipc	ra,0x0
    80009492:	90a080e7          	jalr	-1782(ra) # 80008d98 <enormlz>
    80009496:	40a00433          	neg	s0,a0
    8000949a:	bf2d                	j	800093d4 <emul+0x116>
    8000949c:	878a                	mv	a5,sp
    8000949e:	0858                	addi	a4,sp,20
    800094a0:	fee792e3          	bne	a5,a4,80009484 <emul+0x1c6>
    800094a4:	854e                	mv	a0,s3
    800094a6:	fffff097          	auipc	ra,0xfffff
    800094aa:	3cc080e7          	jalr	972(ra) # 80008872 <eclear>
    800094ae:	b591                	j	800092f2 <emul+0x34>
    800094b0:	101c                	addi	a5,sp,32
    800094b2:	1858                	addi	a4,sp,52
    800094b4:	fee788e3          	beq	a5,a4,800094a4 <emul+0x1e6>
    800094b8:	0789                	addi	a5,a5,2
    800094ba:	0027d683          	lhu	a3,2(a5)
    800094be:	dafd                	beqz	a3,800094b4 <emul+0x1f6>
    800094c0:	1008                	addi	a0,sp,32
    800094c2:	00000097          	auipc	ra,0x0
    800094c6:	8d6080e7          	jalr	-1834(ra) # 80008d98 <enormlz>
    800094ca:	40a48b33          	sub	s6,s1,a0
    800094ce:	b739                	j	800093dc <emul+0x11e>
    800094d0:	57fd                	li	a5,-1
    800094d2:	02f11023          	sh	a5,32(sp)
    800094d6:	b745                	j	80009476 <emul+0x1b8>

00000000800094d8 <ediv>:
    800094d8:	7131                	addi	sp,sp,-192
    800094da:	f922                	sd	s0,176(sp)
    800094dc:	f526                	sd	s1,168(sp)
    800094de:	f14a                	sd	s2,160(sp)
    800094e0:	e556                	sd	s5,136(sp)
    800094e2:	fd06                	sd	ra,184(sp)
    800094e4:	ed4e                	sd	s3,152(sp)
    800094e6:	e952                	sd	s4,144(sp)
    800094e8:	e15a                	sd	s6,128(sp)
    800094ea:	fcde                	sd	s7,120(sp)
    800094ec:	f8e2                	sd	s8,112(sp)
    800094ee:	f4e6                	sd	s9,104(sp)
    800094f0:	84aa                	mv	s1,a0
    800094f2:	842e                	mv	s0,a1
    800094f4:	8932                	mv	s2,a2
    800094f6:	8ab6                	mv	s5,a3
    800094f8:	fffff097          	auipc	ra,0xfffff
    800094fc:	5c2080e7          	jalr	1474(ra) # 80008aba <eisnan>
    80009500:	c505                	beqz	a0,80009528 <ediv+0x50>
    80009502:	85ca                	mv	a1,s2
    80009504:	8526                	mv	a0,s1
    80009506:	fffff097          	auipc	ra,0xfffff
    8000950a:	37c080e7          	jalr	892(ra) # 80008882 <emov>
    8000950e:	70ea                	ld	ra,184(sp)
    80009510:	744a                	ld	s0,176(sp)
    80009512:	74aa                	ld	s1,168(sp)
    80009514:	790a                	ld	s2,160(sp)
    80009516:	69ea                	ld	s3,152(sp)
    80009518:	6a4a                	ld	s4,144(sp)
    8000951a:	6aaa                	ld	s5,136(sp)
    8000951c:	6b0a                	ld	s6,128(sp)
    8000951e:	7be6                	ld	s7,120(sp)
    80009520:	7c46                	ld	s8,112(sp)
    80009522:	7ca6                	ld	s9,104(sp)
    80009524:	6129                	addi	sp,sp,192
    80009526:	8082                	ret
    80009528:	8522                	mv	a0,s0
    8000952a:	fffff097          	auipc	ra,0xfffff
    8000952e:	590080e7          	jalr	1424(ra) # 80008aba <eisnan>
    80009532:	c501                	beqz	a0,8000953a <ediv+0x62>
    80009534:	85ca                	mv	a1,s2
    80009536:	8522                	mv	a0,s0
    80009538:	b7f9                	j	80009506 <ediv+0x2e>
    8000953a:	00004597          	auipc	a1,0x4
    8000953e:	0ae58593          	addi	a1,a1,174 # 8000d5e8 <ezero>
    80009542:	8526                	mv	a0,s1
    80009544:	fffff097          	auipc	ra,0xfffff
    80009548:	660080e7          	jalr	1632(ra) # 80008ba4 <ecmp>
    8000954c:	c529                	beqz	a0,80009596 <ediv+0xbe>
    8000954e:	8526                	mv	a0,s1
    80009550:	fffff097          	auipc	ra,0xfffff
    80009554:	708080e7          	jalr	1800(ra) # 80008c58 <eisinf>
    80009558:	89aa                	mv	s3,a0
    8000955a:	8522                	mv	a0,s0
    8000955c:	fffff097          	auipc	ra,0xfffff
    80009560:	6fc080e7          	jalr	1788(ra) # 80008c58 <eisinf>
    80009564:	04099963          	bnez	s3,800095b6 <ediv+0xde>
    80009568:	cd31                	beqz	a0,800095c4 <ediv+0xec>
    8000956a:	8526                	mv	a0,s1
    8000956c:	fffff097          	auipc	ra,0xfffff
    80009570:	574080e7          	jalr	1396(ra) # 80008ae0 <eisneg>
    80009574:	84aa                	mv	s1,a0
    80009576:	8522                	mv	a0,s0
    80009578:	fffff097          	auipc	ra,0xfffff
    8000957c:	568080e7          	jalr	1384(ra) # 80008ae0 <eisneg>
    80009580:	1ca48963          	beq	s1,a0,80009752 <ediv+0x27a>
    80009584:	77e1                	lui	a5,0xffff8
    80009586:	00f91923          	sh	a5,18(s2)
    8000958a:	854a                	mv	a0,s2
    8000958c:	fffff097          	auipc	ra,0xfffff
    80009590:	6f4080e7          	jalr	1780(ra) # 80008c80 <einfin.isra.2>
    80009594:	bfad                	j	8000950e <ediv+0x36>
    80009596:	00004597          	auipc	a1,0x4
    8000959a:	05258593          	addi	a1,a1,82 # 8000d5e8 <ezero>
    8000959e:	8522                	mv	a0,s0
    800095a0:	fffff097          	auipc	ra,0xfffff
    800095a4:	604080e7          	jalr	1540(ra) # 80008ba4 <ecmp>
    800095a8:	f15d                	bnez	a0,8000954e <ediv+0x76>
    800095aa:	854a                	mv	a0,s2
    800095ac:	00000097          	auipc	ra,0x0
    800095b0:	896080e7          	jalr	-1898(ra) # 80008e42 <enan.constprop.12>
    800095b4:	bfa9                	j	8000950e <ediv+0x36>
    800095b6:	f975                	bnez	a0,800095aa <ediv+0xd2>
    800095b8:	854a                	mv	a0,s2
    800095ba:	fffff097          	auipc	ra,0xfffff
    800095be:	2b8080e7          	jalr	696(ra) # 80008872 <eclear>
    800095c2:	b7b1                	j	8000950e <ediv+0x36>
    800095c4:	8526                	mv	a0,s1
    800095c6:	858a                	mv	a1,sp
    800095c8:	fffff097          	auipc	ra,0xfffff
    800095cc:	53e080e7          	jalr	1342(ra) # 80008b06 <emovi>
    800095d0:	8522                	mv	a0,s0
    800095d2:	100c                	addi	a1,sp,32
    800095d4:	fffff097          	auipc	ra,0xfffff
    800095d8:	532080e7          	jalr	1330(ra) # 80008b06 <emovi>
    800095dc:	02215483          	lhu	s1,34(sp)
    800095e0:	00215403          	lhu	s0,2(sp)
    800095e4:	12048163          	beqz	s1,80009706 <ediv+0x22e>
    800095e8:	00215783          	lhu	a5,2(sp)
    800095ec:	8ba2                	mv	s7,s0
    800095ee:	14078863          	beqz	a5,8000973e <ediv+0x266>
    800095f2:	5702                	lw	a4,32(sp)
    800095f4:	038a8793          	addi	a5,s5,56
    800095f8:	04ea8b13          	addi	s6,s5,78
    800095fc:	02eaaa23          	sw	a4,52(s5)
    80009600:	89be                	mv	s3,a5
    80009602:	0789                	addi	a5,a5,2
    80009604:	fe079f23          	sh	zero,-2(a5) # ffffffffffff7ffe <_trapsp0+0xffffffff7ffc2fbe>
    80009608:	ff679de3          	bne	a5,s6,80009602 <ediv+0x12a>
    8000960c:	1008                	addi	a0,sp,32
    8000960e:	fffff097          	auipc	ra,0xfffff
    80009612:	2ec080e7          	jalr	748(ra) # 800088fa <eshdn1>
    80009616:	00615c03          	lhu	s8,6(sp)
    8000961a:	6a41                	lui	s4,0x10
    8000961c:	1a7d                	addi	s4,s4,-1
    8000961e:	034c0cb3          	mul	s9,s8,s4
    80009622:	02415783          	lhu	a5,36(sp)
    80009626:	02615403          	lhu	s0,38(sp)
    8000962a:	07c2                	slli	a5,a5,0x10
    8000962c:	97a2                	add	a5,a5,s0
    8000962e:	8452                	mv	s0,s4
    80009630:	00fce663          	bltu	s9,a5,8000963c <ediv+0x164>
    80009634:	0387d433          	divu	s0,a5,s8
    80009638:	1442                	slli	s0,s0,0x30
    8000963a:	9041                	srli	s0,s0,0x30
    8000963c:	858a                	mv	a1,sp
    8000963e:	8522                	mv	a0,s0
    80009640:	0090                	addi	a2,sp,64
    80009642:	fffff097          	auipc	ra,0xfffff
    80009646:	404080e7          	jalr	1028(ra) # 80008a46 <m16m>
    8000964a:	100c                	addi	a1,sp,32
    8000964c:	0088                	addi	a0,sp,64
    8000964e:	fffff097          	auipc	ra,0xfffff
    80009652:	280080e7          	jalr	640(ra) # 800088ce <ecmpm>
    80009656:	02a05363          	blez	a0,8000967c <ediv+0x1a4>
    8000965a:	008c                	addi	a1,sp,64
    8000965c:	850a                	mv	a0,sp
    8000965e:	fffff097          	auipc	ra,0xfffff
    80009662:	3c0080e7          	jalr	960(ra) # 80008a1e <esubm>
    80009666:	100c                	addi	a1,sp,32
    80009668:	0088                	addi	a0,sp,64
    8000966a:	fffff097          	auipc	ra,0xfffff
    8000966e:	264080e7          	jalr	612(ra) # 800088ce <ecmpm>
    80009672:	0ea04363          	bgtz	a0,80009758 <ediv+0x280>
    80009676:	347d                	addiw	s0,s0,-1
    80009678:	1442                	slli	s0,s0,0x30
    8000967a:	9041                	srli	s0,s0,0x30
    8000967c:	100c                	addi	a1,sp,32
    8000967e:	0088                	addi	a0,sp,64
    80009680:	fffff097          	auipc	ra,0xfffff
    80009684:	39e080e7          	jalr	926(ra) # 80008a1e <esubm>
    80009688:	1008                	addi	a0,sp,32
    8000968a:	00899023          	sh	s0,0(s3)
    8000968e:	0989                	addi	s3,s3,2
    80009690:	fffff097          	auipc	ra,0xfffff
    80009694:	32e080e7          	jalr	814(ra) # 800089be <eshup6>
    80009698:	f93b15e3          	bne	s6,s3,80009622 <ediv+0x14a>
    8000969c:	1018                	addi	a4,sp,32
    8000969e:	03610693          	addi	a3,sp,54
    800096a2:	87ba                	mv	a5,a4
    800096a4:	4581                	li	a1,0
    800096a6:	0047d603          	lhu	a2,4(a5)
    800096aa:	0789                	addi	a5,a5,2
    800096ac:	8dd1                	or	a1,a1,a2
    800096ae:	fef69ce3          	bne	a3,a5,800096a6 <ediv+0x1ce>
    800096b2:	2581                	sext.w	a1,a1
    800096b4:	00b035b3          	snez	a1,a1
    800096b8:	034a8793          	addi	a5,s5,52
    800096bc:	0007d683          	lhu	a3,0(a5)
    800096c0:	0789                	addi	a5,a5,2
    800096c2:	0709                	addi	a4,a4,2
    800096c4:	fed71f23          	sh	a3,-2(a4) # 7ffffe <_stack_size+0x7f7ffe>
    800096c8:	fefb1ae3          	bne	s6,a5,800096bc <ediv+0x1e4>
    800096cc:	6691                	lui	a3,0x4
    800096ce:	417484b3          	sub	s1,s1,s7
    800096d2:	16fd                	addi	a3,a3,-1
    800096d4:	87d6                	mv	a5,s5
    800096d6:	04000713          	li	a4,64
    800096da:	96a6                	add	a3,a3,s1
    800096dc:	4601                	li	a2,0
    800096de:	1008                	addi	a0,sp,32
    800096e0:	00000097          	auipc	ra,0x0
    800096e4:	8ae080e7          	jalr	-1874(ra) # 80008f8e <emdnorm>
    800096e8:	00015703          	lhu	a4,0(sp)
    800096ec:	02015783          	lhu	a5,32(sp)
    800096f0:	06f71e63          	bne	a4,a5,8000976c <ediv+0x294>
    800096f4:	02011023          	sh	zero,32(sp)
    800096f8:	85ca                	mv	a1,s2
    800096fa:	1008                	addi	a0,sp,32
    800096fc:	fffff097          	auipc	ra,0xfffff
    80009700:	75e080e7          	jalr	1886(ra) # 80008e5a <emovo.isra.6>
    80009704:	b529                	j	8000950e <ediv+0x36>
    80009706:	101c                	addi	a5,sp,32
    80009708:	1858                	addi	a4,sp,52
    8000970a:	eae787e3          	beq	a5,a4,800095b8 <ediv+0xe0>
    8000970e:	0789                	addi	a5,a5,2
    80009710:	0027d683          	lhu	a3,2(a5)
    80009714:	dafd                	beqz	a3,8000970a <ediv+0x232>
    80009716:	1008                	addi	a0,sp,32
    80009718:	fffff097          	auipc	ra,0xfffff
    8000971c:	680080e7          	jalr	1664(ra) # 80008d98 <enormlz>
    80009720:	40a004b3          	neg	s1,a0
    80009724:	b5d1                	j	800095e8 <ediv+0x110>
    80009726:	0789                	addi	a5,a5,2
    80009728:	0027d683          	lhu	a3,2(a5)
    8000972c:	ca99                	beqz	a3,80009742 <ediv+0x26a>
    8000972e:	850a                	mv	a0,sp
    80009730:	fffff097          	auipc	ra,0xfffff
    80009734:	668080e7          	jalr	1640(ra) # 80008d98 <enormlz>
    80009738:	40a40bb3          	sub	s7,s0,a0
    8000973c:	bd5d                	j	800095f2 <ediv+0x11a>
    8000973e:	878a                	mv	a5,sp
    80009740:	0858                	addi	a4,sp,20
    80009742:	fee792e3          	bne	a5,a4,80009726 <ediv+0x24e>
    80009746:	00015703          	lhu	a4,0(sp)
    8000974a:	02015783          	lhu	a5,32(sp)
    8000974e:	e2f71be3          	bne	a4,a5,80009584 <ediv+0xac>
    80009752:	00091923          	sh	zero,18(s2)
    80009756:	bd15                	j	8000958a <ediv+0xb2>
    80009758:	3479                	addiw	s0,s0,-2
    8000975a:	1442                	slli	s0,s0,0x30
    8000975c:	008c                	addi	a1,sp,64
    8000975e:	850a                	mv	a0,sp
    80009760:	9041                	srli	s0,s0,0x30
    80009762:	fffff097          	auipc	ra,0xfffff
    80009766:	2bc080e7          	jalr	700(ra) # 80008a1e <esubm>
    8000976a:	bf09                	j	8000967c <ediv+0x1a4>
    8000976c:	57fd                	li	a5,-1
    8000976e:	02f11023          	sh	a5,32(sp)
    80009772:	b759                	j	800096f8 <ediv+0x220>

0000000080009774 <_ldtoa_r>:
    80009774:	dd010113          	addi	sp,sp,-560
    80009778:	f7de                	sd	s7,488(sp)
    8000977a:	8bbe                	mv	s7,a5
    8000977c:	09100793          	li	a5,145
    80009780:	f02e                	sd	a1,32(sp)
    80009782:	1782                	slli	a5,a5,0x20
    80009784:	712c                	ld	a1,96(a0)
    80009786:	17fd                	addi	a5,a5,-1
    80009788:	22813023          	sd	s0,544(sp)
    8000978c:	21213823          	sd	s2,528(sp)
    80009790:	ffd6                	sd	s5,504(sp)
    80009792:	fbda                	sd	s6,496(sp)
    80009794:	22113423          	sd	ra,552(sp)
    80009798:	20913c23          	sd	s1,536(sp)
    8000979c:	21313423          	sd	s3,520(sp)
    800097a0:	21413023          	sd	s4,512(sp)
    800097a4:	f3e2                	sd	s8,480(sp)
    800097a6:	efe6                	sd	s9,472(sp)
    800097a8:	ebea                	sd	s10,464(sp)
    800097aa:	e7ee                	sd	s11,456(sp)
    800097ac:	e046                	sd	a7,0(sp)
    800097ae:	f432                	sd	a2,40(sp)
    800097b0:	fabe                	sd	a5,368(sp)
    800097b2:	892a                	mv	s2,a0
    800097b4:	8ab6                	mv	s5,a3
    800097b6:	8b3a                	mv	s6,a4
    800097b8:	8442                	mv	s0,a6
    800097ba:	cd89                	beqz	a1,800097d4 <_ldtoa_r+0x60>
    800097bc:	5538                	lw	a4,104(a0)
    800097be:	4785                	li	a5,1
    800097c0:	00e797bb          	sllw	a5,a5,a4
    800097c4:	c598                	sw	a4,8(a1)
    800097c6:	c5dc                	sw	a5,12(a1)
    800097c8:	00001097          	auipc	ra,0x1
    800097cc:	b28080e7          	jalr	-1240(ra) # 8000a2f0 <_Bfree>
    800097d0:	06093023          	sd	zero,96(s2)
    800097d4:	1008                	addi	a0,sp,32
    800097d6:	088c                	addi	a1,sp,80
    800097d8:	fffff097          	auipc	ra,0xfffff
    800097dc:	6dc080e7          	jalr	1756(ra) # 80008eb4 <e113toe.isra.8>
    800097e0:	0888                	addi	a0,sp,80
    800097e2:	fffff097          	auipc	ra,0xfffff
    800097e6:	2fe080e7          	jalr	766(ra) # 80008ae0 <eisneg>
    800097ea:	16050e63          	beqz	a0,80009966 <_ldtoa_r+0x1f2>
    800097ee:	4785                	li	a5,1
    800097f0:	c01c                	sw	a5,0(s0)
    800097f2:	478d                	li	a5,3
    800097f4:	16fa8c63          	beq	s5,a5,8000996c <_ldtoa_r+0x1f8>
    800097f8:	44d1                	li	s1,20
    800097fa:	000a8c63          	beqz	s5,80009812 <_ldtoa_r+0x9e>
    800097fe:	fffb079b          	addiw	a5,s6,-1
    80009802:	02a00713          	li	a4,42
    80009806:	0007849b          	sext.w	s1,a5
    8000980a:	00f75463          	ble	a5,a4,80009812 <_ldtoa_r+0x9e>
    8000980e:	02a00493          	li	s1,42
    80009812:	17412783          	lw	a5,372(sp)
    80009816:	0888                	addi	a0,sp,80
    80009818:	e43e                	sd	a5,8(sp)
    8000981a:	fffff097          	auipc	ra,0xfffff
    8000981e:	2a0080e7          	jalr	672(ra) # 80008aba <eisnan>
    80009822:	842a                	mv	s0,a0
    80009824:	00004597          	auipc	a1,0x4
    80009828:	b3c58593          	addi	a1,a1,-1220 # 8000d360 <zeroes.4812+0x10>
    8000982c:	12051be3          	bnez	a0,8000a162 <_ldtoa_r+0x9ee>
    80009830:	09000793          	li	a5,144
    80009834:	188c                	addi	a1,sp,112
    80009836:	0888                	addi	a0,sp,80
    80009838:	16f12a23          	sw	a5,372(sp)
    8000983c:	fffff097          	auipc	ra,0xfffff
    80009840:	046080e7          	jalr	70(ra) # 80008882 <emov>
    80009844:	08215783          	lhu	a5,130(sp)
    80009848:	4a01                	li	s4,0
    8000984a:	0107971b          	slliw	a4,a5,0x10
    8000984e:	4107571b          	sraiw	a4,a4,0x10
    80009852:	02071693          	slli	a3,a4,0x20
    80009856:	0006d963          	bgez	a3,80009868 <_ldtoa_r+0xf4>
    8000985a:	6721                	lui	a4,0x8
    8000985c:	177d                	addi	a4,a4,-1
    8000985e:	8ff9                	and	a5,a5,a4
    80009860:	6a41                	lui	s4,0x10
    80009862:	08f11123          	sh	a5,130(sp)
    80009866:	1a7d                	addi	s4,s4,-1
    80009868:	090c                	addi	a1,sp,144
    8000986a:	00004517          	auipc	a0,0x4
    8000986e:	c5e50513          	addi	a0,a0,-930 # 8000d4c8 <eone>
    80009872:	fffff097          	auipc	ra,0xfffff
    80009876:	010080e7          	jalr	16(ra) # 80008882 <emov>
    8000987a:	08215703          	lhu	a4,130(sp)
    8000987e:	0c0714e3          	bnez	a4,8000a146 <_ldtoa_r+0x9d2>
    80009882:	189c                	addi	a5,sp,112
    80009884:	08210713          	addi	a4,sp,130
    80009888:	0007d683          	lhu	a3,0(a5)
    8000988c:	eaf5                	bnez	a3,80009980 <_ldtoa_r+0x20c>
    8000988e:	0789                	addi	a5,a5,2
    80009890:	fef71ce3          	bne	a4,a5,80009888 <_ldtoa_r+0x114>
    80009894:	098c                	addi	a1,sp,208
    80009896:	0908                	addi	a0,sp,144
    80009898:	fffff097          	auipc	ra,0xfffff
    8000989c:	26e080e7          	jalr	622(ra) # 80008b06 <emovi>
    800098a0:	090c                	addi	a1,sp,144
    800098a2:	0988                	addi	a0,sp,208
    800098a4:	fffff097          	auipc	ra,0xfffff
    800098a8:	00a080e7          	jalr	10(ra) # 800088ae <emovz>
    800098ac:	098c                	addi	a1,sp,208
    800098ae:	1888                	addi	a0,sp,112
    800098b0:	fffff097          	auipc	ra,0xfffff
    800098b4:	256080e7          	jalr	598(ra) # 80008b06 <emovi>
    800098b8:	188c                	addi	a1,sp,112
    800098ba:	0988                	addi	a0,sp,208
    800098bc:	fffff097          	auipc	ra,0xfffff
    800098c0:	ff2080e7          	jalr	-14(ra) # 800088ae <emovz>
    800098c4:	1a90                	addi	a2,sp,368
    800098c6:	188c                	addi	a1,sp,112
    800098c8:	0908                	addi	a0,sp,144
    800098ca:	00000097          	auipc	ra,0x0
    800098ce:	940080e7          	jalr	-1728(ra) # 8000920a <eiremain>
    800098d2:	1bc15983          	lhu	s3,444(sp)
    800098d6:	00004c17          	auipc	s8,0x4
    800098da:	d12c0c13          	addi	s8,s8,-750 # 8000d5e8 <ezero>
    800098de:	00099a63          	bnez	s3,800098f2 <_ldtoa_r+0x17e>
    800098e2:	85e2                	mv	a1,s8
    800098e4:	1888                	addi	a0,sp,112
    800098e6:	fffff097          	auipc	ra,0xfffff
    800098ea:	2be080e7          	jalr	702(ra) # 80008ba4 <ecmp>
    800098ee:	5e051763          	bnez	a0,80009edc <_ldtoa_r+0x768>
    800098f2:	02d00793          	li	a5,45
    800098f6:	000a1463          	bnez	s4,800098fe <_ldtoa_r+0x18a>
    800098fa:	02000793          	li	a5,32
    800098fe:	12f10823          	sb	a5,304(sp)
    80009902:	478d                	li	a5,3
    80009904:	8a26                	mv	s4,s1
    80009906:	00fa9b63          	bne	s5,a5,8000991c <_ldtoa_r+0x1a8>
    8000990a:	0084873b          	addw	a4,s1,s0
    8000990e:	02a00793          	li	a5,42
    80009912:	8a3a                	mv	s4,a4
    80009914:	00e7d463          	ble	a4,a5,8000991c <_ldtoa_r+0x1a8>
    80009918:	02a00a13          	li	s4,42
    8000991c:	47a9                	li	a5,10
    8000991e:	60f99563          	bne	s3,a5,80009f28 <_ldtoa_r+0x7b4>
    80009922:	03100793          	li	a5,49
    80009926:	12f108a3          	sb	a5,305(sp)
    8000992a:	02e00793          	li	a5,46
    8000992e:	12f10923          	sb	a5,306(sp)
    80009932:	13310c13          	addi	s8,sp,307
    80009936:	01405963          	blez	s4,80009948 <_ldtoa_r+0x1d4>
    8000993a:	03000793          	li	a5,48
    8000993e:	12f109a3          	sb	a5,307(sp)
    80009942:	3a7d                	addiw	s4,s4,-1
    80009944:	13410c13          	addi	s8,sp,308
    80009948:	2405                	addiw	s0,s0,1
    8000994a:	5e0a5963          	bgez	s4,80009f3c <_ldtoa_r+0x7c8>
    8000994e:	8622                	mv	a2,s0
    80009950:	00004597          	auipc	a1,0x4
    80009954:	a4058593          	addi	a1,a1,-1472 # 8000d390 <zeroes.4812+0x40>
    80009958:	8562                	mv	a0,s8
    8000995a:	00001097          	auipc	ra,0x1
    8000995e:	a36080e7          	jalr	-1482(ra) # 8000a390 <sprintf>
    80009962:	0110006f          	j	8000a172 <_ldtoa_r+0x9fe>
    80009966:	00042023          	sw	zero,0(s0)
    8000996a:	b561                	j	800097f2 <_ldtoa_r+0x7e>
    8000996c:	87da                	mv	a5,s6
    8000996e:	bd51                	j	80009802 <_ldtoa_r+0x8e>
    80009970:	08011783          	lh	a5,128(sp)
    80009974:	00004597          	auipc	a1,0x4
    80009978:	a1458593          	addi	a1,a1,-1516 # 8000d388 <zeroes.4812+0x38>
    8000997c:	7e07d363          	bgez	a5,8000a162 <_ldtoa_r+0x9ee>
    80009980:	188c                	addi	a1,sp,112
    80009982:	00004517          	auipc	a0,0x4
    80009986:	b4650513          	addi	a0,a0,-1210 # 8000d4c8 <eone>
    8000998a:	fffff097          	auipc	ra,0xfffff
    8000998e:	21a080e7          	jalr	538(ra) # 80008ba4 <ecmp>
    80009992:	d109                	beqz	a0,80009894 <_ldtoa_r+0x120>
    80009994:	3c055c63          	bgez	a0,80009d6c <_ldtoa_r+0x5f8>
    80009998:	190c                	addi	a1,sp,176
    8000999a:	1888                	addi	a0,sp,112
    8000999c:	fffff097          	auipc	ra,0xfffff
    800099a0:	ee6080e7          	jalr	-282(ra) # 80008882 <emov>
    800099a4:	6791                	lui	a5,0x4
    800099a6:	08e7879b          	addiw	a5,a5,142
    800099aa:	0cf11123          	sh	a5,194(sp)
    800099ae:	67a1                	lui	a5,0x8
    800099b0:	17fd                	addi	a5,a5,-1
    800099b2:	e83e                	sd	a5,16(sp)
    800099b4:	77f1                	lui	a5,0xffffc
    800099b6:	2789                	addiw	a5,a5,2
    800099b8:	4d41                	li	s10,16
    800099ba:	00004c17          	auipc	s8,0x4
    800099be:	bc6c0c13          	addi	s8,s8,-1082 # 8000d580 <etens+0xa0>
    800099c2:	ce3e                	sw	a5,28(sp)
    800099c4:	1a94                	addi	a3,sp,368
    800099c6:	0910                	addi	a2,sp,144
    800099c8:	190c                	addi	a1,sp,176
    800099ca:	8562                	mv	a0,s8
    800099cc:	00000097          	auipc	ra,0x0
    800099d0:	b0c080e7          	jalr	-1268(ra) # 800094d8 <ediv>
    800099d4:	182c                	addi	a1,sp,56
    800099d6:	0908                	addi	a0,sp,144
    800099d8:	fffff097          	auipc	ra,0xfffff
    800099dc:	eaa080e7          	jalr	-342(ra) # 80008882 <emov>
    800099e0:	67c2                	ld	a5,16(sp)
    800099e2:	04a15983          	lhu	s3,74(sp)
    800099e6:	00f9fdb3          	and	s11,s3,a5
    800099ea:	47f2                	lw	a5,28(sp)
    800099ec:	00fd87bb          	addw	a5,s11,a5
    800099f0:	8dbe                	mv	s11,a5
    800099f2:	04f04d63          	bgtz	a5,80009a4c <_ldtoa_r+0x2d8>
    800099f6:	0988                	addi	a0,sp,208
    800099f8:	fffff097          	auipc	ra,0xfffff
    800099fc:	e7a080e7          	jalr	-390(ra) # 80008872 <eclear>
    80009a00:	0109999b          	slliw	s3,s3,0x10
    80009a04:	4109d99b          	sraiw	s3,s3,0x10
    80009a08:	02099793          	slli	a5,s3,0x20
    80009a0c:	1007d263          	bgez	a5,80009b10 <_ldtoa_r+0x39c>
    80009a10:	4781                	li	a5,0
    80009a12:	1838                	addi	a4,sp,56
    80009a14:	973e                	add	a4,a4,a5
    80009a16:	00075683          	lhu	a3,0(a4) # 8000 <_stack_size>
    80009a1a:	0998                	addi	a4,sp,208
    80009a1c:	973e                	add	a4,a4,a5
    80009a1e:	00075703          	lhu	a4,0(a4)
    80009a22:	34e68063          	beq	a3,a4,80009d62 <_ldtoa_r+0x5ee>
    80009a26:	00004517          	auipc	a0,0x4
    80009a2a:	aa250513          	addi	a0,a0,-1374 # 8000d4c8 <eone>
    80009a2e:	fffff097          	auipc	ra,0xfffff
    80009a32:	08c080e7          	jalr	140(ra) # 80008aba <eisnan>
    80009a36:	cd25                	beqz	a0,80009aae <_ldtoa_r+0x33a>
    80009a38:	098c                	addi	a1,sp,208
    80009a3a:	00004517          	auipc	a0,0x4
    80009a3e:	a8e50513          	addi	a0,a0,-1394 # 8000d4c8 <eone>
    80009a42:	fffff097          	auipc	ra,0xfffff
    80009a46:	e40080e7          	jalr	-448(ra) # 80008882 <emov>
    80009a4a:	a0d9                	j	80009b10 <_ldtoa_r+0x39c>
    80009a4c:	09000793          	li	a5,144
    80009a50:	41b78cbb          	subw	s9,a5,s11
    80009a54:	098c                	addi	a1,sp,208
    80009a56:	1828                	addi	a0,sp,56
    80009a58:	8de6                	mv	s11,s9
    80009a5a:	fffff097          	auipc	ra,0xfffff
    80009a5e:	e28080e7          	jalr	-472(ra) # 80008882 <emov>
    80009a62:	0b905763          	blez	s9,80009b10 <_ldtoa_r+0x39c>
    80009a66:	099c                	addi	a5,sp,208
    80009a68:	8766                	mv	a4,s9
    80009a6a:	46bd                	li	a3,15
    80009a6c:	02e6cc63          	blt	a3,a4,80009aa4 <_ldtoa_r+0x330>
    80009a70:	004dd69b          	srliw	a3,s11,0x4
    80009a74:	02069713          	slli	a4,a3,0x20
    80009a78:	099c                	addi	a5,sp,208
    80009a7a:	837d                	srli	a4,a4,0x1f
    80009a7c:	973e                	add	a4,a4,a5
    80009a7e:	57c1                	li	a5,-16
    80009a80:	02d787bb          	mulw	a5,a5,a3
    80009a84:	00004697          	auipc	a3,0x4
    80009a88:	91468693          	addi	a3,a3,-1772 # 8000d398 <bmask>
    80009a8c:	01b787bb          	addw	a5,a5,s11
    80009a90:	0786                	slli	a5,a5,0x1
    80009a92:	97b6                	add	a5,a5,a3
    80009a94:	0007d783          	lhu	a5,0(a5) # ffffffffffffc000 <_trapsp0+0xffffffff7ffc6fc0>
    80009a98:	00075683          	lhu	a3,0(a4)
    80009a9c:	8ff5                	and	a5,a5,a3
    80009a9e:	00f71023          	sh	a5,0(a4)
    80009aa2:	bfb9                	j	80009a00 <_ldtoa_r+0x28c>
    80009aa4:	00079023          	sh	zero,0(a5)
    80009aa8:	3741                	addiw	a4,a4,-16
    80009aaa:	0789                	addi	a5,a5,2
    80009aac:	b7c1                	j	80009a6c <_ldtoa_r+0x2f8>
    80009aae:	0988                	addi	a0,sp,208
    80009ab0:	fffff097          	auipc	ra,0xfffff
    80009ab4:	00a080e7          	jalr	10(ra) # 80008aba <eisnan>
    80009ab8:	c501                	beqz	a0,80009ac0 <_ldtoa_r+0x34c>
    80009aba:	098c                	addi	a1,sp,208
    80009abc:	852e                	mv	a0,a1
    80009abe:	b751                	j	80009a42 <_ldtoa_r+0x2ce>
    80009ac0:	00004517          	auipc	a0,0x4
    80009ac4:	a0850513          	addi	a0,a0,-1528 # 8000d4c8 <eone>
    80009ac8:	fffff097          	auipc	ra,0xfffff
    80009acc:	190080e7          	jalr	400(ra) # 80008c58 <eisinf>
    80009ad0:	89aa                	mv	s3,a0
    80009ad2:	0988                	addi	a0,sp,208
    80009ad4:	fffff097          	auipc	ra,0xfffff
    80009ad8:	184080e7          	jalr	388(ra) # 80008c58 <eisinf>
    80009adc:	8caa                	mv	s9,a0
    80009ade:	12098a63          	beqz	s3,80009c12 <_ldtoa_r+0x49e>
    80009ae2:	10050263          	beqz	a0,80009be6 <_ldtoa_r+0x472>
    80009ae6:	00004517          	auipc	a0,0x4
    80009aea:	9e250513          	addi	a0,a0,-1566 # 8000d4c8 <eone>
    80009aee:	fffff097          	auipc	ra,0xfffff
    80009af2:	ff2080e7          	jalr	-14(ra) # 80008ae0 <eisneg>
    80009af6:	89aa                	mv	s3,a0
    80009af8:	0988                	addi	a0,sp,208
    80009afa:	fffff097          	auipc	ra,0xfffff
    80009afe:	fe6080e7          	jalr	-26(ra) # 80008ae0 <eisneg>
    80009b02:	0ea99263          	bne	s3,a0,80009be6 <_ldtoa_r+0x472>
    80009b06:	0988                	addi	a0,sp,208
    80009b08:	fffff097          	auipc	ra,0xfffff
    80009b0c:	33a080e7          	jalr	826(ra) # 80008e42 <enan.constprop.12>
    80009b10:	4781                	li	a5,0
    80009b12:	0918                	addi	a4,sp,144
    80009b14:	973e                	add	a4,a4,a5
    80009b16:	00075683          	lhu	a3,0(a4)
    80009b1a:	0998                	addi	a4,sp,208
    80009b1c:	973e                	add	a4,a4,a5
    80009b1e:	00075703          	lhu	a4,0(a4)
    80009b22:	00e69e63          	bne	a3,a4,80009b3e <_ldtoa_r+0x3ca>
    80009b26:	0789                	addi	a5,a5,2
    80009b28:	4749                	li	a4,18
    80009b2a:	fee794e3          	bne	a5,a4,80009b12 <_ldtoa_r+0x39e>
    80009b2e:	190c                	addi	a1,sp,176
    80009b30:	0908                	addi	a0,sp,144
    80009b32:	fffff097          	auipc	ra,0xfffff
    80009b36:	d50080e7          	jalr	-688(ra) # 80008882 <emov>
    80009b3a:	008d043b          	addw	s0,s10,s0
    80009b3e:	0c51                	addi	s8,s8,20
    80009b40:	00004797          	auipc	a5,0x4
    80009b44:	aa478793          	addi	a5,a5,-1372 # 8000d5e4 <etens+0x104>
    80009b48:	001d5d13          	srli	s10,s10,0x1
    80009b4c:	e6fc1ce3          	bne	s8,a5,800099c4 <_ldtoa_r+0x250>
    80009b50:	0c215783          	lhu	a5,194(sp)
    80009b54:	08215703          	lhu	a4,130(sp)
    80009b58:	188c                	addi	a1,sp,112
    80009b5a:	1908                	addi	a0,sp,176
    80009b5c:	9fb9                	addw	a5,a5,a4
    80009b5e:	7771                	lui	a4,0xffffc
    80009b60:	f727071b          	addiw	a4,a4,-142
    80009b64:	9fb9                	addw	a5,a5,a4
    80009b66:	0cf11123          	sh	a5,194(sp)
    80009b6a:	fffff097          	auipc	ra,0xfffff
    80009b6e:	d18080e7          	jalr	-744(ra) # 80008882 <emov>
    80009b72:	090c                	addi	a1,sp,144
    80009b74:	00004517          	auipc	a0,0x4
    80009b78:	95450513          	addi	a0,a0,-1708 # 8000d4c8 <eone>
    80009b7c:	fffff097          	auipc	ra,0xfffff
    80009b80:	d06080e7          	jalr	-762(ra) # 80008882 <emov>
    80009b84:	6c05                	lui	s8,0x1
    80009b86:	00004997          	auipc	s3,0x4
    80009b8a:	95a98993          	addi	s3,s3,-1702 # 8000d4e0 <etens>
    80009b8e:	00004c97          	auipc	s9,0x4
    80009b92:	a42c8c93          	addi	s9,s9,-1470 # 8000d5d0 <etens+0xf0>
    80009b96:	190c                	addi	a1,sp,176
    80009b98:	8566                	mv	a0,s9
    80009b9a:	fffff097          	auipc	ra,0xfffff
    80009b9e:	00a080e7          	jalr	10(ra) # 80008ba4 <ecmp>
    80009ba2:	cea049e3          	bgtz	a0,80009894 <_ldtoa_r+0x120>
    80009ba6:	190c                	addi	a1,sp,176
    80009ba8:	854e                	mv	a0,s3
    80009baa:	fffff097          	auipc	ra,0xfffff
    80009bae:	ffa080e7          	jalr	-6(ra) # 80008ba4 <ecmp>
    80009bb2:	02a04463          	bgtz	a0,80009bda <_ldtoa_r+0x466>
    80009bb6:	1910                	addi	a2,sp,176
    80009bb8:	85b2                	mv	a1,a2
    80009bba:	1a94                	addi	a3,sp,368
    80009bbc:	854e                	mv	a0,s3
    80009bbe:	00000097          	auipc	ra,0x0
    80009bc2:	91a080e7          	jalr	-1766(ra) # 800094d8 <ediv>
    80009bc6:	0910                	addi	a2,sp,144
    80009bc8:	1a94                	addi	a3,sp,368
    80009bca:	85b2                	mv	a1,a2
    80009bcc:	854e                	mv	a0,s3
    80009bce:	fffff097          	auipc	ra,0xfffff
    80009bd2:	6f0080e7          	jalr	1776(ra) # 800092be <emul>
    80009bd6:	008c043b          	addw	s0,s8,s0
    80009bda:	001c5c13          	srli	s8,s8,0x1
    80009bde:	cb998be3          	beq	s3,s9,80009894 <_ldtoa_r+0x120>
    80009be2:	09d1                	addi	s3,s3,20
    80009be4:	bf4d                	j	80009b96 <_ldtoa_r+0x422>
    80009be6:	00004517          	auipc	a0,0x4
    80009bea:	8e250513          	addi	a0,a0,-1822 # 8000d4c8 <eone>
    80009bee:	098c                	addi	a1,sp,208
    80009bf0:	fffff097          	auipc	ra,0xfffff
    80009bf4:	c92080e7          	jalr	-878(ra) # 80008882 <emov>
    80009bf8:	0988                	addi	a0,sp,208
    80009bfa:	fffff097          	auipc	ra,0xfffff
    80009bfe:	ec0080e7          	jalr	-320(ra) # 80008aba <eisnan>
    80009c02:	f519                	bnez	a0,80009b10 <_ldtoa_r+0x39c>
    80009c04:	0e215783          	lhu	a5,226(sp)
    80009c08:	7761                	lui	a4,0xffff8
    80009c0a:	8fb9                	xor	a5,a5,a4
    80009c0c:	0ef11123          	sh	a5,226(sp)
    80009c10:	b701                	j	80009b10 <_ldtoa_r+0x39c>
    80009c12:	ea0514e3          	bnez	a0,80009aba <_ldtoa_r+0x346>
    80009c16:	198c                	addi	a1,sp,240
    80009c18:	00004517          	auipc	a0,0x4
    80009c1c:	8b050513          	addi	a0,a0,-1872 # 8000d4c8 <eone>
    80009c20:	fffff097          	auipc	ra,0xfffff
    80009c24:	ee6080e7          	jalr	-282(ra) # 80008b06 <emovi>
    80009c28:	0a0c                	addi	a1,sp,272
    80009c2a:	0988                	addi	a0,sp,208
    80009c2c:	fffff097          	auipc	ra,0xfffff
    80009c30:	eda080e7          	jalr	-294(ra) # 80008b06 <emovi>
    80009c34:	0f015783          	lhu	a5,240(sp)
    80009c38:	0f215d83          	lhu	s11,242(sp)
    80009c3c:	11215983          	lhu	s3,274(sp)
    80009c40:	fff7c793          	not	a5,a5
    80009c44:	0ef11823          	sh	a5,240(sp)
    80009c48:	413d85b3          	sub	a1,s11,s3
    80009c4c:	02b05863          	blez	a1,80009c7c <_ldtoa_r+0x508>
    80009c50:	1a0c                	addi	a1,sp,304
    80009c52:	0a08                	addi	a0,sp,272
    80009c54:	fffff097          	auipc	ra,0xfffff
    80009c58:	c5a080e7          	jalr	-934(ra) # 800088ae <emovz>
    80009c5c:	0a0c                	addi	a1,sp,272
    80009c5e:	1988                	addi	a0,sp,240
    80009c60:	fffff097          	auipc	ra,0xfffff
    80009c64:	c4e080e7          	jalr	-946(ra) # 800088ae <emovz>
    80009c68:	198c                	addi	a1,sp,240
    80009c6a:	1a08                	addi	a0,sp,304
    80009c6c:	fffff097          	auipc	ra,0xfffff
    80009c70:	c42080e7          	jalr	-958(ra) # 800088ae <emovz>
    80009c74:	41b985b3          	sub	a1,s3,s11
    80009c78:	11215983          	lhu	s3,274(sp)
    80009c7c:	c1b9                	beqz	a1,80009cc2 <_ldtoa_r+0x54e>
    80009c7e:	f6f00793          	li	a5,-145
    80009c82:	06f5cf63          	blt	a1,a5,80009d00 <_ldtoa_r+0x58c>
    80009c86:	1988                	addi	a0,sp,240
    80009c88:	fffff097          	auipc	ra,0xfffff
    80009c8c:	018080e7          	jalr	24(ra) # 80008ca0 <eshift.part.3>
    80009c90:	8daa                	mv	s11,a0
    80009c92:	0f015703          	lhu	a4,240(sp)
    80009c96:	11015783          	lhu	a5,272(sp)
    80009c9a:	0a0c                	addi	a1,sp,272
    80009c9c:	1988                	addi	a0,sp,240
    80009c9e:	0af71c63          	bne	a4,a5,80009d56 <_ldtoa_r+0x5e2>
    80009ca2:	fffff097          	auipc	ra,0xfffff
    80009ca6:	d54080e7          	jalr	-684(ra) # 800089f6 <eaddm>
    80009caa:	1a9c                	addi	a5,sp,368
    80009cac:	04000713          	li	a4,64
    80009cb0:	86ce                	mv	a3,s3
    80009cb2:	8666                	mv	a2,s9
    80009cb4:	85ee                	mv	a1,s11
    80009cb6:	0a08                	addi	a0,sp,272
    80009cb8:	fffff097          	auipc	ra,0xfffff
    80009cbc:	2d6080e7          	jalr	726(ra) # 80008f8e <emdnorm>
    80009cc0:	a081                	j	80009d00 <_ldtoa_r+0x58c>
    80009cc2:	0a0c                	addi	a1,sp,272
    80009cc4:	1988                	addi	a0,sp,240
    80009cc6:	fffff097          	auipc	ra,0xfffff
    80009cca:	c08080e7          	jalr	-1016(ra) # 800088ce <ecmpm>
    80009cce:	ed31                	bnez	a0,80009d2a <_ldtoa_r+0x5b6>
    80009cd0:	0f015703          	lhu	a4,240(sp)
    80009cd4:	11015783          	lhu	a5,272(sp)
    80009cd8:	00f70863          	beq	a4,a5,80009ce8 <_ldtoa_r+0x574>
    80009cdc:	0988                	addi	a0,sp,208
    80009cde:	fffff097          	auipc	ra,0xfffff
    80009ce2:	b94080e7          	jalr	-1132(ra) # 80008872 <eclear>
    80009ce6:	b52d                	j	80009b10 <_ldtoa_r+0x39c>
    80009ce8:	11215783          	lhu	a5,274(sp)
    80009cec:	e38d                	bnez	a5,80009d0e <_ldtoa_r+0x59a>
    80009cee:	11611783          	lh	a5,278(sp)
    80009cf2:	0007ce63          	bltz	a5,80009d0e <_ldtoa_r+0x59a>
    80009cf6:	0a08                	addi	a0,sp,272
    80009cf8:	fffff097          	auipc	ra,0xfffff
    80009cfc:	c3a080e7          	jalr	-966(ra) # 80008932 <eshup1>
    80009d00:	098c                	addi	a1,sp,208
    80009d02:	0a08                	addi	a0,sp,272
    80009d04:	fffff097          	auipc	ra,0xfffff
    80009d08:	156080e7          	jalr	342(ra) # 80008e5a <emovo.isra.6>
    80009d0c:	b511                	j	80009b10 <_ldtoa_r+0x39c>
    80009d0e:	0a1c                	addi	a5,sp,272
    80009d10:	12610713          	addi	a4,sp,294
    80009d14:	0027d683          	lhu	a3,2(a5)
    80009d18:	c689                	beqz	a3,80009d22 <_ldtoa_r+0x5ae>
    80009d1a:	0985                	addi	s3,s3,1
    80009d1c:	11311923          	sh	s3,274(sp)
    80009d20:	b7c5                	j	80009d00 <_ldtoa_r+0x58c>
    80009d22:	0789                	addi	a5,a5,2
    80009d24:	fef718e3          	bne	a4,a5,80009d14 <_ldtoa_r+0x5a0>
    80009d28:	bfd5                	j	80009d1c <_ldtoa_r+0x5a8>
    80009d2a:	4d81                	li	s11,0
    80009d2c:	f6a053e3          	blez	a0,80009c92 <_ldtoa_r+0x51e>
    80009d30:	1a0c                	addi	a1,sp,304
    80009d32:	0a08                	addi	a0,sp,272
    80009d34:	fffff097          	auipc	ra,0xfffff
    80009d38:	b7a080e7          	jalr	-1158(ra) # 800088ae <emovz>
    80009d3c:	0a0c                	addi	a1,sp,272
    80009d3e:	1988                	addi	a0,sp,240
    80009d40:	fffff097          	auipc	ra,0xfffff
    80009d44:	b6e080e7          	jalr	-1170(ra) # 800088ae <emovz>
    80009d48:	198c                	addi	a1,sp,240
    80009d4a:	1a08                	addi	a0,sp,304
    80009d4c:	fffff097          	auipc	ra,0xfffff
    80009d50:	b62080e7          	jalr	-1182(ra) # 800088ae <emovz>
    80009d54:	bf3d                	j	80009c92 <_ldtoa_r+0x51e>
    80009d56:	fffff097          	auipc	ra,0xfffff
    80009d5a:	cc8080e7          	jalr	-824(ra) # 80008a1e <esubm>
    80009d5e:	4c85                	li	s9,1
    80009d60:	b7a9                	j	80009caa <_ldtoa_r+0x536>
    80009d62:	0789                	addi	a5,a5,2
    80009d64:	4749                	li	a4,18
    80009d66:	cae796e3          	bne	a5,a4,80009a12 <_ldtoa_r+0x29e>
    80009d6a:	b35d                	j	80009b10 <_ldtoa_r+0x39c>
    80009d6c:	08215783          	lhu	a5,130(sp)
    80009d70:	00004997          	auipc	s3,0x4
    80009d74:	86098993          	addi	s3,s3,-1952 # 8000d5d0 <etens+0xf0>
    80009d78:	cfc9                	beqz	a5,80009e12 <_ldtoa_r+0x69e>
    80009d7a:	098c                	addi	a1,sp,208
    80009d7c:	1888                	addi	a0,sp,112
    80009d7e:	6991                	lui	s3,0x4
    80009d80:	fffff097          	auipc	ra,0xfffff
    80009d84:	d86080e7          	jalr	-634(ra) # 80008b06 <emovi>
    80009d88:	19f9                	addi	s3,s3,-2
    80009d8a:	fd500c13          	li	s8,-43
    80009d8e:	0e815783          	lhu	a5,232(sp)
    80009d92:	8b9d                	andi	a5,a5,7
    80009d94:	efb9                	bnez	a5,80009df2 <_ldtoa_r+0x67e>
    80009d96:	190c                	addi	a1,sp,176
    80009d98:	0988                	addi	a0,sp,208
    80009d9a:	fffff097          	auipc	ra,0xfffff
    80009d9e:	b14080e7          	jalr	-1260(ra) # 800088ae <emovz>
    80009da2:	1908                	addi	a0,sp,176
    80009da4:	fffff097          	auipc	ra,0xfffff
    80009da8:	b56080e7          	jalr	-1194(ra) # 800088fa <eshdn1>
    80009dac:	1908                	addi	a0,sp,176
    80009dae:	fffff097          	auipc	ra,0xfffff
    80009db2:	b4c080e7          	jalr	-1204(ra) # 800088fa <eshdn1>
    80009db6:	190c                	addi	a1,sp,176
    80009db8:	0988                	addi	a0,sp,208
    80009dba:	fffff097          	auipc	ra,0xfffff
    80009dbe:	c3c080e7          	jalr	-964(ra) # 800089f6 <eaddm>
    80009dc2:	0b215783          	lhu	a5,178(sp)
    80009dc6:	278d                	addiw	a5,a5,3
    80009dc8:	0af11923          	sh	a5,178(sp)
    80009dcc:	0b415783          	lhu	a5,180(sp)
    80009dd0:	efed                	bnez	a5,80009eca <_ldtoa_r+0x756>
    80009dd2:	0c815783          	lhu	a5,200(sp)
    80009dd6:	ef91                	bnez	a5,80009df2 <_ldtoa_r+0x67e>
    80009dd8:	0b215783          	lhu	a5,178(sp)
    80009ddc:	00f9eb63          	bltu	s3,a5,80009df2 <_ldtoa_r+0x67e>
    80009de0:	098c                	addi	a1,sp,208
    80009de2:	1908                	addi	a0,sp,176
    80009de4:	347d                	addiw	s0,s0,-1
    80009de6:	fffff097          	auipc	ra,0xfffff
    80009dea:	ac8080e7          	jalr	-1336(ra) # 800088ae <emovz>
    80009dee:	fb8410e3          	bne	s0,s8,80009d8e <_ldtoa_r+0x61a>
    80009df2:	188c                	addi	a1,sp,112
    80009df4:	0988                	addi	a0,sp,208
    80009df6:	fffff097          	auipc	ra,0xfffff
    80009dfa:	064080e7          	jalr	100(ra) # 80008e5a <emovo.isra.6>
    80009dfe:	a831                	j	80009e1a <_ldtoa_r+0x6a6>
    80009e00:	1890                	addi	a2,sp,112
    80009e02:	1a94                	addi	a3,sp,368
    80009e04:	85b2                	mv	a1,a2
    80009e06:	854e                	mv	a0,s3
    80009e08:	fffff097          	auipc	ra,0xfffff
    80009e0c:	4b6080e7          	jalr	1206(ra) # 800092be <emul>
    80009e10:	347d                	addiw	s0,s0,-1
    80009e12:	08011783          	lh	a5,128(sp)
    80009e16:	fe07d5e3          	bgez	a5,80009e00 <_ldtoa_r+0x68c>
    80009e1a:	098c                	addi	a1,sp,208
    80009e1c:	1888                	addi	a0,sp,112
    80009e1e:	fffff097          	auipc	ra,0xfffff
    80009e22:	a64080e7          	jalr	-1436(ra) # 80008882 <emov>
    80009e26:	090c                	addi	a1,sp,144
    80009e28:	00003517          	auipc	a0,0x3
    80009e2c:	6a050513          	addi	a0,a0,1696 # 8000d4c8 <eone>
    80009e30:	fffff097          	auipc	ra,0xfffff
    80009e34:	a52080e7          	jalr	-1454(ra) # 80008882 <emov>
    80009e38:	4c81                	li	s9,0
    80009e3a:	79fd                	lui	s3,0xfffff
    80009e3c:	00003d97          	auipc	s11,0x3
    80009e40:	584d8d93          	addi	s11,s11,1412 # 8000d3c0 <emtens>
    80009e44:	10400d13          	li	s10,260
    80009e48:	019d8733          	add	a4,s11,s9
    80009e4c:	00003797          	auipc	a5,0x3
    80009e50:	69478793          	addi	a5,a5,1684 # 8000d4e0 <etens>
    80009e54:	098c                	addi	a1,sp,208
    80009e56:	00003517          	auipc	a0,0x3
    80009e5a:	67250513          	addi	a0,a0,1650 # 8000d4c8 <eone>
    80009e5e:	e83a                	sd	a4,16(sp)
    80009e60:	01978c33          	add	s8,a5,s9
    80009e64:	fffff097          	auipc	ra,0xfffff
    80009e68:	d40080e7          	jalr	-704(ra) # 80008ba4 <ecmp>
    80009e6c:	6742                	ld	a4,16(sp)
    80009e6e:	04a05263          	blez	a0,80009eb2 <_ldtoa_r+0x73e>
    80009e72:	098c                	addi	a1,sp,208
    80009e74:	853a                	mv	a0,a4
    80009e76:	fffff097          	auipc	ra,0xfffff
    80009e7a:	d2e080e7          	jalr	-722(ra) # 80008ba4 <ecmp>
    80009e7e:	02054463          	bltz	a0,80009ea6 <_ldtoa_r+0x732>
    80009e82:	0990                	addi	a2,sp,208
    80009e84:	85b2                	mv	a1,a2
    80009e86:	1a94                	addi	a3,sp,368
    80009e88:	8562                	mv	a0,s8
    80009e8a:	fffff097          	auipc	ra,0xfffff
    80009e8e:	434080e7          	jalr	1076(ra) # 800092be <emul>
    80009e92:	0910                	addi	a2,sp,144
    80009e94:	1a94                	addi	a3,sp,368
    80009e96:	85b2                	mv	a1,a2
    80009e98:	8562                	mv	a0,s8
    80009e9a:	fffff097          	auipc	ra,0xfffff
    80009e9e:	424080e7          	jalr	1060(ra) # 800092be <emul>
    80009ea2:	0089843b          	addw	s0,s3,s0
    80009ea6:	4789                	li	a5,2
    80009ea8:	0cd1                	addi	s9,s9,20
    80009eaa:	02f9c9bb          	divw	s3,s3,a5
    80009eae:	f9ac9de3          	bne	s9,s10,80009e48 <_ldtoa_r+0x6d4>
    80009eb2:	0910                	addi	a2,sp,144
    80009eb4:	1a94                	addi	a3,sp,368
    80009eb6:	00003597          	auipc	a1,0x3
    80009eba:	61258593          	addi	a1,a1,1554 # 8000d4c8 <eone>
    80009ebe:	8532                	mv	a0,a2
    80009ec0:	fffff097          	auipc	ra,0xfffff
    80009ec4:	618080e7          	jalr	1560(ra) # 800094d8 <ediv>
    80009ec8:	b2f1                	j	80009894 <_ldtoa_r+0x120>
    80009eca:	1908                	addi	a0,sp,176
    80009ecc:	fffff097          	auipc	ra,0xfffff
    80009ed0:	a2e080e7          	jalr	-1490(ra) # 800088fa <eshdn1>
    80009ed4:	0b215783          	lhu	a5,178(sp)
    80009ed8:	2785                	addiw	a5,a5,1
    80009eda:	b5fd                	j	80009dc8 <_ldtoa_r+0x654>
    80009edc:	1888                	addi	a0,sp,112
    80009ede:	fffff097          	auipc	ra,0xfffff
    80009ee2:	a54080e7          	jalr	-1452(ra) # 80008932 <eshup1>
    80009ee6:	190c                	addi	a1,sp,176
    80009ee8:	1888                	addi	a0,sp,112
    80009eea:	fffff097          	auipc	ra,0xfffff
    80009eee:	9c4080e7          	jalr	-1596(ra) # 800088ae <emovz>
    80009ef2:	1908                	addi	a0,sp,176
    80009ef4:	fffff097          	auipc	ra,0xfffff
    80009ef8:	a3e080e7          	jalr	-1474(ra) # 80008932 <eshup1>
    80009efc:	1908                	addi	a0,sp,176
    80009efe:	fffff097          	auipc	ra,0xfffff
    80009f02:	a34080e7          	jalr	-1484(ra) # 80008932 <eshup1>
    80009f06:	188c                	addi	a1,sp,112
    80009f08:	1908                	addi	a0,sp,176
    80009f0a:	fffff097          	auipc	ra,0xfffff
    80009f0e:	aec080e7          	jalr	-1300(ra) # 800089f6 <eaddm>
    80009f12:	1a90                	addi	a2,sp,368
    80009f14:	188c                	addi	a1,sp,112
    80009f16:	0908                	addi	a0,sp,144
    80009f18:	fffff097          	auipc	ra,0xfffff
    80009f1c:	2f2080e7          	jalr	754(ra) # 8000920a <eiremain>
    80009f20:	347d                	addiw	s0,s0,-1
    80009f22:	1bc15983          	lhu	s3,444(sp)
    80009f26:	ba65                	j	800098de <_ldtoa_r+0x16a>
    80009f28:	0309899b          	addiw	s3,s3,48
    80009f2c:	02e00793          	li	a5,46
    80009f30:	133108a3          	sb	s3,305(sp)
    80009f34:	12f10923          	sb	a5,306(sp)
    80009f38:	13310c13          	addi	s8,sp,307
    80009f3c:	89e2                	mv	s3,s8
    80009f3e:	418987bb          	subw	a5,s3,s8
    80009f42:	04fa5063          	ble	a5,s4,80009f82 <_ldtoa_r+0x80e>
    80009f46:	1bc15783          	lhu	a5,444(sp)
    80009f4a:	4711                	li	a4,4
    80009f4c:	fff98c13          	addi	s8,s3,-1 # ffffffffffffefff <_trapsp0+0xffffffff7ffc9fbf>
    80009f50:	9ef75fe3          	ble	a5,a4,8000994e <_ldtoa_r+0x1da>
    80009f54:	4715                	li	a4,5
    80009f56:	08e78063          	beq	a5,a4,80009fd6 <_ldtoa_r+0x862>
    80009f5a:	87e2                	mv	a5,s8
    80009f5c:	02e00613          	li	a2,46
    80009f60:	03800593          	li	a1,56
    80009f64:	03000693          	li	a3,48
    80009f68:	17fd                	addi	a5,a5,-1
    80009f6a:	0007c703          	lbu	a4,0(a5)
    80009f6e:	07f77713          	andi	a4,a4,127
    80009f72:	0a0a5263          	bgez	s4,8000a016 <_ldtoa_r+0x8a2>
    80009f76:	03100713          	li	a4,49
    80009f7a:	00e78023          	sb	a4,0(a5)
    80009f7e:	2405                	addiw	s0,s0,1
    80009f80:	b2f9                	j	8000994e <_ldtoa_r+0x1da>
    80009f82:	1888                	addi	a0,sp,112
    80009f84:	fffff097          	auipc	ra,0xfffff
    80009f88:	9ae080e7          	jalr	-1618(ra) # 80008932 <eshup1>
    80009f8c:	190c                	addi	a1,sp,176
    80009f8e:	1888                	addi	a0,sp,112
    80009f90:	fffff097          	auipc	ra,0xfffff
    80009f94:	91e080e7          	jalr	-1762(ra) # 800088ae <emovz>
    80009f98:	1908                	addi	a0,sp,176
    80009f9a:	fffff097          	auipc	ra,0xfffff
    80009f9e:	998080e7          	jalr	-1640(ra) # 80008932 <eshup1>
    80009fa2:	1908                	addi	a0,sp,176
    80009fa4:	fffff097          	auipc	ra,0xfffff
    80009fa8:	98e080e7          	jalr	-1650(ra) # 80008932 <eshup1>
    80009fac:	188c                	addi	a1,sp,112
    80009fae:	1908                	addi	a0,sp,176
    80009fb0:	fffff097          	auipc	ra,0xfffff
    80009fb4:	a46080e7          	jalr	-1466(ra) # 800089f6 <eaddm>
    80009fb8:	1a90                	addi	a2,sp,368
    80009fba:	188c                	addi	a1,sp,112
    80009fbc:	0908                	addi	a0,sp,144
    80009fbe:	fffff097          	auipc	ra,0xfffff
    80009fc2:	24c080e7          	jalr	588(ra) # 8000920a <eiremain>
    80009fc6:	1bc14783          	lbu	a5,444(sp)
    80009fca:	0985                	addi	s3,s3,1
    80009fcc:	0307879b          	addiw	a5,a5,48
    80009fd0:	fef98fa3          	sb	a5,-1(s3)
    80009fd4:	b7ad                	j	80009f3e <_ldtoa_r+0x7ca>
    80009fd6:	090c                	addi	a1,sp,144
    80009fd8:	1888                	addi	a0,sp,112
    80009fda:	fffff097          	auipc	ra,0xfffff
    80009fde:	e80080e7          	jalr	-384(ra) # 80008e5a <emovo.isra.6>
    80009fe2:	00003597          	auipc	a1,0x3
    80009fe6:	60658593          	addi	a1,a1,1542 # 8000d5e8 <ezero>
    80009fea:	0908                	addi	a0,sp,144
    80009fec:	fffff097          	auipc	ra,0xfffff
    80009ff0:	bb8080e7          	jalr	-1096(ra) # 80008ba4 <ecmp>
    80009ff4:	f13d                	bnez	a0,80009f5a <_ldtoa_r+0x7e6>
    80009ff6:	940a4ce3          	bltz	s4,8000994e <_ldtoa_r+0x1da>
    80009ffa:	ffe9c783          	lbu	a5,-2(s3)
    80009ffe:	fd278793          	addi	a5,a5,-46
    8000a002:	0017b793          	seqz	a5,a5
    8000a006:	fff7c793          	not	a5,a5
    8000a00a:	97e2                	add	a5,a5,s8
    8000a00c:	0007c783          	lbu	a5,0(a5)
    8000a010:	8b85                	andi	a5,a5,1
    8000a012:	f7a1                	bnez	a5,80009f5a <_ldtoa_r+0x7e6>
    8000a014:	ba2d                	j	8000994e <_ldtoa_r+0x1da>
    8000a016:	02c71063          	bne	a4,a2,8000a036 <_ldtoa_r+0x8c2>
    8000a01a:	fff7c703          	lbu	a4,-1(a5)
    8000a01e:	03800693          	li	a3,56
    8000a022:	00e6e663          	bltu	a3,a4,8000a02e <_ldtoa_r+0x8ba>
    8000a026:	2705                	addiw	a4,a4,1
    8000a028:	fee78fa3          	sb	a4,-1(a5)
    8000a02c:	b20d                	j	8000994e <_ldtoa_r+0x1da>
    8000a02e:	2405                	addiw	s0,s0,1
    8000a030:	03100713          	li	a4,49
    8000a034:	bfd5                	j	8000a028 <_ldtoa_r+0x8b4>
    8000a036:	00e5e663          	bltu	a1,a4,8000a042 <_ldtoa_r+0x8ce>
    8000a03a:	2705                	addiw	a4,a4,1
    8000a03c:	00e78023          	sb	a4,0(a5)
    8000a040:	b239                	j	8000994e <_ldtoa_r+0x1da>
    8000a042:	00d78023          	sb	a3,0(a5)
    8000a046:	b70d                	j	80009f68 <_ldtoa_r+0x7f4>
    8000a048:	0014079b          	addiw	a5,s0,1
    8000a04c:	00fba023          	sw	a5,0(s7)
    8000a050:	02e00693          	li	a3,46
    8000a054:	87d2                	mv	a5,s4
    8000a056:	0007c703          	lbu	a4,0(a5)
    8000a05a:	e701                	bnez	a4,8000a062 <_ldtoa_r+0x8ee>
    8000a05c:	04500713          	li	a4,69
    8000a060:	a839                	j	8000a07e <_ldtoa_r+0x90a>
    8000a062:	00178613          	addi	a2,a5,1
    8000a066:	00d70463          	beq	a4,a3,8000a06e <_ldtoa_r+0x8fa>
    8000a06a:	87b2                	mv	a5,a2
    8000a06c:	b7ed                	j	8000a056 <_ldtoa_r+0x8e2>
    8000a06e:	0017c703          	lbu	a4,1(a5)
    8000a072:	0785                	addi	a5,a5,1
    8000a074:	fee78fa3          	sb	a4,-1(a5)
    8000a078:	fb7d                	bnez	a4,8000a06e <_ldtoa_r+0x8fa>
    8000a07a:	b7cd                	j	8000a05c <_ldtoa_r+0x8e8>
    8000a07c:	17fd                	addi	a5,a5,-1
    8000a07e:	0007c683          	lbu	a3,0(a5)
    8000a082:	00e68463          	beq	a3,a4,8000a08a <_ldtoa_r+0x916>
    8000a086:	fefa6be3          	bltu	s4,a5,8000a07c <_ldtoa_r+0x908>
    8000a08a:	00078023          	sb	zero,0(a5)
    8000a08e:	aa19                	j	8000a1a4 <_ldtoa_r+0xa30>
    8000a090:	0785                	addi	a5,a5,1
    8000a092:	aa31                	j	8000a1ae <_ldtoa_r+0xa3a>
    8000a094:	89b6                	mv	s3,a3
    8000a096:	a21d                	j	8000a1bc <_ldtoa_r+0xa48>
    8000a098:	19fd                	addi	s3,s3,-1
    8000a09a:	00098023          	sb	zero,0(s3)
    8000a09e:	fff9c703          	lbu	a4,-1(s3)
    8000a0a2:	00d71663          	bne	a4,a3,8000a0ae <_ldtoa_r+0x93a>
    8000a0a6:	41498733          	sub	a4,s3,s4
    8000a0aa:	fee7c7e3          	blt	a5,a4,8000a098 <_ldtoa_r+0x924>
    8000a0ae:	478d                	li	a5,3
    8000a0b0:	08fa9963          	bne	s5,a5,8000a142 <_ldtoa_r+0x9ce>
    8000a0b4:	9c25                	addw	s0,s0,s1
    8000a0b6:	00045763          	bgez	s0,8000a0c4 <_ldtoa_r+0x950>
    8000a0ba:	12010823          	sb	zero,304(sp)
    8000a0be:	000ba023          	sw	zero,0(s7)
    8000a0c2:	89d2                	mv	s3,s4
    8000a0c4:	000ba783          	lw	a5,0(s7)
    8000a0c8:	01678b3b          	addw	s6,a5,s6
    8000a0cc:	2b0d                	addiw	s6,s6,3
    8000a0ce:	06092423          	sw	zero,104(s2)
    8000a0d2:	4791                	li	a5,4
    8000a0d4:	01c78713          	addi	a4,a5,28
    8000a0d8:	06892583          	lw	a1,104(s2)
    8000a0dc:	04eb7d63          	bleu	a4,s6,8000a136 <_ldtoa_r+0x9c2>
    8000a0e0:	854a                	mv	a0,s2
    8000a0e2:	00000097          	auipc	ra,0x0
    8000a0e6:	1a2080e7          	jalr	418(ra) # 8000a284 <_Balloc>
    8000a0ea:	06a93023          	sd	a0,96(s2)
    8000a0ee:	85d2                	mv	a1,s4
    8000a0f0:	842a                	mv	s0,a0
    8000a0f2:	00000097          	auipc	ra,0x0
    8000a0f6:	2ec080e7          	jalr	748(ra) # 8000a3de <strcpy>
    8000a0fa:	6782                	ld	a5,0(sp)
    8000a0fc:	c791                	beqz	a5,8000a108 <_ldtoa_r+0x994>
    8000a0fe:	414989b3          	sub	s3,s3,s4
    8000a102:	99a2                	add	s3,s3,s0
    8000a104:	0137b023          	sd	s3,0(a5)
    8000a108:	8522                	mv	a0,s0
    8000a10a:	22813083          	ld	ra,552(sp)
    8000a10e:	22013403          	ld	s0,544(sp)
    8000a112:	21813483          	ld	s1,536(sp)
    8000a116:	21013903          	ld	s2,528(sp)
    8000a11a:	20813983          	ld	s3,520(sp)
    8000a11e:	20013a03          	ld	s4,512(sp)
    8000a122:	7afe                	ld	s5,504(sp)
    8000a124:	7b5e                	ld	s6,496(sp)
    8000a126:	7bbe                	ld	s7,488(sp)
    8000a128:	7c1e                	ld	s8,480(sp)
    8000a12a:	6cfe                	ld	s9,472(sp)
    8000a12c:	6d5e                	ld	s10,464(sp)
    8000a12e:	6dbe                	ld	s11,456(sp)
    8000a130:	23010113          	addi	sp,sp,560
    8000a134:	8082                	ret
    8000a136:	2585                	addiw	a1,a1,1
    8000a138:	06b92423          	sw	a1,104(s2)
    8000a13c:	0017979b          	slliw	a5,a5,0x1
    8000a140:	bf51                	j	8000a0d4 <_ldtoa_r+0x960>
    8000a142:	2b25                	addiw	s6,s6,9
    8000a144:	b769                	j	8000a0ce <_ldtoa_r+0x95a>
    8000a146:	67a1                	lui	a5,0x8
    8000a148:	17fd                	addi	a5,a5,-1
    8000a14a:	82f713e3          	bne	a4,a5,80009970 <_ldtoa_r+0x1fc>
    8000a14e:	00003597          	auipc	a1,0x3
    8000a152:	22a58593          	addi	a1,a1,554 # 8000d378 <zeroes.4812+0x28>
    8000a156:	000a0663          	beqz	s4,8000a162 <_ldtoa_r+0x9ee>
    8000a15a:	00003597          	auipc	a1,0x3
    8000a15e:	20e58593          	addi	a1,a1,526 # 8000d368 <zeroes.4812+0x18>
    8000a162:	1a08                	addi	a0,sp,304
    8000a164:	6409                	lui	s0,0x2
    8000a166:	00000097          	auipc	ra,0x0
    8000a16a:	22a080e7          	jalr	554(ra) # 8000a390 <sprintf>
    8000a16e:	70f40413          	addi	s0,s0,1807 # 270f <_stack_size-0x58f1>
    8000a172:	67a2                	ld	a5,8(sp)
    8000a174:	0888                	addi	a0,sp,80
    8000a176:	18812023          	sw	s0,384(sp)
    8000a17a:	16f12a23          	sw	a5,372(sp)
    8000a17e:	fffff097          	auipc	ra,0xfffff
    8000a182:	ada080e7          	jalr	-1318(ra) # 80008c58 <eisinf>
    8000a186:	13010a13          	addi	s4,sp,304
    8000a18a:	e901                	bnez	a0,8000a19a <_ldtoa_r+0xa26>
    8000a18c:	0888                	addi	a0,sp,80
    8000a18e:	fffff097          	auipc	ra,0xfffff
    8000a192:	92c080e7          	jalr	-1748(ra) # 80008aba <eisnan>
    8000a196:	ea0509e3          	beqz	a0,8000a048 <_ldtoa_r+0x8d4>
    8000a19a:	6789                	lui	a5,0x2
    8000a19c:	70f7879b          	addiw	a5,a5,1807
    8000a1a0:	00fba023          	sw	a5,0(s7)
    8000a1a4:	87d2                	mv	a5,s4
    8000a1a6:	02000613          	li	a2,32
    8000a1aa:	02d00693          	li	a3,45
    8000a1ae:	0007c703          	lbu	a4,0(a5) # 2000 <_stack_size-0x6000>
    8000a1b2:	ecc70fe3          	beq	a4,a2,8000a090 <_ldtoa_r+0x91c>
    8000a1b6:	ecd70de3          	beq	a4,a3,8000a090 <_ldtoa_r+0x91c>
    8000a1ba:	89d2                	mv	s3,s4
    8000a1bc:	0785                	addi	a5,a5,1
    8000a1be:	fff7c703          	lbu	a4,-1(a5)
    8000a1c2:	00198693          	addi	a3,s3,1
    8000a1c6:	fee68fa3          	sb	a4,-1(a3)
    8000a1ca:	ec0715e3          	bnez	a4,8000a094 <_ldtoa_r+0x920>
    8000a1ce:	4709                	li	a4,2
    8000a1d0:	4785                	li	a5,1
    8000a1d2:	00ea8863          	beq	s5,a4,8000a1e2 <_ldtoa_r+0xa6e>
    8000a1d6:	0004879b          	sext.w	a5,s1
    8000a1da:	0084d463          	ble	s0,s1,8000a1e2 <_ldtoa_r+0xa6e>
    8000a1de:	0004079b          	sext.w	a5,s0
    8000a1e2:	03000693          	li	a3,48
    8000a1e6:	bd65                	j	8000a09e <_ldtoa_r+0x92a>

000000008000a1e8 <_ldcheck>:
    8000a1e8:	611c                	ld	a5,0(a0)
    8000a1ea:	7139                	addi	sp,sp,-64
    8000a1ec:	080c                	addi	a1,sp,16
    8000a1ee:	e03e                	sd	a5,0(sp)
    8000a1f0:	651c                	ld	a5,8(a0)
    8000a1f2:	850a                	mv	a0,sp
    8000a1f4:	fc06                	sd	ra,56(sp)
    8000a1f6:	e43e                	sd	a5,8(sp)
    8000a1f8:	fffff097          	auipc	ra,0xfffff
    8000a1fc:	cbc080e7          	jalr	-836(ra) # 80008eb4 <e113toe.isra.8>
    8000a200:	02215783          	lhu	a5,34(sp)
    8000a204:	4501                	li	a0,0
    8000a206:	fff7c793          	not	a5,a5
    8000a20a:	03179713          	slli	a4,a5,0x31
    8000a20e:	eb09                	bnez	a4,8000a220 <_ldcheck+0x38>
    8000a210:	0808                	addi	a0,sp,16
    8000a212:	fffff097          	auipc	ra,0xfffff
    8000a216:	8a8080e7          	jalr	-1880(ra) # 80008aba <eisnan>
    8000a21a:	00153513          	seqz	a0,a0
    8000a21e:	0505                	addi	a0,a0,1
    8000a220:	70e2                	ld	ra,56(sp)
    8000a222:	6121                	addi	sp,sp,64
    8000a224:	8082                	ret

000000008000a226 <_localeconv_r>:
    8000a226:	00006517          	auipc	a0,0x6
    8000a22a:	90250513          	addi	a0,a0,-1790 # 8000fb28 <__global_locale+0x100>
    8000a22e:	8082                	ret

000000008000a230 <__ascii_mbtowc>:
    8000a230:	e185                	bnez	a1,8000a250 <__ascii_mbtowc+0x20>
    8000a232:	1141                	addi	sp,sp,-16
    8000a234:	006c                	addi	a1,sp,12
    8000a236:	4501                	li	a0,0
    8000a238:	ca11                	beqz	a2,8000a24c <__ascii_mbtowc+0x1c>
    8000a23a:	5579                	li	a0,-2
    8000a23c:	ca81                	beqz	a3,8000a24c <__ascii_mbtowc+0x1c>
    8000a23e:	00064783          	lbu	a5,0(a2)
    8000a242:	c19c                	sw	a5,0(a1)
    8000a244:	00064503          	lbu	a0,0(a2)
    8000a248:	00a03533          	snez	a0,a0
    8000a24c:	0141                	addi	sp,sp,16
    8000a24e:	8082                	ret
    8000a250:	4501                	li	a0,0
    8000a252:	ca19                	beqz	a2,8000a268 <__ascii_mbtowc+0x38>
    8000a254:	5579                	li	a0,-2
    8000a256:	ca89                	beqz	a3,8000a268 <__ascii_mbtowc+0x38>
    8000a258:	00064783          	lbu	a5,0(a2)
    8000a25c:	c19c                	sw	a5,0(a1)
    8000a25e:	00064503          	lbu	a0,0(a2)
    8000a262:	00a03533          	snez	a0,a0
    8000a266:	8082                	ret
    8000a268:	8082                	ret

000000008000a26a <memchr>:
    8000a26a:	0ff5f593          	andi	a1,a1,255
    8000a26e:	962a                	add	a2,a2,a0
    8000a270:	00c51463          	bne	a0,a2,8000a278 <memchr+0xe>
    8000a274:	4501                	li	a0,0
    8000a276:	8082                	ret
    8000a278:	00054783          	lbu	a5,0(a0)
    8000a27c:	feb78de3          	beq	a5,a1,8000a276 <memchr+0xc>
    8000a280:	0505                	addi	a0,a0,1
    8000a282:	b7fd                	j	8000a270 <memchr+0x6>

000000008000a284 <_Balloc>:
    8000a284:	7d3c                	ld	a5,120(a0)
    8000a286:	1101                	addi	sp,sp,-32
    8000a288:	e426                	sd	s1,8(sp)
    8000a28a:	e04a                	sd	s2,0(sp)
    8000a28c:	ec06                	sd	ra,24(sp)
    8000a28e:	e822                	sd	s0,16(sp)
    8000a290:	84aa                	mv	s1,a0
    8000a292:	892e                	mv	s2,a1
    8000a294:	cb8d                	beqz	a5,8000a2c6 <_Balloc+0x42>
    8000a296:	7cb8                	ld	a4,120(s1)
    8000a298:	00391793          	slli	a5,s2,0x3
    8000a29c:	97ba                	add	a5,a5,a4
    8000a29e:	6388                	ld	a0,0(a5)
    8000a2a0:	e139                	bnez	a0,8000a2e6 <_Balloc+0x62>
    8000a2a2:	4405                	li	s0,1
    8000a2a4:	0124143b          	sllw	s0,s0,s2
    8000a2a8:	fff4061b          	addiw	a2,s0,-1
    8000a2ac:	0621                	addi	a2,a2,8
    8000a2ae:	060a                	slli	a2,a2,0x2
    8000a2b0:	4585                	li	a1,1
    8000a2b2:	8526                	mv	a0,s1
    8000a2b4:	00000097          	auipc	ra,0x0
    8000a2b8:	2ee080e7          	jalr	750(ra) # 8000a5a2 <_calloc_r>
    8000a2bc:	cd11                	beqz	a0,8000a2d8 <_Balloc+0x54>
    8000a2be:	01252423          	sw	s2,8(a0)
    8000a2c2:	c540                	sw	s0,12(a0)
    8000a2c4:	a01d                	j	8000a2ea <_Balloc+0x66>
    8000a2c6:	04100613          	li	a2,65
    8000a2ca:	45a1                	li	a1,8
    8000a2cc:	00000097          	auipc	ra,0x0
    8000a2d0:	2d6080e7          	jalr	726(ra) # 8000a5a2 <_calloc_r>
    8000a2d4:	fca8                	sd	a0,120(s1)
    8000a2d6:	f161                	bnez	a0,8000a296 <_Balloc+0x12>
    8000a2d8:	4501                	li	a0,0
    8000a2da:	60e2                	ld	ra,24(sp)
    8000a2dc:	6442                	ld	s0,16(sp)
    8000a2de:	64a2                	ld	s1,8(sp)
    8000a2e0:	6902                	ld	s2,0(sp)
    8000a2e2:	6105                	addi	sp,sp,32
    8000a2e4:	8082                	ret
    8000a2e6:	6118                	ld	a4,0(a0)
    8000a2e8:	e398                	sd	a4,0(a5)
    8000a2ea:	00053823          	sd	zero,16(a0)
    8000a2ee:	b7f5                	j	8000a2da <_Balloc+0x56>

000000008000a2f0 <_Bfree>:
    8000a2f0:	c989                	beqz	a1,8000a302 <_Bfree+0x12>
    8000a2f2:	459c                	lw	a5,8(a1)
    8000a2f4:	00379713          	slli	a4,a5,0x3
    8000a2f8:	7d3c                	ld	a5,120(a0)
    8000a2fa:	97ba                	add	a5,a5,a4
    8000a2fc:	6398                	ld	a4,0(a5)
    8000a2fe:	e198                	sd	a4,0(a1)
    8000a300:	e38c                	sd	a1,0(a5)
    8000a302:	8082                	ret

000000008000a304 <frexp>:
    8000a304:	1101                	addi	sp,sp,-32
    8000a306:	e426                	sd	s1,8(sp)
    8000a308:	800004b7          	lui	s1,0x80000
    8000a30c:	ec06                	sd	ra,24(sp)
    8000a30e:	e822                	sd	s0,16(sp)
    8000a310:	42055793          	srai	a5,a0,0x20
    8000a314:	fff4c493          	not	s1,s1
    8000a318:	0097f6b3          	and	a3,a5,s1
    8000a31c:	0005a023          	sw	zero,0(a1)
    8000a320:	7ff00637          	lui	a2,0x7ff00
    8000a324:	872a                	mv	a4,a0
    8000a326:	04c6df63          	ble	a2,a3,8000a384 <frexp+0x80>
    8000a32a:	00a6e633          	or	a2,a3,a0
    8000a32e:	2601                	sext.w	a2,a2
    8000a330:	ca31                	beqz	a2,8000a384 <frexp+0x80>
    8000a332:	7ff00637          	lui	a2,0x7ff00
    8000a336:	8e7d                	and	a2,a2,a5
    8000a338:	842e                	mv	s0,a1
    8000a33a:	e215                	bnez	a2,8000a35e <frexp+0x5a>
    8000a33c:	00003797          	auipc	a5,0x3
    8000a340:	2dc78793          	addi	a5,a5,732 # 8000d618 <ezero+0x30>
    8000a344:	638c                	ld	a1,0(a5)
    8000a346:	ffffb097          	auipc	ra,0xffffb
    8000a34a:	73a080e7          	jalr	1850(ra) # 80005a80 <__muldf3>
    8000a34e:	42055793          	srai	a5,a0,0x20
    8000a352:	fca00613          	li	a2,-54
    8000a356:	872a                	mv	a4,a0
    8000a358:	0097f6b3          	and	a3,a5,s1
    8000a35c:	c010                	sw	a2,0(s0)
    8000a35e:	4010                	lw	a2,0(s0)
    8000a360:	4146d69b          	sraiw	a3,a3,0x14
    8000a364:	c026869b          	addiw	a3,a3,-1022
    8000a368:	9eb1                	addw	a3,a3,a2
    8000a36a:	c014                	sw	a3,0(s0)
    8000a36c:	801006b7          	lui	a3,0x80100
    8000a370:	16fd                	addi	a3,a3,-1
    8000a372:	8ff5                	and	a5,a5,a3
    8000a374:	3fe006b7          	lui	a3,0x3fe00
    8000a378:	8fd5                	or	a5,a5,a3
    8000a37a:	56fd                	li	a3,-1
    8000a37c:	9281                	srli	a3,a3,0x20
    8000a37e:	1782                	slli	a5,a5,0x20
    8000a380:	8f75                	and	a4,a4,a3
    8000a382:	8f5d                	or	a4,a4,a5
    8000a384:	60e2                	ld	ra,24(sp)
    8000a386:	6442                	ld	s0,16(sp)
    8000a388:	64a2                	ld	s1,8(sp)
    8000a38a:	853a                	mv	a0,a4
    8000a38c:	6105                	addi	sp,sp,32
    8000a38e:	8082                	ret

000000008000a390 <sprintf>:
    8000a390:	7111                	addi	sp,sp,-256
    8000a392:	f5be                	sd	a5,232(sp)
    8000a394:	800007b7          	lui	a5,0x80000
    8000a398:	fff7c793          	not	a5,a5
    8000a39c:	d43e                	sw	a5,40(sp)
    8000a39e:	ca3e                	sw	a5,20(sp)
    8000a3a0:	77c1                	lui	a5,0xffff0
    8000a3a2:	2087879b          	addiw	a5,a5,520
    8000a3a6:	e9b2                	sd	a2,208(sp)
    8000a3a8:	edb6                	sd	a3,216(sp)
    8000a3aa:	f1ba                	sd	a4,224(sp)
    8000a3ac:	f9c2                	sd	a6,240(sp)
    8000a3ae:	fdc6                	sd	a7,248(sp)
    8000a3b0:	cc3e                	sw	a5,24(sp)
    8000a3b2:	00006797          	auipc	a5,0x6
    8000a3b6:	86678793          	addi	a5,a5,-1946 # 8000fc18 <_impure_ptr>
    8000a3ba:	e42a                	sd	a0,8(sp)
    8000a3bc:	f02a                	sd	a0,32(sp)
    8000a3be:	6388                	ld	a0,0(a5)
    8000a3c0:	0994                	addi	a3,sp,208
    8000a3c2:	862e                	mv	a2,a1
    8000a3c4:	002c                	addi	a1,sp,8
    8000a3c6:	e586                	sd	ra,200(sp)
    8000a3c8:	e036                	sd	a3,0(sp)
    8000a3ca:	ffffd097          	auipc	ra,0xffffd
    8000a3ce:	ea2080e7          	jalr	-350(ra) # 8000726c <_svfprintf_r>
    8000a3d2:	67a2                	ld	a5,8(sp)
    8000a3d4:	00078023          	sb	zero,0(a5)
    8000a3d8:	60ae                	ld	ra,200(sp)
    8000a3da:	6111                	addi	sp,sp,256
    8000a3dc:	8082                	ret

000000008000a3de <strcpy>:
    8000a3de:	87aa                	mv	a5,a0
    8000a3e0:	0005c703          	lbu	a4,0(a1)
    8000a3e4:	0785                	addi	a5,a5,1
    8000a3e6:	0585                	addi	a1,a1,1
    8000a3e8:	fee78fa3          	sb	a4,-1(a5)
    8000a3ec:	fb75                	bnez	a4,8000a3e0 <strcpy+0x2>
    8000a3ee:	8082                	ret

000000008000a3f0 <strlen>:
    8000a3f0:	87aa                	mv	a5,a0
    8000a3f2:	0785                	addi	a5,a5,1
    8000a3f4:	fff7c703          	lbu	a4,-1(a5)
    8000a3f8:	ff6d                	bnez	a4,8000a3f2 <strlen+0x2>
    8000a3fa:	40a78533          	sub	a0,a5,a0
    8000a3fe:	157d                	addi	a0,a0,-1
    8000a400:	8082                	ret

000000008000a402 <strncpy>:
    8000a402:	87aa                	mv	a5,a0
    8000a404:	ca09                	beqz	a2,8000a416 <strncpy+0x14>
    8000a406:	0585                	addi	a1,a1,1
    8000a408:	fff5c703          	lbu	a4,-1(a1)
    8000a40c:	0785                	addi	a5,a5,1
    8000a40e:	167d                	addi	a2,a2,-1
    8000a410:	fee78fa3          	sb	a4,-1(a5)
    8000a414:	fb65                	bnez	a4,8000a404 <strncpy+0x2>
    8000a416:	963e                	add	a2,a2,a5
    8000a418:	00c79363          	bne	a5,a2,8000a41e <strncpy+0x1c>
    8000a41c:	8082                	ret
    8000a41e:	0785                	addi	a5,a5,1
    8000a420:	fe078fa3          	sb	zero,-1(a5)
    8000a424:	bfd5                	j	8000a418 <strncpy+0x16>

000000008000a426 <__ssprint_r>:
    8000a426:	6a1c                	ld	a5,16(a2)
    8000a428:	711d                	addi	sp,sp,-96
    8000a42a:	fc4e                	sd	s3,56(sp)
    8000a42c:	ec86                	sd	ra,88(sp)
    8000a42e:	e8a2                	sd	s0,80(sp)
    8000a430:	e4a6                	sd	s1,72(sp)
    8000a432:	e0ca                	sd	s2,64(sp)
    8000a434:	f852                	sd	s4,48(sp)
    8000a436:	f456                	sd	s5,40(sp)
    8000a438:	f05a                	sd	s6,32(sp)
    8000a43a:	ec5e                	sd	s7,24(sp)
    8000a43c:	e862                	sd	s8,16(sp)
    8000a43e:	e466                	sd	s9,8(sp)
    8000a440:	e06a                	sd	s10,0(sp)
    8000a442:	89b2                	mv	s3,a2
    8000a444:	cfed                	beqz	a5,8000a53e <__ssprint_r+0x118>
    8000a446:	00063b03          	ld	s6,0(a2) # 7ff00000 <_stack_size+0x7fef8000>
    8000a44a:	8a2a                	mv	s4,a0
    8000a44c:	842e                	mv	s0,a1
    8000a44e:	4a81                	li	s5,0
    8000a450:	4901                	li	s2,0
    8000a452:	4b8d                	li	s7,3
    8000a454:	4c09                	li	s8,2
    8000a456:	06090863          	beqz	s2,8000a4c6 <__ssprint_r+0xa0>
    8000a45a:	00c42d03          	lw	s10,12(s0)
    8000a45e:	0ba96363          	bltu	s2,s10,8000a504 <__ssprint_r+0xde>
    8000a462:	01045703          	lhu	a4,16(s0)
    8000a466:	48077793          	andi	a5,a4,1152
    8000a46a:	cfc9                	beqz	a5,8000a504 <__ssprint_r+0xde>
    8000a46c:	5004                	lw	s1,32(s0)
    8000a46e:	6c0c                	ld	a1,24(s0)
    8000a470:	601c                	ld	a5,0(s0)
    8000a472:	029b84bb          	mulw	s1,s7,s1
    8000a476:	8f8d                	sub	a5,a5,a1
    8000a478:	00078c9b          	sext.w	s9,a5
    8000a47c:	001c8693          	addi	a3,s9,1
    8000a480:	96ca                	add	a3,a3,s2
    8000a482:	0384c4bb          	divw	s1,s1,s8
    8000a486:	00d4f663          	bleu	a3,s1,8000a492 <__ssprint_r+0x6c>
    8000a48a:	0017849b          	addiw	s1,a5,1
    8000a48e:	012484bb          	addw	s1,s1,s2
    8000a492:	40077713          	andi	a4,a4,1024
    8000a496:	c769                	beqz	a4,8000a560 <__ssprint_r+0x13a>
    8000a498:	85a6                	mv	a1,s1
    8000a49a:	8552                	mv	a0,s4
    8000a49c:	ffffd097          	auipc	ra,0xffffd
    8000a4a0:	81e080e7          	jalr	-2018(ra) # 80006cba <_malloc_r>
    8000a4a4:	8d2a                	mv	s10,a0
    8000a4a6:	e515                	bnez	a0,8000a4d2 <__ssprint_r+0xac>
    8000a4a8:	47b1                	li	a5,12
    8000a4aa:	00fa2023          	sw	a5,0(s4) # 10000 <_stack_size+0x8000>
    8000a4ae:	01045783          	lhu	a5,16(s0)
    8000a4b2:	557d                	li	a0,-1
    8000a4b4:	0407e793          	ori	a5,a5,64
    8000a4b8:	00f41823          	sh	a5,16(s0)
    8000a4bc:	0009b823          	sd	zero,16(s3)
    8000a4c0:	0009a423          	sw	zero,8(s3)
    8000a4c4:	a041                	j	8000a544 <__ssprint_r+0x11e>
    8000a4c6:	000b3a83          	ld	s5,0(s6)
    8000a4ca:	008b3903          	ld	s2,8(s6)
    8000a4ce:	0b41                	addi	s6,s6,16
    8000a4d0:	b759                	j	8000a456 <__ssprint_r+0x30>
    8000a4d2:	6c0c                	ld	a1,24(s0)
    8000a4d4:	8666                	mv	a2,s9
    8000a4d6:	ffffc097          	auipc	ra,0xffffc
    8000a4da:	364080e7          	jalr	868(ra) # 8000683a <memcpy>
    8000a4de:	01045783          	lhu	a5,16(s0)
    8000a4e2:	b7f7f793          	andi	a5,a5,-1153
    8000a4e6:	0807e793          	ori	a5,a5,128
    8000a4ea:	00f41823          	sh	a5,16(s0)
    8000a4ee:	01a43c23          	sd	s10,24(s0)
    8000a4f2:	d004                	sw	s1,32(s0)
    8000a4f4:	9d66                	add	s10,s10,s9
    8000a4f6:	419484bb          	subw	s1,s1,s9
    8000a4fa:	01a43023          	sd	s10,0(s0)
    8000a4fe:	c444                	sw	s1,12(s0)
    8000a500:	00090d1b          	sext.w	s10,s2
    8000a504:	0009049b          	sext.w	s1,s2
    8000a508:	01a97363          	bleu	s10,s2,8000a50e <__ssprint_r+0xe8>
    8000a50c:	8d26                	mv	s10,s1
    8000a50e:	6008                	ld	a0,0(s0)
    8000a510:	866a                	mv	a2,s10
    8000a512:	85d6                	mv	a1,s5
    8000a514:	00000097          	auipc	ra,0x0
    8000a518:	112080e7          	jalr	274(ra) # 8000a626 <memmove>
    8000a51c:	445c                	lw	a5,12(s0)
    8000a51e:	9aa6                	add	s5,s5,s1
    8000a520:	40990933          	sub	s2,s2,s1
    8000a524:	41a787bb          	subw	a5,a5,s10
    8000a528:	c45c                	sw	a5,12(s0)
    8000a52a:	601c                	ld	a5,0(s0)
    8000a52c:	9d3e                	add	s10,s10,a5
    8000a52e:	0109b783          	ld	a5,16(s3)
    8000a532:	01a43023          	sd	s10,0(s0)
    8000a536:	8f85                	sub	a5,a5,s1
    8000a538:	00f9b823          	sd	a5,16(s3)
    8000a53c:	ff89                	bnez	a5,8000a456 <__ssprint_r+0x30>
    8000a53e:	0009a423          	sw	zero,8(s3)
    8000a542:	4501                	li	a0,0
    8000a544:	60e6                	ld	ra,88(sp)
    8000a546:	6446                	ld	s0,80(sp)
    8000a548:	64a6                	ld	s1,72(sp)
    8000a54a:	6906                	ld	s2,64(sp)
    8000a54c:	79e2                	ld	s3,56(sp)
    8000a54e:	7a42                	ld	s4,48(sp)
    8000a550:	7aa2                	ld	s5,40(sp)
    8000a552:	7b02                	ld	s6,32(sp)
    8000a554:	6be2                	ld	s7,24(sp)
    8000a556:	6c42                	ld	s8,16(sp)
    8000a558:	6ca2                	ld	s9,8(sp)
    8000a55a:	6d02                	ld	s10,0(sp)
    8000a55c:	6125                	addi	sp,sp,96
    8000a55e:	8082                	ret
    8000a560:	8626                	mv	a2,s1
    8000a562:	8552                	mv	a0,s4
    8000a564:	00000097          	auipc	ra,0x0
    8000a568:	10c080e7          	jalr	268(ra) # 8000a670 <_realloc_r>
    8000a56c:	8d2a                	mv	s10,a0
    8000a56e:	f141                	bnez	a0,8000a4ee <__ssprint_r+0xc8>
    8000a570:	6c0c                	ld	a1,24(s0)
    8000a572:	8552                	mv	a0,s4
    8000a574:	ffffc097          	auipc	ra,0xffffc
    8000a578:	558080e7          	jalr	1368(ra) # 80006acc <_free_r>
    8000a57c:	b735                	j	8000a4a8 <__ssprint_r+0x82>

000000008000a57e <__ascii_wctomb>:
    8000a57e:	0006071b          	sext.w	a4,a2
    8000a582:	cd91                	beqz	a1,8000a59e <__ascii_wctomb+0x20>
    8000a584:	0ff00793          	li	a5,255
    8000a588:	00e7f763          	bleu	a4,a5,8000a596 <__ascii_wctomb+0x18>
    8000a58c:	08a00793          	li	a5,138
    8000a590:	c11c                	sw	a5,0(a0)
    8000a592:	557d                	li	a0,-1
    8000a594:	8082                	ret
    8000a596:	00c58023          	sb	a2,0(a1)
    8000a59a:	4505                	li	a0,1
    8000a59c:	8082                	ret
    8000a59e:	4501                	li	a0,0
    8000a5a0:	8082                	ret

000000008000a5a2 <_calloc_r>:
    8000a5a2:	02c585b3          	mul	a1,a1,a2
    8000a5a6:	1141                	addi	sp,sp,-16
    8000a5a8:	e022                	sd	s0,0(sp)
    8000a5aa:	e406                	sd	ra,8(sp)
    8000a5ac:	ffffc097          	auipc	ra,0xffffc
    8000a5b0:	70e080e7          	jalr	1806(ra) # 80006cba <_malloc_r>
    8000a5b4:	842a                	mv	s0,a0
    8000a5b6:	cd15                	beqz	a0,8000a5f2 <_calloc_r+0x50>
    8000a5b8:	ff853603          	ld	a2,-8(a0)
    8000a5bc:	04800713          	li	a4,72
    8000a5c0:	9a71                	andi	a2,a2,-4
    8000a5c2:	1661                	addi	a2,a2,-8
    8000a5c4:	04c76b63          	bltu	a4,a2,8000a61a <_calloc_r+0x78>
    8000a5c8:	02700693          	li	a3,39
    8000a5cc:	87aa                	mv	a5,a0
    8000a5ce:	00c6fc63          	bleu	a2,a3,8000a5e6 <_calloc_r+0x44>
    8000a5d2:	00053023          	sd	zero,0(a0)
    8000a5d6:	00053423          	sd	zero,8(a0)
    8000a5da:	03700793          	li	a5,55
    8000a5de:	00c7ef63          	bltu	a5,a2,8000a5fc <_calloc_r+0x5a>
    8000a5e2:	01050793          	addi	a5,a0,16
    8000a5e6:	0007b023          	sd	zero,0(a5)
    8000a5ea:	0007b423          	sd	zero,8(a5)
    8000a5ee:	0007b823          	sd	zero,16(a5)
    8000a5f2:	8522                	mv	a0,s0
    8000a5f4:	60a2                	ld	ra,8(sp)
    8000a5f6:	6402                	ld	s0,0(sp)
    8000a5f8:	0141                	addi	sp,sp,16
    8000a5fa:	8082                	ret
    8000a5fc:	00053823          	sd	zero,16(a0)
    8000a600:	00053c23          	sd	zero,24(a0)
    8000a604:	02050793          	addi	a5,a0,32
    8000a608:	fce61fe3          	bne	a2,a4,8000a5e6 <_calloc_r+0x44>
    8000a60c:	02053023          	sd	zero,32(a0)
    8000a610:	03050793          	addi	a5,a0,48
    8000a614:	02053423          	sd	zero,40(a0)
    8000a618:	b7f9                	j	8000a5e6 <_calloc_r+0x44>
    8000a61a:	4581                	li	a1,0
    8000a61c:	ffffc097          	auipc	ra,0xffffc
    8000a620:	2d4080e7          	jalr	724(ra) # 800068f0 <memset>
    8000a624:	b7f9                	j	8000a5f2 <_calloc_r+0x50>

000000008000a626 <memmove>:
    8000a626:	04a5f363          	bleu	a0,a1,8000a66c <memmove+0x46>
    8000a62a:	00c586b3          	add	a3,a1,a2
    8000a62e:	02d57f63          	bleu	a3,a0,8000a66c <memmove+0x46>
    8000a632:	fff64593          	not	a1,a2
    8000a636:	4781                	li	a5,0
    8000a638:	17fd                	addi	a5,a5,-1
    8000a63a:	00f59363          	bne	a1,a5,8000a640 <memmove+0x1a>
    8000a63e:	8082                	ret
    8000a640:	00f68733          	add	a4,a3,a5
    8000a644:	00074803          	lbu	a6,0(a4) # ffffffffffff8000 <_trapsp0+0xffffffff7ffc2fc0>
    8000a648:	00c78733          	add	a4,a5,a2
    8000a64c:	972a                	add	a4,a4,a0
    8000a64e:	01070023          	sb	a6,0(a4)
    8000a652:	b7dd                	j	8000a638 <memmove+0x12>
    8000a654:	00f58733          	add	a4,a1,a5
    8000a658:	00074683          	lbu	a3,0(a4)
    8000a65c:	00f50733          	add	a4,a0,a5
    8000a660:	0785                	addi	a5,a5,1
    8000a662:	00d70023          	sb	a3,0(a4)
    8000a666:	fef617e3          	bne	a2,a5,8000a654 <memmove+0x2e>
    8000a66a:	8082                	ret
    8000a66c:	4781                	li	a5,0
    8000a66e:	bfe5                	j	8000a666 <memmove+0x40>

000000008000a670 <_realloc_r>:
    8000a670:	711d                	addi	sp,sp,-96
    8000a672:	e8a2                	sd	s0,80(sp)
    8000a674:	ec86                	sd	ra,88(sp)
    8000a676:	842e                	mv	s0,a1
    8000a678:	e4a6                	sd	s1,72(sp)
    8000a67a:	e0ca                	sd	s2,64(sp)
    8000a67c:	fc4e                	sd	s3,56(sp)
    8000a67e:	f852                	sd	s4,48(sp)
    8000a680:	f456                	sd	s5,40(sp)
    8000a682:	f05a                	sd	s6,32(sp)
    8000a684:	ec5e                	sd	s7,24(sp)
    8000a686:	85b2                	mv	a1,a2
    8000a688:	ec19                	bnez	s0,8000a6a6 <_realloc_r+0x36>
    8000a68a:	6446                	ld	s0,80(sp)
    8000a68c:	60e6                	ld	ra,88(sp)
    8000a68e:	64a6                	ld	s1,72(sp)
    8000a690:	6906                	ld	s2,64(sp)
    8000a692:	79e2                	ld	s3,56(sp)
    8000a694:	7a42                	ld	s4,48(sp)
    8000a696:	7aa2                	ld	s5,40(sp)
    8000a698:	7b02                	ld	s6,32(sp)
    8000a69a:	6be2                	ld	s7,24(sp)
    8000a69c:	6125                	addi	sp,sp,96
    8000a69e:	ffffc317          	auipc	t1,0xffffc
    8000a6a2:	61c30067          	jr	1564(t1) # 80006cba <_malloc_r>
    8000a6a6:	8aaa                	mv	s5,a0
    8000a6a8:	e432                	sd	a2,8(sp)
    8000a6aa:	ffffd097          	auipc	ra,0xffffd
    8000a6ae:	b6c080e7          	jalr	-1172(ra) # 80007216 <__malloc_lock>
    8000a6b2:	65a2                	ld	a1,8(sp)
    8000a6b4:	ff843683          	ld	a3,-8(s0)
    8000a6b8:	02e00793          	li	a5,46
    8000a6bc:	01758993          	addi	s3,a1,23
    8000a6c0:	ff040b93          	addi	s7,s0,-16
    8000a6c4:	ffc6f913          	andi	s2,a3,-4
    8000a6c8:	0337fa63          	bleu	s3,a5,8000a6fc <_realloc_r+0x8c>
    8000a6cc:	800007b7          	lui	a5,0x80000
    8000a6d0:	ff09fb13          	andi	s6,s3,-16
    8000a6d4:	fff7c793          	not	a5,a5
    8000a6d8:	0367f463          	bleu	s6,a5,8000a700 <_realloc_r+0x90>
    8000a6dc:	47b1                	li	a5,12
    8000a6de:	00faa023          	sw	a5,0(s5)
    8000a6e2:	4a01                	li	s4,0
    8000a6e4:	60e6                	ld	ra,88(sp)
    8000a6e6:	6446                	ld	s0,80(sp)
    8000a6e8:	8552                	mv	a0,s4
    8000a6ea:	64a6                	ld	s1,72(sp)
    8000a6ec:	6906                	ld	s2,64(sp)
    8000a6ee:	79e2                	ld	s3,56(sp)
    8000a6f0:	7a42                	ld	s4,48(sp)
    8000a6f2:	7aa2                	ld	s5,40(sp)
    8000a6f4:	7b02                	ld	s6,32(sp)
    8000a6f6:	6be2                	ld	s7,24(sp)
    8000a6f8:	6125                	addi	sp,sp,96
    8000a6fa:	8082                	ret
    8000a6fc:	02000b13          	li	s6,32
    8000a700:	fcbb6ee3          	bltu	s6,a1,8000a6dc <_realloc_r+0x6c>
    8000a704:	35695763          	ble	s6,s2,8000aa52 <_realloc_r+0x3e2>
    8000a708:	00005717          	auipc	a4,0x5
    8000a70c:	b1070713          	addi	a4,a4,-1264 # 8000f218 <__malloc_av_>
    8000a710:	6b10                	ld	a2,16(a4)
    8000a712:	012b87b3          	add	a5,s7,s2
    8000a716:	6798                	ld	a4,8(a5)
    8000a718:	00f60863          	beq	a2,a5,8000a728 <_realloc_r+0xb8>
    8000a71c:	ffe77513          	andi	a0,a4,-2
    8000a720:	953e                	add	a0,a0,a5
    8000a722:	6508                	ld	a0,8(a0)
    8000a724:	8905                	andi	a0,a0,1
    8000a726:	ed21                	bnez	a0,8000a77e <_realloc_r+0x10e>
    8000a728:	9b71                	andi	a4,a4,-4
    8000a72a:	00e909b3          	add	s3,s2,a4
    8000a72e:	04f61063          	bne	a2,a5,8000a76e <_realloc_r+0xfe>
    8000a732:	020b0513          	addi	a0,s6,32
    8000a736:	04a9c663          	blt	s3,a0,8000a782 <_realloc_r+0x112>
    8000a73a:	9bda                	add	s7,s7,s6
    8000a73c:	416989b3          	sub	s3,s3,s6
    8000a740:	00005797          	auipc	a5,0x5
    8000a744:	af77b423          	sd	s7,-1304(a5) # 8000f228 <__malloc_av_+0x10>
    8000a748:	0019e993          	ori	s3,s3,1
    8000a74c:	013bb423          	sd	s3,8(s7)
    8000a750:	ff843983          	ld	s3,-8(s0)
    8000a754:	8556                	mv	a0,s5
    8000a756:	8a22                	mv	s4,s0
    8000a758:	0019f993          	andi	s3,s3,1
    8000a75c:	0169e9b3          	or	s3,s3,s6
    8000a760:	ff343c23          	sd	s3,-8(s0)
    8000a764:	ffffd097          	auipc	ra,0xffffd
    8000a768:	ac2080e7          	jalr	-1342(ra) # 80007226 <__malloc_unlock>
    8000a76c:	bfa5                	j	8000a6e4 <_realloc_r+0x74>
    8000a76e:	0169ca63          	blt	s3,s6,8000a782 <_realloc_r+0x112>
    8000a772:	6f98                	ld	a4,24(a5)
    8000a774:	6b9c                	ld	a5,16(a5)
    8000a776:	ef98                	sd	a4,24(a5)
    8000a778:	eb1c                	sd	a5,16(a4)
    8000a77a:	84de                	mv	s1,s7
    8000a77c:	a235                	j	8000a8a8 <_realloc_r+0x238>
    8000a77e:	4701                	li	a4,0
    8000a780:	4781                	li	a5,0
    8000a782:	8a85                	andi	a3,a3,1
    8000a784:	22069163          	bnez	a3,8000a9a6 <_realloc_r+0x336>
    8000a788:	ff043483          	ld	s1,-16(s0)
    8000a78c:	409b84b3          	sub	s1,s7,s1
    8000a790:	0084ba03          	ld	s4,8(s1) # ffffffff80000008 <_trapsp0+0xfffffffefffcafc8>
    8000a794:	ffca7a13          	andi	s4,s4,-4
    8000a798:	9a4a                	add	s4,s4,s2
    8000a79a:	18078663          	beqz	a5,8000a926 <_realloc_r+0x2b6>
    8000a79e:	014709b3          	add	s3,a4,s4
    8000a7a2:	0af61c63          	bne	a2,a5,8000a85a <_realloc_r+0x1ea>
    8000a7a6:	020b0793          	addi	a5,s6,32
    8000a7aa:	16f9ce63          	blt	s3,a5,8000a926 <_realloc_r+0x2b6>
    8000a7ae:	6898                	ld	a4,16(s1)
    8000a7b0:	6c9c                	ld	a5,24(s1)
    8000a7b2:	ff890613          	addi	a2,s2,-8
    8000a7b6:	01048a13          	addi	s4,s1,16
    8000a7ba:	ef1c                	sd	a5,24(a4)
    8000a7bc:	eb98                	sd	a4,16(a5)
    8000a7be:	04800713          	li	a4,72
    8000a7c2:	08c76563          	bltu	a4,a2,8000a84c <_realloc_r+0x1dc>
    8000a7c6:	02700693          	li	a3,39
    8000a7ca:	87d2                	mv	a5,s4
    8000a7cc:	00c6fd63          	bleu	a2,a3,8000a7e6 <_realloc_r+0x176>
    8000a7d0:	601c                	ld	a5,0(s0)
    8000a7d2:	e89c                	sd	a5,16(s1)
    8000a7d4:	641c                	ld	a5,8(s0)
    8000a7d6:	ec9c                	sd	a5,24(s1)
    8000a7d8:	03700793          	li	a5,55
    8000a7dc:	04c7e363          	bltu	a5,a2,8000a822 <_realloc_r+0x1b2>
    8000a7e0:	0441                	addi	s0,s0,16
    8000a7e2:	02048793          	addi	a5,s1,32
    8000a7e6:	6018                	ld	a4,0(s0)
    8000a7e8:	e398                	sd	a4,0(a5)
    8000a7ea:	6418                	ld	a4,8(s0)
    8000a7ec:	e798                	sd	a4,8(a5)
    8000a7ee:	6818                	ld	a4,16(s0)
    8000a7f0:	eb98                	sd	a4,16(a5)
    8000a7f2:	016487b3          	add	a5,s1,s6
    8000a7f6:	416989b3          	sub	s3,s3,s6
    8000a7fa:	00005717          	auipc	a4,0x5
    8000a7fe:	a2f73723          	sd	a5,-1490(a4) # 8000f228 <__malloc_av_+0x10>
    8000a802:	0019e993          	ori	s3,s3,1
    8000a806:	0137b423          	sd	s3,8(a5)
    8000a80a:	649c                	ld	a5,8(s1)
    8000a80c:	8b85                	andi	a5,a5,1
    8000a80e:	0167e9b3          	or	s3,a5,s6
    8000a812:	0134b423          	sd	s3,8(s1)
    8000a816:	8556                	mv	a0,s5
    8000a818:	ffffd097          	auipc	ra,0xffffd
    8000a81c:	a0e080e7          	jalr	-1522(ra) # 80007226 <__malloc_unlock>
    8000a820:	b5d1                	j	8000a6e4 <_realloc_r+0x74>
    8000a822:	681c                	ld	a5,16(s0)
    8000a824:	f09c                	sd	a5,32(s1)
    8000a826:	6c1c                	ld	a5,24(s0)
    8000a828:	f49c                	sd	a5,40(s1)
    8000a82a:	00e60763          	beq	a2,a4,8000a838 <_realloc_r+0x1c8>
    8000a82e:	02040413          	addi	s0,s0,32
    8000a832:	03048793          	addi	a5,s1,48
    8000a836:	bf45                	j	8000a7e6 <_realloc_r+0x176>
    8000a838:	701c                	ld	a5,32(s0)
    8000a83a:	03040413          	addi	s0,s0,48
    8000a83e:	f89c                	sd	a5,48(s1)
    8000a840:	ff843703          	ld	a4,-8(s0)
    8000a844:	04048793          	addi	a5,s1,64
    8000a848:	fc98                	sd	a4,56(s1)
    8000a84a:	bf71                	j	8000a7e6 <_realloc_r+0x176>
    8000a84c:	85a2                	mv	a1,s0
    8000a84e:	8552                	mv	a0,s4
    8000a850:	00000097          	auipc	ra,0x0
    8000a854:	dd6080e7          	jalr	-554(ra) # 8000a626 <memmove>
    8000a858:	bf69                	j	8000a7f2 <_realloc_r+0x182>
    8000a85a:	0d69c663          	blt	s3,s6,8000a926 <_realloc_r+0x2b6>
    8000a85e:	6f98                	ld	a4,24(a5)
    8000a860:	6b9c                	ld	a5,16(a5)
    8000a862:	ff890613          	addi	a2,s2,-8
    8000a866:	01048513          	addi	a0,s1,16
    8000a86a:	ef98                	sd	a4,24(a5)
    8000a86c:	eb1c                	sd	a5,16(a4)
    8000a86e:	6898                	ld	a4,16(s1)
    8000a870:	6c9c                	ld	a5,24(s1)
    8000a872:	ef1c                	sd	a5,24(a4)
    8000a874:	eb98                	sd	a4,16(a5)
    8000a876:	04800793          	li	a5,72
    8000a87a:	0ac7e063          	bltu	a5,a2,8000a91a <_realloc_r+0x2aa>
    8000a87e:	02700713          	li	a4,39
    8000a882:	00c77d63          	bleu	a2,a4,8000a89c <_realloc_r+0x22c>
    8000a886:	6018                	ld	a4,0(s0)
    8000a888:	e898                	sd	a4,16(s1)
    8000a88a:	6418                	ld	a4,8(s0)
    8000a88c:	ec98                	sd	a4,24(s1)
    8000a88e:	03700713          	li	a4,55
    8000a892:	04c76f63          	bltu	a4,a2,8000a8f0 <_realloc_r+0x280>
    8000a896:	0441                	addi	s0,s0,16
    8000a898:	02048513          	addi	a0,s1,32
    8000a89c:	601c                	ld	a5,0(s0)
    8000a89e:	e11c                	sd	a5,0(a0)
    8000a8a0:	641c                	ld	a5,8(s0)
    8000a8a2:	e51c                	sd	a5,8(a0)
    8000a8a4:	681c                	ld	a5,16(s0)
    8000a8a6:	e91c                	sd	a5,16(a0)
    8000a8a8:	6498                	ld	a4,8(s1)
    8000a8aa:	416986b3          	sub	a3,s3,s6
    8000a8ae:	467d                	li	a2,31
    8000a8b0:	8b05                	andi	a4,a4,1
    8000a8b2:	013487b3          	add	a5,s1,s3
    8000a8b6:	1ad67063          	bleu	a3,a2,8000aa56 <_realloc_r+0x3e6>
    8000a8ba:	00eb69b3          	or	s3,s6,a4
    8000a8be:	0134b423          	sd	s3,8(s1)
    8000a8c2:	016485b3          	add	a1,s1,s6
    8000a8c6:	0016e693          	ori	a3,a3,1
    8000a8ca:	e594                	sd	a3,8(a1)
    8000a8cc:	6798                	ld	a4,8(a5)
    8000a8ce:	05c1                	addi	a1,a1,16
    8000a8d0:	8556                	mv	a0,s5
    8000a8d2:	00176713          	ori	a4,a4,1
    8000a8d6:	e798                	sd	a4,8(a5)
    8000a8d8:	ffffc097          	auipc	ra,0xffffc
    8000a8dc:	1f4080e7          	jalr	500(ra) # 80006acc <_free_r>
    8000a8e0:	8556                	mv	a0,s5
    8000a8e2:	ffffd097          	auipc	ra,0xffffd
    8000a8e6:	944080e7          	jalr	-1724(ra) # 80007226 <__malloc_unlock>
    8000a8ea:	01048a13          	addi	s4,s1,16
    8000a8ee:	bbdd                	j	8000a6e4 <_realloc_r+0x74>
    8000a8f0:	6818                	ld	a4,16(s0)
    8000a8f2:	f098                	sd	a4,32(s1)
    8000a8f4:	6c18                	ld	a4,24(s0)
    8000a8f6:	f498                	sd	a4,40(s1)
    8000a8f8:	00f60763          	beq	a2,a5,8000a906 <_realloc_r+0x296>
    8000a8fc:	02040413          	addi	s0,s0,32
    8000a900:	03048513          	addi	a0,s1,48
    8000a904:	bf61                	j	8000a89c <_realloc_r+0x22c>
    8000a906:	701c                	ld	a5,32(s0)
    8000a908:	04048513          	addi	a0,s1,64
    8000a90c:	03040413          	addi	s0,s0,48
    8000a910:	f89c                	sd	a5,48(s1)
    8000a912:	ff843783          	ld	a5,-8(s0)
    8000a916:	fc9c                	sd	a5,56(s1)
    8000a918:	b751                	j	8000a89c <_realloc_r+0x22c>
    8000a91a:	85a2                	mv	a1,s0
    8000a91c:	00000097          	auipc	ra,0x0
    8000a920:	d0a080e7          	jalr	-758(ra) # 8000a626 <memmove>
    8000a924:	b751                	j	8000a8a8 <_realloc_r+0x238>
    8000a926:	096a4063          	blt	s4,s6,8000a9a6 <_realloc_r+0x336>
    8000a92a:	6c9c                	ld	a5,24(s1)
    8000a92c:	6898                	ld	a4,16(s1)
    8000a92e:	ff890613          	addi	a2,s2,-8
    8000a932:	01048513          	addi	a0,s1,16
    8000a936:	ef1c                	sd	a5,24(a4)
    8000a938:	eb98                	sd	a4,16(a5)
    8000a93a:	04800793          	li	a5,72
    8000a93e:	04c7ee63          	bltu	a5,a2,8000a99a <_realloc_r+0x32a>
    8000a942:	02700713          	li	a4,39
    8000a946:	00c77d63          	bleu	a2,a4,8000a960 <_realloc_r+0x2f0>
    8000a94a:	6018                	ld	a4,0(s0)
    8000a94c:	e898                	sd	a4,16(s1)
    8000a94e:	6418                	ld	a4,8(s0)
    8000a950:	ec98                	sd	a4,24(s1)
    8000a952:	03700713          	li	a4,55
    8000a956:	00c76d63          	bltu	a4,a2,8000a970 <_realloc_r+0x300>
    8000a95a:	0441                	addi	s0,s0,16
    8000a95c:	02048513          	addi	a0,s1,32
    8000a960:	601c                	ld	a5,0(s0)
    8000a962:	e11c                	sd	a5,0(a0)
    8000a964:	641c                	ld	a5,8(s0)
    8000a966:	e51c                	sd	a5,8(a0)
    8000a968:	681c                	ld	a5,16(s0)
    8000a96a:	e91c                	sd	a5,16(a0)
    8000a96c:	89d2                	mv	s3,s4
    8000a96e:	bf2d                	j	8000a8a8 <_realloc_r+0x238>
    8000a970:	6818                	ld	a4,16(s0)
    8000a972:	f098                	sd	a4,32(s1)
    8000a974:	6c18                	ld	a4,24(s0)
    8000a976:	f498                	sd	a4,40(s1)
    8000a978:	00f60763          	beq	a2,a5,8000a986 <_realloc_r+0x316>
    8000a97c:	02040413          	addi	s0,s0,32
    8000a980:	03048513          	addi	a0,s1,48
    8000a984:	bff1                	j	8000a960 <_realloc_r+0x2f0>
    8000a986:	701c                	ld	a5,32(s0)
    8000a988:	04048513          	addi	a0,s1,64
    8000a98c:	03040413          	addi	s0,s0,48
    8000a990:	f89c                	sd	a5,48(s1)
    8000a992:	ff843783          	ld	a5,-8(s0)
    8000a996:	fc9c                	sd	a5,56(s1)
    8000a998:	b7e1                	j	8000a960 <_realloc_r+0x2f0>
    8000a99a:	85a2                	mv	a1,s0
    8000a99c:	00000097          	auipc	ra,0x0
    8000a9a0:	c8a080e7          	jalr	-886(ra) # 8000a626 <memmove>
    8000a9a4:	b7e1                	j	8000a96c <_realloc_r+0x2fc>
    8000a9a6:	8556                	mv	a0,s5
    8000a9a8:	ffffc097          	auipc	ra,0xffffc
    8000a9ac:	312080e7          	jalr	786(ra) # 80006cba <_malloc_r>
    8000a9b0:	8a2a                	mv	s4,a0
    8000a9b2:	e60502e3          	beqz	a0,8000a816 <_realloc_r+0x1a6>
    8000a9b6:	ff843783          	ld	a5,-8(s0)
    8000a9ba:	ff050713          	addi	a4,a0,-16
    8000a9be:	9bf9                	andi	a5,a5,-2
    8000a9c0:	97de                	add	a5,a5,s7
    8000a9c2:	00e79863          	bne	a5,a4,8000a9d2 <_realloc_r+0x362>
    8000a9c6:	ff853983          	ld	s3,-8(a0)
    8000a9ca:	ffc9f993          	andi	s3,s3,-4
    8000a9ce:	99ca                	add	s3,s3,s2
    8000a9d0:	b36d                	j	8000a77a <_realloc_r+0x10a>
    8000a9d2:	ff890613          	addi	a2,s2,-8
    8000a9d6:	04800793          	li	a5,72
    8000a9da:	06c7e663          	bltu	a5,a2,8000aa46 <_realloc_r+0x3d6>
    8000a9de:	02700713          	li	a4,39
    8000a9e2:	04c77f63          	bleu	a2,a4,8000aa40 <_realloc_r+0x3d0>
    8000a9e6:	6018                	ld	a4,0(s0)
    8000a9e8:	e118                	sd	a4,0(a0)
    8000a9ea:	6418                	ld	a4,8(s0)
    8000a9ec:	e518                	sd	a4,8(a0)
    8000a9ee:	03700713          	li	a4,55
    8000a9f2:	02c76363          	bltu	a4,a2,8000aa18 <_realloc_r+0x3a8>
    8000a9f6:	01040713          	addi	a4,s0,16
    8000a9fa:	01050793          	addi	a5,a0,16
    8000a9fe:	6314                	ld	a3,0(a4)
    8000aa00:	e394                	sd	a3,0(a5)
    8000aa02:	6714                	ld	a3,8(a4)
    8000aa04:	e794                	sd	a3,8(a5)
    8000aa06:	6b18                	ld	a4,16(a4)
    8000aa08:	eb98                	sd	a4,16(a5)
    8000aa0a:	85a2                	mv	a1,s0
    8000aa0c:	8556                	mv	a0,s5
    8000aa0e:	ffffc097          	auipc	ra,0xffffc
    8000aa12:	0be080e7          	jalr	190(ra) # 80006acc <_free_r>
    8000aa16:	b501                	j	8000a816 <_realloc_r+0x1a6>
    8000aa18:	6818                	ld	a4,16(s0)
    8000aa1a:	e918                	sd	a4,16(a0)
    8000aa1c:	6c18                	ld	a4,24(s0)
    8000aa1e:	ed18                	sd	a4,24(a0)
    8000aa20:	00f60763          	beq	a2,a5,8000aa2e <_realloc_r+0x3be>
    8000aa24:	02040713          	addi	a4,s0,32
    8000aa28:	02050793          	addi	a5,a0,32
    8000aa2c:	bfc9                	j	8000a9fe <_realloc_r+0x38e>
    8000aa2e:	701c                	ld	a5,32(s0)
    8000aa30:	03040713          	addi	a4,s0,48
    8000aa34:	f11c                	sd	a5,32(a0)
    8000aa36:	7414                	ld	a3,40(s0)
    8000aa38:	03050793          	addi	a5,a0,48
    8000aa3c:	f514                	sd	a3,40(a0)
    8000aa3e:	b7c1                	j	8000a9fe <_realloc_r+0x38e>
    8000aa40:	87aa                	mv	a5,a0
    8000aa42:	8722                	mv	a4,s0
    8000aa44:	bf6d                	j	8000a9fe <_realloc_r+0x38e>
    8000aa46:	85a2                	mv	a1,s0
    8000aa48:	00000097          	auipc	ra,0x0
    8000aa4c:	bde080e7          	jalr	-1058(ra) # 8000a626 <memmove>
    8000aa50:	bf6d                	j	8000aa0a <_realloc_r+0x39a>
    8000aa52:	89ca                	mv	s3,s2
    8000aa54:	b31d                	j	8000a77a <_realloc_r+0x10a>
    8000aa56:	00e9e9b3          	or	s3,s3,a4
    8000aa5a:	0134b423          	sd	s3,8(s1)
    8000aa5e:	6798                	ld	a4,8(a5)
    8000aa60:	00176713          	ori	a4,a4,1
    8000aa64:	e798                	sd	a4,8(a5)
    8000aa66:	bdad                	j	8000a8e0 <_realloc_r+0x270>

000000008000aa68 <_sbrk>:
    8000aa68:	00005797          	auipc	a5,0x5
    8000aa6c:	5c078793          	addi	a5,a5,1472 # 80010028 <heap_end.1919>
    8000aa70:	6398                	ld	a4,0(a5)
    8000aa72:	1141                	addi	sp,sp,-16
    8000aa74:	e406                	sd	ra,8(sp)
    8000aa76:	832a                	mv	t1,a0
    8000aa78:	883e                	mv	a6,a5
    8000aa7a:	eb1d                	bnez	a4,8000aab0 <_sbrk+0x48>
    8000aa7c:	4501                	li	a0,0
    8000aa7e:	4581                	li	a1,0
    8000aa80:	4601                	li	a2,0
    8000aa82:	4681                	li	a3,0
    8000aa84:	4781                	li	a5,0
    8000aa86:	0d600893          	li	a7,214
    8000aa8a:	00000073          	ecall
    8000aa8e:	57fd                	li	a5,-1
    8000aa90:	00f51c63          	bne	a0,a5,8000aaa8 <_sbrk+0x40>
    8000aa94:	ffffc097          	auipc	ra,0xffffc
    8000aa98:	d9a080e7          	jalr	-614(ra) # 8000682e <__errno>
    8000aa9c:	47b1                	li	a5,12
    8000aa9e:	c11c                	sw	a5,0(a0)
    8000aaa0:	557d                	li	a0,-1
    8000aaa2:	60a2                	ld	ra,8(sp)
    8000aaa4:	0141                	addi	sp,sp,16
    8000aaa6:	8082                	ret
    8000aaa8:	00005797          	auipc	a5,0x5
    8000aaac:	58a7b023          	sd	a0,1408(a5) # 80010028 <heap_end.1919>
    8000aab0:	00083803          	ld	a6,0(a6)
    8000aab4:	4581                	li	a1,0
    8000aab6:	4601                	li	a2,0
    8000aab8:	01030533          	add	a0,t1,a6
    8000aabc:	4681                	li	a3,0
    8000aabe:	4701                	li	a4,0
    8000aac0:	4781                	li	a5,0
    8000aac2:	0d600893          	li	a7,214
    8000aac6:	00000073          	ecall
    8000aaca:	9342                	add	t1,t1,a6
    8000aacc:	fc6514e3          	bne	a0,t1,8000aa94 <_sbrk+0x2c>
    8000aad0:	00005797          	auipc	a5,0x5
    8000aad4:	54a7bc23          	sd	a0,1368(a5) # 80010028 <heap_end.1919>
    8000aad8:	8542                	mv	a0,a6
    8000aada:	b7e1                	j	8000aaa2 <_sbrk+0x3a>

000000008000aadc <__eqtf2>:
    8000aadc:	002027f3          	frrm	a5
    8000aae0:	6721                	lui	a4,0x8
    8000aae2:	0305d893          	srli	a7,a1,0x30
    8000aae6:	177d                	addi	a4,a4,-1
    8000aae8:	57fd                	li	a5,-1
    8000aaea:	83c1                	srli	a5,a5,0x10
    8000aaec:	0306d313          	srli	t1,a3,0x30
    8000aaf0:	00e8f8b3          	and	a7,a7,a4
    8000aaf4:	00f5f833          	and	a6,a1,a5
    8000aaf8:	00e37333          	and	t1,t1,a4
    8000aafc:	8ff5                	and	a5,a5,a3
    8000aafe:	91fd                	srli	a1,a1,0x3f
    8000ab00:	92fd                	srli	a3,a3,0x3f
    8000ab02:	00e89963          	bne	a7,a4,8000ab14 <__eqtf2+0x38>
    8000ab06:	00a86733          	or	a4,a6,a0
    8000ab0a:	e739                	bnez	a4,8000ab58 <__eqtf2+0x7c>
    8000ab0c:	4705                	li	a4,1
    8000ab0e:	03131763          	bne	t1,a7,8000ab3c <__eqtf2+0x60>
    8000ab12:	a019                	j	8000ab18 <__eqtf2+0x3c>
    8000ab14:	00e31563          	bne	t1,a4,8000ab1e <__eqtf2+0x42>
    8000ab18:	00c7e733          	or	a4,a5,a2
    8000ab1c:	e71d                	bnez	a4,8000ab4a <__eqtf2+0x6e>
    8000ab1e:	4705                	li	a4,1
    8000ab20:	00689e63          	bne	a7,t1,8000ab3c <__eqtf2+0x60>
    8000ab24:	00f81c63          	bne	a6,a5,8000ab3c <__eqtf2+0x60>
    8000ab28:	00c51a63          	bne	a0,a2,8000ab3c <__eqtf2+0x60>
    8000ab2c:	00d58a63          	beq	a1,a3,8000ab40 <__eqtf2+0x64>
    8000ab30:	00089663          	bnez	a7,8000ab3c <__eqtf2+0x60>
    8000ab34:	00a86733          	or	a4,a6,a0
    8000ab38:	00e03733          	snez	a4,a4
    8000ab3c:	853a                	mv	a0,a4
    8000ab3e:	8082                	ret
    8000ab40:	4701                	li	a4,0
    8000ab42:	bfed                	j	8000ab3c <__eqtf2+0x60>
    8000ab44:	00186073          	csrsi	fflags,16
    8000ab48:	a02d                	j	8000ab72 <__eqtf2+0x96>
    8000ab4a:	6721                	lui	a4,0x8
    8000ab4c:	177d                	addi	a4,a4,-1
    8000ab4e:	02e89063          	bne	a7,a4,8000ab6e <__eqtf2+0x92>
    8000ab52:	00a86733          	or	a4,a6,a0
    8000ab56:	cf01                	beqz	a4,8000ab6e <__eqtf2+0x92>
    8000ab58:	02f85813          	srli	a6,a6,0x2f
    8000ab5c:	fe0804e3          	beqz	a6,8000ab44 <__eqtf2+0x68>
    8000ab60:	6721                	lui	a4,0x8
    8000ab62:	177d                	addi	a4,a4,-1
    8000ab64:	4505                	li	a0,1
    8000ab66:	00e31863          	bne	t1,a4,8000ab76 <__eqtf2+0x9a>
    8000ab6a:	8e5d                	or	a2,a2,a5
    8000ab6c:	c609                	beqz	a2,8000ab76 <__eqtf2+0x9a>
    8000ab6e:	93bd                	srli	a5,a5,0x2f
    8000ab70:	dbf1                	beqz	a5,8000ab44 <__eqtf2+0x68>
    8000ab72:	4505                	li	a0,1
    8000ab74:	8082                	ret
    8000ab76:	8082                	ret

000000008000ab78 <__getf2>:
    8000ab78:	002027f3          	frrm	a5
    8000ab7c:	68a1                	lui	a7,0x8
    8000ab7e:	0305d813          	srli	a6,a1,0x30
    8000ab82:	18fd                	addi	a7,a7,-1
    8000ab84:	57fd                	li	a5,-1
    8000ab86:	83c1                	srli	a5,a5,0x10
    8000ab88:	0306d713          	srli	a4,a3,0x30
    8000ab8c:	01187833          	and	a6,a6,a7
    8000ab90:	00f5f333          	and	t1,a1,a5
    8000ab94:	01177733          	and	a4,a4,a7
    8000ab98:	8ff5                	and	a5,a5,a3
    8000ab9a:	91fd                	srli	a1,a1,0x3f
    8000ab9c:	92fd                	srli	a3,a3,0x3f
    8000ab9e:	01181a63          	bne	a6,a7,8000abb2 <__getf2+0x3a>
    8000aba2:	00a368b3          	or	a7,t1,a0
    8000aba6:	06088d63          	beqz	a7,8000ac20 <__getf2+0xa8>
    8000abaa:	00186073          	csrsi	fflags,16
    8000abae:	57f9                	li	a5,-2
    8000abb0:	a81d                	j	8000abe6 <__getf2+0x6e>
    8000abb2:	01171663          	bne	a4,a7,8000abbe <__getf2+0x46>
    8000abb6:	00c7e8b3          	or	a7,a5,a2
    8000abba:	fe0898e3          	bnez	a7,8000abaa <__getf2+0x32>
    8000abbe:	06081363          	bnez	a6,8000ac24 <__getf2+0xac>
    8000abc2:	00a368b3          	or	a7,t1,a0
    8000abc6:	0018b893          	seqz	a7,a7
    8000abca:	e709                	bnez	a4,8000abd4 <__getf2+0x5c>
    8000abcc:	00c7ee33          	or	t3,a5,a2
    8000abd0:	040e0063          	beqz	t3,8000ac10 <__getf2+0x98>
    8000abd4:	00089b63          	bnez	a7,8000abea <__getf2+0x72>
    8000abd8:	00d59463          	bne	a1,a3,8000abe0 <__getf2+0x68>
    8000abdc:	01075b63          	ble	a6,a4,8000abf2 <__getf2+0x7a>
    8000abe0:	4785                	li	a5,1
    8000abe2:	c191                	beqz	a1,8000abe6 <__getf2+0x6e>
    8000abe4:	57fd                	li	a5,-1
    8000abe6:	853e                	mv	a0,a5
    8000abe8:	8082                	ret
    8000abea:	57fd                	li	a5,-1
    8000abec:	deed                	beqz	a3,8000abe6 <__getf2+0x6e>
    8000abee:	4785                	li	a5,1
    8000abf0:	bfdd                	j	8000abe6 <__getf2+0x6e>
    8000abf2:	00e85563          	ble	a4,a6,8000abfc <__getf2+0x84>
    8000abf6:	57fd                	li	a5,-1
    8000abf8:	f9fd                	bnez	a1,8000abee <__getf2+0x76>
    8000abfa:	b7f5                	j	8000abe6 <__getf2+0x6e>
    8000abfc:	fe67e2e3          	bltu	a5,t1,8000abe0 <__getf2+0x68>
    8000ac00:	00f31c63          	bne	t1,a5,8000ac18 <__getf2+0xa0>
    8000ac04:	fca66ee3          	bltu	a2,a0,8000abe0 <__getf2+0x68>
    8000ac08:	4781                	li	a5,0
    8000ac0a:	fcc57ee3          	bleu	a2,a0,8000abe6 <__getf2+0x6e>
    8000ac0e:	b7e5                	j	8000abf6 <__getf2+0x7e>
    8000ac10:	4781                	li	a5,0
    8000ac12:	fc089ae3          	bnez	a7,8000abe6 <__getf2+0x6e>
    8000ac16:	b7e9                	j	8000abe0 <__getf2+0x68>
    8000ac18:	fcf36fe3          	bltu	t1,a5,8000abf6 <__getf2+0x7e>
    8000ac1c:	4781                	li	a5,0
    8000ac1e:	b7e1                	j	8000abe6 <__getf2+0x6e>
    8000ac20:	f9070be3          	beq	a4,a6,8000abb6 <__getf2+0x3e>
    8000ac24:	fb55                	bnez	a4,8000abd8 <__getf2+0x60>
    8000ac26:	4881                	li	a7,0
    8000ac28:	b755                	j	8000abcc <__getf2+0x54>

000000008000ac2a <__letf2>:
    8000ac2a:	002027f3          	frrm	a5
    8000ac2e:	68a1                	lui	a7,0x8
    8000ac30:	0305d813          	srli	a6,a1,0x30
    8000ac34:	18fd                	addi	a7,a7,-1
    8000ac36:	57fd                	li	a5,-1
    8000ac38:	83c1                	srli	a5,a5,0x10
    8000ac3a:	0306d713          	srli	a4,a3,0x30
    8000ac3e:	01187833          	and	a6,a6,a7
    8000ac42:	00f5f333          	and	t1,a1,a5
    8000ac46:	01177733          	and	a4,a4,a7
    8000ac4a:	8ff5                	and	a5,a5,a3
    8000ac4c:	91fd                	srli	a1,a1,0x3f
    8000ac4e:	92fd                	srli	a3,a3,0x3f
    8000ac50:	01181a63          	bne	a6,a7,8000ac64 <__letf2+0x3a>
    8000ac54:	00a368b3          	or	a7,t1,a0
    8000ac58:	06088d63          	beqz	a7,8000acd2 <__letf2+0xa8>
    8000ac5c:	00186073          	csrsi	fflags,16
    8000ac60:	4789                	li	a5,2
    8000ac62:	a81d                	j	8000ac98 <__letf2+0x6e>
    8000ac64:	01171663          	bne	a4,a7,8000ac70 <__letf2+0x46>
    8000ac68:	00c7e8b3          	or	a7,a5,a2
    8000ac6c:	fe0898e3          	bnez	a7,8000ac5c <__letf2+0x32>
    8000ac70:	06081363          	bnez	a6,8000acd6 <__letf2+0xac>
    8000ac74:	00a368b3          	or	a7,t1,a0
    8000ac78:	0018b893          	seqz	a7,a7
    8000ac7c:	e709                	bnez	a4,8000ac86 <__letf2+0x5c>
    8000ac7e:	00c7ee33          	or	t3,a5,a2
    8000ac82:	040e0063          	beqz	t3,8000acc2 <__letf2+0x98>
    8000ac86:	00089b63          	bnez	a7,8000ac9c <__letf2+0x72>
    8000ac8a:	00d59463          	bne	a1,a3,8000ac92 <__letf2+0x68>
    8000ac8e:	01075b63          	ble	a6,a4,8000aca4 <__letf2+0x7a>
    8000ac92:	4785                	li	a5,1
    8000ac94:	c191                	beqz	a1,8000ac98 <__letf2+0x6e>
    8000ac96:	57fd                	li	a5,-1
    8000ac98:	853e                	mv	a0,a5
    8000ac9a:	8082                	ret
    8000ac9c:	57fd                	li	a5,-1
    8000ac9e:	deed                	beqz	a3,8000ac98 <__letf2+0x6e>
    8000aca0:	4785                	li	a5,1
    8000aca2:	bfdd                	j	8000ac98 <__letf2+0x6e>
    8000aca4:	00e85563          	ble	a4,a6,8000acae <__letf2+0x84>
    8000aca8:	57fd                	li	a5,-1
    8000acaa:	f9fd                	bnez	a1,8000aca0 <__letf2+0x76>
    8000acac:	b7f5                	j	8000ac98 <__letf2+0x6e>
    8000acae:	fe67e2e3          	bltu	a5,t1,8000ac92 <__letf2+0x68>
    8000acb2:	00f31c63          	bne	t1,a5,8000acca <__letf2+0xa0>
    8000acb6:	fca66ee3          	bltu	a2,a0,8000ac92 <__letf2+0x68>
    8000acba:	4781                	li	a5,0
    8000acbc:	fcc57ee3          	bleu	a2,a0,8000ac98 <__letf2+0x6e>
    8000acc0:	b7e5                	j	8000aca8 <__letf2+0x7e>
    8000acc2:	4781                	li	a5,0
    8000acc4:	fc089ae3          	bnez	a7,8000ac98 <__letf2+0x6e>
    8000acc8:	b7e9                	j	8000ac92 <__letf2+0x68>
    8000acca:	fcf36fe3          	bltu	t1,a5,8000aca8 <__letf2+0x7e>
    8000acce:	4781                	li	a5,0
    8000acd0:	b7e1                	j	8000ac98 <__letf2+0x6e>
    8000acd2:	f9070be3          	beq	a4,a6,8000ac68 <__letf2+0x3e>
    8000acd6:	fb55                	bnez	a4,8000ac8a <__letf2+0x60>
    8000acd8:	4881                	li	a7,0
    8000acda:	b755                	j	8000ac7e <__letf2+0x54>

000000008000acdc <__multf3>:
    8000acdc:	711d                	addi	sp,sp,-96
    8000acde:	f456                	sd	s5,40(sp)
    8000ace0:	e466                	sd	s9,8(sp)
    8000ace2:	ec86                	sd	ra,88(sp)
    8000ace4:	e8a2                	sd	s0,80(sp)
    8000ace6:	e4a6                	sd	s1,72(sp)
    8000ace8:	e0ca                	sd	s2,64(sp)
    8000acea:	fc4e                	sd	s3,56(sp)
    8000acec:	f852                	sd	s4,48(sp)
    8000acee:	f05a                	sd	s6,32(sp)
    8000acf0:	ec5e                	sd	s7,24(sp)
    8000acf2:	e862                	sd	s8,16(sp)
    8000acf4:	8cb2                	mv	s9,a2
    8000acf6:	8ab6                	mv	s5,a3
    8000acf8:	002029f3          	frrm	s3
    8000acfc:	6721                	lui	a4,0x8
    8000acfe:	54fd                	li	s1,-1
    8000ad00:	0305db93          	srli	s7,a1,0x30
    8000ad04:	177d                	addi	a4,a4,-1
    8000ad06:	80c1                	srli	s1,s1,0x10
    8000ad08:	00ebf7b3          	and	a5,s7,a4
    8000ad0c:	2981                	sext.w	s3,s3
    8000ad0e:	8ced                	and	s1,s1,a1
    8000ad10:	03f5db13          	srli	s6,a1,0x3f
    8000ad14:	c78d                	beqz	a5,8000ad3e <__multf3+0x62>
    8000ad16:	8a2a                	mv	s4,a0
    8000ad18:	0007851b          	sext.w	a0,a5
    8000ad1c:	08e50463          	beq	a0,a4,8000ada4 <__multf3+0xc8>
    8000ad20:	03da5713          	srli	a4,s4,0x3d
    8000ad24:	048e                	slli	s1,s1,0x3
    8000ad26:	8f45                	or	a4,a4,s1
    8000ad28:	7571                	lui	a0,0xffffc
    8000ad2a:	4485                	li	s1,1
    8000ad2c:	14ce                	slli	s1,s1,0x33
    8000ad2e:	0505                	addi	a0,a0,1
    8000ad30:	8cd9                	or	s1,s1,a4
    8000ad32:	0a0e                	slli	s4,s4,0x3
    8000ad34:	00a78bb3          	add	s7,a5,a0
    8000ad38:	4c01                	li	s8,0
    8000ad3a:	4901                	li	s2,0
    8000ad3c:	a8b5                	j	8000adb8 <__multf3+0xdc>
    8000ad3e:	00a4e7b3          	or	a5,s1,a0
    8000ad42:	842a                	mv	s0,a0
    8000ad44:	c3e5                	beqz	a5,8000ae24 <__multf3+0x148>
    8000ad46:	c0a9                	beqz	s1,8000ad88 <__multf3+0xac>
    8000ad48:	8526                	mv	a0,s1
    8000ad4a:	ffffc097          	auipc	ra,0xffffc
    8000ad4e:	ab4080e7          	jalr	-1356(ra) # 800067fe <__clzdi2>
    8000ad52:	2501                	sext.w	a0,a0
    8000ad54:	ff150713          	addi	a4,a0,-15 # ffffffffffffbff1 <_trapsp0+0xffffffff7ffc6fb1>
    8000ad58:	03c00693          	li	a3,60
    8000ad5c:	0007079b          	sext.w	a5,a4
    8000ad60:	02e6cc63          	blt	a3,a4,8000ad98 <__multf3+0xbc>
    8000ad64:	03d00713          	li	a4,61
    8000ad68:	00378a1b          	addiw	s4,a5,3
    8000ad6c:	40f707bb          	subw	a5,a4,a5
    8000ad70:	014494b3          	sll	s1,s1,s4
    8000ad74:	00f457b3          	srl	a5,s0,a5
    8000ad78:	8cdd                	or	s1,s1,a5
    8000ad7a:	01441a33          	sll	s4,s0,s4
    8000ad7e:	7bf1                	lui	s7,0xffffc
    8000ad80:	0bc5                	addi	s7,s7,17
    8000ad82:	40ab8bb3          	sub	s7,s7,a0
    8000ad86:	bf4d                	j	8000ad38 <__multf3+0x5c>
    8000ad88:	ffffc097          	auipc	ra,0xffffc
    8000ad8c:	a76080e7          	jalr	-1418(ra) # 800067fe <__clzdi2>
    8000ad90:	2501                	sext.w	a0,a0
    8000ad92:	04050513          	addi	a0,a0,64
    8000ad96:	bf7d                	j	8000ad54 <__multf3+0x78>
    8000ad98:	fc37849b          	addiw	s1,a5,-61
    8000ad9c:	009414b3          	sll	s1,s0,s1
    8000ada0:	4a01                	li	s4,0
    8000ada2:	bff1                	j	8000ad7e <__multf3+0xa2>
    8000ada4:	0144e7b3          	or	a5,s1,s4
    8000ada8:	c3d9                	beqz	a5,8000ae2e <__multf3+0x152>
    8000adaa:	01049793          	slli	a5,s1,0x10
    8000adae:	8baa                	mv	s7,a0
    8000adb0:	4c0d                	li	s8,3
    8000adb2:	4941                	li	s2,16
    8000adb4:	f807c3e3          	bltz	a5,8000ad3a <__multf3+0x5e>
    8000adb8:	577d                	li	a4,-1
    8000adba:	8341                	srli	a4,a4,0x10
    8000adbc:	00eaf433          	and	s0,s5,a4
    8000adc0:	6721                	lui	a4,0x8
    8000adc2:	030ad513          	srli	a0,s5,0x30
    8000adc6:	177d                	addi	a4,a4,-1
    8000adc8:	00e57633          	and	a2,a0,a4
    8000adcc:	87e6                	mv	a5,s9
    8000adce:	03fada93          	srli	s5,s5,0x3f
    8000add2:	c23d                	beqz	a2,8000ae38 <__multf3+0x15c>
    8000add4:	0006051b          	sext.w	a0,a2
    8000add8:	0ce50463          	beq	a0,a4,8000aea0 <__multf3+0x1c4>
    8000addc:	00341713          	slli	a4,s0,0x3
    8000ade0:	03dcd693          	srli	a3,s9,0x3d
    8000ade4:	00e6e433          	or	s0,a3,a4
    8000ade8:	7571                	lui	a0,0xffffc
    8000adea:	4705                	li	a4,1
    8000adec:	174e                	slli	a4,a4,0x33
    8000adee:	0505                	addi	a0,a0,1
    8000adf0:	8c59                	or	s0,s0,a4
    8000adf2:	003c9793          	slli	a5,s9,0x3
    8000adf6:	9532                	add	a0,a0,a2
    8000adf8:	4701                	li	a4,0
    8000adfa:	002c1693          	slli	a3,s8,0x2
    8000adfe:	8ed9                	or	a3,a3,a4
    8000ae00:	955e                	add	a0,a0,s7
    8000ae02:	16fd                	addi	a3,a3,-1
    8000ae04:	4639                	li	a2,14
    8000ae06:	015b4833          	xor	a6,s6,s5
    8000ae0a:	00150893          	addi	a7,a0,1 # ffffffffffffc001 <_trapsp0+0xffffffff7ffc6fc1>
    8000ae0e:	10d66463          	bltu	a2,a3,8000af16 <__multf3+0x23a>
    8000ae12:	00003617          	auipc	a2,0x3
    8000ae16:	91260613          	addi	a2,a2,-1774 # 8000d724 <_ctype_+0x104>
    8000ae1a:	068a                	slli	a3,a3,0x2
    8000ae1c:	96b2                	add	a3,a3,a2
    8000ae1e:	4294                	lw	a3,0(a3)
    8000ae20:	96b2                	add	a3,a3,a2
    8000ae22:	8682                	jr	a3
    8000ae24:	4481                	li	s1,0
    8000ae26:	4a01                	li	s4,0
    8000ae28:	4b81                	li	s7,0
    8000ae2a:	4c05                	li	s8,1
    8000ae2c:	b739                	j	8000ad3a <__multf3+0x5e>
    8000ae2e:	4481                	li	s1,0
    8000ae30:	4a01                	li	s4,0
    8000ae32:	8baa                	mv	s7,a0
    8000ae34:	4c09                	li	s8,2
    8000ae36:	b711                	j	8000ad3a <__multf3+0x5e>
    8000ae38:	019467b3          	or	a5,s0,s9
    8000ae3c:	cfa5                	beqz	a5,8000aeb4 <__multf3+0x1d8>
    8000ae3e:	c031                	beqz	s0,8000ae82 <__multf3+0x1a6>
    8000ae40:	8522                	mv	a0,s0
    8000ae42:	ffffc097          	auipc	ra,0xffffc
    8000ae46:	9bc080e7          	jalr	-1604(ra) # 800067fe <__clzdi2>
    8000ae4a:	2501                	sext.w	a0,a0
    8000ae4c:	ff150793          	addi	a5,a0,-15
    8000ae50:	03c00713          	li	a4,60
    8000ae54:	0007869b          	sext.w	a3,a5
    8000ae58:	02f74e63          	blt	a4,a5,8000ae94 <__multf3+0x1b8>
    8000ae5c:	03d00613          	li	a2,61
    8000ae60:	0036879b          	addiw	a5,a3,3
    8000ae64:	40d606bb          	subw	a3,a2,a3
    8000ae68:	00f41733          	sll	a4,s0,a5
    8000ae6c:	00dcd6b3          	srl	a3,s9,a3
    8000ae70:	00e6e433          	or	s0,a3,a4
    8000ae74:	00fc97b3          	sll	a5,s9,a5
    8000ae78:	7771                	lui	a4,0xffffc
    8000ae7a:	0745                	addi	a4,a4,17
    8000ae7c:	40a70533          	sub	a0,a4,a0
    8000ae80:	bfa5                	j	8000adf8 <__multf3+0x11c>
    8000ae82:	8566                	mv	a0,s9
    8000ae84:	ffffc097          	auipc	ra,0xffffc
    8000ae88:	97a080e7          	jalr	-1670(ra) # 800067fe <__clzdi2>
    8000ae8c:	2501                	sext.w	a0,a0
    8000ae8e:	04050513          	addi	a0,a0,64
    8000ae92:	bf6d                	j	8000ae4c <__multf3+0x170>
    8000ae94:	fc36871b          	addiw	a4,a3,-61
    8000ae98:	00ec9433          	sll	s0,s9,a4
    8000ae9c:	4781                	li	a5,0
    8000ae9e:	bfe9                	j	8000ae78 <__multf3+0x19c>
    8000aea0:	01946733          	or	a4,s0,s9
    8000aea4:	cf09                	beqz	a4,8000aebe <__multf3+0x1e2>
    8000aea6:	01041713          	slli	a4,s0,0x10
    8000aeaa:	00074e63          	bltz	a4,8000aec6 <__multf3+0x1ea>
    8000aeae:	470d                	li	a4,3
    8000aeb0:	4941                	li	s2,16
    8000aeb2:	b7a1                	j	8000adfa <__multf3+0x11e>
    8000aeb4:	4401                	li	s0,0
    8000aeb6:	4781                	li	a5,0
    8000aeb8:	4501                	li	a0,0
    8000aeba:	4705                	li	a4,1
    8000aebc:	bf3d                	j	8000adfa <__multf3+0x11e>
    8000aebe:	4401                	li	s0,0
    8000aec0:	4781                	li	a5,0
    8000aec2:	4709                	li	a4,2
    8000aec4:	bf1d                	j	8000adfa <__multf3+0x11e>
    8000aec6:	470d                	li	a4,3
    8000aec8:	bf0d                	j	8000adfa <__multf3+0x11e>
    8000aeca:	4705                	li	a4,1
    8000aecc:	66a1                	lui	a3,0x8
    8000aece:	173e                	slli	a4,a4,0x2f
    8000aed0:	4501                	li	a0,0
    8000aed2:	16fd                	addi	a3,a3,-1
    8000aed4:	4801                	li	a6,0
    8000aed6:	4941                	li	s2,16
    8000aed8:	6621                	lui	a2,0x8
    8000aeda:	57fd                	li	a5,-1
    8000aedc:	167d                	addi	a2,a2,-1
    8000aede:	0107d593          	srli	a1,a5,0x10
    8000aee2:	8ef1                	and	a3,a3,a2
    8000aee4:	16c2                	slli	a3,a3,0x30
    8000aee6:	8df9                	and	a1,a1,a4
    8000aee8:	8dd5                	or	a1,a1,a3
    8000aeea:	8385                	srli	a5,a5,0x1
    8000aeec:	187e                	slli	a6,a6,0x3f
    8000aeee:	8dfd                	and	a1,a1,a5
    8000aef0:	0105e5b3          	or	a1,a1,a6
    8000aef4:	00090463          	beqz	s2,8000aefc <__multf3+0x220>
    8000aef8:	00192073          	csrs	fflags,s2
    8000aefc:	60e6                	ld	ra,88(sp)
    8000aefe:	6446                	ld	s0,80(sp)
    8000af00:	64a6                	ld	s1,72(sp)
    8000af02:	6906                	ld	s2,64(sp)
    8000af04:	79e2                	ld	s3,56(sp)
    8000af06:	7a42                	ld	s4,48(sp)
    8000af08:	7aa2                	ld	s5,40(sp)
    8000af0a:	7b02                	ld	s6,32(sp)
    8000af0c:	6be2                	ld	s7,24(sp)
    8000af0e:	6c42                	ld	s8,16(sp)
    8000af10:	6ca2                	ld	s9,8(sp)
    8000af12:	6125                	addi	sp,sp,96
    8000af14:	8082                	ret
    8000af16:	577d                	li	a4,-1
    8000af18:	9301                	srli	a4,a4,0x20
    8000af1a:	01448ab3          	add	s5,s1,s4
    8000af1e:	008783b3          	add	t2,a5,s0
    8000af22:	020a5f13          	srli	t5,s4,0x20
    8000af26:	0207d693          	srli	a3,a5,0x20
    8000af2a:	014abfb3          	sltu	t6,s5,s4
    8000af2e:	00f3b2b3          	sltu	t0,t2,a5
    8000af32:	00ea7a33          	and	s4,s4,a4
    8000af36:	8ff9                	and	a5,a5,a4
    8000af38:	034785b3          	mul	a1,a5,s4
    8000af3c:	000f8e9b          	sext.w	t4,t6
    8000af40:	0002861b          	sext.w	a2,t0
    8000af44:	02ff07b3          	mul	a5,t5,a5
    8000af48:	02df0733          	mul	a4,t5,a3
    8000af4c:	034686b3          	mul	a3,a3,s4
    8000af50:	0205da13          	srli	s4,a1,0x20
    8000af54:	96be                	add	a3,a3,a5
    8000af56:	9a36                	add	s4,s4,a3
    8000af58:	00fa7563          	bleu	a5,s4,8000af62 <__multf3+0x286>
    8000af5c:	4785                	li	a5,1
    8000af5e:	1782                	slli	a5,a5,0x20
    8000af60:	973e                	add	a4,a4,a5
    8000af62:	020a5f13          	srli	t5,s4,0x20
    8000af66:	9f3a                	add	t5,t5,a4
    8000af68:	577d                	li	a4,-1
    8000af6a:	9301                	srli	a4,a4,0x20
    8000af6c:	00ea7333          	and	t1,s4,a4
    8000af70:	00eaf7b3          	and	a5,s5,a4
    8000af74:	8df9                	and	a1,a1,a4
    8000af76:	020ada13          	srli	s4,s5,0x20
    8000af7a:	0203d693          	srli	a3,t2,0x20
    8000af7e:	00e3f733          	and	a4,t2,a4
    8000af82:	1302                	slli	t1,t1,0x20
    8000af84:	932e                	add	t1,t1,a1
    8000af86:	02e785b3          	mul	a1,a5,a4
    8000af8a:	02ea0733          	mul	a4,s4,a4
    8000af8e:	02da0a33          	mul	s4,s4,a3
    8000af92:	02f686b3          	mul	a3,a3,a5
    8000af96:	0205d793          	srli	a5,a1,0x20
    8000af9a:	96ba                	add	a3,a3,a4
    8000af9c:	97b6                	add	a5,a5,a3
    8000af9e:	00e7f563          	bleu	a4,a5,8000afa8 <__multf3+0x2cc>
    8000afa2:	4705                	li	a4,1
    8000afa4:	1702                	slli	a4,a4,0x20
    8000afa6:	9a3a                	add	s4,s4,a4
    8000afa8:	56fd                	li	a3,-1
    8000afaa:	9281                	srli	a3,a3,0x20
    8000afac:	0207de13          	srli	t3,a5,0x20
    8000afb0:	8ff5                	and	a5,a5,a3
    8000afb2:	00d5f733          	and	a4,a1,a3
    8000afb6:	1782                	slli	a5,a5,0x20
    8000afb8:	0204d593          	srli	a1,s1,0x20
    8000afbc:	97ba                	add	a5,a5,a4
    8000afbe:	8cf5                	and	s1,s1,a3
    8000afc0:	02045713          	srli	a4,s0,0x20
    8000afc4:	8c75                	and	s0,s0,a3
    8000afc6:	02940b33          	mul	s6,s0,s1
    8000afca:	02858433          	mul	s0,a1,s0
    8000afce:	02e585b3          	mul	a1,a1,a4
    8000afd2:	02970733          	mul	a4,a4,s1
    8000afd6:	020b5493          	srli	s1,s6,0x20
    8000afda:	9722                	add	a4,a4,s0
    8000afdc:	94ba                	add	s1,s1,a4
    8000afde:	0084f563          	bleu	s0,s1,8000afe8 <__multf3+0x30c>
    8000afe2:	4705                	li	a4,1
    8000afe4:	1702                	slli	a4,a4,0x20
    8000afe6:	95ba                	add	a1,a1,a4
    8000afe8:	0204d713          	srli	a4,s1,0x20
    8000afec:	95ba                	add	a1,a1,a4
    8000afee:	577d                	li	a4,-1
    8000aff0:	9301                	srli	a4,a4,0x20
    8000aff2:	00e4f6b3          	and	a3,s1,a4
    8000aff6:	00eb7b33          	and	s6,s6,a4
    8000affa:	01e78733          	add	a4,a5,t5
    8000affe:	01e737b3          	sltu	a5,a4,t5
    8000b002:	9e3e                	add	t3,t3,a5
    8000b004:	40c0063b          	negw	a2,a2
    8000b008:	9a72                	add	s4,s4,t3
    8000b00a:	01567633          	and	a2,a2,s5
    8000b00e:	41d00e3b          	negw	t3,t4
    8000b012:	9652                	add	a2,a2,s4
    8000b014:	005fffb3          	and	t6,t6,t0
    8000b018:	00fa37b3          	sltu	a5,s4,a5
    8000b01c:	007e73b3          	and	t2,t3,t2
    8000b020:	00c38e33          	add	t3,t2,a2
    8000b024:	97fe                	add	a5,a5,t6
    8000b026:	01463a33          	sltu	s4,a2,s4
    8000b02a:	40670fb3          	sub	t6,a4,t1
    8000b02e:	97d2                	add	a5,a5,s4
    8000b030:	41ee0eb3          	sub	t4,t3,t5
    8000b034:	1682                	slli	a3,a3,0x20
    8000b036:	00ce3633          	sltu	a2,t3,a2
    8000b03a:	01f732b3          	sltu	t0,a4,t6
    8000b03e:	963e                	add	a2,a2,a5
    8000b040:	96da                	add	a3,a3,s6
    8000b042:	01de37b3          	sltu	a5,t3,t4
    8000b046:	4401                	li	s0,0
    8000b048:	405e8eb3          	sub	t4,t4,t0
    8000b04c:	01f77663          	bleu	t6,a4,8000b058 <__multf3+0x37c>
    8000b050:	41cf0e33          	sub	t3,t5,t3
    8000b054:	001e3413          	seqz	s0,t3
    8000b058:	00b60733          	add	a4,a2,a1
    8000b05c:	40df8633          	sub	a2,t6,a3
    8000b060:	00f46e33          	or	t3,s0,a5
    8000b064:	40be85b3          	sub	a1,t4,a1
    8000b068:	00cfb7b3          	sltu	a5,t6,a2
    8000b06c:	00bebeb3          	sltu	t4,t4,a1
    8000b070:	40f687b3          	sub	a5,a3,a5
    8000b074:	4401                	li	s0,0
    8000b076:	00cff463          	bleu	a2,t6,8000b07e <__multf3+0x3a2>
    8000b07a:	0015b413          	seqz	s0,a1
    8000b07e:	95be                	add	a1,a1,a5
    8000b080:	00d5b6b3          	sltu	a3,a1,a3
    8000b084:	9736                	add	a4,a4,a3
    8000b086:	01d46eb3          	or	t4,s0,t4
    8000b08a:	41c70733          	sub	a4,a4,t3
    8000b08e:	00d61793          	slli	a5,a2,0xd
    8000b092:	41d70733          	sub	a4,a4,t4
    8000b096:	0736                	slli	a4,a4,0xd
    8000b098:	0335d413          	srli	s0,a1,0x33
    8000b09c:	0067e7b3          	or	a5,a5,t1
    8000b0a0:	8c59                	or	s0,s0,a4
    8000b0a2:	00f037b3          	snez	a5,a5
    8000b0a6:	924d                	srli	a2,a2,0x33
    8000b0a8:	8fd1                	or	a5,a5,a2
    8000b0aa:	05b6                	slli	a1,a1,0xd
    8000b0ac:	00b41713          	slli	a4,s0,0xb
    8000b0b0:	8fcd                	or	a5,a5,a1
    8000b0b2:	06075a63          	bgez	a4,8000b126 <__multf3+0x44a>
    8000b0b6:	0017d713          	srli	a4,a5,0x1
    8000b0ba:	8b85                	andi	a5,a5,1
    8000b0bc:	03f41513          	slli	a0,s0,0x3f
    8000b0c0:	8fd9                	or	a5,a5,a4
    8000b0c2:	8fc9                	or	a5,a5,a0
    8000b0c4:	8005                	srli	s0,s0,0x1
    8000b0c6:	6691                	lui	a3,0x4
    8000b0c8:	16fd                	addi	a3,a3,-1
    8000b0ca:	96c6                	add	a3,a3,a7
    8000b0cc:	0cd05663          	blez	a3,8000b198 <__multf3+0x4bc>
    8000b0d0:	0077f713          	andi	a4,a5,7
    8000b0d4:	c335                	beqz	a4,8000b138 <__multf3+0x45c>
    8000b0d6:	4709                	li	a4,2
    8000b0d8:	00196913          	ori	s2,s2,1
    8000b0dc:	04e98c63          	beq	s3,a4,8000b134 <__multf3+0x458>
    8000b0e0:	470d                	li	a4,3
    8000b0e2:	04e98463          	beq	s3,a4,8000b12a <__multf3+0x44e>
    8000b0e6:	04099963          	bnez	s3,8000b138 <__multf3+0x45c>
    8000b0ea:	00f7f713          	andi	a4,a5,15
    8000b0ee:	4611                	li	a2,4
    8000b0f0:	04c70463          	beq	a4,a2,8000b138 <__multf3+0x45c>
    8000b0f4:	00478713          	addi	a4,a5,4
    8000b0f8:	00f737b3          	sltu	a5,a4,a5
    8000b0fc:	943e                	add	s0,s0,a5
    8000b0fe:	87ba                	mv	a5,a4
    8000b100:	a825                	j	8000b138 <__multf3+0x45c>
    8000b102:	885a                	mv	a6,s6
    8000b104:	8426                	mv	s0,s1
    8000b106:	87d2                	mv	a5,s4
    8000b108:	8762                	mv	a4,s8
    8000b10a:	4689                	li	a3,2
    8000b10c:	1ed70b63          	beq	a4,a3,8000b302 <__multf3+0x626>
    8000b110:	468d                	li	a3,3
    8000b112:	1ed70d63          	beq	a4,a3,8000b30c <__multf3+0x630>
    8000b116:	4685                	li	a3,1
    8000b118:	fad717e3          	bne	a4,a3,8000b0c6 <__multf3+0x3ea>
    8000b11c:	4701                	li	a4,0
    8000b11e:	4501                	li	a0,0
    8000b120:	aad9                	j	8000b2f6 <__multf3+0x61a>
    8000b122:	8856                	mv	a6,s5
    8000b124:	b7dd                	j	8000b10a <__multf3+0x42e>
    8000b126:	88aa                	mv	a7,a0
    8000b128:	bf79                	j	8000b0c6 <__multf3+0x3ea>
    8000b12a:	00081763          	bnez	a6,8000b138 <__multf3+0x45c>
    8000b12e:	00878713          	addi	a4,a5,8
    8000b132:	b7d9                	j	8000b0f8 <__multf3+0x41c>
    8000b134:	fe081de3          	bnez	a6,8000b12e <__multf3+0x452>
    8000b138:	00b41713          	slli	a4,s0,0xb
    8000b13c:	00075863          	bgez	a4,8000b14c <__multf3+0x470>
    8000b140:	577d                	li	a4,-1
    8000b142:	1752                	slli	a4,a4,0x34
    8000b144:	177d                	addi	a4,a4,-1
    8000b146:	6691                	lui	a3,0x4
    8000b148:	8c79                	and	s0,s0,a4
    8000b14a:	96c6                	add	a3,a3,a7
    8000b14c:	65a1                	lui	a1,0x8
    8000b14e:	ffe58713          	addi	a4,a1,-2 # 7ffe <_stack_size-0x2>
    8000b152:	00d74963          	blt	a4,a3,8000b164 <__multf3+0x488>
    8000b156:	838d                	srli	a5,a5,0x3
    8000b158:	03d41513          	slli	a0,s0,0x3d
    8000b15c:	8d5d                	or	a0,a0,a5
    8000b15e:	00345713          	srli	a4,s0,0x3
    8000b162:	bb9d                	j	8000aed8 <__multf3+0x1fc>
    8000b164:	4789                	li	a5,2
    8000b166:	02f98363          	beq	s3,a5,8000b18c <__multf3+0x4b0>
    8000b16a:	478d                	li	a5,3
    8000b16c:	fff58693          	addi	a3,a1,-1
    8000b170:	00f98a63          	beq	s3,a5,8000b184 <__multf3+0x4a8>
    8000b174:	00098a63          	beqz	s3,8000b188 <__multf3+0x4ac>
    8000b178:	557d                	li	a0,-1
    8000b17a:	86ba                	mv	a3,a4
    8000b17c:	00596913          	ori	s2,s2,5
    8000b180:	872a                	mv	a4,a0
    8000b182:	bb99                	j	8000aed8 <__multf3+0x1fc>
    8000b184:	fe081ae3          	bnez	a6,8000b178 <__multf3+0x49c>
    8000b188:	4501                	li	a0,0
    8000b18a:	bfcd                	j	8000b17c <__multf3+0x4a0>
    8000b18c:	fe0806e3          	beqz	a6,8000b178 <__multf3+0x49c>
    8000b190:	4501                	li	a0,0
    8000b192:	fff58693          	addi	a3,a1,-1
    8000b196:	b7dd                	j	8000b17c <__multf3+0x4a0>
    8000b198:	4605                	li	a2,1
    8000b19a:	eaa9                	bnez	a3,8000b1ec <__multf3+0x510>
    8000b19c:	0077f613          	andi	a2,a5,7
    8000b1a0:	8722                	mv	a4,s0
    8000b1a2:	c221                	beqz	a2,8000b1e2 <__multf3+0x506>
    8000b1a4:	4709                	li	a4,2
    8000b1a6:	00196913          	ori	s2,s2,1
    8000b1aa:	02e98963          	beq	s3,a4,8000b1dc <__multf3+0x500>
    8000b1ae:	470d                	li	a4,3
    8000b1b0:	02e98063          	beq	s3,a4,8000b1d0 <__multf3+0x4f4>
    8000b1b4:	8722                	mv	a4,s0
    8000b1b6:	02099663          	bnez	s3,8000b1e2 <__multf3+0x506>
    8000b1ba:	00f7f613          	andi	a2,a5,15
    8000b1be:	4591                	li	a1,4
    8000b1c0:	02b60163          	beq	a2,a1,8000b1e2 <__multf3+0x506>
    8000b1c4:	ffc7b713          	sltiu	a4,a5,-4
    8000b1c8:	00174713          	xori	a4,a4,1
    8000b1cc:	9722                	add	a4,a4,s0
    8000b1ce:	a811                	j	8000b1e2 <__multf3+0x506>
    8000b1d0:	8722                	mv	a4,s0
    8000b1d2:	00081863          	bnez	a6,8000b1e2 <__multf3+0x506>
    8000b1d6:	ff87b713          	sltiu	a4,a5,-8
    8000b1da:	b7fd                	j	8000b1c8 <__multf3+0x4ec>
    8000b1dc:	8722                	mv	a4,s0
    8000b1de:	fe081ce3          	bnez	a6,8000b1d6 <__multf3+0x4fa>
    8000b1e2:	03475613          	srli	a2,a4,0x34
    8000b1e6:	00164613          	xori	a2,a2,1
    8000b1ea:	8a05                	andi	a2,a2,1
    8000b1ec:	4585                	li	a1,1
    8000b1ee:	40d586b3          	sub	a3,a1,a3
    8000b1f2:	07400713          	li	a4,116
    8000b1f6:	0cd74863          	blt	a4,a3,8000b2c6 <__multf3+0x5ea>
    8000b1fa:	03f00593          	li	a1,63
    8000b1fe:	0006871b          	sext.w	a4,a3
    8000b202:	04d5ca63          	blt	a1,a3,8000b256 <__multf3+0x57a>
    8000b206:	04000693          	li	a3,64
    8000b20a:	9e99                	subw	a3,a3,a4
    8000b20c:	00e7d5b3          	srl	a1,a5,a4
    8000b210:	00d41533          	sll	a0,s0,a3
    8000b214:	00d797b3          	sll	a5,a5,a3
    8000b218:	8d4d                	or	a0,a0,a1
    8000b21a:	00f037b3          	snez	a5,a5
    8000b21e:	8d5d                	or	a0,a0,a5
    8000b220:	00e45733          	srl	a4,s0,a4
    8000b224:	00757793          	andi	a5,a0,7
    8000b228:	c7a5                	beqz	a5,8000b290 <__multf3+0x5b4>
    8000b22a:	4789                	li	a5,2
    8000b22c:	00196913          	ori	s2,s2,1
    8000b230:	04f98e63          	beq	s3,a5,8000b28c <__multf3+0x5b0>
    8000b234:	478d                	li	a5,3
    8000b236:	04f98663          	beq	s3,a5,8000b282 <__multf3+0x5a6>
    8000b23a:	04099b63          	bnez	s3,8000b290 <__multf3+0x5b4>
    8000b23e:	00f57793          	andi	a5,a0,15
    8000b242:	4691                	li	a3,4
    8000b244:	04d78663          	beq	a5,a3,8000b290 <__multf3+0x5b4>
    8000b248:	00450793          	addi	a5,a0,4
    8000b24c:	00a7b533          	sltu	a0,a5,a0
    8000b250:	972a                	add	a4,a4,a0
    8000b252:	853e                	mv	a0,a5
    8000b254:	a835                	j	8000b290 <__multf3+0x5b4>
    8000b256:	fc07051b          	addiw	a0,a4,-64
    8000b25a:	04000593          	li	a1,64
    8000b25e:	00a45533          	srl	a0,s0,a0
    8000b262:	4881                	li	a7,0
    8000b264:	00b68863          	beq	a3,a1,8000b274 <__multf3+0x598>
    8000b268:	08000893          	li	a7,128
    8000b26c:	40e8873b          	subw	a4,a7,a4
    8000b270:	00e418b3          	sll	a7,s0,a4
    8000b274:	00f8e7b3          	or	a5,a7,a5
    8000b278:	00f037b3          	snez	a5,a5
    8000b27c:	8d5d                	or	a0,a0,a5
    8000b27e:	4701                	li	a4,0
    8000b280:	b755                	j	8000b224 <__multf3+0x548>
    8000b282:	00081763          	bnez	a6,8000b290 <__multf3+0x5b4>
    8000b286:	00850793          	addi	a5,a0,8
    8000b28a:	b7c9                	j	8000b24c <__multf3+0x570>
    8000b28c:	fe081de3          	bnez	a6,8000b286 <__multf3+0x5aa>
    8000b290:	00c71793          	slli	a5,a4,0xc
    8000b294:	0007dc63          	bgez	a5,8000b2ac <__multf3+0x5d0>
    8000b298:	00196913          	ori	s2,s2,1
    8000b29c:	4701                	li	a4,0
    8000b29e:	4501                	li	a0,0
    8000b2a0:	4685                	li	a3,1
    8000b2a2:	c2060be3          	beqz	a2,8000aed8 <__multf3+0x1fc>
    8000b2a6:	00296913          	ori	s2,s2,2
    8000b2aa:	b13d                	j	8000aed8 <__multf3+0x1fc>
    8000b2ac:	03d71793          	slli	a5,a4,0x3d
    8000b2b0:	810d                	srli	a0,a0,0x3
    8000b2b2:	8d5d                	or	a0,a0,a5
    8000b2b4:	830d                	srli	a4,a4,0x3
    8000b2b6:	4681                	li	a3,0
    8000b2b8:	c20600e3          	beqz	a2,8000aed8 <__multf3+0x1fc>
    8000b2bc:	00197793          	andi	a5,s2,1
    8000b2c0:	c0078ce3          	beqz	a5,8000aed8 <__multf3+0x1fc>
    8000b2c4:	b7cd                	j	8000b2a6 <__multf3+0x5ca>
    8000b2c6:	0087e533          	or	a0,a5,s0
    8000b2ca:	c11d                	beqz	a0,8000b2f0 <__multf3+0x614>
    8000b2cc:	4789                	li	a5,2
    8000b2ce:	00196913          	ori	s2,s2,1
    8000b2d2:	02f98463          	beq	s3,a5,8000b2fa <__multf3+0x61e>
    8000b2d6:	478d                	li	a5,3
    8000b2d8:	00f98763          	beq	s3,a5,8000b2e6 <__multf3+0x60a>
    8000b2dc:	4795                	li	a5,5
    8000b2de:	00098763          	beqz	s3,8000b2ec <__multf3+0x610>
    8000b2e2:	4785                	li	a5,1
    8000b2e4:	a021                	j	8000b2ec <__multf3+0x610>
    8000b2e6:	47a5                	li	a5,9
    8000b2e8:	fe081de3          	bnez	a6,8000b2e2 <__multf3+0x606>
    8000b2ec:	0037d513          	srli	a0,a5,0x3
    8000b2f0:	00296913          	ori	s2,s2,2
    8000b2f4:	4701                	li	a4,0
    8000b2f6:	4681                	li	a3,0
    8000b2f8:	b6c5                	j	8000aed8 <__multf3+0x1fc>
    8000b2fa:	47a5                	li	a5,9
    8000b2fc:	fe0818e3          	bnez	a6,8000b2ec <__multf3+0x610>
    8000b300:	b7cd                	j	8000b2e2 <__multf3+0x606>
    8000b302:	66a1                	lui	a3,0x8
    8000b304:	4701                	li	a4,0
    8000b306:	4501                	li	a0,0
    8000b308:	16fd                	addi	a3,a3,-1
    8000b30a:	b6f9                	j	8000aed8 <__multf3+0x1fc>
    8000b30c:	4705                	li	a4,1
    8000b30e:	66a1                	lui	a3,0x8
    8000b310:	173e                	slli	a4,a4,0x2f
    8000b312:	4501                	li	a0,0
    8000b314:	16fd                	addi	a3,a3,-1
    8000b316:	4801                	li	a6,0
    8000b318:	b6c1                	j	8000aed8 <__multf3+0x1fc>

000000008000b31a <__subtf3>:
    8000b31a:	7179                	addi	sp,sp,-48
    8000b31c:	f406                	sd	ra,40(sp)
    8000b31e:	f022                	sd	s0,32(sp)
    8000b320:	ec26                	sd	s1,24(sp)
    8000b322:	e84a                	sd	s2,16(sp)
    8000b324:	e44e                	sd	s3,8(sp)
    8000b326:	e052                	sd	s4,0(sp)
    8000b328:	002024f3          	frrm	s1
    8000b32c:	52fd                	li	t0,-1
    8000b32e:	0102d293          	srli	t0,t0,0x10
    8000b332:	6fa1                	lui	t6,0x8
    8000b334:	0305d313          	srli	t1,a1,0x30
    8000b338:	1ffd                	addi	t6,t6,-1
    8000b33a:	0306d893          	srli	a7,a3,0x30
    8000b33e:	03f5d913          	srli	s2,a1,0x3f
    8000b342:	03f6de13          	srli	t3,a3,0x3f
    8000b346:	0055f5b3          	and	a1,a1,t0
    8000b34a:	0056f6b3          	and	a3,a3,t0
    8000b34e:	03d55413          	srli	s0,a0,0x3d
    8000b352:	01f37333          	and	t1,t1,t6
    8000b356:	058e                	slli	a1,a1,0x3
    8000b358:	00351f13          	slli	t5,a0,0x3
    8000b35c:	068e                	slli	a3,a3,0x3
    8000b35e:	03d65513          	srli	a0,a2,0x3d
    8000b362:	01f8f8b3          	and	a7,a7,t6
    8000b366:	2481                	sext.w	s1,s1
    8000b368:	899a                	mv	s3,t1
    8000b36a:	8dc1                	or	a1,a1,s0
    8000b36c:	8ec9                	or	a3,a3,a0
    8000b36e:	00361e93          	slli	t4,a2,0x3
    8000b372:	01f89563          	bne	a7,t6,8000b37c <__subtf3+0x62>
    8000b376:	01d6e7b3          	or	a5,a3,t4
    8000b37a:	e399                	bnez	a5,8000b380 <__subtf3+0x66>
    8000b37c:	001e4e13          	xori	t3,t3,1
    8000b380:	411307bb          	subw	a5,t1,a7
    8000b384:	6521                	lui	a0,0x8
    8000b386:	0007871b          	sext.w	a4,a5
    8000b38a:	fff50613          	addi	a2,a0,-1 # 7fff <_stack_size-0x1>
    8000b38e:	312e1c63          	bne	t3,s2,8000b6a6 <__subtf3+0x38c>
    8000b392:	0ee05e63          	blez	a4,8000b48e <__subtf3+0x174>
    8000b396:	08089263          	bnez	a7,8000b41a <__subtf3+0x100>
    8000b39a:	01d6e733          	or	a4,a3,t4
    8000b39e:	ef19                	bnez	a4,8000b3bc <__subtf3+0xa2>
    8000b3a0:	70c31463          	bne	t1,a2,8000baa8 <__subtf3+0x78e>
    8000b3a4:	01e5eeb3          	or	t4,a1,t5
    8000b3a8:	740e8163          	beqz	t4,8000baea <__subtf3+0x7d0>
    8000b3ac:	00d59793          	slli	a5,a1,0xd
    8000b3b0:	86ae                	mv	a3,a1
    8000b3b2:	8efa                	mv	t4,t5
    8000b3b4:	0407c663          	bltz	a5,8000b400 <__subtf3+0xe6>
    8000b3b8:	47c1                	li	a5,16
    8000b3ba:	aad5                	j	8000b5ae <__subtf3+0x294>
    8000b3bc:	fff7871b          	addiw	a4,a5,-1
    8000b3c0:	e331                	bnez	a4,8000b404 <__subtf3+0xea>
    8000b3c2:	9efa                	add	t4,t4,t5
    8000b3c4:	96ae                	add	a3,a3,a1
    8000b3c6:	01eebf33          	sltu	t5,t4,t5
    8000b3ca:	96fa                	add	a3,a3,t5
    8000b3cc:	00c69793          	slli	a5,a3,0xc
    8000b3d0:	6c07d763          	bgez	a5,8000ba9e <__subtf3+0x784>
    8000b3d4:	67a1                	lui	a5,0x8
    8000b3d6:	0985                	addi	s3,s3,1
    8000b3d8:	fff78713          	addi	a4,a5,-1 # 7fff <_stack_size-0x1>
    8000b3dc:	2ae98063          	beq	s3,a4,8000b67c <__subtf3+0x362>
    8000b3e0:	557d                	li	a0,-1
    8000b3e2:	154e                	slli	a0,a0,0x33
    8000b3e4:	157d                	addi	a0,a0,-1
    8000b3e6:	8d75                	and	a0,a0,a3
    8000b3e8:	001ed593          	srli	a1,t4,0x1
    8000b3ec:	001efe93          	andi	t4,t4,1
    8000b3f0:	03f51693          	slli	a3,a0,0x3f
    8000b3f4:	01d5eeb3          	or	t4,a1,t4
    8000b3f8:	01d6eeb3          	or	t4,a3,t4
    8000b3fc:	00155693          	srli	a3,a0,0x1
    8000b400:	4701                	li	a4,0
    8000b402:	a425                	j	8000b62a <__subtf3+0x310>
    8000b404:	02c31063          	bne	t1,a2,8000b424 <__subtf3+0x10a>
    8000b408:	01e5eeb3          	or	t4,a1,t5
    8000b40c:	6c0e8f63          	beqz	t4,8000baea <__subtf3+0x7d0>
    8000b410:	00d59793          	slli	a5,a1,0xd
    8000b414:	86ae                	mv	a3,a1
    8000b416:	8efa                	mv	t4,t5
    8000b418:	a851                	j	8000b4ac <__subtf3+0x192>
    8000b41a:	fec307e3          	beq	t1,a2,8000b408 <__subtf3+0xee>
    8000b41e:	4785                	li	a5,1
    8000b420:	17ce                	slli	a5,a5,0x33
    8000b422:	8edd                	or	a3,a3,a5
    8000b424:	07400793          	li	a5,116
    8000b428:	04e7ce63          	blt	a5,a4,8000b484 <__subtf3+0x16a>
    8000b42c:	03f00793          	li	a5,63
    8000b430:	02e7c363          	blt	a5,a4,8000b456 <__subtf3+0x13c>
    8000b434:	04000413          	li	s0,64
    8000b438:	9c19                	subw	s0,s0,a4
    8000b43a:	008697b3          	sll	a5,a3,s0
    8000b43e:	00eed633          	srl	a2,t4,a4
    8000b442:	008e9eb3          	sll	t4,t4,s0
    8000b446:	8fd1                	or	a5,a5,a2
    8000b448:	01d03eb3          	snez	t4,t4
    8000b44c:	01d7eeb3          	or	t4,a5,t4
    8000b450:	00e6d6b3          	srl	a3,a3,a4
    8000b454:	b7bd                	j	8000b3c2 <__subtf3+0xa8>
    8000b456:	fc07079b          	addiw	a5,a4,-64
    8000b45a:	04000613          	li	a2,64
    8000b45e:	00f6d7b3          	srl	a5,a3,a5
    8000b462:	4401                	li	s0,0
    8000b464:	00c70863          	beq	a4,a2,8000b474 <__subtf3+0x15a>
    8000b468:	08000413          	li	s0,128
    8000b46c:	40e4073b          	subw	a4,s0,a4
    8000b470:	00e69433          	sll	s0,a3,a4
    8000b474:	01d46eb3          	or	t4,s0,t4
    8000b478:	01d03eb3          	snez	t4,t4
    8000b47c:	01d7eeb3          	or	t4,a5,t4
    8000b480:	4681                	li	a3,0
    8000b482:	b781                	j	8000b3c2 <__subtf3+0xa8>
    8000b484:	01d6eeb3          	or	t4,a3,t4
    8000b488:	01d03eb3          	snez	t4,t4
    8000b48c:	bfd5                	j	8000b480 <__subtf3+0x166>
    8000b48e:	cf79                	beqz	a4,8000b56c <__subtf3+0x252>
    8000b490:	08031263          	bnez	t1,8000b514 <__subtf3+0x1fa>
    8000b494:	01e5e533          	or	a0,a1,t5
    8000b498:	ed11                	bnez	a0,8000b4b4 <__subtf3+0x19a>
    8000b49a:	89c6                	mv	s3,a7
    8000b49c:	60c89163          	bne	a7,a2,8000ba9e <__subtf3+0x784>
    8000b4a0:	01d6e7b3          	or	a5,a3,t4
    8000b4a4:	62078b63          	beqz	a5,8000bada <__subtf3+0x7c0>
    8000b4a8:	00d69793          	slli	a5,a3,0xd
    8000b4ac:	4701                	li	a4,0
    8000b4ae:	1607ce63          	bltz	a5,8000b62a <__subtf3+0x310>
    8000b4b2:	b719                	j	8000b3b8 <__subtf3+0x9e>
    8000b4b4:	557d                	li	a0,-1
    8000b4b6:	00a71a63          	bne	a4,a0,8000b4ca <__subtf3+0x1b0>
    8000b4ba:	9f76                	add	t5,t5,t4
    8000b4bc:	96ae                	add	a3,a3,a1
    8000b4be:	01df3eb3          	sltu	t4,t5,t4
    8000b4c2:	96f6                	add	a3,a3,t4
    8000b4c4:	8efa                	mv	t4,t5
    8000b4c6:	89c6                	mv	s3,a7
    8000b4c8:	b711                	j	8000b3cc <__subtf3+0xb2>
    8000b4ca:	04c88763          	beq	a7,a2,8000b518 <__subtf3+0x1fe>
    8000b4ce:	fff7c793          	not	a5,a5
    8000b4d2:	0007881b          	sext.w	a6,a5
    8000b4d6:	07400793          	li	a5,116
    8000b4da:	0907c463          	blt	a5,a6,8000b562 <__subtf3+0x248>
    8000b4de:	03f00793          	li	a5,63
    8000b4e2:	0507c963          	blt	a5,a6,8000b534 <__subtf3+0x21a>
    8000b4e6:	04000513          	li	a0,64
    8000b4ea:	4105053b          	subw	a0,a0,a6
    8000b4ee:	010f57b3          	srl	a5,t5,a6
    8000b4f2:	00a59433          	sll	s0,a1,a0
    8000b4f6:	00af1f33          	sll	t5,t5,a0
    8000b4fa:	8c5d                	or	s0,s0,a5
    8000b4fc:	01e03f33          	snez	t5,t5
    8000b500:	01e46f33          	or	t5,s0,t5
    8000b504:	0105d833          	srl	a6,a1,a6
    8000b508:	9f76                	add	t5,t5,t4
    8000b50a:	9836                	add	a6,a6,a3
    8000b50c:	01df36b3          	sltu	a3,t5,t4
    8000b510:	96c2                	add	a3,a3,a6
    8000b512:	bf4d                	j	8000b4c4 <__subtf3+0x1aa>
    8000b514:	00c89a63          	bne	a7,a2,8000b528 <__subtf3+0x20e>
    8000b518:	01d6e7b3          	or	a5,a3,t4
    8000b51c:	5c078363          	beqz	a5,8000bae2 <__subtf3+0x7c8>
    8000b520:	00d69793          	slli	a5,a3,0xd
    8000b524:	89c6                	mv	s3,a7
    8000b526:	b759                	j	8000b4ac <__subtf3+0x192>
    8000b528:	40f0083b          	negw	a6,a5
    8000b52c:	4785                	li	a5,1
    8000b52e:	17ce                	slli	a5,a5,0x33
    8000b530:	8ddd                	or	a1,a1,a5
    8000b532:	b755                	j	8000b4d6 <__subtf3+0x1bc>
    8000b534:	fc08041b          	addiw	s0,a6,-64
    8000b538:	04000793          	li	a5,64
    8000b53c:	0085d433          	srl	s0,a1,s0
    8000b540:	4501                	li	a0,0
    8000b542:	00f80863          	beq	a6,a5,8000b552 <__subtf3+0x238>
    8000b546:	08000513          	li	a0,128
    8000b54a:	4105083b          	subw	a6,a0,a6
    8000b54e:	01059533          	sll	a0,a1,a6
    8000b552:	01e56f33          	or	t5,a0,t5
    8000b556:	01e03f33          	snez	t5,t5
    8000b55a:	01e46f33          	or	t5,s0,t5
    8000b55e:	4801                	li	a6,0
    8000b560:	b765                	j	8000b508 <__subtf3+0x1ee>
    8000b562:	01e5e433          	or	s0,a1,t5
    8000b566:	00803f33          	snez	t5,s0
    8000b56a:	bfd5                	j	8000b55e <__subtf3+0x244>
    8000b56c:	00130e13          	addi	t3,t1,1
    8000b570:	ffe50793          	addi	a5,a0,-2
    8000b574:	00fe7533          	and	a0,t3,a5
    8000b578:	e559                	bnez	a0,8000b606 <__subtf3+0x2ec>
    8000b57a:	01e5e533          	or	a0,a1,t5
    8000b57e:	04031063          	bnez	t1,8000b5be <__subtf3+0x2a4>
    8000b582:	52050063          	beqz	a0,8000baa2 <__subtf3+0x788>
    8000b586:	01d6e7b3          	or	a5,a3,t4
    8000b58a:	2c078963          	beqz	a5,8000b85c <__subtf3+0x542>
    8000b58e:	9efa                	add	t4,t4,t5
    8000b590:	96ae                	add	a3,a3,a1
    8000b592:	01eeb433          	sltu	s0,t4,t5
    8000b596:	008685b3          	add	a1,a3,s0
    8000b59a:	00c59793          	slli	a5,a1,0xc
    8000b59e:	5007d363          	bgez	a5,8000baa4 <__subtf3+0x78a>
    8000b5a2:	56fd                	li	a3,-1
    8000b5a4:	16ce                	slli	a3,a3,0x33
    8000b5a6:	16fd                	addi	a3,a3,-1
    8000b5a8:	8eed                	and	a3,a3,a1
    8000b5aa:	4781                	li	a5,0
    8000b5ac:	4985                	li	s3,1
    8000b5ae:	007ef613          	andi	a2,t4,7
    8000b5b2:	ee59                	bnez	a2,8000b650 <__subtf3+0x336>
    8000b5b4:	38070663          	beqz	a4,8000b940 <__subtf3+0x626>
    8000b5b8:	0017f713          	andi	a4,a5,1
    8000b5bc:	ab81                	j	8000bb0c <__subtf3+0x7f2>
    8000b5be:	02c31f63          	bne	t1,a2,8000b5fc <__subtf3+0x2e2>
    8000b5c2:	58050563          	beqz	a0,8000bb4c <__subtf3+0x832>
    8000b5c6:	0325d793          	srli	a5,a1,0x32
    8000b5ca:	8b85                	andi	a5,a5,1
    8000b5cc:	0017b793          	seqz	a5,a5
    8000b5d0:	0792                	slli	a5,a5,0x4
    8000b5d2:	00689c63          	bne	a7,t1,8000b5ea <__subtf3+0x2d0>
    8000b5d6:	01d6e633          	or	a2,a3,t4
    8000b5da:	56060663          	beqz	a2,8000bb46 <__subtf3+0x82c>
    8000b5de:	00d69613          	slli	a2,a3,0xd
    8000b5e2:	00064363          	bltz	a2,8000b5e8 <__subtf3+0x2ce>
    8000b5e6:	47c1                	li	a5,16
    8000b5e8:	c519                	beqz	a0,8000b5f6 <__subtf3+0x2dc>
    8000b5ea:	01d6e6b3          	or	a3,a3,t4
    8000b5ee:	34069363          	bnez	a3,8000b934 <__subtf3+0x61a>
    8000b5f2:	86ae                	mv	a3,a1
    8000b5f4:	8efa                	mv	t4,t5
    8000b5f6:	69a1                	lui	s3,0x8
    8000b5f8:	19fd                	addi	s3,s3,-1
    8000b5fa:	bf55                	j	8000b5ae <__subtf3+0x294>
    8000b5fc:	4781                	li	a5,0
    8000b5fe:	fec895e3          	bne	a7,a2,8000b5e8 <__subtf3+0x2ce>
    8000b602:	4781                	li	a5,0
    8000b604:	bfc9                	j	8000b5d6 <__subtf3+0x2bc>
    8000b606:	02ce0463          	beq	t3,a2,8000b62e <__subtf3+0x314>
    8000b60a:	9efa                	add	t4,t4,t5
    8000b60c:	00d58433          	add	s0,a1,a3
    8000b610:	01eeb6b3          	sltu	a3,t4,t5
    8000b614:	00d40f33          	add	t5,s0,a3
    8000b618:	03ff1693          	slli	a3,t5,0x3f
    8000b61c:	001ede93          	srli	t4,t4,0x1
    8000b620:	01d6eeb3          	or	t4,a3,t4
    8000b624:	89f2                	mv	s3,t3
    8000b626:	001f5693          	srli	a3,t5,0x1
    8000b62a:	4781                	li	a5,0
    8000b62c:	b749                	j	8000b5ae <__subtf3+0x294>
    8000b62e:	c491                	beqz	s1,8000b63a <__subtf3+0x320>
    8000b630:	468d                	li	a3,3
    8000b632:	00d49663          	bne	s1,a3,8000b63e <__subtf3+0x324>
    8000b636:	00091963          	bnez	s2,8000b648 <__subtf3+0x32e>
    8000b63a:	89f2                	mv	s3,t3
    8000b63c:	a0b1                	j	8000b688 <__subtf3+0x36e>
    8000b63e:	4689                	li	a3,2
    8000b640:	00d49463          	bne	s1,a3,8000b648 <__subtf3+0x32e>
    8000b644:	fe091be3          	bnez	s2,8000b63a <__subtf3+0x320>
    8000b648:	56fd                	li	a3,-1
    8000b64a:	5efd                	li	t4,-1
    8000b64c:	89be                	mv	s3,a5
    8000b64e:	4795                	li	a5,5
    8000b650:	4609                	li	a2,2
    8000b652:	0017e793          	ori	a5,a5,1
    8000b656:	4ac48963          	beq	s1,a2,8000bb08 <__subtf3+0x7ee>
    8000b65a:	460d                	li	a2,3
    8000b65c:	4ac48163          	beq	s1,a2,8000bafe <__subtf3+0x7e4>
    8000b660:	4a049663          	bnez	s1,8000bb0c <__subtf3+0x7f2>
    8000b664:	00fef613          	andi	a2,t4,15
    8000b668:	4591                	li	a1,4
    8000b66a:	4ab60163          	beq	a2,a1,8000bb0c <__subtf3+0x7f2>
    8000b66e:	004e8593          	addi	a1,t4,4
    8000b672:	01d5beb3          	sltu	t4,a1,t4
    8000b676:	96f6                	add	a3,a3,t4
    8000b678:	8eae                	mv	t4,a1
    8000b67a:	a949                	j	8000bb0c <__subtf3+0x7f2>
    8000b67c:	c491                	beqz	s1,8000b688 <__subtf3+0x36e>
    8000b67e:	470d                	li	a4,3
    8000b680:	00e49863          	bne	s1,a4,8000b690 <__subtf3+0x376>
    8000b684:	00091b63          	bnez	s2,8000b69a <__subtf3+0x380>
    8000b688:	4681                	li	a3,0
    8000b68a:	4e81                	li	t4,0
    8000b68c:	4795                	li	a5,5
    8000b68e:	ac4d                	j	8000b940 <__subtf3+0x626>
    8000b690:	4709                	li	a4,2
    8000b692:	00e49463          	bne	s1,a4,8000b69a <__subtf3+0x380>
    8000b696:	fe0919e3          	bnez	s2,8000b688 <__subtf3+0x36e>
    8000b69a:	56fd                	li	a3,-1
    8000b69c:	5efd                	li	t4,-1
    8000b69e:	ffe78993          	addi	s3,a5,-2
    8000b6a2:	4701                	li	a4,0
    8000b6a4:	b76d                	j	8000b64e <__subtf3+0x334>
    8000b6a6:	0ae05963          	blez	a4,8000b758 <__subtf3+0x43e>
    8000b6aa:	06089563          	bnez	a7,8000b714 <__subtf3+0x3fa>
    8000b6ae:	01d6e733          	or	a4,a3,t4
    8000b6b2:	ce0707e3          	beqz	a4,8000b3a0 <__subtf3+0x86>
    8000b6b6:	fff7871b          	addiw	a4,a5,-1
    8000b6ba:	e315                	bnez	a4,8000b6de <__subtf3+0x3c4>
    8000b6bc:	41df0eb3          	sub	t4,t5,t4
    8000b6c0:	40d586b3          	sub	a3,a1,a3
    8000b6c4:	01df3f33          	sltu	t5,t5,t4
    8000b6c8:	41e686b3          	sub	a3,a3,t5
    8000b6cc:	00c69793          	slli	a5,a3,0xc
    8000b6d0:	3c07d763          	bgez	a5,8000ba9e <__subtf3+0x784>
    8000b6d4:	547d                	li	s0,-1
    8000b6d6:	8035                	srli	s0,s0,0xd
    8000b6d8:	8c75                	and	s0,s0,a3
    8000b6da:	8a76                	mv	s4,t4
    8000b6dc:	acfd                	j	8000b9da <__subtf3+0x6c0>
    8000b6de:	d2c305e3          	beq	t1,a2,8000b408 <__subtf3+0xee>
    8000b6e2:	07400793          	li	a5,116
    8000b6e6:	06e7c463          	blt	a5,a4,8000b74e <__subtf3+0x434>
    8000b6ea:	03f00793          	li	a5,63
    8000b6ee:	02e7c963          	blt	a5,a4,8000b720 <__subtf3+0x406>
    8000b6f2:	04000413          	li	s0,64
    8000b6f6:	9c19                	subw	s0,s0,a4
    8000b6f8:	008697b3          	sll	a5,a3,s0
    8000b6fc:	00eed633          	srl	a2,t4,a4
    8000b700:	008e9eb3          	sll	t4,t4,s0
    8000b704:	8fd1                	or	a5,a5,a2
    8000b706:	01d03eb3          	snez	t4,t4
    8000b70a:	01d7eeb3          	or	t4,a5,t4
    8000b70e:	00e6d6b3          	srl	a3,a3,a4
    8000b712:	b76d                	j	8000b6bc <__subtf3+0x3a2>
    8000b714:	cec30ae3          	beq	t1,a2,8000b408 <__subtf3+0xee>
    8000b718:	4785                	li	a5,1
    8000b71a:	17ce                	slli	a5,a5,0x33
    8000b71c:	8edd                	or	a3,a3,a5
    8000b71e:	b7d1                	j	8000b6e2 <__subtf3+0x3c8>
    8000b720:	fc07079b          	addiw	a5,a4,-64
    8000b724:	04000613          	li	a2,64
    8000b728:	00f6d7b3          	srl	a5,a3,a5
    8000b72c:	4401                	li	s0,0
    8000b72e:	00c70863          	beq	a4,a2,8000b73e <__subtf3+0x424>
    8000b732:	08000413          	li	s0,128
    8000b736:	40e4073b          	subw	a4,s0,a4
    8000b73a:	00e69433          	sll	s0,a3,a4
    8000b73e:	01d46eb3          	or	t4,s0,t4
    8000b742:	01d03eb3          	snez	t4,t4
    8000b746:	01d7eeb3          	or	t4,a5,t4
    8000b74a:	4681                	li	a3,0
    8000b74c:	bf85                	j	8000b6bc <__subtf3+0x3a2>
    8000b74e:	01d6eeb3          	or	t4,a3,t4
    8000b752:	01d03eb3          	snez	t4,t4
    8000b756:	bfd5                	j	8000b74a <__subtf3+0x430>
    8000b758:	cb71                	beqz	a4,8000b82c <__subtf3+0x512>
    8000b75a:	08031563          	bnez	t1,8000b7e4 <__subtf3+0x4ca>
    8000b75e:	01e5e533          	or	a0,a1,t5
    8000b762:	ed01                	bnez	a0,8000b77a <__subtf3+0x460>
    8000b764:	34c89563          	bne	a7,a2,8000baae <__subtf3+0x794>
    8000b768:	01d6e7b3          	or	a5,a3,t4
    8000b76c:	38078163          	beqz	a5,8000baee <__subtf3+0x7d4>
    8000b770:	00d69793          	slli	a5,a3,0xd
    8000b774:	89c6                	mv	s3,a7
    8000b776:	8972                	mv	s2,t3
    8000b778:	bb15                	j	8000b4ac <__subtf3+0x192>
    8000b77a:	557d                	li	a0,-1
    8000b77c:	00a71d63          	bne	a4,a0,8000b796 <__subtf3+0x47c>
    8000b780:	41ee8f33          	sub	t5,t4,t5
    8000b784:	8e8d                	sub	a3,a3,a1
    8000b786:	01eebeb3          	sltu	t4,t4,t5
    8000b78a:	41d686b3          	sub	a3,a3,t4
    8000b78e:	8efa                	mv	t4,t5
    8000b790:	89c6                	mv	s3,a7
    8000b792:	8972                	mv	s2,t3
    8000b794:	bf25                	j	8000b6cc <__subtf3+0x3b2>
    8000b796:	fcc889e3          	beq	a7,a2,8000b768 <__subtf3+0x44e>
    8000b79a:	fff7c793          	not	a5,a5
    8000b79e:	2781                	sext.w	a5,a5
    8000b7a0:	07400713          	li	a4,116
    8000b7a4:	06f74f63          	blt	a4,a5,8000b822 <__subtf3+0x508>
    8000b7a8:	03f00713          	li	a4,63
    8000b7ac:	04f74463          	blt	a4,a5,8000b7f4 <__subtf3+0x4da>
    8000b7b0:	04000513          	li	a0,64
    8000b7b4:	9d1d                	subw	a0,a0,a5
    8000b7b6:	00ff5833          	srl	a6,t5,a5
    8000b7ba:	00a59433          	sll	s0,a1,a0
    8000b7be:	00af1f33          	sll	t5,t5,a0
    8000b7c2:	01046433          	or	s0,s0,a6
    8000b7c6:	01e03f33          	snez	t5,t5
    8000b7ca:	01e46f33          	or	t5,s0,t5
    8000b7ce:	00f5d7b3          	srl	a5,a1,a5
    8000b7d2:	41ee8f33          	sub	t5,t4,t5
    8000b7d6:	40f687b3          	sub	a5,a3,a5
    8000b7da:	01eeb6b3          	sltu	a3,t4,t5
    8000b7de:	40d786b3          	sub	a3,a5,a3
    8000b7e2:	b775                	j	8000b78e <__subtf3+0x474>
    8000b7e4:	f8c882e3          	beq	a7,a2,8000b768 <__subtf3+0x44e>
    8000b7e8:	4705                	li	a4,1
    8000b7ea:	174e                	slli	a4,a4,0x33
    8000b7ec:	40f007bb          	negw	a5,a5
    8000b7f0:	8dd9                	or	a1,a1,a4
    8000b7f2:	b77d                	j	8000b7a0 <__subtf3+0x486>
    8000b7f4:	fc07841b          	addiw	s0,a5,-64
    8000b7f8:	04000713          	li	a4,64
    8000b7fc:	0085d433          	srl	s0,a1,s0
    8000b800:	4501                	li	a0,0
    8000b802:	00e78863          	beq	a5,a4,8000b812 <__subtf3+0x4f8>
    8000b806:	08000513          	li	a0,128
    8000b80a:	40f507bb          	subw	a5,a0,a5
    8000b80e:	00f59533          	sll	a0,a1,a5
    8000b812:	01e56f33          	or	t5,a0,t5
    8000b816:	01e03f33          	snez	t5,t5
    8000b81a:	01e46f33          	or	t5,s0,t5
    8000b81e:	4781                	li	a5,0
    8000b820:	bf4d                	j	8000b7d2 <__subtf3+0x4b8>
    8000b822:	01e5e433          	or	s0,a1,t5
    8000b826:	00803f33          	snez	t5,s0
    8000b82a:	bfd5                	j	8000b81e <__subtf3+0x504>
    8000b82c:	00130813          	addi	a6,t1,1
    8000b830:	ffe50793          	addi	a5,a0,-2
    8000b834:	00f877b3          	and	a5,a6,a5
    8000b838:	16079e63          	bnez	a5,8000b9b4 <__subtf3+0x69a>
    8000b83c:	01e5e833          	or	a6,a1,t5
    8000b840:	01d6e533          	or	a0,a3,t4
    8000b844:	0a031263          	bnez	t1,8000b8e8 <__subtf3+0x5ce>
    8000b848:	06081063          	bnez	a6,8000b8a8 <__subtf3+0x58e>
    8000b84c:	26051463          	bnez	a0,8000bab4 <__subtf3+0x79a>
    8000b850:	ffe48913          	addi	s2,s1,-2
    8000b854:	00193913          	seqz	s2,s2
    8000b858:	4581                	li	a1,0
    8000b85a:	4f01                	li	t5,0
    8000b85c:	00bf6eb3          	or	t4,t5,a1
    8000b860:	280e8c63          	beqz	t4,8000baf8 <__subtf3+0x7de>
    8000b864:	001f1613          	slli	a2,t5,0x1
    8000b868:	03ff5793          	srli	a5,t5,0x3f
    8000b86c:	00159713          	slli	a4,a1,0x1
    8000b870:	00767693          	andi	a3,a2,7
    8000b874:	973e                	add	a4,a4,a5
    8000b876:	4781                	li	a5,0
    8000b878:	c285                	beqz	a3,8000b898 <__subtf3+0x57e>
    8000b87a:	4789                	li	a5,2
    8000b87c:	24f48b63          	beq	s1,a5,8000bad2 <__subtf3+0x7b8>
    8000b880:	478d                	li	a5,3
    8000b882:	22f48f63          	beq	s1,a5,8000bac0 <__subtf3+0x7a6>
    8000b886:	4785                	li	a5,1
    8000b888:	e881                	bnez	s1,8000b898 <__subtf3+0x57e>
    8000b88a:	00f67693          	andi	a3,a2,15
    8000b88e:	4511                	li	a0,4
    8000b890:	ffc63613          	sltiu	a2,a2,-4
    8000b894:	22a69b63          	bne	a3,a0,8000baca <__subtf3+0x7b0>
    8000b898:	9351                	srli	a4,a4,0x34
    8000b89a:	00174713          	xori	a4,a4,1
    8000b89e:	8b05                	andi	a4,a4,1
    8000b8a0:	86ae                	mv	a3,a1
    8000b8a2:	8efa                	mv	t4,t5
    8000b8a4:	4981                	li	s3,0
    8000b8a6:	b321                	j	8000b5ae <__subtf3+0x294>
    8000b8a8:	d955                	beqz	a0,8000b85c <__subtf3+0x542>
    8000b8aa:	41df0733          	sub	a4,t5,t4
    8000b8ae:	00ef3633          	sltu	a2,t5,a4
    8000b8b2:	40d587b3          	sub	a5,a1,a3
    8000b8b6:	8f91                	sub	a5,a5,a2
    8000b8b8:	00c79613          	slli	a2,a5,0xc
    8000b8bc:	00065c63          	bgez	a2,8000b8d4 <__subtf3+0x5ba>
    8000b8c0:	41ee8f33          	sub	t5,t4,t5
    8000b8c4:	40b68433          	sub	s0,a3,a1
    8000b8c8:	01eeb6b3          	sltu	a3,t4,t5
    8000b8cc:	40d405b3          	sub	a1,s0,a3
    8000b8d0:	8972                	mv	s2,t3
    8000b8d2:	b769                	j	8000b85c <__subtf3+0x542>
    8000b8d4:	00f76f33          	or	t5,a4,a5
    8000b8d8:	1e0f1163          	bnez	t5,8000baba <__subtf3+0x7a0>
    8000b8dc:	ffe48913          	addi	s2,s1,-2
    8000b8e0:	00193913          	seqz	s2,s2
    8000b8e4:	4581                	li	a1,0
    8000b8e6:	bf9d                	j	8000b85c <__subtf3+0x542>
    8000b8e8:	02c31f63          	bne	t1,a2,8000b926 <__subtf3+0x60c>
    8000b8ec:	24080963          	beqz	a6,8000bb3e <__subtf3+0x824>
    8000b8f0:	0325d793          	srli	a5,a1,0x32
    8000b8f4:	8b85                	andi	a5,a5,1
    8000b8f6:	0017b793          	seqz	a5,a5
    8000b8fa:	0792                	slli	a5,a5,0x4
    8000b8fc:	02689a63          	bne	a7,t1,8000b930 <__subtf3+0x616>
    8000b900:	c511                	beqz	a0,8000b90c <__subtf3+0x5f2>
    8000b902:	00d69613          	slli	a2,a3,0xd
    8000b906:	00064363          	bltz	a2,8000b90c <__subtf3+0x5f2>
    8000b90a:	47c1                	li	a5,16
    8000b90c:	02081263          	bnez	a6,8000b930 <__subtf3+0x616>
    8000b910:	8972                	mv	s2,t3
    8000b912:	ce0512e3          	bnez	a0,8000b5f6 <__subtf3+0x2dc>
    8000b916:	4685                	li	a3,1
    8000b918:	69a1                	lui	s3,0x8
    8000b91a:	4e81                	li	t4,0
    8000b91c:	4901                	li	s2,0
    8000b91e:	16ca                	slli	a3,a3,0x32
    8000b920:	19fd                	addi	s3,s3,-1
    8000b922:	47c1                	li	a5,16
    8000b924:	a831                	j	8000b940 <__subtf3+0x626>
    8000b926:	4781                	li	a5,0
    8000b928:	fec892e3          	bne	a7,a2,8000b90c <__subtf3+0x5f2>
    8000b92c:	4781                	li	a5,0
    8000b92e:	bfc9                	j	8000b900 <__subtf3+0x5e6>
    8000b930:	cc0501e3          	beqz	a0,8000b5f2 <__subtf3+0x2d8>
    8000b934:	4685                	li	a3,1
    8000b936:	69a1                	lui	s3,0x8
    8000b938:	4901                	li	s2,0
    8000b93a:	16ca                	slli	a3,a3,0x32
    8000b93c:	4e81                	li	t4,0
    8000b93e:	19fd                	addi	s3,s3,-1
    8000b940:	00c69713          	slli	a4,a3,0xc
    8000b944:	00075c63          	bgez	a4,8000b95c <__subtf3+0x642>
    8000b948:	6721                	lui	a4,0x8
    8000b94a:	0985                	addi	s3,s3,1
    8000b94c:	fff70613          	addi	a2,a4,-1 # 7fff <_stack_size-0x1>
    8000b950:	1cc98363          	beq	s3,a2,8000bb16 <__subtf3+0x7fc>
    8000b954:	577d                	li	a4,-1
    8000b956:	174e                	slli	a4,a4,0x33
    8000b958:	177d                	addi	a4,a4,-1
    8000b95a:	8ef9                	and	a3,a3,a4
    8000b95c:	6721                	lui	a4,0x8
    8000b95e:	03d69513          	slli	a0,a3,0x3d
    8000b962:	003ede93          	srli	t4,t4,0x3
    8000b966:	177d                	addi	a4,a4,-1
    8000b968:	01d56533          	or	a0,a0,t4
    8000b96c:	828d                	srli	a3,a3,0x3
    8000b96e:	00e99963          	bne	s3,a4,8000b980 <__subtf3+0x666>
    8000b972:	8d55                	or	a0,a0,a3
    8000b974:	4681                	li	a3,0
    8000b976:	c509                	beqz	a0,8000b980 <__subtf3+0x666>
    8000b978:	4685                	li	a3,1
    8000b97a:	16be                	slli	a3,a3,0x2f
    8000b97c:	4501                	li	a0,0
    8000b97e:	4901                	li	s2,0
    8000b980:	65a1                	lui	a1,0x8
    8000b982:	577d                	li	a4,-1
    8000b984:	15fd                	addi	a1,a1,-1
    8000b986:	01075613          	srli	a2,a4,0x10
    8000b98a:	00b9f5b3          	and	a1,s3,a1
    8000b98e:	15c2                	slli	a1,a1,0x30
    8000b990:	8ef1                	and	a3,a3,a2
    8000b992:	8dd5                	or	a1,a1,a3
    8000b994:	8305                	srli	a4,a4,0x1
    8000b996:	197e                	slli	s2,s2,0x3f
    8000b998:	8df9                	and	a1,a1,a4
    8000b99a:	0125e5b3          	or	a1,a1,s2
    8000b99e:	c399                	beqz	a5,8000b9a4 <__subtf3+0x68a>
    8000b9a0:	0017a073          	csrs	fflags,a5
    8000b9a4:	70a2                	ld	ra,40(sp)
    8000b9a6:	7402                	ld	s0,32(sp)
    8000b9a8:	64e2                	ld	s1,24(sp)
    8000b9aa:	6942                	ld	s2,16(sp)
    8000b9ac:	69a2                	ld	s3,8(sp)
    8000b9ae:	6a02                	ld	s4,0(sp)
    8000b9b0:	6145                	addi	sp,sp,48
    8000b9b2:	8082                	ret
    8000b9b4:	41df0a33          	sub	s4,t5,t4
    8000b9b8:	014f37b3          	sltu	a5,t5,s4
    8000b9bc:	40d58433          	sub	s0,a1,a3
    8000b9c0:	8c1d                	sub	s0,s0,a5
    8000b9c2:	00c41793          	slli	a5,s0,0xc
    8000b9c6:	0607de63          	bgez	a5,8000ba42 <__subtf3+0x728>
    8000b9ca:	41ee8a33          	sub	s4,t4,t5
    8000b9ce:	40b68433          	sub	s0,a3,a1
    8000b9d2:	014eb6b3          	sltu	a3,t4,s4
    8000b9d6:	8c15                	sub	s0,s0,a3
    8000b9d8:	8972                	mv	s2,t3
    8000b9da:	c82d                	beqz	s0,8000ba4c <__subtf3+0x732>
    8000b9dc:	8522                	mv	a0,s0
    8000b9de:	ffffb097          	auipc	ra,0xffffb
    8000b9e2:	e20080e7          	jalr	-480(ra) # 800067fe <__clzdi2>
    8000b9e6:	2501                	sext.w	a0,a0
    8000b9e8:	ff45061b          	addiw	a2,a0,-12
    8000b9ec:	03f00793          	li	a5,63
    8000b9f0:	8f32                	mv	t5,a2
    8000b9f2:	06c7c563          	blt	a5,a2,8000ba5c <__subtf3+0x742>
    8000b9f6:	04000693          	li	a3,64
    8000b9fa:	9e91                	subw	a3,a3,a2
    8000b9fc:	00c41433          	sll	s0,s0,a2
    8000ba00:	00da56b3          	srl	a3,s4,a3
    8000ba04:	8c55                	or	s0,s0,a3
    8000ba06:	00ca1eb3          	sll	t4,s4,a2
    8000ba0a:	09364463          	blt	a2,s3,8000ba92 <__subtf3+0x778>
    8000ba0e:	413f09bb          	subw	s3,t5,s3
    8000ba12:	0019869b          	addiw	a3,s3,1
    8000ba16:	03f00713          	li	a4,63
    8000ba1a:	04d74763          	blt	a4,a3,8000ba68 <__subtf3+0x74e>
    8000ba1e:	04000613          	li	a2,64
    8000ba22:	9e15                	subw	a2,a2,a3
    8000ba24:	00c41f33          	sll	t5,s0,a2
    8000ba28:	00ded533          	srl	a0,t4,a3
    8000ba2c:	00ce9633          	sll	a2,t4,a2
    8000ba30:	00af6f33          	or	t5,t5,a0
    8000ba34:	00c03633          	snez	a2,a2
    8000ba38:	00cf6f33          	or	t5,t5,a2
    8000ba3c:	00d455b3          	srl	a1,s0,a3
    8000ba40:	bd31                	j	8000b85c <__subtf3+0x542>
    8000ba42:	008a6f33          	or	t5,s4,s0
    8000ba46:	f80f1ae3          	bnez	t5,8000b9da <__subtf3+0x6c0>
    8000ba4a:	bd49                	j	8000b8dc <__subtf3+0x5c2>
    8000ba4c:	8552                	mv	a0,s4
    8000ba4e:	ffffb097          	auipc	ra,0xffffb
    8000ba52:	db0080e7          	jalr	-592(ra) # 800067fe <__clzdi2>
    8000ba56:	0405051b          	addiw	a0,a0,64
    8000ba5a:	b779                	j	8000b9e8 <__subtf3+0x6ce>
    8000ba5c:	fb45041b          	addiw	s0,a0,-76
    8000ba60:	008a1433          	sll	s0,s4,s0
    8000ba64:	4e81                	li	t4,0
    8000ba66:	b755                	j	8000ba0a <__subtf3+0x6f0>
    8000ba68:	fc198f1b          	addiw	t5,s3,-63
    8000ba6c:	04000713          	li	a4,64
    8000ba70:	01e45f33          	srl	t5,s0,t5
    8000ba74:	4601                	li	a2,0
    8000ba76:	00e68763          	beq	a3,a4,8000ba84 <__subtf3+0x76a>
    8000ba7a:	08000613          	li	a2,128
    8000ba7e:	9e15                	subw	a2,a2,a3
    8000ba80:	00c41633          	sll	a2,s0,a2
    8000ba84:	00cee633          	or	a2,t4,a2
    8000ba88:	00c03633          	snez	a2,a2
    8000ba8c:	00cf6f33          	or	t5,t5,a2
    8000ba90:	bd91                	j	8000b8e4 <__subtf3+0x5ca>
    8000ba92:	56fd                	li	a3,-1
    8000ba94:	16ce                	slli	a3,a3,0x33
    8000ba96:	16fd                	addi	a3,a3,-1
    8000ba98:	40c989b3          	sub	s3,s3,a2
    8000ba9c:	8ee1                	and	a3,a3,s0
    8000ba9e:	960991e3          	bnez	s3,8000b400 <__subtf3+0xe6>
    8000baa2:	85b6                	mv	a1,a3
    8000baa4:	8f76                	mv	t5,t4
    8000baa6:	bb5d                	j	8000b85c <__subtf3+0x542>
    8000baa8:	86ae                	mv	a3,a1
    8000baaa:	8efa                	mv	t4,t5
    8000baac:	bfcd                	j	8000ba9e <__subtf3+0x784>
    8000baae:	89c6                	mv	s3,a7
    8000bab0:	8972                	mv	s2,t3
    8000bab2:	b7f5                	j	8000ba9e <__subtf3+0x784>
    8000bab4:	85b6                	mv	a1,a3
    8000bab6:	8f76                	mv	t5,t4
    8000bab8:	bd21                	j	8000b8d0 <__subtf3+0x5b6>
    8000baba:	85be                	mv	a1,a5
    8000babc:	8f3a                	mv	t5,a4
    8000babe:	bb79                	j	8000b85c <__subtf3+0x542>
    8000bac0:	4785                	li	a5,1
    8000bac2:	dc091be3          	bnez	s2,8000b898 <__subtf3+0x57e>
    8000bac6:	ff863613          	sltiu	a2,a2,-8
    8000baca:	00164613          	xori	a2,a2,1
    8000bace:	9732                	add	a4,a4,a2
    8000bad0:	b3e1                	j	8000b898 <__subtf3+0x57e>
    8000bad2:	4785                	li	a5,1
    8000bad4:	dc0902e3          	beqz	s2,8000b898 <__subtf3+0x57e>
    8000bad8:	b7fd                	j	8000bac6 <__subtf3+0x7ac>
    8000bada:	4681                	li	a3,0
    8000badc:	4e81                	li	t4,0
    8000bade:	4781                	li	a5,0
    8000bae0:	b585                	j	8000b940 <__subtf3+0x626>
    8000bae2:	4681                	li	a3,0
    8000bae4:	4e81                	li	t4,0
    8000bae6:	89c6                	mv	s3,a7
    8000bae8:	bfdd                	j	8000bade <__subtf3+0x7c4>
    8000baea:	4681                	li	a3,0
    8000baec:	bfcd                	j	8000bade <__subtf3+0x7c4>
    8000baee:	4681                	li	a3,0
    8000baf0:	4e81                	li	t4,0
    8000baf2:	89c6                	mv	s3,a7
    8000baf4:	8972                	mv	s2,t3
    8000baf6:	b7e5                	j	8000bade <__subtf3+0x7c4>
    8000baf8:	4681                	li	a3,0
    8000bafa:	4981                	li	s3,0
    8000bafc:	b7cd                	j	8000bade <__subtf3+0x7c4>
    8000bafe:	00091763          	bnez	s2,8000bb0c <__subtf3+0x7f2>
    8000bb02:	008e8593          	addi	a1,t4,8
    8000bb06:	b6b5                	j	8000b672 <__subtf3+0x358>
    8000bb08:	fe091de3          	bnez	s2,8000bb02 <__subtf3+0x7e8>
    8000bb0c:	e2070ae3          	beqz	a4,8000b940 <__subtf3+0x626>
    8000bb10:	0027e793          	ori	a5,a5,2
    8000bb14:	b535                	j	8000b940 <__subtf3+0x626>
    8000bb16:	4e81                	li	t4,0
    8000bb18:	cc99                	beqz	s1,8000bb36 <__subtf3+0x81c>
    8000bb1a:	468d                	li	a3,3
    8000bb1c:	00d49863          	bne	s1,a3,8000bb2c <__subtf3+0x812>
    8000bb20:	00090b63          	beqz	s2,8000bb36 <__subtf3+0x81c>
    8000bb24:	5efd                	li	t4,-1
    8000bb26:	ffe70993          	addi	s3,a4,-2 # 7ffe <_stack_size-0x2>
    8000bb2a:	a031                	j	8000bb36 <__subtf3+0x81c>
    8000bb2c:	4689                	li	a3,2
    8000bb2e:	fed49be3          	bne	s1,a3,8000bb24 <__subtf3+0x80a>
    8000bb32:	fe0909e3          	beqz	s2,8000bb24 <__subtf3+0x80a>
    8000bb36:	0057e793          	ori	a5,a5,5
    8000bb3a:	86f6                	mv	a3,t4
    8000bb3c:	b505                	j	8000b95c <__subtf3+0x642>
    8000bb3e:	4781                	li	a5,0
    8000bb40:	dc6898e3          	bne	a7,t1,8000b910 <__subtf3+0x5f6>
    8000bb44:	b3e5                	j	8000b92c <__subtf3+0x612>
    8000bb46:	aa0508e3          	beqz	a0,8000b5f6 <__subtf3+0x2dc>
    8000bb4a:	b465                	j	8000b5f2 <__subtf3+0x2d8>
    8000bb4c:	ac689fe3          	bne	a7,t1,8000b62a <__subtf3+0x310>
    8000bb50:	bc4d                	j	8000b602 <__subtf3+0x2e8>

000000008000bb52 <__fixtfsi>:
    8000bb52:	002027f3          	frrm	a5
    8000bb56:	57fd                	li	a5,-1
    8000bb58:	00159693          	slli	a3,a1,0x1
    8000bb5c:	6611                	lui	a2,0x4
    8000bb5e:	83c1                	srli	a5,a5,0x10
    8000bb60:	92c5                	srli	a3,a3,0x31
    8000bb62:	ffe60713          	addi	a4,a2,-2 # 3ffe <_stack_size-0x4002>
    8000bb66:	8fed                	and	a5,a5,a1
    8000bb68:	91fd                	srli	a1,a1,0x3f
    8000bb6a:	00d74863          	blt	a4,a3,8000bb7a <__fixtfsi+0x28>
    8000bb6e:	e6a5                	bnez	a3,8000bbd6 <__fixtfsi+0x84>
    8000bb70:	8fc9                	or	a5,a5,a0
    8000bb72:	4701                	li	a4,0
    8000bb74:	efb9                	bnez	a5,8000bbd2 <__fixtfsi+0x80>
    8000bb76:	853a                	mv	a0,a4
    8000bb78:	8082                	ret
    8000bb7a:	01d60713          	addi	a4,a2,29
    8000bb7e:	02d75363          	ble	a3,a4,8000bba4 <__fixtfsi+0x52>
    8000bb82:	80000737          	lui	a4,0x80000
    8000bb86:	fff74713          	not	a4,a4
    8000bb8a:	9f2d                	addw	a4,a4,a1
    8000bb8c:	c5b9                	beqz	a1,8000bbda <__fixtfsi+0x88>
    8000bb8e:	01e60593          	addi	a1,a2,30
    8000bb92:	4641                	li	a2,16
    8000bb94:	04b69463          	bne	a3,a1,8000bbdc <__fixtfsi+0x8a>
    8000bb98:	0117d693          	srli	a3,a5,0x11
    8000bb9c:	e2a1                	bnez	a3,8000bbdc <__fixtfsi+0x8a>
    8000bb9e:	17be                	slli	a5,a5,0x2f
    8000bba0:	8fc9                	or	a5,a5,a0
    8000bba2:	bfc9                	j	8000bb74 <__fixtfsi+0x22>
    8000bba4:	4705                	li	a4,1
    8000bba6:	1742                	slli	a4,a4,0x30
    8000bba8:	8fd9                	or	a5,a5,a4
    8000bbaa:	7771                	lui	a4,0xffffc
    8000bbac:	2681                	sext.w	a3,a3
    8000bbae:	2745                	addiw	a4,a4,17
    8000bbb0:	9f35                	addw	a4,a4,a3
    8000bbb2:	00e79733          	sll	a4,a5,a4
    8000bbb6:	8d59                	or	a0,a0,a4
    8000bbb8:	6711                	lui	a4,0x4
    8000bbba:	02f7071b          	addiw	a4,a4,47
    8000bbbe:	40d706bb          	subw	a3,a4,a3
    8000bbc2:	00d7d7b3          	srl	a5,a5,a3
    8000bbc6:	0007871b          	sext.w	a4,a5
    8000bbca:	c199                	beqz	a1,8000bbd0 <__fixtfsi+0x7e>
    8000bbcc:	40e0073b          	negw	a4,a4
    8000bbd0:	d15d                	beqz	a0,8000bb76 <__fixtfsi+0x24>
    8000bbd2:	4605                	li	a2,1
    8000bbd4:	a021                	j	8000bbdc <__fixtfsi+0x8a>
    8000bbd6:	4701                	li	a4,0
    8000bbd8:	bfed                	j	8000bbd2 <__fixtfsi+0x80>
    8000bbda:	4641                	li	a2,16
    8000bbdc:	00162073          	csrs	fflags,a2
    8000bbe0:	bf59                	j	8000bb76 <__fixtfsi+0x24>

000000008000bbe2 <__floatsitf>:
    8000bbe2:	1101                	addi	sp,sp,-32
    8000bbe4:	ec06                	sd	ra,24(sp)
    8000bbe6:	e822                	sd	s0,16(sp)
    8000bbe8:	e426                	sd	s1,8(sp)
    8000bbea:	cd39                	beqz	a0,8000bc48 <__floatsitf+0x66>
    8000bbec:	0005079b          	sext.w	a5,a0
    8000bbf0:	03f55493          	srli	s1,a0,0x3f
    8000bbf4:	00055463          	bgez	a0,8000bbfc <__floatsitf+0x1a>
    8000bbf8:	40f007bb          	negw	a5,a5
    8000bbfc:	02079413          	slli	s0,a5,0x20
    8000bc00:	9001                	srli	s0,s0,0x20
    8000bc02:	8522                	mv	a0,s0
    8000bc04:	ffffb097          	auipc	ra,0xffffb
    8000bc08:	bfa080e7          	jalr	-1030(ra) # 800067fe <__clzdi2>
    8000bc0c:	6691                	lui	a3,0x4
    8000bc0e:	03e6879b          	addiw	a5,a3,62
    8000bc12:	40a7873b          	subw	a4,a5,a0
    8000bc16:	02f6869b          	addiw	a3,a3,47
    8000bc1a:	9e99                	subw	a3,a3,a4
    8000bc1c:	00d417b3          	sll	a5,s0,a3
    8000bc20:	6621                	lui	a2,0x8
    8000bc22:	56fd                	li	a3,-1
    8000bc24:	167d                	addi	a2,a2,-1
    8000bc26:	0106d413          	srli	s0,a3,0x10
    8000bc2a:	8f71                	and	a4,a4,a2
    8000bc2c:	8fe1                	and	a5,a5,s0
    8000bc2e:	60e2                	ld	ra,24(sp)
    8000bc30:	6442                	ld	s0,16(sp)
    8000bc32:	1742                	slli	a4,a4,0x30
    8000bc34:	8fd9                	or	a5,a5,a4
    8000bc36:	8285                	srli	a3,a3,0x1
    8000bc38:	03f49593          	slli	a1,s1,0x3f
    8000bc3c:	8ff5                	and	a5,a5,a3
    8000bc3e:	64a2                	ld	s1,8(sp)
    8000bc40:	4501                	li	a0,0
    8000bc42:	8ddd                	or	a1,a1,a5
    8000bc44:	6105                	addi	sp,sp,32
    8000bc46:	8082                	ret
    8000bc48:	4781                	li	a5,0
    8000bc4a:	4701                	li	a4,0
    8000bc4c:	4481                	li	s1,0
    8000bc4e:	bfc9                	j	8000bc20 <__floatsitf+0x3e>

000000008000bc50 <__extenddftf2>:
    8000bc50:	1101                	addi	sp,sp,-32
    8000bc52:	ec06                	sd	ra,24(sp)
    8000bc54:	e822                	sd	s0,16(sp)
    8000bc56:	e426                	sd	s1,8(sp)
    8000bc58:	002027f3          	frrm	a5
    8000bc5c:	03455713          	srli	a4,a0,0x34
    8000bc60:	7ff77713          	andi	a4,a4,2047
    8000bc64:	547d                	li	s0,-1
    8000bc66:	00170793          	addi	a5,a4,1 # 4001 <_stack_size-0x3fff>
    8000bc6a:	8031                	srli	s0,s0,0xc
    8000bc6c:	7fe7f793          	andi	a5,a5,2046
    8000bc70:	8c69                	and	s0,s0,a0
    8000bc72:	03f55493          	srli	s1,a0,0x3f
    8000bc76:	cb91                	beqz	a5,8000bc8a <__extenddftf2+0x3a>
    8000bc78:	6791                	lui	a5,0x4
    8000bc7a:	c0078793          	addi	a5,a5,-1024 # 3c00 <_stack_size-0x4400>
    8000bc7e:	973e                	add	a4,a4,a5
    8000bc80:	00445793          	srli	a5,s0,0x4
    8000bc84:	1472                	slli	s0,s0,0x3c
    8000bc86:	4681                	li	a3,0
    8000bc88:	a085                	j	8000bce8 <__extenddftf2+0x98>
    8000bc8a:	e321                	bnez	a4,8000bcca <__extenddftf2+0x7a>
    8000bc8c:	4781                	li	a5,0
    8000bc8e:	dc65                	beqz	s0,8000bc86 <__extenddftf2+0x36>
    8000bc90:	8522                	mv	a0,s0
    8000bc92:	ffffb097          	auipc	ra,0xffffb
    8000bc96:	b6c080e7          	jalr	-1172(ra) # 800067fe <__clzdi2>
    8000bc9a:	0005071b          	sext.w	a4,a0
    8000bc9e:	47b9                	li	a5,14
    8000bca0:	00e7cf63          	blt	a5,a4,8000bcbe <__extenddftf2+0x6e>
    8000bca4:	47bd                	li	a5,15
    8000bca6:	9f89                	subw	a5,a5,a0
    8000bca8:	0315071b          	addiw	a4,a0,49
    8000bcac:	00f457b3          	srl	a5,s0,a5
    8000bcb0:	00e41433          	sll	s0,s0,a4
    8000bcb4:	6711                	lui	a4,0x4
    8000bcb6:	c0c7071b          	addiw	a4,a4,-1012
    8000bcba:	9f09                	subw	a4,a4,a0
    8000bcbc:	b7e9                	j	8000bc86 <__extenddftf2+0x36>
    8000bcbe:	ff15079b          	addiw	a5,a0,-15
    8000bcc2:	00f417b3          	sll	a5,s0,a5
    8000bcc6:	4401                	li	s0,0
    8000bcc8:	b7f5                	j	8000bcb4 <__extenddftf2+0x64>
    8000bcca:	c429                	beqz	s0,8000bd14 <__extenddftf2+0xc4>
    8000bccc:	4705                	li	a4,1
    8000bcce:	03371693          	slli	a3,a4,0x33
    8000bcd2:	8ee1                	and	a3,a3,s0
    8000bcd4:	00445793          	srli	a5,s0,0x4
    8000bcd8:	173e                	slli	a4,a4,0x2f
    8000bcda:	0016b693          	seqz	a3,a3
    8000bcde:	8fd9                	or	a5,a5,a4
    8000bce0:	6721                	lui	a4,0x8
    8000bce2:	0692                	slli	a3,a3,0x4
    8000bce4:	1472                	slli	s0,s0,0x3c
    8000bce6:	177d                	addi	a4,a4,-1
    8000bce8:	6521                	lui	a0,0x8
    8000bcea:	567d                	li	a2,-1
    8000bcec:	157d                	addi	a0,a0,-1
    8000bcee:	01065593          	srli	a1,a2,0x10
    8000bcf2:	8f69                	and	a4,a4,a0
    8000bcf4:	1742                	slli	a4,a4,0x30
    8000bcf6:	8dfd                	and	a1,a1,a5
    8000bcf8:	8dd9                	or	a1,a1,a4
    8000bcfa:	8205                	srli	a2,a2,0x1
    8000bcfc:	14fe                	slli	s1,s1,0x3f
    8000bcfe:	8df1                	and	a1,a1,a2
    8000bd00:	8dc5                	or	a1,a1,s1
    8000bd02:	c299                	beqz	a3,8000bd08 <__extenddftf2+0xb8>
    8000bd04:	0016a073          	csrs	fflags,a3
    8000bd08:	8522                	mv	a0,s0
    8000bd0a:	60e2                	ld	ra,24(sp)
    8000bd0c:	6442                	ld	s0,16(sp)
    8000bd0e:	64a2                	ld	s1,8(sp)
    8000bd10:	6105                	addi	sp,sp,32
    8000bd12:	8082                	ret
    8000bd14:	6721                	lui	a4,0x8
    8000bd16:	4781                	li	a5,0
    8000bd18:	177d                	addi	a4,a4,-1
    8000bd1a:	b7b5                	j	8000bc86 <__extenddftf2+0x36>

000000008000bd1c <__trunctfdf2>:
    8000bd1c:	002026f3          	frrm	a3
    8000bd20:	57fd                	li	a5,-1
    8000bd22:	68a1                	lui	a7,0x8
    8000bd24:	83c1                	srli	a5,a5,0x10
    8000bd26:	0305d713          	srli	a4,a1,0x30
    8000bd2a:	fff88813          	addi	a6,a7,-1 # 7fff <_stack_size-0x1>
    8000bd2e:	03f5d613          	srli	a2,a1,0x3f
    8000bd32:	8dfd                	and	a1,a1,a5
    8000bd34:	00359793          	slli	a5,a1,0x3
    8000bd38:	01077733          	and	a4,a4,a6
    8000bd3c:	03d55593          	srli	a1,a0,0x3d
    8000bd40:	8ddd                	or	a1,a1,a5
    8000bd42:	18f9                	addi	a7,a7,-2
    8000bd44:	00170793          	addi	a5,a4,1 # 8001 <_stack_size+0x1>
    8000bd48:	0117f8b3          	and	a7,a5,a7
    8000bd4c:	2681                	sext.w	a3,a3
    8000bd4e:	00351e93          	slli	t4,a0,0x3
    8000bd52:	16088b63          	beqz	a7,8000bec8 <__trunctfdf2+0x1ac>
    8000bd56:	7e71                	lui	t3,0xffffc
    8000bd58:	400e0e13          	addi	t3,t3,1024 # ffffffffffffc400 <_trapsp0+0xffffffff7ffc73c0>
    8000bd5c:	9e3a                	add	t3,t3,a4
    8000bd5e:	7fe00793          	li	a5,2046
    8000bd62:	09c7db63          	ble	t3,a5,8000bdf8 <__trunctfdf2+0xdc>
    8000bd66:	c2a9                	beqz	a3,8000bda8 <__trunctfdf2+0x8c>
    8000bd68:	478d                	li	a5,3
    8000bd6a:	02f69b63          	bne	a3,a5,8000bda0 <__trunctfdf2+0x84>
    8000bd6e:	ce0d                	beqz	a2,8000bda8 <__trunctfdf2+0x8c>
    8000bd70:	57fd                	li	a5,-1
    8000bd72:	7fe00e13          	li	t3,2046
    8000bd76:	4701                	li	a4,0
    8000bd78:	4895                	li	a7,5
    8000bd7a:	4589                	li	a1,2
    8000bd7c:	0018e893          	ori	a7,a7,1
    8000bd80:	18b68f63          	beq	a3,a1,8000bf1e <__trunctfdf2+0x202>
    8000bd84:	458d                	li	a1,3
    8000bd86:	18b68863          	beq	a3,a1,8000bf16 <__trunctfdf2+0x1fa>
    8000bd8a:	e699                	bnez	a3,8000bd98 <__trunctfdf2+0x7c>
    8000bd8c:	00f7f593          	andi	a1,a5,15
    8000bd90:	4511                	li	a0,4
    8000bd92:	00a58363          	beq	a1,a0,8000bd98 <__trunctfdf2+0x7c>
    8000bd96:	0791                	addi	a5,a5,4
    8000bd98:	cf01                	beqz	a4,8000bdb0 <__trunctfdf2+0x94>
    8000bd9a:	0028e893          	ori	a7,a7,2
    8000bd9e:	a809                	j	8000bdb0 <__trunctfdf2+0x94>
    8000bda0:	4789                	li	a5,2
    8000bda2:	fcf697e3          	bne	a3,a5,8000bd70 <__trunctfdf2+0x54>
    8000bda6:	d669                	beqz	a2,8000bd70 <__trunctfdf2+0x54>
    8000bda8:	4781                	li	a5,0
    8000bdaa:	7ff00e13          	li	t3,2047
    8000bdae:	4895                	li	a7,5
    8000bdb0:	00879713          	slli	a4,a5,0x8
    8000bdb4:	00075b63          	bgez	a4,8000bdca <__trunctfdf2+0xae>
    8000bdb8:	0e05                	addi	t3,t3,1
    8000bdba:	7ff00713          	li	a4,2047
    8000bdbe:	16ee0363          	beq	t3,a4,8000bf24 <__trunctfdf2+0x208>
    8000bdc2:	56fd                	li	a3,-1
    8000bdc4:	16de                	slli	a3,a3,0x37
    8000bdc6:	16fd                	addi	a3,a3,-1
    8000bdc8:	8ff5                	and	a5,a5,a3
    8000bdca:	7ff00713          	li	a4,2047
    8000bdce:	838d                	srli	a5,a5,0x3
    8000bdd0:	00ee1663          	bne	t3,a4,8000bddc <__trunctfdf2+0xc0>
    8000bdd4:	c781                	beqz	a5,8000bddc <__trunctfdf2+0xc0>
    8000bdd6:	4785                	li	a5,1
    8000bdd8:	17ce                	slli	a5,a5,0x33
    8000bdda:	4601                	li	a2,0
    8000bddc:	577d                	li	a4,-1
    8000bdde:	7ffe7513          	andi	a0,t3,2047
    8000bde2:	8331                	srli	a4,a4,0xc
    8000bde4:	1552                	slli	a0,a0,0x34
    8000bde6:	8ff9                	and	a5,a5,a4
    8000bde8:	167e                	slli	a2,a2,0x3f
    8000bdea:	8d5d                	or	a0,a0,a5
    8000bdec:	8d51                	or	a0,a0,a2
    8000bdee:	14088c63          	beqz	a7,8000bf46 <__trunctfdf2+0x22a>
    8000bdf2:	0018a073          	csrs	fflags,a7
    8000bdf6:	8082                	ret
    8000bdf8:	0bc04363          	bgtz	t3,8000be9e <__trunctfdf2+0x182>
    8000bdfc:	fcc00793          	li	a5,-52
    8000be00:	0efe4f63          	blt	t3,a5,8000befe <__trunctfdf2+0x1e2>
    8000be04:	4785                	li	a5,1
    8000be06:	17ce                	slli	a5,a5,0x33
    8000be08:	03d00313          	li	t1,61
    8000be0c:	8ddd                	or	a1,a1,a5
    8000be0e:	41c30333          	sub	t1,t1,t3
    8000be12:	03f00793          	li	a5,63
    8000be16:	000e051b          	sext.w	a0,t3
    8000be1a:	0467cd63          	blt	a5,t1,8000be74 <__trunctfdf2+0x158>
    8000be1e:	0035081b          	addiw	a6,a0,3
    8000be22:	03d00713          	li	a4,61
    8000be26:	9f09                	subw	a4,a4,a0
    8000be28:	010e97b3          	sll	a5,t4,a6
    8000be2c:	00eed733          	srl	a4,t4,a4
    8000be30:	00f037b3          	snez	a5,a5
    8000be34:	8fd9                	or	a5,a5,a4
    8000be36:	010595b3          	sll	a1,a1,a6
    8000be3a:	8fcd                	or	a5,a5,a1
    8000be3c:	4e01                	li	t3,0
    8000be3e:	cbf1                	beqz	a5,8000bf12 <__trunctfdf2+0x1f6>
    8000be40:	00179713          	slli	a4,a5,0x1
    8000be44:	00777593          	andi	a1,a4,7
    8000be48:	4881                	li	a7,0
    8000be4a:	cd99                	beqz	a1,8000be68 <__trunctfdf2+0x14c>
    8000be4c:	4589                	li	a1,2
    8000be4e:	0ab68d63          	beq	a3,a1,8000bf08 <__trunctfdf2+0x1ec>
    8000be52:	458d                	li	a1,3
    8000be54:	4885                	li	a7,1
    8000be56:	0ab68663          	beq	a3,a1,8000bf02 <__trunctfdf2+0x1e6>
    8000be5a:	e699                	bnez	a3,8000be68 <__trunctfdf2+0x14c>
    8000be5c:	00f77593          	andi	a1,a4,15
    8000be60:	4511                	li	a0,4
    8000be62:	00a58363          	beq	a1,a0,8000be68 <__trunctfdf2+0x14c>
    8000be66:	0711                	addi	a4,a4,4
    8000be68:	9361                	srli	a4,a4,0x38
    8000be6a:	00174713          	xori	a4,a4,1
    8000be6e:	8b05                	andi	a4,a4,1
    8000be70:	4e01                	li	t3,0
    8000be72:	a091                	j	8000beb6 <__trunctfdf2+0x19a>
    8000be74:	58f5                	li	a7,-3
    8000be76:	40a888bb          	subw	a7,a7,a0
    8000be7a:	04000793          	li	a5,64
    8000be7e:	0115d8b3          	srl	a7,a1,a7
    8000be82:	4801                	li	a6,0
    8000be84:	00f30663          	beq	t1,a5,8000be90 <__trunctfdf2+0x174>
    8000be88:	0435071b          	addiw	a4,a0,67
    8000be8c:	00e59833          	sll	a6,a1,a4
    8000be90:	01d86833          	or	a6,a6,t4
    8000be94:	01003833          	snez	a6,a6
    8000be98:	0108e7b3          	or	a5,a7,a6
    8000be9c:	b745                	j	8000be3c <__trunctfdf2+0x120>
    8000be9e:	00751793          	slli	a5,a0,0x7
    8000bea2:	00f037b3          	snez	a5,a5
    8000bea6:	03ced813          	srli	a6,t4,0x3c
    8000beaa:	0107e7b3          	or	a5,a5,a6
    8000beae:	0592                	slli	a1,a1,0x4
    8000beb0:	8fcd                	or	a5,a5,a1
    8000beb2:	4701                	li	a4,0
    8000beb4:	4881                	li	a7,0
    8000beb6:	0077f593          	andi	a1,a5,7
    8000beba:	ec0590e3          	bnez	a1,8000bd7a <__trunctfdf2+0x5e>
    8000bebe:	ee0709e3          	beqz	a4,8000bdb0 <__trunctfdf2+0x94>
    8000bec2:	0018f713          	andi	a4,a7,1
    8000bec6:	bdc9                	j	8000bd98 <__trunctfdf2+0x7c>
    8000bec8:	01d5e7b3          	or	a5,a1,t4
    8000becc:	e701                	bnez	a4,8000bed4 <__trunctfdf2+0x1b8>
    8000bece:	00f037b3          	snez	a5,a5
    8000bed2:	b7ad                	j	8000be3c <__trunctfdf2+0x120>
    8000bed4:	cf8d                	beqz	a5,8000bf0e <__trunctfdf2+0x1f2>
    8000bed6:	4881                	li	a7,0
    8000bed8:	01071763          	bne	a4,a6,8000bee6 <__trunctfdf2+0x1ca>
    8000bedc:	0325d893          	srli	a7,a1,0x32
    8000bee0:	0018b893          	seqz	a7,a7
    8000bee4:	0892                	slli	a7,a7,0x4
    8000bee6:	03ced793          	srli	a5,t4,0x3c
    8000beea:	0592                	slli	a1,a1,0x4
    8000beec:	8ddd                	or	a1,a1,a5
    8000beee:	4785                	li	a5,1
    8000bef0:	99e1                	andi	a1,a1,-8
    8000bef2:	17da                	slli	a5,a5,0x36
    8000bef4:	8fcd                	or	a5,a5,a1
    8000bef6:	7ff00e13          	li	t3,2047
    8000befa:	4701                	li	a4,0
    8000befc:	bf6d                	j	8000beb6 <__trunctfdf2+0x19a>
    8000befe:	4785                	li	a5,1
    8000bf00:	b781                	j	8000be40 <__trunctfdf2+0x124>
    8000bf02:	f23d                	bnez	a2,8000be68 <__trunctfdf2+0x14c>
    8000bf04:	0721                	addi	a4,a4,8
    8000bf06:	b78d                	j	8000be68 <__trunctfdf2+0x14c>
    8000bf08:	4885                	li	a7,1
    8000bf0a:	de39                	beqz	a2,8000be68 <__trunctfdf2+0x14c>
    8000bf0c:	bfe5                	j	8000bf04 <__trunctfdf2+0x1e8>
    8000bf0e:	7ff00e13          	li	t3,2047
    8000bf12:	4881                	li	a7,0
    8000bf14:	bd71                	j	8000bdb0 <__trunctfdf2+0x94>
    8000bf16:	e80611e3          	bnez	a2,8000bd98 <__trunctfdf2+0x7c>
    8000bf1a:	07a1                	addi	a5,a5,8
    8000bf1c:	bdb5                	j	8000bd98 <__trunctfdf2+0x7c>
    8000bf1e:	e6060de3          	beqz	a2,8000bd98 <__trunctfdf2+0x7c>
    8000bf22:	bfe5                	j	8000bf1a <__trunctfdf2+0x1fe>
    8000bf24:	4781                	li	a5,0
    8000bf26:	ce89                	beqz	a3,8000bf40 <__trunctfdf2+0x224>
    8000bf28:	470d                	li	a4,3
    8000bf2a:	00e69763          	bne	a3,a4,8000bf38 <__trunctfdf2+0x21c>
    8000bf2e:	ca09                	beqz	a2,8000bf40 <__trunctfdf2+0x224>
    8000bf30:	57fd                	li	a5,-1
    8000bf32:	7fe00e13          	li	t3,2046
    8000bf36:	a029                	j	8000bf40 <__trunctfdf2+0x224>
    8000bf38:	4709                	li	a4,2
    8000bf3a:	fee69be3          	bne	a3,a4,8000bf30 <__trunctfdf2+0x214>
    8000bf3e:	da6d                	beqz	a2,8000bf30 <__trunctfdf2+0x214>
    8000bf40:	0058e893          	ori	a7,a7,5
    8000bf44:	b559                	j	8000bdca <__trunctfdf2+0xae>
    8000bf46:	8082                	ret
