
system.elf:     file format elf64-littleriscv


Disassembly of section .text:

0000000080000000 <_start>:
    80000000:	a821                	j	80000018 <g_wake_up+0x10>
    80000002:	deadbeef          	jal	t4,7ffdb5ec <_stack_size+0x7ffd35ec>
    80000006:	0001                	nop

0000000080000008 <g_wake_up>:
    80000008:	0001                	nop
	...
    80000016:	0000                	unimp
    80000018:	30305073          	csrwi	mideleg,0
    8000001c:	30205073          	csrwi	medeleg,0
    80000020:	30405073          	csrwi	mie,0
    80000024:	34405073          	csrwi	mip,0
    80000028:	00003297          	auipc	t0,0x3
    8000002c:	1cc28293          	addi	t0,t0,460 # 800031f4 <machine_trap_entry>
    80000030:	30529073          	csrw	mtvec,t0
    80000034:	00000293          	li	t0,0
    80000038:	10529073          	csrw	stvec,t0
    8000003c:	4081                	li	ra,0
    8000003e:	4101                	li	sp,0
    80000040:	4181                	li	gp,0
    80000042:	4201                	li	tp,0
    80000044:	4281                	li	t0,0
    80000046:	4301                	li	t1,0
    80000048:	4381                	li	t2,0
    8000004a:	4401                	li	s0,0
    8000004c:	4481                	li	s1,0
    8000004e:	4501                	li	a0,0
    80000050:	4581                	li	a1,0
    80000052:	4601                	li	a2,0
    80000054:	4681                	li	a3,0
    80000056:	4701                	li	a4,0
    80000058:	4781                	li	a5,0
    8000005a:	4801                	li	a6,0
    8000005c:	4881                	li	a7,0
    8000005e:	4901                	li	s2,0
    80000060:	4981                	li	s3,0
    80000062:	4a01                	li	s4,0
    80000064:	4a81                	li	s5,0
    80000066:	4b01                	li	s6,0
    80000068:	4b81                	li	s7,0
    8000006a:	4c01                	li	s8,0
    8000006c:	4c81                	li	s9,0
    8000006e:	4d01                	li	s10,0
    80000070:	4d81                	li	s11,0
    80000072:	4e01                	li	t3,0
    80000074:	4e81                	li	t4,0
    80000076:	4f01                	li	t5,0
    80000078:	4f81                	li	t6,0
    8000007a:	6299                	lui	t0,0x6
    8000007c:	3002a073          	csrs	mstatus,t0
    80000080:	00301073          	fssr	zero
    80000084:	f0000053          	fmv.w.x	ft0,zero
    80000088:	f00000d3          	fmv.w.x	ft1,zero
    8000008c:	f0000153          	fmv.w.x	ft2,zero
    80000090:	f00001d3          	fmv.w.x	ft3,zero
    80000094:	f0000253          	fmv.w.x	ft4,zero
    80000098:	f00002d3          	fmv.w.x	ft5,zero
    8000009c:	f0000353          	fmv.w.x	ft6,zero
    800000a0:	f00003d3          	fmv.w.x	ft7,zero
    800000a4:	f0000453          	fmv.w.x	fs0,zero
    800000a8:	f00004d3          	fmv.w.x	fs1,zero
    800000ac:	f0000553          	fmv.w.x	fa0,zero
    800000b0:	f00005d3          	fmv.w.x	fa1,zero
    800000b4:	f0000653          	fmv.w.x	fa2,zero
    800000b8:	f00006d3          	fmv.w.x	fa3,zero
    800000bc:	f0000753          	fmv.w.x	fa4,zero
    800000c0:	f00007d3          	fmv.w.x	fa5,zero
    800000c4:	f0000853          	fmv.w.x	fa6,zero
    800000c8:	f00008d3          	fmv.w.x	fa7,zero
    800000cc:	f0000953          	fmv.w.x	fs2,zero
    800000d0:	f00009d3          	fmv.w.x	fs3,zero
    800000d4:	f0000a53          	fmv.w.x	fs4,zero
    800000d8:	f0000ad3          	fmv.w.x	fs5,zero
    800000dc:	f0000b53          	fmv.w.x	fs6,zero
    800000e0:	f0000bd3          	fmv.w.x	fs7,zero
    800000e4:	f0000c53          	fmv.w.x	fs8,zero
    800000e8:	f0000cd3          	fmv.w.x	fs9,zero
    800000ec:	f0000d53          	fmv.w.x	fs10,zero
    800000f0:	f0000dd3          	fmv.w.x	fs11,zero
    800000f4:	f0000e53          	fmv.w.x	ft8,zero
    800000f8:	f0000ed3          	fmv.w.x	ft9,zero
    800000fc:	f0000f53          	fmv.w.x	ft10,zero
    80000100:	f0000fd3          	fmv.w.x	ft11,zero
    80000104:	00012197          	auipc	gp,0x12
    80000108:	13c18193          	addi	gp,gp,316 # 80012240 <__global_pointer$>
    8000010c:	00027217          	auipc	tp,0x27
    80000110:	77320213          	addi	tp,tp,1907 # 8002787f <_end+0x3f>
    80000114:	fc027213          	andi	tp,tp,-64
    80000118:	f1402573          	csrr	a0,mhartid
    8000011c:	00150113          	addi	sp,a0,1
    80000120:	013e                	slli	sp,sp,0xf
    80000122:	9112                	add	sp,sp,tp
    80000124:	4e00206f          	j	80002604 <entry>
    80000128:	0000                	unimp
	...

000000008000012c <bitscan>:
    8000012c:	4781                	li	a5,0
    8000012e:	04000713          	li	a4,64
    80000132:	00157693          	andi	a3,a0,1
    80000136:	c299                	beqz	a3,8000013c <bitscan+0x10>
    80000138:	853e                	mv	a0,a5
    8000013a:	8082                	ret
    8000013c:	2785                	addiw	a5,a5,1
    8000013e:	8105                	srli	a0,a0,0x1
    80000140:	fee799e3          	bne	a5,a4,80000132 <bitscan+0x6>
    80000144:	557d                	li	a0,-1
    80000146:	8082                	ret

0000000080000148 <get_reculock>:
    80000148:	00012697          	auipc	a3,0x12
    8000014c:	ef068693          	addi	a3,a3,-272 # 80012038 <reculock>
    80000150:	4781                	li	a5,0
    80000152:	8736                	mv	a4,a3
    80000154:	40000613          	li	a2,1024
    80000158:	628c                	ld	a1,0(a3)
    8000015a:	00a59a63          	bne	a1,a0,8000016e <get_reculock+0x26>
    8000015e:	1782                	slli	a5,a5,0x20
    80000160:	4561                	li	a0,24
    80000162:	9381                	srli	a5,a5,0x20
    80000164:	02a787b3          	mul	a5,a5,a0
    80000168:	00f70533          	add	a0,a4,a5
    8000016c:	8082                	ret
    8000016e:	2785                	addiw	a5,a5,1
    80000170:	06e1                	addi	a3,a3,24
    80000172:	fec793e3          	bne	a5,a2,80000158 <get_reculock+0x10>
    80000176:	4501                	li	a0,0
    80000178:	8082                	ret

000000008000017a <reculock_init>:
    8000017a:	00012697          	auipc	a3,0x12
    8000017e:	ebe68693          	addi	a3,a3,-322 # 80012038 <reculock>
    80000182:	4781                	li	a5,0
    80000184:	8736                	mv	a4,a3
    80000186:	40000613          	li	a2,1024
    8000018a:	628c                	ld	a1,0(a3)
    8000018c:	ed91                	bnez	a1,800001a8 <reculock_init+0x2e>
    8000018e:	1782                	slli	a5,a5,0x20
    80000190:	9381                	srli	a5,a5,0x20
    80000192:	46e1                	li	a3,24
    80000194:	02d787b3          	mul	a5,a5,a3
    80000198:	97ba                	add	a5,a5,a4
    8000019a:	e388                	sd	a0,0(a5)
    8000019c:	0007b423          	sd	zero,8(a5)
    800001a0:	0007b823          	sd	zero,16(a5)
    800001a4:	853e                	mv	a0,a5
    800001a6:	8082                	ret
    800001a8:	2785                	addiw	a5,a5,1
    800001aa:	06e1                	addi	a3,a3,24
    800001ac:	fcc79fe3          	bne	a5,a2,8000018a <reculock_init+0x10>
    800001b0:	4781                	li	a5,0
    800001b2:	bfcd                	j	800001a4 <reculock_init+0x2a>

00000000800001b4 <lock_unlock>:
    800001b4:	0ff0000f          	fence
    800001b8:	4701                	li	a4,0
    800001ba:	0ce5372f          	amoswap.d.aq	a4,a4,(a0)
    800001be:	0001                	nop
    800001c0:	8082                	ret

00000000800001c2 <lock_lock>:
    800001c2:	577d                	li	a4,-1
    800001c4:	87ba                	mv	a5,a4
    800001c6:	0cf537af          	amoswap.d.aq	a5,a5,(a0)
    800001ca:	0ff0000f          	fence
    800001ce:	fbfd                	bnez	a5,800001c4 <lock_lock+0x2>
    800001d0:	8082                	ret

00000000800001d2 <show_error>:
    800001d2:	05d00893          	li	a7,93
    800001d6:	4501                	li	a0,0
    800001d8:	4581                	li	a1,0
    800001da:	4601                	li	a2,0
    800001dc:	00000073          	ecall
    800001e0:	8082                	ret

00000000800001e2 <reculock_trylock>:
    800001e2:	1101                	addi	sp,sp,-32
    800001e4:	e822                	sd	s0,16(sp)
    800001e6:	e04a                	sd	s2,0(sp)
    800001e8:	ec06                	sd	ra,24(sp)
    800001ea:	e426                	sd	s1,8(sp)
    800001ec:	842a                	mv	s0,a0
    800001ee:	00002097          	auipc	ra,0x2
    800001f2:	1cc080e7          	jalr	460(ra) # 800023ba <core_get_readonly_info>
    800001f6:	00853903          	ld	s2,8(a0)
    800001fa:	57fd                	li	a5,-1
    800001fc:	0cf437af          	amoswap.d.aq	a5,a5,(s0)
    80000200:	0ff0000f          	fence
    80000204:	e3bd                	bnez	a5,8000026a <reculock_trylock+0x88>
    80000206:	8522                	mv	a0,s0
    80000208:	00000097          	auipc	ra,0x0
    8000020c:	f40080e7          	jalr	-192(ra) # 80000148 <get_reculock>
    80000210:	e11d                	bnez	a0,80000236 <reculock_trylock+0x54>
    80000212:	8522                	mv	a0,s0
    80000214:	00000097          	auipc	ra,0x0
    80000218:	f66080e7          	jalr	-154(ra) # 8000017a <reculock_init>
    8000021c:	ed09                	bnez	a0,80000236 <reculock_trylock+0x54>
    8000021e:	8522                	mv	a0,s0
    80000220:	00000097          	auipc	ra,0x0
    80000224:	f94080e7          	jalr	-108(ra) # 800001b4 <lock_unlock>
    80000228:	00000097          	auipc	ra,0x0
    8000022c:	faa080e7          	jalr	-86(ra) # 800001d2 <show_error>
    80000230:	00803783          	ld	a5,8(zero) # 8 <_stack_size-0x7ff8>
    80000234:	9002                	ebreak
    80000236:	651c                	ld	a5,8(a0)
    80000238:	e395                	bnez	a5,8000025c <reculock_trylock+0x7a>
    8000023a:	4785                	li	a5,1
    8000023c:	e51c                	sd	a5,8(a0)
    8000023e:	01253823          	sd	s2,16(a0)
    80000242:	4481                	li	s1,0
    80000244:	8522                	mv	a0,s0
    80000246:	00000097          	auipc	ra,0x0
    8000024a:	f6e080e7          	jalr	-146(ra) # 800001b4 <lock_unlock>
    8000024e:	60e2                	ld	ra,24(sp)
    80000250:	6442                	ld	s0,16(sp)
    80000252:	8526                	mv	a0,s1
    80000254:	6902                	ld	s2,0(sp)
    80000256:	64a2                	ld	s1,8(sp)
    80000258:	6105                	addi	sp,sp,32
    8000025a:	8082                	ret
    8000025c:	6918                	ld	a4,16(a0)
    8000025e:	54fd                	li	s1,-1
    80000260:	ff2712e3          	bne	a4,s2,80000244 <reculock_trylock+0x62>
    80000264:	0785                	addi	a5,a5,1
    80000266:	e51c                	sd	a5,8(a0)
    80000268:	bfe9                	j	80000242 <reculock_trylock+0x60>
    8000026a:	54fd                	li	s1,-1
    8000026c:	b7cd                	j	8000024e <reculock_trylock+0x6c>

000000008000026e <_lock_acquire_recursive>:
    8000026e:	1101                	addi	sp,sp,-32
    80000270:	ec06                	sd	ra,24(sp)
    80000272:	e822                	sd	s0,16(sp)
    80000274:	e426                	sd	s1,8(sp)
    80000276:	842a                	mv	s0,a0
    80000278:	00002097          	auipc	ra,0x2
    8000027c:	142080e7          	jalr	322(ra) # 800023ba <core_get_readonly_info>
    80000280:	6504                	ld	s1,8(a0)
    80000282:	8522                	mv	a0,s0
    80000284:	00000097          	auipc	ra,0x0
    80000288:	f3e080e7          	jalr	-194(ra) # 800001c2 <lock_lock>
    8000028c:	8522                	mv	a0,s0
    8000028e:	00000097          	auipc	ra,0x0
    80000292:	eba080e7          	jalr	-326(ra) # 80000148 <get_reculock>
    80000296:	e11d                	bnez	a0,800002bc <_lock_acquire_recursive+0x4e>
    80000298:	8522                	mv	a0,s0
    8000029a:	00000097          	auipc	ra,0x0
    8000029e:	ee0080e7          	jalr	-288(ra) # 8000017a <reculock_init>
    800002a2:	ed09                	bnez	a0,800002bc <_lock_acquire_recursive+0x4e>
    800002a4:	8522                	mv	a0,s0
    800002a6:	00000097          	auipc	ra,0x0
    800002aa:	f0e080e7          	jalr	-242(ra) # 800001b4 <lock_unlock>
    800002ae:	00000097          	auipc	ra,0x0
    800002b2:	f24080e7          	jalr	-220(ra) # 800001d2 <show_error>
    800002b6:	00803783          	ld	a5,8(zero) # 8 <_stack_size-0x7ff8>
    800002ba:	9002                	ebreak
    800002bc:	651c                	ld	a5,8(a0)
    800002be:	ef89                	bnez	a5,800002d8 <_lock_acquire_recursive+0x6a>
    800002c0:	4785                	li	a5,1
    800002c2:	e51c                	sd	a5,8(a0)
    800002c4:	e904                	sd	s1,16(a0)
    800002c6:	8522                	mv	a0,s0
    800002c8:	6442                	ld	s0,16(sp)
    800002ca:	60e2                	ld	ra,24(sp)
    800002cc:	64a2                	ld	s1,8(sp)
    800002ce:	6105                	addi	sp,sp,32
    800002d0:	00000317          	auipc	t1,0x0
    800002d4:	ee430067          	jr	-284(t1) # 800001b4 <lock_unlock>
    800002d8:	6918                	ld	a4,16(a0)
    800002da:	00e49563          	bne	s1,a4,800002e4 <_lock_acquire_recursive+0x76>
    800002de:	0785                	addi	a5,a5,1
    800002e0:	e51c                	sd	a5,8(a0)
    800002e2:	b7d5                	j	800002c6 <_lock_acquire_recursive+0x58>
    800002e4:	8522                	mv	a0,s0
    800002e6:	00000097          	auipc	ra,0x0
    800002ea:	ece080e7          	jalr	-306(ra) # 800001b4 <lock_unlock>
    800002ee:	00012497          	auipc	s1,0x12
    800002f2:	d4a48493          	addi	s1,s1,-694 # 80012038 <reculock>
    800002f6:	649c                	ld	a5,8(s1)
    800002f8:	fffd                	bnez	a5,800002f6 <_lock_acquire_recursive+0x88>
    800002fa:	8522                	mv	a0,s0
    800002fc:	00000097          	auipc	ra,0x0
    80000300:	ee6080e7          	jalr	-282(ra) # 800001e2 <reculock_trylock>
    80000304:	f96d                	bnez	a0,800002f6 <_lock_acquire_recursive+0x88>
    80000306:	60e2                	ld	ra,24(sp)
    80000308:	6442                	ld	s0,16(sp)
    8000030a:	64a2                	ld	s1,8(sp)
    8000030c:	6105                	addi	sp,sp,32
    8000030e:	8082                	ret

0000000080000310 <_lock_release_recursive>:
    80000310:	1101                	addi	sp,sp,-32
    80000312:	ec06                	sd	ra,24(sp)
    80000314:	e822                	sd	s0,16(sp)
    80000316:	e426                	sd	s1,8(sp)
    80000318:	e04a                	sd	s2,0(sp)
    8000031a:	84aa                	mv	s1,a0
    8000031c:	00002097          	auipc	ra,0x2
    80000320:	09e080e7          	jalr	158(ra) # 800023ba <core_get_readonly_info>
    80000324:	00853903          	ld	s2,8(a0)
    80000328:	8526                	mv	a0,s1
    8000032a:	00000097          	auipc	ra,0x0
    8000032e:	e98080e7          	jalr	-360(ra) # 800001c2 <lock_lock>
    80000332:	8526                	mv	a0,s1
    80000334:	00000097          	auipc	ra,0x0
    80000338:	e14080e7          	jalr	-492(ra) # 80000148 <get_reculock>
    8000033c:	842a                	mv	s0,a0
    8000033e:	e911                	bnez	a0,80000352 <_lock_release_recursive+0x42>
    80000340:	8526                	mv	a0,s1
    80000342:	00000097          	auipc	ra,0x0
    80000346:	e72080e7          	jalr	-398(ra) # 800001b4 <lock_unlock>
    8000034a:	00000097          	auipc	ra,0x0
    8000034e:	e88080e7          	jalr	-376(ra) # 800001d2 <show_error>
    80000352:	681c                	ld	a5,16(s0)
    80000354:	02f91763          	bne	s2,a5,80000382 <_lock_release_recursive+0x72>
    80000358:	641c                	ld	a5,8(s0)
    8000035a:	17fd                	addi	a5,a5,-1
    8000035c:	e41c                	sd	a5,8(s0)
    8000035e:	00f04863          	bgtz	a5,8000036e <_lock_release_recursive+0x5e>
    80000362:	00043823          	sd	zero,16(s0)
    80000366:	00043423          	sd	zero,8(s0)
    8000036a:	00043023          	sd	zero,0(s0)
    8000036e:	6442                	ld	s0,16(sp)
    80000370:	60e2                	ld	ra,24(sp)
    80000372:	6902                	ld	s2,0(sp)
    80000374:	8526                	mv	a0,s1
    80000376:	64a2                	ld	s1,8(sp)
    80000378:	6105                	addi	sp,sp,32
    8000037a:	00000317          	auipc	t1,0x0
    8000037e:	e3a30067          	jr	-454(t1) # 800001b4 <lock_unlock>
    80000382:	8526                	mv	a0,s1
    80000384:	00000097          	auipc	ra,0x0
    80000388:	e30080e7          	jalr	-464(ra) # 800001b4 <lock_unlock>
    8000038c:	00000097          	auipc	ra,0x0
    80000390:	e46080e7          	jalr	-442(ra) # 800001d2 <show_error>
    80000394:	bfe9                	j	8000036e <_lock_release_recursive+0x5e>

0000000080000396 <usleep>:
    80000396:	1101                	addi	sp,sp,-32
    80000398:	e426                	sd	s1,8(sp)
    8000039a:	ec06                	sd	ra,24(sp)
    8000039c:	e822                	sd	s0,16(sp)
    8000039e:	84aa                	mv	s1,a0
    800003a0:	b0002473          	csrr	s0,mcycle
    800003a4:	450d                	li	a0,3
    800003a6:	00002097          	auipc	ra,0x2
    800003aa:	96c080e7          	jalr	-1684(ra) # 80001d12 <sysctl_clock_get_freq>
    800003ae:	1502                	slli	a0,a0,0x20
    800003b0:	9101                	srli	a0,a0,0x20
    800003b2:	02950533          	mul	a0,a0,s1
    800003b6:	000f47b7          	lui	a5,0xf4
    800003ba:	24078793          	addi	a5,a5,576 # f4240 <_stack_size+0xec240>
    800003be:	02f55533          	divu	a0,a0,a5
    800003c2:	b00027f3          	csrr	a5,mcycle
    800003c6:	8f81                	sub	a5,a5,s0
    800003c8:	fea7ede3          	bltu	a5,a0,800003c2 <usleep+0x2c>
    800003cc:	60e2                	ld	ra,24(sp)
    800003ce:	6442                	ld	s0,16(sp)
    800003d0:	64a2                	ld	s1,8(sp)
    800003d2:	4501                	li	a0,0
    800003d4:	6105                	addi	sp,sp,32
    800003d6:	8082                	ret

00000000800003d8 <msleep>:
    800003d8:	3e800793          	li	a5,1000
    800003dc:	02f50533          	mul	a0,a0,a5
    800003e0:	00000317          	auipc	t1,0x0
    800003e4:	fb630067          	jr	-74(t1) # 80000396 <usleep>

00000000800003e8 <sleep>:
    800003e8:	3e800793          	li	a5,1000
    800003ec:	02a7853b          	mulw	a0,a5,a0
    800003f0:	1502                	slli	a0,a0,0x20
    800003f2:	9101                	srli	a0,a0,0x20
    800003f4:	00000317          	auipc	t1,0x0
    800003f8:	fe430067          	jr	-28(t1) # 800003d8 <msleep>

00000000800003fc <fpioa_init>:
    800003fc:	715d                	addi	sp,sp,-80
    800003fe:	4575                	li	a0,29
    80000400:	e486                	sd	ra,72(sp)
    80000402:	00001097          	auipc	ra,0x1
    80000406:	f0e080e7          	jalr	-242(ra) # 80001310 <sysctl_clock_enable>
    8000040a:	04000613          	li	a2,64
    8000040e:	4581                	li	a1,0
    80000410:	850a                	mv	a0,sp
    80000412:	00007097          	auipc	ra,0x7
    80000416:	2fe080e7          	jalr	766(ra) # 80007710 <memset>
    8000041a:	4601                	li	a2,0
    8000041c:	0000d317          	auipc	t1,0xd
    80000420:	95430313          	addi	t1,t1,-1708 # 8000cd70 <function_config>
    80000424:	10000813          	li	a6,256
    80000428:	40565713          	srai	a4,a2,0x5
    8000042c:	00261693          	slli	a3,a2,0x2
    80000430:	00271593          	slli	a1,a4,0x2
    80000434:	009c                	addi	a5,sp,64
    80000436:	969a                	add	a3,a3,t1
    80000438:	95be                	add	a1,a1,a5
    8000043a:	429c                	lw	a5,0(a3)
    8000043c:	fc05a883          	lw	a7,-64(a1)
    80000440:	01f67513          	andi	a0,a2,31
    80000444:	0187d69b          	srliw	a3,a5,0x18
    80000448:	8a85                	andi	a3,a3,1
    8000044a:	00a696bb          	sllw	a3,a3,a0
    8000044e:	0116e6b3          	or	a3,a3,a7
    80000452:	0721                	addi	a4,a4,8
    80000454:	fcd5a023          	sw	a3,-64(a1)
    80000458:	070a                	slli	a4,a4,0x2
    8000045a:	0094                	addi	a3,sp,64
    8000045c:	9736                	add	a4,a4,a3
    8000045e:	fc072683          	lw	a3,-64(a4)
    80000462:	0197d79b          	srliw	a5,a5,0x19
    80000466:	8b85                	andi	a5,a5,1
    80000468:	00a797bb          	sllw	a5,a5,a0
    8000046c:	8fd5                	or	a5,a5,a3
    8000046e:	fcf72023          	sw	a5,-64(a4)
    80000472:	2605                	addiw	a2,a2,1
    80000474:	fb061ae3          	bne	a2,a6,80000428 <fpioa_init+0x2c>
    80000478:	878a                	mv	a5,sp
    8000047a:	4701                	li	a4,0
    8000047c:	502b0537          	lui	a0,0x502b0
    80000480:	4621                	li	a2,8
    80000482:	538c                	lw	a1,32(a5)
    80000484:	00271693          	slli	a3,a4,0x2
    80000488:	96aa                	add	a3,a3,a0
    8000048a:	0eb6a023          	sw	a1,224(a3)
    8000048e:	438c                	lw	a1,0(a5)
    80000490:	2705                	addiw	a4,a4,1
    80000492:	0791                	addi	a5,a5,4
    80000494:	0cb6a023          	sw	a1,192(a3)
    80000498:	fec715e3          	bne	a4,a2,80000482 <fpioa_init+0x86>
    8000049c:	60a6                	ld	ra,72(sp)
    8000049e:	4501                	li	a0,0
    800004a0:	6161                	addi	sp,sp,80
    800004a2:	8082                	ret

00000000800004a4 <fpioa_set_function_raw>:
    800004a4:	02f00713          	li	a4,47
    800004a8:	87aa                	mv	a5,a0
    800004aa:	02a76a63          	bltu	a4,a0,800004de <fpioa_set_function_raw+0x3a>
    800004ae:	0ff00713          	li	a4,255
    800004b2:	557d                	li	a0,-1
    800004b4:	02b76663          	bltu	a4,a1,800004e0 <fpioa_set_function_raw+0x3c>
    800004b8:	1582                	slli	a1,a1,0x20
    800004ba:	0000d717          	auipc	a4,0xd
    800004be:	8b670713          	addi	a4,a4,-1866 # 8000cd70 <function_config>
    800004c2:	81f9                	srli	a1,a1,0x1e
    800004c4:	95ba                	add	a1,a1,a4
    800004c6:	4198                	lw	a4,0(a1)
    800004c8:	00fc06b7          	lui	a3,0xfc0
    800004cc:	16fd                	addi	a3,a3,-1
    800004ce:	502b0537          	lui	a0,0x502b0
    800004d2:	078a                	slli	a5,a5,0x2
    800004d4:	97aa                	add	a5,a5,a0
    800004d6:	8f75                	and	a4,a4,a3
    800004d8:	c398                	sw	a4,0(a5)
    800004da:	4501                	li	a0,0
    800004dc:	8082                	ret
    800004de:	557d                	li	a0,-1
    800004e0:	8082                	ret

00000000800004e2 <fpioa_set_function>:
    800004e2:	02f00793          	li	a5,47
    800004e6:	06a7ee63          	bltu	a5,a0,80000562 <fpioa_set_function+0x80>
    800004ea:	7179                	addi	sp,sp,-48
    800004ec:	f022                	sd	s0,32(sp)
    800004ee:	f406                	sd	ra,40(sp)
    800004f0:	ec26                	sd	s1,24(sp)
    800004f2:	e84a                	sd	s2,16(sp)
    800004f4:	e44e                	sd	s3,8(sp)
    800004f6:	e052                	sd	s4,0(sp)
    800004f8:	0ff00713          	li	a4,255
    800004fc:	842e                	mv	s0,a1
    800004fe:	57fd                	li	a5,-1
    80000500:	04b76863          	bltu	a4,a1,80000550 <fpioa_set_function+0x6e>
    80000504:	07800793          	li	a5,120
    80000508:	4901                	li	s2,0
    8000050a:	02f58e63          	beq	a1,a5,80000546 <fpioa_set_function+0x64>
    8000050e:	84aa                	mv	s1,a0
    80000510:	502b0a37          	lui	s4,0x502b0
    80000514:	03000993          	li	s3,48
    80000518:	0009051b          	sext.w	a0,s2
    8000051c:	00251793          	slli	a5,a0,0x2
    80000520:	97d2                	add	a5,a5,s4
    80000522:	439c                	lw	a5,0(a5)
    80000524:	0ff7f793          	andi	a5,a5,255
    80000528:	00879a63          	bne	a5,s0,8000053c <fpioa_set_function+0x5a>
    8000052c:	00950863          	beq	a0,s1,8000053c <fpioa_set_function+0x5a>
    80000530:	07800593          	li	a1,120
    80000534:	00000097          	auipc	ra,0x0
    80000538:	f70080e7          	jalr	-144(ra) # 800004a4 <fpioa_set_function_raw>
    8000053c:	2905                	addiw	s2,s2,1
    8000053e:	fd391de3          	bne	s2,s3,80000518 <fpioa_set_function+0x36>
    80000542:	85a2                	mv	a1,s0
    80000544:	8526                	mv	a0,s1
    80000546:	00000097          	auipc	ra,0x0
    8000054a:	f5e080e7          	jalr	-162(ra) # 800004a4 <fpioa_set_function_raw>
    8000054e:	4781                	li	a5,0
    80000550:	70a2                	ld	ra,40(sp)
    80000552:	7402                	ld	s0,32(sp)
    80000554:	64e2                	ld	s1,24(sp)
    80000556:	6942                	ld	s2,16(sp)
    80000558:	69a2                	ld	s3,8(sp)
    8000055a:	6a02                	ld	s4,0(sp)
    8000055c:	853e                	mv	a0,a5
    8000055e:	6145                	addi	sp,sp,48
    80000560:	8082                	ret
    80000562:	57fd                	li	a5,-1
    80000564:	853e                	mv	a0,a5
    80000566:	8082                	ret

0000000080000568 <plic_init>:
    80000568:	1141                	addi	sp,sp,-16
    8000056a:	e406                	sd	ra,8(sp)
    8000056c:	00002097          	auipc	ra,0x2
    80000570:	e54080e7          	jalr	-428(ra) # 800023c0 <core_get_coreid>
    80000574:	02050793          	addi	a5,a0,32 # 502b0020 <_stack_size+0x502a8020>
    80000578:	0c000737          	lui	a4,0xc000
    8000057c:	07a2                	slli	a5,a5,0x8
    8000057e:	97ba                	add	a5,a5,a4
    80000580:	0007a023          	sw	zero,0(a5)
    80000584:	00851793          	slli	a5,a0,0x8
    80000588:	973e                	add	a4,a4,a5
    8000058a:	6789                	lui	a5,0x2
    8000058c:	97ba                	add	a5,a5,a4
    8000058e:	0007a223          	sw	zero,4(a5) # 2004 <_stack_size-0x5ffc>
    80000592:	0007a423          	sw	zero,8(a5)
    80000596:	00011797          	auipc	a5,0x11
    8000059a:	4aa7c783          	lbu	a5,1194(a5) # 80011a40 <s_plic_priorities_init_flag.5338>
    8000059e:	e395                	bnez	a5,800005c2 <plic_init+0x5a>
    800005a0:	0c000637          	lui	a2,0xc000
    800005a4:	04100693          	li	a3,65
    800005a8:	00279713          	slli	a4,a5,0x2
    800005ac:	9732                	add	a4,a4,a2
    800005ae:	00072023          	sw	zero,0(a4) # c000000 <_stack_size+0xbff8000>
    800005b2:	2785                	addiw	a5,a5,1
    800005b4:	fed79ae3          	bne	a5,a3,800005a8 <plic_init+0x40>
    800005b8:	4785                	li	a5,1
    800005ba:	00011717          	auipc	a4,0x11
    800005be:	48f70323          	sb	a5,1158(a4) # 80011a40 <s_plic_priorities_init_flag.5338>
    800005c2:	00d51713          	slli	a4,a0,0xd
    800005c6:	0c0007b7          	lui	a5,0xc000
    800005ca:	97ba                	add	a5,a5,a4
    800005cc:	00200737          	lui	a4,0x200
    800005d0:	973e                	add	a4,a4,a5
    800005d2:	00072023          	sw	zero,0(a4) # 200000 <_stack_size+0x1f8000>
    800005d6:	42000713          	li	a4,1056
    800005da:	02e50533          	mul	a0,a0,a4
    800005de:	00018717          	auipc	a4,0x18
    800005e2:	a5a70713          	addi	a4,a4,-1446 # 80018038 <plic_instance>
    800005e6:	04200693          	li	a3,66
    800005ea:	953a                	add	a0,a0,a4
    800005ec:	4701                	li	a4,0
    800005ee:	00053023          	sd	zero,0(a0)
    800005f2:	00053423          	sd	zero,8(a0)
    800005f6:	2705                	addiw	a4,a4,1
    800005f8:	0541                	addi	a0,a0,16
    800005fa:	fed71ae3          	bne	a4,a3,800005ee <plic_init+0x86>
    800005fe:	002006b7          	lui	a3,0x200
    80000602:	06500713          	li	a4,101
    80000606:	97b6                	add	a5,a5,a3
    80000608:	43d4                	lw	a3,4(a5)
    8000060a:	2681                	sext.w	a3,a3
    8000060c:	c299                	beqz	a3,80000612 <plic_init+0xaa>
    8000060e:	377d                	addiw	a4,a4,-1
    80000610:	ff65                	bnez	a4,80000608 <plic_init+0xa0>
    80000612:	6785                	lui	a5,0x1
    80000614:	8007879b          	addiw	a5,a5,-2048
    80000618:	3047a7f3          	csrrs	a5,mie,a5
    8000061c:	60a2                	ld	ra,8(sp)
    8000061e:	0141                	addi	sp,sp,16
    80000620:	8082                	ret

0000000080000622 <plic_irq_enable>:
    80000622:	04100793          	li	a5,65
    80000626:	02a7ee63          	bltu	a5,a0,80000662 <plic_irq_enable+0x40>
    8000062a:	1141                	addi	sp,sp,-16
    8000062c:	e022                	sd	s0,0(sp)
    8000062e:	e406                	sd	ra,8(sp)
    80000630:	842a                	mv	s0,a0
    80000632:	00002097          	auipc	ra,0x2
    80000636:	d8e080e7          	jalr	-626(ra) # 800023c0 <core_get_coreid>
    8000063a:	0054579b          	srliw	a5,s0,0x5
    8000063e:	051a                	slli	a0,a0,0x6
    80000640:	97aa                	add	a5,a5,a0
    80000642:	078a                	slli	a5,a5,0x2
    80000644:	0c002537          	lui	a0,0xc002
    80000648:	97aa                	add	a5,a5,a0
    8000064a:	4398                	lw	a4,0(a5)
    8000064c:	4505                	li	a0,1
    8000064e:	0085143b          	sllw	s0,a0,s0
    80000652:	8f41                	or	a4,a4,s0
    80000654:	60a2                	ld	ra,8(sp)
    80000656:	6402                	ld	s0,0(sp)
    80000658:	2701                	sext.w	a4,a4
    8000065a:	c398                	sw	a4,0(a5)
    8000065c:	4501                	li	a0,0
    8000065e:	0141                	addi	sp,sp,16
    80000660:	8082                	ret
    80000662:	557d                	li	a0,-1
    80000664:	8082                	ret

0000000080000666 <plic_set_priority>:
    80000666:	04100793          	li	a5,65
    8000066a:	00a7ea63          	bltu	a5,a0,8000067e <plic_set_priority+0x18>
    8000066e:	1502                	slli	a0,a0,0x20
    80000670:	0c0007b7          	lui	a5,0xc000
    80000674:	8179                	srli	a0,a0,0x1e
    80000676:	953e                	add	a0,a0,a5
    80000678:	c10c                	sw	a1,0(a0)
    8000067a:	4501                	li	a0,0
    8000067c:	8082                	ret
    8000067e:	557d                	li	a0,-1
    80000680:	8082                	ret

0000000080000682 <plic_irq_register>:
    80000682:	1101                	addi	sp,sp,-32
    80000684:	e822                	sd	s0,16(sp)
    80000686:	ec06                	sd	ra,24(sp)
    80000688:	e42e                	sd	a1,8(sp)
    8000068a:	e032                	sd	a2,0(sp)
    8000068c:	842a                	mv	s0,a0
    8000068e:	00002097          	auipc	ra,0x2
    80000692:	d32080e7          	jalr	-718(ra) # 800023c0 <core_get_coreid>
    80000696:	04200793          	li	a5,66
    8000069a:	02f50533          	mul	a0,a0,a5
    8000069e:	1402                	slli	s0,s0,0x20
    800006a0:	9001                	srli	s0,s0,0x20
    800006a2:	65a2                	ld	a1,8(sp)
    800006a4:	6602                	ld	a2,0(sp)
    800006a6:	60e2                	ld	ra,24(sp)
    800006a8:	00018797          	auipc	a5,0x18
    800006ac:	99078793          	addi	a5,a5,-1648 # 80018038 <plic_instance>
    800006b0:	9522                	add	a0,a0,s0
    800006b2:	0512                	slli	a0,a0,0x4
    800006b4:	6442                	ld	s0,16(sp)
    800006b6:	953e                	add	a0,a0,a5
    800006b8:	e10c                	sd	a1,0(a0)
    800006ba:	e510                	sd	a2,8(a0)
    800006bc:	6105                	addi	sp,sp,32
    800006be:	8082                	ret

00000000800006c0 <handle_irq_m_ext>:
    800006c0:	715d                	addi	sp,sp,-80
    800006c2:	ec56                	sd	s5,24(sp)
    800006c4:	e486                	sd	ra,72(sp)
    800006c6:	e0a2                	sd	s0,64(sp)
    800006c8:	fc26                	sd	s1,56(sp)
    800006ca:	f84a                	sd	s2,48(sp)
    800006cc:	f44e                	sd	s3,40(sp)
    800006ce:	f052                	sd	s4,32(sp)
    800006d0:	e85a                	sd	s6,16(sp)
    800006d2:	e45e                	sd	s7,8(sp)
    800006d4:	8aae                	mv	s5,a1
    800006d6:	344027f3          	csrr	a5,mip
    800006da:	03479713          	slli	a4,a5,0x34
    800006de:	0a075c63          	bgez	a4,80000796 <handle_irq_m_ext+0xd6>
    800006e2:	00002097          	auipc	ra,0x2
    800006e6:	cde080e7          	jalr	-802(ra) # 800023c0 <core_get_coreid>
    800006ea:	842a                	mv	s0,a0
    800006ec:	30402b73          	csrr	s6,mie
    800006f0:	0c000bb7          	lui	s7,0xc000
    800006f4:	00d51493          	slli	s1,a0,0xd
    800006f8:	94de                	add	s1,s1,s7
    800006fa:	00200a37          	lui	s4,0x200
    800006fe:	9a26                	add	s4,s4,s1
    80000700:	004a2903          	lw	s2,4(s4) # 200004 <_stack_size+0x1f8004>
    80000704:	000a2983          	lw	s3,0(s4)
    80000708:	0000d597          	auipc	a1,0xd
    8000070c:	a6858593          	addi	a1,a1,-1432 # 8000d170 <function_config+0x400>
    80000710:	2901                	sext.w	s2,s2
    80000712:	2981                	sext.w	s3,s3
    80000714:	86ce                	mv	a3,s3
    80000716:	864a                	mv	a2,s2
    80000718:	0000d517          	auipc	a0,0xd
    8000071c:	a8850513          	addi	a0,a0,-1400 # 8000d1a0 <function_config+0x430>
    80000720:	00019797          	auipc	a5,0x19
    80000724:	9527a823          	sw	s2,-1712(a5) # 80019070 <trap_info+0x20>
    80000728:	00019797          	auipc	a5,0x19
    8000072c:	9537a623          	sw	s3,-1716(a5) # 80019074 <trap_info+0x24>
    80000730:	00002097          	auipc	ra,0x2
    80000734:	804080e7          	jalr	-2044(ra) # 80001f34 <syslog_debug>
    80000738:	02091713          	slli	a4,s2,0x20
    8000073c:	9301                	srli	a4,a4,0x20
    8000073e:	00271793          	slli	a5,a4,0x2
    80000742:	9bbe                	add	s7,s7,a5
    80000744:	000ba783          	lw	a5,0(s7) # c000000 <_stack_size+0xbff8000>
    80000748:	2781                	sext.w	a5,a5
    8000074a:	00fa2023          	sw	a5,0(s4)
    8000074e:	08800793          	li	a5,136
    80000752:	3047b7f3          	csrrc	a5,mie,a5
    80000756:	300467f3          	csrrsi	a5,mstatus,8
    8000075a:	04200793          	li	a5,66
    8000075e:	02f40433          	mul	s0,s0,a5
    80000762:	00018797          	auipc	a5,0x18
    80000766:	8d678793          	addi	a5,a5,-1834 # 80018038 <plic_instance>
    8000076a:	943a                	add	s0,s0,a4
    8000076c:	0412                	slli	s0,s0,0x4
    8000076e:	943e                	add	s0,s0,a5
    80000770:	601c                	ld	a5,0(s0)
    80000772:	c399                	beqz	a5,80000778 <handle_irq_m_ext+0xb8>
    80000774:	6408                	ld	a0,8(s0)
    80000776:	9782                	jalr	a5
    80000778:	002007b7          	lui	a5,0x200
    8000077c:	94be                	add	s1,s1,a5
    8000077e:	0124a223          	sw	s2,4(s1)
    80000782:	300477f3          	csrrci	a5,mstatus,8
    80000786:	08000793          	li	a5,128
    8000078a:	3007a7f3          	csrrs	a5,mstatus,a5
    8000078e:	304b1073          	csrw	mie,s6
    80000792:	0134a023          	sw	s3,0(s1)
    80000796:	60a6                	ld	ra,72(sp)
    80000798:	6406                	ld	s0,64(sp)
    8000079a:	8556                	mv	a0,s5
    8000079c:	74e2                	ld	s1,56(sp)
    8000079e:	7942                	ld	s2,48(sp)
    800007a0:	79a2                	ld	s3,40(sp)
    800007a2:	7a02                	ld	s4,32(sp)
    800007a4:	6ae2                	ld	s5,24(sp)
    800007a6:	6b42                	ld	s6,16(sp)
    800007a8:	6ba2                	ld	s7,8(sp)
    800007aa:	6161                	addi	sp,sp,80
    800007ac:	8082                	ret

00000000800007ae <handle_irq_s_ext>:
    800007ae:	7179                	addi	sp,sp,-48
    800007b0:	f022                	sd	s0,32(sp)
    800007b2:	ec26                	sd	s1,24(sp)
    800007b4:	e84a                	sd	s2,16(sp)
    800007b6:	e44e                	sd	s3,8(sp)
    800007b8:	f406                	sd	ra,40(sp)
    800007ba:	892e                	mv	s2,a1
    800007bc:	00002097          	auipc	ra,0x2
    800007c0:	c04080e7          	jalr	-1020(ra) # 800023c0 <core_get_coreid>
    800007c4:	00d51413          	slli	s0,a0,0xd
    800007c8:	0c000737          	lui	a4,0xc000
    800007cc:	943a                	add	s0,s0,a4
    800007ce:	002007b7          	lui	a5,0x200
    800007d2:	97a2                	add	a5,a5,s0
    800007d4:	43c4                	lw	s1,4(a5)
    800007d6:	0007a983          	lw	s3,0(a5) # 200000 <_stack_size+0x1f8000>
    800007da:	2481                	sext.w	s1,s1
    800007dc:	02049693          	slli	a3,s1,0x20
    800007e0:	9281                	srli	a3,a3,0x20
    800007e2:	00269613          	slli	a2,a3,0x2
    800007e6:	9732                	add	a4,a4,a2
    800007e8:	4318                	lw	a4,0(a4)
    800007ea:	2981                	sext.w	s3,s3
    800007ec:	2701                	sext.w	a4,a4
    800007ee:	c398                	sw	a4,0(a5)
    800007f0:	04200793          	li	a5,66
    800007f4:	02f50533          	mul	a0,a0,a5
    800007f8:	00018797          	auipc	a5,0x18
    800007fc:	84078793          	addi	a5,a5,-1984 # 80018038 <plic_instance>
    80000800:	9536                	add	a0,a0,a3
    80000802:	0512                	slli	a0,a0,0x4
    80000804:	953e                	add	a0,a0,a5
    80000806:	611c                	ld	a5,0(a0)
    80000808:	c399                	beqz	a5,8000080e <handle_irq_s_ext+0x60>
    8000080a:	6508                	ld	a0,8(a0)
    8000080c:	9782                	jalr	a5
    8000080e:	002007b7          	lui	a5,0x200
    80000812:	943e                	add	s0,s0,a5
    80000814:	c044                	sw	s1,4(s0)
    80000816:	01342023          	sw	s3,0(s0)
    8000081a:	70a2                	ld	ra,40(sp)
    8000081c:	7402                	ld	s0,32(sp)
    8000081e:	854a                	mv	a0,s2
    80000820:	64e2                	ld	s1,24(sp)
    80000822:	6942                	ld	s2,16(sp)
    80000824:	69a2                	ld	s3,8(sp)
    80000826:	6145                	addi	sp,sp,48
    80000828:	8082                	ret

000000008000082a <timer_interrupt_handler.isra.1>:
    8000082a:	711d                	addi	sp,sp,-96
    8000082c:	1502                	slli	a0,a0,0x20
    8000082e:	9101                	srli	a0,a0,0x20
    80000830:	fc4e                	sd	s3,56(sp)
    80000832:	06000993          	li	s3,96
    80000836:	033509b3          	mul	s3,a0,s3
    8000083a:	00351713          	slli	a4,a0,0x3
    8000083e:	0000d797          	auipc	a5,0xd
    80000842:	97278793          	addi	a5,a5,-1678 # 8000d1b0 <timer>
    80000846:	97ba                	add	a5,a5,a4
    80000848:	f852                	sd	s4,48(sp)
    8000084a:	0007ba03          	ld	s4,0(a5)
    8000084e:	e0ca                	sd	s2,64(sp)
    80000850:	e4a6                	sd	s1,72(sp)
    80000852:	0a0a2903          	lw	s2,160(s4)
    80000856:	f456                	sd	s5,40(sp)
    80000858:	f05a                	sd	s6,32(sp)
    8000085a:	ec5e                	sd	s7,24(sp)
    8000085c:	e862                	sd	s8,16(sp)
    8000085e:	e466                	sd	s9,8(sp)
    80000860:	ec86                	sd	ra,88(sp)
    80000862:	e8a2                	sd	s0,80(sp)
    80000864:	2901                	sext.w	s2,s2
    80000866:	4481                	li	s1,0
    80000868:	00018b97          	auipc	s7,0x18
    8000086c:	010b8b93          	addi	s7,s7,16 # 80018878 <timer_instance>
    80000870:	4c61                	li	s8,24
    80000872:	4ad1                	li	s5,20
    80000874:	4c91                	li	s9,4
    80000876:	4b11                	li	s6,4
    80000878:	00197793          	andi	a5,s2,1
    8000087c:	cb9d                	beqz	a5,800008b2 <timer_interrupt_handler.isra.1+0x88>
    8000087e:	03848433          	mul	s0,s1,s8
    80000882:	944e                	add	s0,s0,s3
    80000884:	945e                	add	s0,s0,s7
    80000886:	601c                	ld	a5,0(s0)
    80000888:	c38d                	beqz	a5,800008aa <timer_interrupt_handler.isra.1+0x80>
    8000088a:	601c                	ld	a5,0(s0)
    8000088c:	6408                	ld	a0,8(s0)
    8000088e:	9782                	jalr	a5
    80000890:	01044783          	lbu	a5,16(s0)
    80000894:	0ff7f793          	andi	a5,a5,255
    80000898:	cb89                	beqz	a5,800008aa <timer_interrupt_handler.isra.1+0x80>
    8000089a:	02049793          	slli	a5,s1,0x20
    8000089e:	9381                	srli	a5,a5,0x20
    800008a0:	035787b3          	mul	a5,a5,s5
    800008a4:	97d2                	add	a5,a5,s4
    800008a6:	0197a423          	sw	s9,8(a5)
    800008aa:	035487b3          	mul	a5,s1,s5
    800008ae:	97d2                	add	a5,a5,s4
    800008b0:	47dc                	lw	a5,12(a5)
    800008b2:	0485                	addi	s1,s1,1
    800008b4:	0019591b          	srliw	s2,s2,0x1
    800008b8:	fd6490e3          	bne	s1,s6,80000878 <timer_interrupt_handler.isra.1+0x4e>
    800008bc:	60e6                	ld	ra,88(sp)
    800008be:	6446                	ld	s0,80(sp)
    800008c0:	64a6                	ld	s1,72(sp)
    800008c2:	6906                	ld	s2,64(sp)
    800008c4:	79e2                	ld	s3,56(sp)
    800008c6:	7a42                	ld	s4,48(sp)
    800008c8:	7aa2                	ld	s5,40(sp)
    800008ca:	7b02                	ld	s6,32(sp)
    800008cc:	6be2                	ld	s7,24(sp)
    800008ce:	6c42                	ld	s8,16(sp)
    800008d0:	6ca2                	ld	s9,8(sp)
    800008d2:	4501                	li	a0,0
    800008d4:	6125                	addi	sp,sp,96
    800008d6:	8082                	ret

00000000800008d8 <timer2_interrupt_callback>:
    800008d8:	4509                	li	a0,2
    800008da:	00000317          	auipc	t1,0x0
    800008de:	f5030067          	jr	-176(t1) # 8000082a <timer_interrupt_handler.isra.1>

00000000800008e2 <timer1_interrupt_callback>:
    800008e2:	4505                	li	a0,1
    800008e4:	00000317          	auipc	t1,0x0
    800008e8:	f4630067          	jr	-186(t1) # 8000082a <timer_interrupt_handler.isra.1>

00000000800008ec <timer0_interrupt_callback>:
    800008ec:	4501                	li	a0,0
    800008ee:	00000317          	auipc	t1,0x0
    800008f2:	f3c30067          	jr	-196(t1) # 8000082a <timer_interrupt_handler.isra.1>

00000000800008f6 <timer_init>:
    800008f6:	02051693          	slli	a3,a0,0x20
    800008fa:	9281                	srli	a3,a3,0x20
    800008fc:	06000793          	li	a5,96
    80000900:	02f686b3          	mul	a3,a3,a5
    80000904:	4701                	li	a4,0
    80000906:	00018597          	auipc	a1,0x18
    8000090a:	f7258593          	addi	a1,a1,-142 # 80018878 <timer_instance>
    8000090e:	4861                	li	a6,24
    80000910:	4611                	li	a2,4
    80000912:	030707b3          	mul	a5,a4,a6
    80000916:	0705                	addi	a4,a4,1
    80000918:	97b6                	add	a5,a5,a3
    8000091a:	97ae                	add	a5,a5,a1
    8000091c:	0007b023          	sd	zero,0(a5)
    80000920:	0007b423          	sd	zero,8(a5)
    80000924:	00078823          	sb	zero,16(a5)
    80000928:	fec715e3          	bne	a4,a2,80000912 <timer_init+0x1c>
    8000092c:	2579                	addiw	a0,a0,30
    8000092e:	00001317          	auipc	t1,0x1
    80000932:	9e230067          	jr	-1566(t1) # 80001310 <sysctl_clock_enable>

0000000080000936 <timer_set_enable>:
    80000936:	1582                	slli	a1,a1,0x20
    80000938:	4751                	li	a4,20
    8000093a:	9181                	srli	a1,a1,0x20
    8000093c:	02e585b3          	mul	a1,a1,a4
    80000940:	1502                	slli	a0,a0,0x20
    80000942:	01d55793          	srli	a5,a0,0x1d
    80000946:	0000d517          	auipc	a0,0xd
    8000094a:	86a50513          	addi	a0,a0,-1942 # 8000d1b0 <timer>
    8000094e:	953e                	add	a0,a0,a5
    80000950:	611c                	ld	a5,0(a0)
    80000952:	470d                	li	a4,3
    80000954:	97ae                	add	a5,a5,a1
    80000956:	e211                	bnez	a2,8000095a <timer_set_enable+0x24>
    80000958:	4711                	li	a4,4
    8000095a:	c798                	sw	a4,8(a5)
    8000095c:	8082                	ret

000000008000095e <timer_set_interval>:
    8000095e:	7179                	addi	sp,sp,-48
    80000960:	f022                	sd	s0,32(sp)
    80000962:	842a                	mv	s0,a0
    80000964:	2579                	addiw	a0,a0,30
    80000966:	f406                	sd	ra,40(sp)
    80000968:	e432                	sd	a2,8(sp)
    8000096a:	ec26                	sd	s1,24(sp)
    8000096c:	e84a                	sd	s2,16(sp)
    8000096e:	84ae                	mv	s1,a1
    80000970:	00001097          	auipc	ra,0x1
    80000974:	3a2080e7          	jalr	930(ra) # 80001d12 <sysctl_clock_get_freq>
    80000978:	d01577d3          	fcvt.s.wu	fa5,a0
    8000097c:	0000d797          	auipc	a5,0xd
    80000980:	84c7a507          	flw	fa0,-1972(a5) # 8000d1c8 <timer+0x18>
    80000984:	18f57553          	fdiv.s	fa0,fa0,fa5
    80000988:	00007097          	auipc	ra,0x7
    8000098c:	bea080e7          	jalr	-1046(ra) # 80007572 <__extendsfdf2>
    80000990:	6622                	ld	a2,8(sp)
    80000992:	892a                	mv	s2,a0
    80000994:	8532                	mv	a0,a2
    80000996:	00007097          	auipc	ra,0x7
    8000099a:	b0a080e7          	jalr	-1270(ra) # 800074a0 <__floatundidf>
    8000099e:	85ca                	mv	a1,s2
    800009a0:	00006097          	auipc	ra,0x6
    800009a4:	a42080e7          	jalr	-1470(ra) # 800063e2 <__divdf3>
    800009a8:	00007097          	auipc	ra,0x7
    800009ac:	980080e7          	jalr	-1664(ra) # 80007328 <__fixunsdfdi>
    800009b0:	4785                	li	a5,1
    800009b2:	1782                	slli	a5,a5,0x20
    800009b4:	fff50693          	addi	a3,a0,-1
    800009b8:	17f5                	addi	a5,a5,-3
    800009ba:	00d7f363          	bleu	a3,a5,800009c0 <timer_set_interval+0x62>
    800009be:	a001                	j	800009be <timer_set_interval+0x60>
    800009c0:	1482                	slli	s1,s1,0x20
    800009c2:	46d1                	li	a3,20
    800009c4:	9081                	srli	s1,s1,0x20
    800009c6:	02d484b3          	mul	s1,s1,a3
    800009ca:	1402                	slli	s0,s0,0x20
    800009cc:	0000c797          	auipc	a5,0xc
    800009d0:	7e478793          	addi	a5,a5,2020 # 8000d1b0 <timer>
    800009d4:	8075                	srli	s0,s0,0x1d
    800009d6:	943e                	add	s0,s0,a5
    800009d8:	601c                	ld	a5,0(s0)
    800009da:	0005071b          	sext.w	a4,a0
    800009de:	94be                	add	s1,s1,a5
    800009e0:	c098                	sw	a4,0(s1)
    800009e2:	00007097          	auipc	ra,0x7
    800009e6:	abe080e7          	jalr	-1346(ra) # 800074a0 <__floatundidf>
    800009ea:	85ca                	mv	a1,s2
    800009ec:	00006097          	auipc	ra,0x6
    800009f0:	eb4080e7          	jalr	-332(ra) # 800068a0 <__muldf3>
    800009f4:	00007097          	auipc	ra,0x7
    800009f8:	934080e7          	jalr	-1740(ra) # 80007328 <__fixunsdfdi>
    800009fc:	70a2                	ld	ra,40(sp)
    800009fe:	7402                	ld	s0,32(sp)
    80000a00:	64e2                	ld	s1,24(sp)
    80000a02:	6942                	ld	s2,16(sp)
    80000a04:	6145                	addi	sp,sp,48
    80000a06:	8082                	ret

0000000080000a08 <timer_irq_register>:
    80000a08:	882a                	mv	a6,a0
    80000a0a:	4509                	li	a0,2
    80000a0c:	0d056663          	bltu	a0,a6,80000ad8 <timer_irq_register+0xd0>
    80000a10:	488d                	li	a7,3
    80000a12:	557d                	li	a0,-1
    80000a14:	0cb8e463          	bltu	a7,a1,80000adc <timer_irq_register+0xd4>
    80000a18:	711d                	addi	sp,sp,-96
    80000a1a:	ec86                	sd	ra,88(sp)
    80000a1c:	e8a2                	sd	s0,80(sp)
    80000a1e:	e4a6                	sd	s1,72(sp)
    80000a20:	e0ca                	sd	s2,64(sp)
    80000a22:	fc4e                	sd	s3,56(sp)
    80000a24:	f852                	sd	s4,48(sp)
    80000a26:	4505                	li	a0,1
    80000a28:	0ab56463          	bltu	a0,a1,80000ad0 <timer_irq_register+0xc8>
    80000a2c:	0078049b          	addiw	s1,a6,7
    80000a30:	0014949b          	slliw	s1,s1,0x1
    80000a34:	02081413          	slli	s0,a6,0x20
    80000a38:	1582                	slli	a1,a1,0x20
    80000a3a:	9181                	srli	a1,a1,0x20
    80000a3c:	9001                	srli	s0,s0,0x20
    80000a3e:	4561                	li	a0,24
    80000a40:	06000913          	li	s2,96
    80000a44:	03240933          	mul	s2,s0,s2
    80000a48:	89b6                	mv	s3,a3
    80000a4a:	00000697          	auipc	a3,0x0
    80000a4e:	ea268693          	addi	a3,a3,-350 # 800008ec <timer0_interrupt_callback>
    80000a52:	e036                	sd	a3,0(sp)
    80000a54:	00018a17          	auipc	s4,0x18
    80000a58:	e24a0a13          	addi	s4,s4,-476 # 80018878 <timer_instance>
    80000a5c:	00000697          	auipc	a3,0x0
    80000a60:	e8668693          	addi	a3,a3,-378 # 800008e2 <timer1_interrupt_callback>
    80000a64:	00c03633          	snez	a2,a2
    80000a68:	e436                	sd	a3,8(sp)
    80000a6a:	02c10423          	sb	a2,40(sp)
    80000a6e:	00000697          	auipc	a3,0x0
    80000a72:	e6a68693          	addi	a3,a3,-406 # 800008d8 <timer2_interrupt_callback>
    80000a76:	02a58533          	mul	a0,a1,a0
    80000a7a:	4661                	li	a2,24
    80000a7c:	082c                	addi	a1,sp,24
    80000a7e:	e836                	sd	a3,16(sp)
    80000a80:	ec3a                	sd	a4,24(sp)
    80000a82:	f03e                	sd	a5,32(sp)
    80000a84:	040e                	slli	s0,s0,0x3
    80000a86:	954a                	add	a0,a0,s2
    80000a88:	9552                	add	a0,a0,s4
    80000a8a:	00007097          	auipc	ra,0x7
    80000a8e:	bd0080e7          	jalr	-1072(ra) # 8000765a <memcpy>
    80000a92:	85ce                	mv	a1,s3
    80000a94:	8526                	mv	a0,s1
    80000a96:	00000097          	auipc	ra,0x0
    80000a9a:	bd0080e7          	jalr	-1072(ra) # 80000666 <plic_set_priority>
    80000a9e:	181c                	addi	a5,sp,48
    80000aa0:	943e                	add	s0,s0,a5
    80000aa2:	fd043583          	ld	a1,-48(s0)
    80000aa6:	012a0633          	add	a2,s4,s2
    80000aaa:	8526                	mv	a0,s1
    80000aac:	00000097          	auipc	ra,0x0
    80000ab0:	bd6080e7          	jalr	-1066(ra) # 80000682 <plic_irq_register>
    80000ab4:	8526                	mv	a0,s1
    80000ab6:	00000097          	auipc	ra,0x0
    80000aba:	b6c080e7          	jalr	-1172(ra) # 80000622 <plic_irq_enable>
    80000abe:	60e6                	ld	ra,88(sp)
    80000ac0:	6446                	ld	s0,80(sp)
    80000ac2:	64a6                	ld	s1,72(sp)
    80000ac4:	6906                	ld	s2,64(sp)
    80000ac6:	79e2                	ld	s3,56(sp)
    80000ac8:	7a42                	ld	s4,48(sp)
    80000aca:	4501                	li	a0,0
    80000acc:	6125                	addi	sp,sp,96
    80000ace:	8082                	ret
    80000ad0:	0018149b          	slliw	s1,a6,0x1
    80000ad4:	24bd                	addiw	s1,s1,15
    80000ad6:	bfb9                	j	80000a34 <timer_irq_register+0x2c>
    80000ad8:	557d                	li	a0,-1
    80000ada:	8082                	ret
    80000adc:	8082                	ret

0000000080000ade <otp_read_serial>:
    80000ade:	00011797          	auipc	a5,0x11
    80000ae2:	f6a78793          	addi	a5,a5,-150 # 80011a48 <otp_read_inner>
    80000ae6:	639c                	ld	a5,0(a5)
    80000ae8:	1101                	addi	sp,sp,-32
    80000aea:	6511                	lui	a0,0x4
    80000aec:	ec06                	sd	ra,24(sp)
    80000aee:	4611                	li	a2,4
    80000af0:	006c                	addi	a1,sp,12
    80000af2:	d9c50513          	addi	a0,a0,-612 # 3d9c <_stack_size-0x4264>
    80000af6:	9782                	jalr	a5
    80000af8:	57fd                	li	a5,-1
    80000afa:	e111                	bnez	a0,80000afe <otp_read_serial+0x20>
    80000afc:	47b2                	lw	a5,12(sp)
    80000afe:	60e2                	ld	ra,24(sp)
    80000b00:	853e                	mv	a0,a5
    80000b02:	6105                	addi	sp,sp,32
    80000b04:	8082                	ret

0000000080000b06 <uart_irq_callback>:
    80000b06:	02056783          	lwu	a5,32(a0)
    80000b0a:	1141                	addi	sp,sp,-16
    80000b0c:	e406                	sd	ra,8(sp)
    80000b0e:	00379713          	slli	a4,a5,0x3
    80000b12:	0000c797          	auipc	a5,0xc
    80000b16:	6be78793          	addi	a5,a5,1726 # 8000d1d0 <uart>
    80000b1a:	97ba                	add	a5,a5,a4
    80000b1c:	639c                	ld	a5,0(a5)
    80000b1e:	4709                	li	a4,2
    80000b20:	479c                	lw	a5,8(a5)
    80000b22:	0ff7f793          	andi	a5,a5,255
    80000b26:	00f7f693          	andi	a3,a5,15
    80000b2a:	02e69163          	bne	a3,a4,80000b4c <uart_irq_callback+0x46>
    80000b2e:	00011797          	auipc	a5,0x11
    80000b32:	f2278793          	addi	a5,a5,-222 # 80011a50 <g_write_count>
    80000b36:	439c                	lw	a5,0(a5)
    80000b38:	2781                	sext.w	a5,a5
    80000b3a:	c789                	beqz	a5,80000b44 <uart_irq_callback+0x3e>
    80000b3c:	691c                	ld	a5,16(a0)
    80000b3e:	c399                	beqz	a5,80000b44 <uart_irq_callback+0x3e>
    80000b40:	6d08                	ld	a0,24(a0)
    80000b42:	9782                	jalr	a5
    80000b44:	60a2                	ld	ra,8(sp)
    80000b46:	4501                	li	a0,0
    80000b48:	0141                	addi	sp,sp,16
    80000b4a:	8082                	ret
    80000b4c:	8b9d                	andi	a5,a5,7
    80000b4e:	4711                	li	a4,4
    80000b50:	fee79ae3          	bne	a5,a4,80000b44 <uart_irq_callback+0x3e>
    80000b54:	611c                	ld	a5,0(a0)
    80000b56:	d7fd                	beqz	a5,80000b44 <uart_irq_callback+0x3e>
    80000b58:	6508                	ld	a0,8(a0)
    80000b5a:	b7e5                	j	80000b42 <uart_irq_callback+0x3c>

0000000080000b5c <uart_send_data>:
    80000b5c:	1502                	slli	a0,a0,0x20
    80000b5e:	01d55713          	srli	a4,a0,0x1d
    80000b62:	00011797          	auipc	a5,0x11
    80000b66:	ee07a723          	sw	zero,-274(a5) # 80011a50 <g_write_count>
    80000b6a:	0000c517          	auipc	a0,0xc
    80000b6e:	66650513          	addi	a0,a0,1638 # 8000d1d0 <uart>
    80000b72:	00011797          	auipc	a5,0x11
    80000b76:	ede78793          	addi	a5,a5,-290 # 80011a50 <g_write_count>
    80000b7a:	953a                	add	a0,a0,a4
    80000b7c:	4398                	lw	a4,0(a5)
    80000b7e:	2701                	sext.w	a4,a4
    80000b80:	00c76563          	bltu	a4,a2,80000b8a <uart_send_data+0x2e>
    80000b84:	4388                	lw	a0,0(a5)
    80000b86:	2501                	sext.w	a0,a0
    80000b88:	8082                	ret
    80000b8a:	0585                	addi	a1,a1,1
    80000b8c:	fff5c703          	lbu	a4,-1(a1)
    80000b90:	00053803          	ld	a6,0(a0)
    80000b94:	01482683          	lw	a3,20(a6)
    80000b98:	0206f693          	andi	a3,a3,32
    80000b9c:	fee5                	bnez	a3,80000b94 <uart_send_data+0x38>
    80000b9e:	2701                	sext.w	a4,a4
    80000ba0:	00e82023          	sw	a4,0(a6)
    80000ba4:	4398                	lw	a4,0(a5)
    80000ba6:	2705                	addiw	a4,a4,1
    80000ba8:	00011697          	auipc	a3,0x11
    80000bac:	eae6a423          	sw	a4,-344(a3) # 80011a50 <g_write_count>
    80000bb0:	b7f1                	j	80000b7c <uart_send_data+0x20>

0000000080000bb2 <uart_configure>:
    80000bb2:	7179                	addi	sp,sp,-48
    80000bb4:	e052                	sd	s4,0(sp)
    80000bb6:	ffb60a1b          	addiw	s4,a2,-5
    80000bba:	f406                	sd	ra,40(sp)
    80000bbc:	f022                	sd	s0,32(sp)
    80000bbe:	ec26                	sd	s1,24(sp)
    80000bc0:	e84a                	sd	s2,16(sp)
    80000bc2:	e44e                	sd	s3,8(sp)
    80000bc4:	000a081b          	sext.w	a6,s4
    80000bc8:	478d                	li	a5,3
    80000bca:	0107f363          	bleu	a6,a5,80000bd0 <uart_configure+0x1e>
    80000bce:	a001                	j	80000bce <uart_configure+0x1c>
    80000bd0:	4795                	li	a5,5
    80000bd2:	00f61663          	bne	a2,a5,80000bde <uart_configure+0x2c>
    80000bd6:	4789                	li	a5,2
    80000bd8:	00f69763          	bne	a3,a5,80000be6 <uart_configure+0x34>
    80000bdc:	a001                	j	80000bdc <uart_configure+0x2a>
    80000bde:	4785                	li	a5,1
    80000be0:	00f69363          	bne	a3,a5,80000be6 <uart_configure+0x34>
    80000be4:	a001                	j	80000be4 <uart_configure+0x32>
    80000be6:	4789                	li	a5,2
    80000be8:	0ae7ef63          	bltu	a5,a4,80000ca6 <uart_configure+0xf4>
    80000bec:	1702                	slli	a4,a4,0x20
    80000bee:	0000e797          	auipc	a5,0xe
    80000bf2:	b2278793          	addi	a5,a5,-1246 # 8000e710 <CSWTCH.9>
    80000bf6:	9301                	srli	a4,a4,0x20
    80000bf8:	973e                	add	a4,a4,a5
    80000bfa:	89aa                	mv	s3,a0
    80000bfc:	4519                	li	a0,6
    80000bfe:	8936                	mv	s2,a3
    80000c00:	00074483          	lbu	s1,0(a4) # c000000 <_stack_size+0xbff8000>
    80000c04:	842e                	mv	s0,a1
    80000c06:	00001097          	auipc	ra,0x1
    80000c0a:	10c080e7          	jalr	268(ra) # 80001d12 <sysctl_clock_get_freq>
    80000c0e:	0285543b          	divuw	s0,a0,s0
    80000c12:	02099513          	slli	a0,s3,0x20
    80000c16:	8175                	srli	a0,a0,0x1d
    80000c18:	0000c997          	auipc	s3,0xc
    80000c1c:	5b898993          	addi	s3,s3,1464 # 8000d1d0 <uart>
    80000c20:	954e                	add	a0,a0,s3
    80000c22:	01203933          	snez	s2,s2
    80000c26:	0034949b          	slliw	s1,s1,0x3
    80000c2a:	0029191b          	slliw	s2,s2,0x2
    80000c2e:	0144e4b3          	or	s1,s1,s4
    80000c32:	0124e4b3          	or	s1,s1,s2
    80000c36:	2481                	sext.w	s1,s1
    80000c38:	70a2                	ld	ra,40(sp)
    80000c3a:	6942                	ld	s2,16(sp)
    80000c3c:	69a2                	ld	s3,8(sp)
    80000c3e:	6a02                	ld	s4,0(sp)
    80000c40:	00c4571b          	srliw	a4,s0,0xc
    80000c44:	0ff77613          	andi	a2,a4,255
    80000c48:	00c7179b          	slliw	a5,a4,0xc
    80000c4c:	000ff737          	lui	a4,0xff
    80000c50:	8ff9                	and	a5,a5,a4
    80000c52:	6118                	ld	a4,0(a0)
    80000c54:	40f407bb          	subw	a5,s0,a5
    80000c58:	0047d79b          	srliw	a5,a5,0x4
    80000c5c:	4754                	lw	a3,12(a4)
    80000c5e:	2681                	sext.w	a3,a3
    80000c60:	0806e693          	ori	a3,a3,128
    80000c64:	c754                	sw	a3,12(a4)
    80000c66:	0ff7f693          	andi	a3,a5,255
    80000c6a:	0047979b          	slliw	a5,a5,0x4
    80000c6e:	c350                	sw	a2,4(a4)
    80000c70:	40f407bb          	subw	a5,s0,a5
    80000c74:	c314                	sw	a3,0(a4)
    80000c76:	0ff7f793          	andi	a5,a5,255
    80000c7a:	0cf72023          	sw	a5,192(a4) # ff0c0 <_stack_size+0xf70c0>
    80000c7e:	00072623          	sw	zero,12(a4)
    80000c82:	c744                	sw	s1,12(a4)
    80000c84:	475c                	lw	a5,12(a4)
    80000c86:	7402                	ld	s0,32(sp)
    80000c88:	64e2                	ld	s1,24(sp)
    80000c8a:	2781                	sext.w	a5,a5
    80000c8c:	f7f7f793          	andi	a5,a5,-129
    80000c90:	c75c                	sw	a5,12(a4)
    80000c92:	435c                	lw	a5,4(a4)
    80000c94:	2781                	sext.w	a5,a5
    80000c96:	0807e793          	ori	a5,a5,128
    80000c9a:	c35c                	sw	a5,4(a4)
    80000c9c:	03900793          	li	a5,57
    80000ca0:	c71c                	sw	a5,8(a4)
    80000ca2:	6145                	addi	sp,sp,48
    80000ca4:	8082                	ret
    80000ca6:	a001                	j	80000ca6 <uart_configure+0xf4>

0000000080000ca8 <uart_init>:
    80000ca8:	1141                	addi	sp,sp,-16
    80000caa:	e022                	sd	s0,0(sp)
    80000cac:	842a                	mv	s0,a0
    80000cae:	2565                	addiw	a0,a0,25
    80000cb0:	e406                	sd	ra,8(sp)
    80000cb2:	00000097          	auipc	ra,0x0
    80000cb6:	65e080e7          	jalr	1630(ra) # 80001310 <sysctl_clock_enable>
    80000cba:	0114051b          	addiw	a0,s0,17
    80000cbe:	6402                	ld	s0,0(sp)
    80000cc0:	60a2                	ld	ra,8(sp)
    80000cc2:	0141                	addi	sp,sp,16
    80000cc4:	00000317          	auipc	t1,0x0
    80000cc8:	61e30067          	jr	1566(t1) # 800012e2 <sysctl_reset>

0000000080000ccc <uart_debug_init>:
    80000ccc:	1141                	addi	sp,sp,-16
    80000cce:	e406                	sd	ra,8(sp)
    80000cd0:	e022                	sd	s0,0(sp)
    80000cd2:	4789                	li	a5,2
    80000cd4:	00a7e663          	bltu	a5,a0,80000ce0 <uart_debug_init+0x14>
    80000cd8:	00011797          	auipc	a5,0x11
    80000cdc:	d6a7ae23          	sw	a0,-644(a5) # 80011a54 <s_uart_debug_channel>
    80000ce0:	00011417          	auipc	s0,0x11
    80000ce4:	d7440413          	addi	s0,s0,-652 # 80011a54 <s_uart_debug_channel>
    80000ce8:	4008                	lw	a0,0(s0)
    80000cea:	00000097          	auipc	ra,0x0
    80000cee:	fbe080e7          	jalr	-66(ra) # 80000ca8 <uart_init>
    80000cf2:	4008                	lw	a0,0(s0)
    80000cf4:	65f1                	lui	a1,0x1c
    80000cf6:	4701                	li	a4,0
    80000cf8:	4681                	li	a3,0
    80000cfa:	4621                	li	a2,8
    80000cfc:	20058593          	addi	a1,a1,512 # 1c200 <_stack_size+0x14200>
    80000d00:	00000097          	auipc	ra,0x0
    80000d04:	eb2080e7          	jalr	-334(ra) # 80000bb2 <uart_configure>
    80000d08:	00011797          	auipc	a5,0x11
    80000d0c:	d4c7e783          	lwu	a5,-692(a5) # 80011a54 <s_uart_debug_channel>
    80000d10:	00379713          	slli	a4,a5,0x3
    80000d14:	0000c797          	auipc	a5,0xc
    80000d18:	4bc78793          	addi	a5,a5,1212 # 8000d1d0 <uart>
    80000d1c:	97ba                	add	a5,a5,a4
    80000d1e:	639c                	ld	a5,0(a5)
    80000d20:	60a2                	ld	ra,8(sp)
    80000d22:	6402                	ld	s0,0(sp)
    80000d24:	0807ae23          	sw	zero,156(a5)
    80000d28:	0141                	addi	sp,sp,16
    80000d2a:	8082                	ret

0000000080000d2c <uart_irq_register>:
    80000d2c:	1101                	addi	sp,sp,-32
    80000d2e:	02051793          	slli	a5,a0,0x20
    80000d32:	ec06                	sd	ra,24(sp)
    80000d34:	e822                	sd	s0,16(sp)
    80000d36:	4885                	li	a7,1
    80000d38:	9381                	srli	a5,a5,0x20
    80000d3a:	00018817          	auipc	a6,0x18
    80000d3e:	c5e80813          	addi	a6,a6,-930 # 80018998 <g_uart_instance>
    80000d42:	07159d63          	bne	a1,a7,80000dbc <uart_irq_register+0x90>
    80000d46:	00379593          	slli	a1,a5,0x3
    80000d4a:	0000c897          	auipc	a7,0xc
    80000d4e:	48688893          	addi	a7,a7,1158 # 8000d1d0 <uart>
    80000d52:	98ae                	add	a7,a7,a1
    80000d54:	0008b303          	ld	t1,0(a7)
    80000d58:	00432883          	lw	a7,4(t1)
    80000d5c:	2881                	sext.w	a7,a7
    80000d5e:	0028e893          	ori	a7,a7,2
    80000d62:	01132223          	sw	a7,4(t1)
    80000d66:	02800893          	li	a7,40
    80000d6a:	031788b3          	mul	a7,a5,a7
    80000d6e:	98c2                	add	a7,a7,a6
    80000d70:	00c8b823          	sd	a2,16(a7)
    80000d74:	00d8bc23          	sd	a3,24(a7)
    80000d78:	02800613          	li	a2,40
    80000d7c:	02c787b3          	mul	a5,a5,a2
    80000d80:	00b5041b          	addiw	s0,a0,11
    80000d84:	85ba                	mv	a1,a4
    80000d86:	00f80633          	add	a2,a6,a5
    80000d8a:	d208                	sw	a0,32(a2)
    80000d8c:	8522                	mv	a0,s0
    80000d8e:	e432                	sd	a2,8(sp)
    80000d90:	00000097          	auipc	ra,0x0
    80000d94:	8d6080e7          	jalr	-1834(ra) # 80000666 <plic_set_priority>
    80000d98:	6622                	ld	a2,8(sp)
    80000d9a:	8522                	mv	a0,s0
    80000d9c:	00000597          	auipc	a1,0x0
    80000da0:	d6a58593          	addi	a1,a1,-662 # 80000b06 <uart_irq_callback>
    80000da4:	00000097          	auipc	ra,0x0
    80000da8:	8de080e7          	jalr	-1826(ra) # 80000682 <plic_irq_register>
    80000dac:	8522                	mv	a0,s0
    80000dae:	6442                	ld	s0,16(sp)
    80000db0:	60e2                	ld	ra,24(sp)
    80000db2:	6105                	addi	sp,sp,32
    80000db4:	00000317          	auipc	t1,0x0
    80000db8:	86e30067          	jr	-1938(t1) # 80000622 <plic_irq_enable>
    80000dbc:	4889                	li	a7,2
    80000dbe:	fb159de3          	bne	a1,a7,80000d78 <uart_irq_register+0x4c>
    80000dc2:	00379593          	slli	a1,a5,0x3
    80000dc6:	0000c897          	auipc	a7,0xc
    80000dca:	40a88893          	addi	a7,a7,1034 # 8000d1d0 <uart>
    80000dce:	98ae                	add	a7,a7,a1
    80000dd0:	0008b303          	ld	t1,0(a7)
    80000dd4:	00432883          	lw	a7,4(t1)
    80000dd8:	2881                	sext.w	a7,a7
    80000dda:	0018e893          	ori	a7,a7,1
    80000dde:	01132223          	sw	a7,4(t1)
    80000de2:	02800893          	li	a7,40
    80000de6:	031788b3          	mul	a7,a5,a7
    80000dea:	98c2                	add	a7,a7,a6
    80000dec:	00c8b023          	sd	a2,0(a7)
    80000df0:	00d8b423          	sd	a3,8(a7)
    80000df4:	b751                	j	80000d78 <uart_irq_register+0x4c>

0000000080000df6 <sysctl_reset_ctl>:
    80000df6:	47f1                	li	a5,28
    80000df8:	0ea7e263          	bltu	a5,a0,80000edc <sysctl_reset_ctl+0xe6>
    80000dfc:	1502                	slli	a0,a0,0x20
    80000dfe:	0000c717          	auipc	a4,0xc
    80000e02:	3ea70713          	addi	a4,a4,1002 # 8000d1e8 <uart+0x18>
    80000e06:	8179                	srli	a0,a0,0x1e
    80000e08:	953a                	add	a0,a0,a4
    80000e0a:	411c                	lw	a5,0(a0)
    80000e0c:	8985                	andi	a1,a1,1
    80000e0e:	97ba                	add	a5,a5,a4
    80000e10:	8782                	jr	a5
    80000e12:	50440737          	lui	a4,0x50440
    80000e16:	5b1c                	lw	a5,48(a4)
    80000e18:	9bf9                	andi	a5,a5,-2
    80000e1a:	8ddd                	or	a1,a1,a5
    80000e1c:	db0c                	sw	a1,48(a4)
    80000e1e:	8082                	ret
    80000e20:	50440737          	lui	a4,0x50440
    80000e24:	5b5c                	lw	a5,52(a4)
    80000e26:	9bf9                	andi	a5,a5,-2
    80000e28:	8ddd                	or	a1,a1,a5
    80000e2a:	db4c                	sw	a1,52(a4)
    80000e2c:	8082                	ret
    80000e2e:	50440737          	lui	a4,0x50440
    80000e32:	5b5c                	lw	a5,52(a4)
    80000e34:	0015959b          	slliw	a1,a1,0x1
    80000e38:	9bf5                	andi	a5,a5,-3
    80000e3a:	b7fd                	j	80000e28 <sysctl_reset_ctl+0x32>
    80000e3c:	50440737          	lui	a4,0x50440
    80000e40:	5b5c                	lw	a5,52(a4)
    80000e42:	0025959b          	slliw	a1,a1,0x2
    80000e46:	9bed                	andi	a5,a5,-5
    80000e48:	b7c5                	j	80000e28 <sysctl_reset_ctl+0x32>
    80000e4a:	50440737          	lui	a4,0x50440
    80000e4e:	5b5c                	lw	a5,52(a4)
    80000e50:	0035959b          	slliw	a1,a1,0x3
    80000e54:	9bdd                	andi	a5,a5,-9
    80000e56:	bfc9                	j	80000e28 <sysctl_reset_ctl+0x32>
    80000e58:	50440737          	lui	a4,0x50440
    80000e5c:	5b5c                	lw	a5,52(a4)
    80000e5e:	0045959b          	slliw	a1,a1,0x4
    80000e62:	9bbd                	andi	a5,a5,-17
    80000e64:	b7d1                	j	80000e28 <sysctl_reset_ctl+0x32>
    80000e66:	50440737          	lui	a4,0x50440
    80000e6a:	5b5c                	lw	a5,52(a4)
    80000e6c:	0055959b          	slliw	a1,a1,0x5
    80000e70:	fdf7f793          	andi	a5,a5,-33
    80000e74:	bf55                	j	80000e28 <sysctl_reset_ctl+0x32>
    80000e76:	50440737          	lui	a4,0x50440
    80000e7a:	5b5c                	lw	a5,52(a4)
    80000e7c:	0065959b          	slliw	a1,a1,0x6
    80000e80:	fbf7f793          	andi	a5,a5,-65
    80000e84:	b755                	j	80000e28 <sysctl_reset_ctl+0x32>
    80000e86:	50440737          	lui	a4,0x50440
    80000e8a:	5b5c                	lw	a5,52(a4)
    80000e8c:	0075959b          	slliw	a1,a1,0x7
    80000e90:	f7f7f793          	andi	a5,a5,-129
    80000e94:	bf51                	j	80000e28 <sysctl_reset_ctl+0x32>
    80000e96:	50440737          	lui	a4,0x50440
    80000e9a:	5b5c                	lw	a5,52(a4)
    80000e9c:	0085959b          	slliw	a1,a1,0x8
    80000ea0:	eff7f793          	andi	a5,a5,-257
    80000ea4:	b751                	j	80000e28 <sysctl_reset_ctl+0x32>
    80000ea6:	50440737          	lui	a4,0x50440
    80000eaa:	5b5c                	lw	a5,52(a4)
    80000eac:	0095959b          	slliw	a1,a1,0x9
    80000eb0:	dff7f793          	andi	a5,a5,-513
    80000eb4:	bf95                	j	80000e28 <sysctl_reset_ctl+0x32>
    80000eb6:	50440737          	lui	a4,0x50440
    80000eba:	5b5c                	lw	a5,52(a4)
    80000ebc:	00a5959b          	slliw	a1,a1,0xa
    80000ec0:	bff7f793          	andi	a5,a5,-1025
    80000ec4:	b795                	j	80000e28 <sysctl_reset_ctl+0x32>
    80000ec6:	504406b7          	lui	a3,0x50440
    80000eca:	5adc                	lw	a5,52(a3)
    80000ecc:	777d                	lui	a4,0xfffff
    80000ece:	00b5959b          	slliw	a1,a1,0xb
    80000ed2:	7ff70713          	addi	a4,a4,2047 # fffffffffffff7ff <_buffer_start+0xffffffff7ffb7fbf>
    80000ed6:	8ff9                	and	a5,a5,a4
    80000ed8:	8ddd                	or	a1,a1,a5
    80000eda:	dacc                	sw	a1,52(a3)
    80000edc:	8082                	ret
    80000ede:	504406b7          	lui	a3,0x50440
    80000ee2:	5adc                	lw	a5,52(a3)
    80000ee4:	00c5959b          	slliw	a1,a1,0xc
    80000ee8:	777d                	lui	a4,0xfffff
    80000eea:	177d                	addi	a4,a4,-1
    80000eec:	b7ed                	j	80000ed6 <sysctl_reset_ctl+0xe0>
    80000eee:	504406b7          	lui	a3,0x50440
    80000ef2:	5adc                	lw	a5,52(a3)
    80000ef4:	00d5959b          	slliw	a1,a1,0xd
    80000ef8:	7779                	lui	a4,0xffffe
    80000efa:	bfc5                	j	80000eea <sysctl_reset_ctl+0xf4>
    80000efc:	504406b7          	lui	a3,0x50440
    80000f00:	5adc                	lw	a5,52(a3)
    80000f02:	00e5959b          	slliw	a1,a1,0xe
    80000f06:	7771                	lui	a4,0xffffc
    80000f08:	b7cd                	j	80000eea <sysctl_reset_ctl+0xf4>
    80000f0a:	504406b7          	lui	a3,0x50440
    80000f0e:	5adc                	lw	a5,52(a3)
    80000f10:	00f5959b          	slliw	a1,a1,0xf
    80000f14:	7761                	lui	a4,0xffff8
    80000f16:	bfd1                	j	80000eea <sysctl_reset_ctl+0xf4>
    80000f18:	504406b7          	lui	a3,0x50440
    80000f1c:	5adc                	lw	a5,52(a3)
    80000f1e:	0105959b          	slliw	a1,a1,0x10
    80000f22:	7741                	lui	a4,0xffff0
    80000f24:	b7d9                	j	80000eea <sysctl_reset_ctl+0xf4>
    80000f26:	504406b7          	lui	a3,0x50440
    80000f2a:	5adc                	lw	a5,52(a3)
    80000f2c:	0115959b          	slliw	a1,a1,0x11
    80000f30:	7701                	lui	a4,0xfffe0
    80000f32:	bf65                	j	80000eea <sysctl_reset_ctl+0xf4>
    80000f34:	504406b7          	lui	a3,0x50440
    80000f38:	5adc                	lw	a5,52(a3)
    80000f3a:	0125959b          	slliw	a1,a1,0x12
    80000f3e:	fffc0737          	lui	a4,0xfffc0
    80000f42:	b765                	j	80000eea <sysctl_reset_ctl+0xf4>
    80000f44:	504406b7          	lui	a3,0x50440
    80000f48:	5adc                	lw	a5,52(a3)
    80000f4a:	0135959b          	slliw	a1,a1,0x13
    80000f4e:	fff80737          	lui	a4,0xfff80
    80000f52:	bf61                	j	80000eea <sysctl_reset_ctl+0xf4>
    80000f54:	504406b7          	lui	a3,0x50440
    80000f58:	5adc                	lw	a5,52(a3)
    80000f5a:	0145959b          	slliw	a1,a1,0x14
    80000f5e:	fff00737          	lui	a4,0xfff00
    80000f62:	b761                	j	80000eea <sysctl_reset_ctl+0xf4>
    80000f64:	504406b7          	lui	a3,0x50440
    80000f68:	5adc                	lw	a5,52(a3)
    80000f6a:	0155959b          	slliw	a1,a1,0x15
    80000f6e:	ffe00737          	lui	a4,0xffe00
    80000f72:	bfa5                	j	80000eea <sysctl_reset_ctl+0xf4>
    80000f74:	504406b7          	lui	a3,0x50440
    80000f78:	5adc                	lw	a5,52(a3)
    80000f7a:	0165959b          	slliw	a1,a1,0x16
    80000f7e:	ffc00737          	lui	a4,0xffc00
    80000f82:	b7a5                	j	80000eea <sysctl_reset_ctl+0xf4>
    80000f84:	504406b7          	lui	a3,0x50440
    80000f88:	5adc                	lw	a5,52(a3)
    80000f8a:	0175959b          	slliw	a1,a1,0x17
    80000f8e:	ff800737          	lui	a4,0xff800
    80000f92:	bfa1                	j	80000eea <sysctl_reset_ctl+0xf4>
    80000f94:	504406b7          	lui	a3,0x50440
    80000f98:	5adc                	lw	a5,52(a3)
    80000f9a:	0185959b          	slliw	a1,a1,0x18
    80000f9e:	ff000737          	lui	a4,0xff000
    80000fa2:	b7a1                	j	80000eea <sysctl_reset_ctl+0xf4>
    80000fa4:	504406b7          	lui	a3,0x50440
    80000fa8:	5adc                	lw	a5,52(a3)
    80000faa:	0195959b          	slliw	a1,a1,0x19
    80000fae:	fe000737          	lui	a4,0xfe000
    80000fb2:	bf25                	j	80000eea <sysctl_reset_ctl+0xf4>
    80000fb4:	504406b7          	lui	a3,0x50440
    80000fb8:	5adc                	lw	a5,52(a3)
    80000fba:	01a5959b          	slliw	a1,a1,0x1a
    80000fbe:	fc000737          	lui	a4,0xfc000
    80000fc2:	b725                	j	80000eea <sysctl_reset_ctl+0xf4>
    80000fc4:	504406b7          	lui	a3,0x50440
    80000fc8:	5adc                	lw	a5,52(a3)
    80000fca:	01d5959b          	slliw	a1,a1,0x1d
    80000fce:	e0000737          	lui	a4,0xe0000
    80000fd2:	bf21                	j	80000eea <sysctl_reset_ctl+0xf4>

0000000080000fd4 <sysctl_clock_device_en>:
    80000fd4:	02500793          	li	a5,37
    80000fd8:	02a7e863          	bltu	a5,a0,80001008 <sysctl_clock_device_en+0x34>
    80000fdc:	1502                	slli	a0,a0,0x20
    80000fde:	0000c717          	auipc	a4,0xc
    80000fe2:	27e70713          	addi	a4,a4,638 # 8000d25c <uart+0x8c>
    80000fe6:	8179                	srli	a0,a0,0x1e
    80000fe8:	953a                	add	a0,a0,a4
    80000fea:	411c                	lw	a5,0(a0)
    80000fec:	8985                	andi	a1,a1,1
    80000fee:	97ba                	add	a5,a5,a4
    80000ff0:	8782                	jr	a5
    80000ff2:	504406b7          	lui	a3,0x50440
    80000ff6:	469c                	lw	a5,8(a3)
    80000ff8:	fe000737          	lui	a4,0xfe000
    80000ffc:	177d                	addi	a4,a4,-1
    80000ffe:	0195959b          	slliw	a1,a1,0x19
    80001002:	8ff9                	and	a5,a5,a4
    80001004:	8ddd                	or	a1,a1,a5
    80001006:	c68c                	sw	a1,8(a3)
    80001008:	4501                	li	a0,0
    8000100a:	8082                	ret
    8000100c:	504406b7          	lui	a3,0x50440
    80001010:	46dc                	lw	a5,12(a3)
    80001012:	fe000737          	lui	a4,0xfe000
    80001016:	177d                	addi	a4,a4,-1
    80001018:	0195959b          	slliw	a1,a1,0x19
    8000101c:	8ff9                	and	a5,a5,a4
    8000101e:	8ddd                	or	a1,a1,a5
    80001020:	c6cc                	sw	a1,12(a3)
    80001022:	b7dd                	j	80001008 <sysctl_clock_device_en+0x34>
    80001024:	504406b7          	lui	a3,0x50440
    80001028:	4a9c                	lw	a5,16(a3)
    8000102a:	fe000737          	lui	a4,0xfe000
    8000102e:	177d                	addi	a4,a4,-1
    80001030:	0195959b          	slliw	a1,a1,0x19
    80001034:	8ff9                	and	a5,a5,a4
    80001036:	8ddd                	or	a1,a1,a5
    80001038:	ca8c                	sw	a1,16(a3)
    8000103a:	b7f9                	j	80001008 <sysctl_clock_device_en+0x34>
    8000103c:	50440737          	lui	a4,0x50440
    80001040:	571c                	lw	a5,40(a4)
    80001042:	9bf9                	andi	a5,a5,-2
    80001044:	8ddd                	or	a1,a1,a5
    80001046:	d70c                	sw	a1,40(a4)
    80001048:	b7c1                	j	80001008 <sysctl_clock_device_en+0x34>
    8000104a:	50440737          	lui	a4,0x50440
    8000104e:	571c                	lw	a5,40(a4)
    80001050:	0015959b          	slliw	a1,a1,0x1
    80001054:	9bf5                	andi	a5,a5,-3
    80001056:	b7fd                	j	80001044 <sysctl_clock_device_en+0x70>
    80001058:	50440737          	lui	a4,0x50440
    8000105c:	571c                	lw	a5,40(a4)
    8000105e:	0025959b          	slliw	a1,a1,0x2
    80001062:	9bed                	andi	a5,a5,-5
    80001064:	b7c5                	j	80001044 <sysctl_clock_device_en+0x70>
    80001066:	50440737          	lui	a4,0x50440
    8000106a:	571c                	lw	a5,40(a4)
    8000106c:	0035959b          	slliw	a1,a1,0x3
    80001070:	9bdd                	andi	a5,a5,-9
    80001072:	bfc9                	j	80001044 <sysctl_clock_device_en+0x70>
    80001074:	50440737          	lui	a4,0x50440
    80001078:	571c                	lw	a5,40(a4)
    8000107a:	0045959b          	slliw	a1,a1,0x4
    8000107e:	9bbd                	andi	a5,a5,-17
    80001080:	b7d1                	j	80001044 <sysctl_clock_device_en+0x70>
    80001082:	50440737          	lui	a4,0x50440
    80001086:	571c                	lw	a5,40(a4)
    80001088:	0055959b          	slliw	a1,a1,0x5
    8000108c:	fdf7f793          	andi	a5,a5,-33
    80001090:	bf55                	j	80001044 <sysctl_clock_device_en+0x70>
    80001092:	50440737          	lui	a4,0x50440
    80001096:	575c                	lw	a5,44(a4)
    80001098:	9bf9                	andi	a5,a5,-2
    8000109a:	8ddd                	or	a1,a1,a5
    8000109c:	d74c                	sw	a1,44(a4)
    8000109e:	b7ad                	j	80001008 <sysctl_clock_device_en+0x34>
    800010a0:	50440737          	lui	a4,0x50440
    800010a4:	575c                	lw	a5,44(a4)
    800010a6:	0015959b          	slliw	a1,a1,0x1
    800010aa:	9bf5                	andi	a5,a5,-3
    800010ac:	b7fd                	j	8000109a <sysctl_clock_device_en+0xc6>
    800010ae:	50440737          	lui	a4,0x50440
    800010b2:	575c                	lw	a5,44(a4)
    800010b4:	0025959b          	slliw	a1,a1,0x2
    800010b8:	9bed                	andi	a5,a5,-5
    800010ba:	b7c5                	j	8000109a <sysctl_clock_device_en+0xc6>
    800010bc:	50440737          	lui	a4,0x50440
    800010c0:	575c                	lw	a5,44(a4)
    800010c2:	0035959b          	slliw	a1,a1,0x3
    800010c6:	9bdd                	andi	a5,a5,-9
    800010c8:	bfc9                	j	8000109a <sysctl_clock_device_en+0xc6>
    800010ca:	50440737          	lui	a4,0x50440
    800010ce:	575c                	lw	a5,44(a4)
    800010d0:	0045959b          	slliw	a1,a1,0x4
    800010d4:	9bbd                	andi	a5,a5,-17
    800010d6:	b7d1                	j	8000109a <sysctl_clock_device_en+0xc6>
    800010d8:	50440737          	lui	a4,0x50440
    800010dc:	575c                	lw	a5,44(a4)
    800010de:	0095959b          	slliw	a1,a1,0x9
    800010e2:	dff7f793          	andi	a5,a5,-513
    800010e6:	bf55                	j	8000109a <sysctl_clock_device_en+0xc6>
    800010e8:	50440737          	lui	a4,0x50440
    800010ec:	575c                	lw	a5,44(a4)
    800010ee:	0055959b          	slliw	a1,a1,0x5
    800010f2:	fdf7f793          	andi	a5,a5,-33
    800010f6:	b755                	j	8000109a <sysctl_clock_device_en+0xc6>
    800010f8:	50440737          	lui	a4,0x50440
    800010fc:	575c                	lw	a5,44(a4)
    800010fe:	0085959b          	slliw	a1,a1,0x8
    80001102:	eff7f793          	andi	a5,a5,-257
    80001106:	bf51                	j	8000109a <sysctl_clock_device_en+0xc6>
    80001108:	50440737          	lui	a4,0x50440
    8000110c:	575c                	lw	a5,44(a4)
    8000110e:	00a5959b          	slliw	a1,a1,0xa
    80001112:	bff7f793          	andi	a5,a5,-1025
    80001116:	b751                	j	8000109a <sysctl_clock_device_en+0xc6>
    80001118:	504406b7          	lui	a3,0x50440
    8000111c:	56dc                	lw	a5,44(a3)
    8000111e:	777d                	lui	a4,0xfffff
    80001120:	00b5959b          	slliw	a1,a1,0xb
    80001124:	7ff70713          	addi	a4,a4,2047 # fffffffffffff7ff <_buffer_start+0xffffffff7ffb7fbf>
    80001128:	8ff9                	and	a5,a5,a4
    8000112a:	8ddd                	or	a1,a1,a5
    8000112c:	d6cc                	sw	a1,44(a3)
    8000112e:	bde9                	j	80001008 <sysctl_clock_device_en+0x34>
    80001130:	504406b7          	lui	a3,0x50440
    80001134:	56dc                	lw	a5,44(a3)
    80001136:	00c5959b          	slliw	a1,a1,0xc
    8000113a:	777d                	lui	a4,0xfffff
    8000113c:	177d                	addi	a4,a4,-1
    8000113e:	b7ed                	j	80001128 <sysctl_clock_device_en+0x154>
    80001140:	504406b7          	lui	a3,0x50440
    80001144:	56dc                	lw	a5,44(a3)
    80001146:	00d5959b          	slliw	a1,a1,0xd
    8000114a:	7779                	lui	a4,0xffffe
    8000114c:	bfc5                	j	8000113c <sysctl_clock_device_en+0x168>
    8000114e:	504406b7          	lui	a3,0x50440
    80001152:	56dc                	lw	a5,44(a3)
    80001154:	00e5959b          	slliw	a1,a1,0xe
    80001158:	7771                	lui	a4,0xffffc
    8000115a:	b7cd                	j	8000113c <sysctl_clock_device_en+0x168>
    8000115c:	504406b7          	lui	a3,0x50440
    80001160:	56dc                	lw	a5,44(a3)
    80001162:	00f5959b          	slliw	a1,a1,0xf
    80001166:	7761                	lui	a4,0xffff8
    80001168:	bfd1                	j	8000113c <sysctl_clock_device_en+0x168>
    8000116a:	504406b7          	lui	a3,0x50440
    8000116e:	56dc                	lw	a5,44(a3)
    80001170:	0105959b          	slliw	a1,a1,0x10
    80001174:	7741                	lui	a4,0xffff0
    80001176:	b7d9                	j	8000113c <sysctl_clock_device_en+0x168>
    80001178:	504406b7          	lui	a3,0x50440
    8000117c:	56dc                	lw	a5,44(a3)
    8000117e:	0115959b          	slliw	a1,a1,0x11
    80001182:	7701                	lui	a4,0xfffe0
    80001184:	bf65                	j	8000113c <sysctl_clock_device_en+0x168>
    80001186:	504406b7          	lui	a3,0x50440
    8000118a:	56dc                	lw	a5,44(a3)
    8000118c:	0125959b          	slliw	a1,a1,0x12
    80001190:	fffc0737          	lui	a4,0xfffc0
    80001194:	b765                	j	8000113c <sysctl_clock_device_en+0x168>
    80001196:	504406b7          	lui	a3,0x50440
    8000119a:	56dc                	lw	a5,44(a3)
    8000119c:	0145959b          	slliw	a1,a1,0x14
    800011a0:	fff00737          	lui	a4,0xfff00
    800011a4:	bf61                	j	8000113c <sysctl_clock_device_en+0x168>
    800011a6:	504406b7          	lui	a3,0x50440
    800011aa:	56dc                	lw	a5,44(a3)
    800011ac:	0155959b          	slliw	a1,a1,0x15
    800011b0:	ffe00737          	lui	a4,0xffe00
    800011b4:	b761                	j	8000113c <sysctl_clock_device_en+0x168>
    800011b6:	504406b7          	lui	a3,0x50440
    800011ba:	56dc                	lw	a5,44(a3)
    800011bc:	0165959b          	slliw	a1,a1,0x16
    800011c0:	ffc00737          	lui	a4,0xffc00
    800011c4:	bfa5                	j	8000113c <sysctl_clock_device_en+0x168>
    800011c6:	504406b7          	lui	a3,0x50440
    800011ca:	56dc                	lw	a5,44(a3)
    800011cc:	0175959b          	slliw	a1,a1,0x17
    800011d0:	ff800737          	lui	a4,0xff800
    800011d4:	b7a5                	j	8000113c <sysctl_clock_device_en+0x168>
    800011d6:	504406b7          	lui	a3,0x50440
    800011da:	56dc                	lw	a5,44(a3)
    800011dc:	01a5959b          	slliw	a1,a1,0x1a
    800011e0:	fc000737          	lui	a4,0xfc000
    800011e4:	bfa1                	j	8000113c <sysctl_clock_device_en+0x168>
    800011e6:	504406b7          	lui	a3,0x50440
    800011ea:	56dc                	lw	a5,44(a3)
    800011ec:	0135959b          	slliw	a1,a1,0x13
    800011f0:	fff80737          	lui	a4,0xfff80
    800011f4:	b7a1                	j	8000113c <sysctl_clock_device_en+0x168>
    800011f6:	504406b7          	lui	a3,0x50440
    800011fa:	56dc                	lw	a5,44(a3)
    800011fc:	0185959b          	slliw	a1,a1,0x18
    80001200:	ff000737          	lui	a4,0xff000
    80001204:	bf25                	j	8000113c <sysctl_clock_device_en+0x168>
    80001206:	504406b7          	lui	a3,0x50440
    8000120a:	56dc                	lw	a5,44(a3)
    8000120c:	0195959b          	slliw	a1,a1,0x19
    80001210:	fe000737          	lui	a4,0xfe000
    80001214:	b725                	j	8000113c <sysctl_clock_device_en+0x168>
    80001216:	504406b7          	lui	a3,0x50440
    8000121a:	56dc                	lw	a5,44(a3)
    8000121c:	01b5959b          	slliw	a1,a1,0x1b
    80001220:	f8000737          	lui	a4,0xf8000
    80001224:	bf21                	j	8000113c <sysctl_clock_device_en+0x168>
    80001226:	504406b7          	lui	a3,0x50440
    8000122a:	56dc                	lw	a5,44(a3)
    8000122c:	01d5959b          	slliw	a1,a1,0x1d
    80001230:	e0000737          	lui	a4,0xe0000
    80001234:	b721                	j	8000113c <sysctl_clock_device_en+0x168>
    80001236:	50440737          	lui	a4,0x50440
    8000123a:	575c                	lw	a5,44(a4)
    8000123c:	0065959b          	slliw	a1,a1,0x6
    80001240:	fbf7f793          	andi	a5,a5,-65
    80001244:	bd99                	j	8000109a <sysctl_clock_device_en+0xc6>
    80001246:	50440737          	lui	a4,0x50440
    8000124a:	575c                	lw	a5,44(a4)
    8000124c:	0075959b          	slliw	a1,a1,0x7
    80001250:	f7f7f793          	andi	a5,a5,-129
    80001254:	b599                	j	8000109a <sysctl_clock_device_en+0xc6>

0000000080001256 <sysctl_pll_is_lock.part.0>:
    80001256:	4785                	li	a5,1
    80001258:	02f50063          	beq	a0,a5,80001278 <sysctl_pll_is_lock.part.0+0x22>
    8000125c:	c511                	beqz	a0,80001268 <sysctl_pll_is_lock.part.0+0x12>
    8000125e:	4789                	li	a5,2
    80001260:	02f50363          	beq	a0,a5,80001286 <sysctl_pll_is_lock.part.0+0x30>
    80001264:	4501                	li	a0,0
    80001266:	8082                	ret
    80001268:	504407b7          	lui	a5,0x50440
    8000126c:	4f88                	lw	a0,24(a5)
    8000126e:	890d                	andi	a0,a0,3
    80001270:	1575                	addi	a0,a0,-3
    80001272:	00153513          	seqz	a0,a0
    80001276:	8082                	ret
    80001278:	504407b7          	lui	a5,0x50440
    8000127c:	4f88                	lw	a0,24(a5)
    8000127e:	0085551b          	srliw	a0,a0,0x8
    80001282:	8905                	andi	a0,a0,1
    80001284:	8082                	ret
    80001286:	504407b7          	lui	a5,0x50440
    8000128a:	4f88                	lw	a0,24(a5)
    8000128c:	0105551b          	srliw	a0,a0,0x10
    80001290:	bfcd                	j	80001282 <sysctl_pll_is_lock.part.0+0x2c>

0000000080001292 <sysctl_pll_clear_slip>:
    80001292:	4789                	li	a5,2
    80001294:	04a7e563          	bltu	a5,a0,800012de <sysctl_pll_clear_slip+0x4c>
    80001298:	1141                	addi	sp,sp,-16
    8000129a:	e406                	sd	ra,8(sp)
    8000129c:	4705                	li	a4,1
    8000129e:	02e50563          	beq	a0,a4,800012c8 <sysctl_pll_clear_slip+0x36>
    800012a2:	50440737          	lui	a4,0x50440
    800012a6:	02f50763          	beq	a0,a5,800012d4 <sysctl_pll_clear_slip+0x42>
    800012aa:	4f1c                	lw	a5,24(a4)
    800012ac:	0047e793          	ori	a5,a5,4
    800012b0:	cf1c                	sw	a5,24(a4)
    800012b2:	00000097          	auipc	ra,0x0
    800012b6:	fa4080e7          	jalr	-92(ra) # 80001256 <sysctl_pll_is_lock.part.0>
    800012ba:	60a2                	ld	ra,8(sp)
    800012bc:	00153513          	seqz	a0,a0
    800012c0:	40a0053b          	negw	a0,a0
    800012c4:	0141                	addi	sp,sp,16
    800012c6:	8082                	ret
    800012c8:	50440737          	lui	a4,0x50440
    800012cc:	4f1c                	lw	a5,24(a4)
    800012ce:	4007e793          	ori	a5,a5,1024
    800012d2:	bff9                	j	800012b0 <sysctl_pll_clear_slip+0x1e>
    800012d4:	4f1c                	lw	a5,24(a4)
    800012d6:	000406b7          	lui	a3,0x40
    800012da:	8fd5                	or	a5,a5,a3
    800012dc:	bfd1                	j	800012b0 <sysctl_pll_clear_slip+0x1e>
    800012de:	557d                	li	a0,-1
    800012e0:	8082                	ret

00000000800012e2 <sysctl_reset>:
    800012e2:	1141                	addi	sp,sp,-16
    800012e4:	4585                	li	a1,1
    800012e6:	e406                	sd	ra,8(sp)
    800012e8:	e022                	sd	s0,0(sp)
    800012ea:	842a                	mv	s0,a0
    800012ec:	00000097          	auipc	ra,0x0
    800012f0:	b0a080e7          	jalr	-1270(ra) # 80000df6 <sysctl_reset_ctl>
    800012f4:	4529                	li	a0,10
    800012f6:	fffff097          	auipc	ra,0xfffff
    800012fa:	0a0080e7          	jalr	160(ra) # 80000396 <usleep>
    800012fe:	8522                	mv	a0,s0
    80001300:	6402                	ld	s0,0(sp)
    80001302:	60a2                	ld	ra,8(sp)
    80001304:	4581                	li	a1,0
    80001306:	0141                	addi	sp,sp,16
    80001308:	00000317          	auipc	t1,0x0
    8000130c:	aee30067          	jr	-1298(t1) # 80000df6 <sysctl_reset_ctl>

0000000080001310 <sysctl_clock_enable>:
    80001310:	02a00793          	li	a5,42
    80001314:	06a7e363          	bltu	a5,a0,8000137a <sysctl_clock_enable+0x6a>
    80001318:	1141                	addi	sp,sp,-16
    8000131a:	e406                	sd	ra,8(sp)
    8000131c:	ff25071b          	addiw	a4,a0,-14
    80001320:	47dd                	li	a5,23
    80001322:	02e7e063          	bltu	a5,a4,80001342 <sysctl_clock_enable+0x32>
    80001326:	4785                	li	a5,1
    80001328:	00e797b3          	sll	a5,a5,a4
    8000132c:	0027c737          	lui	a4,0x27c
    80001330:	1725                	addi	a4,a4,-23
    80001332:	8f7d                	and	a4,a4,a5
    80001334:	e305                	bnez	a4,80001354 <sysctl_clock_enable+0x44>
    80001336:	00d84737          	lui	a4,0xd84
    8000133a:	8f7d                	and	a4,a4,a5
    8000133c:	e31d                	bnez	a4,80001362 <sysctl_clock_enable+0x52>
    8000133e:	8b99                	andi	a5,a5,6
    80001340:	e79d                	bnez	a5,8000136e <sysctl_clock_enable+0x5e>
    80001342:	4585                	li	a1,1
    80001344:	00000097          	auipc	ra,0x0
    80001348:	c90080e7          	jalr	-880(ra) # 80000fd4 <sysctl_clock_device_en>
    8000134c:	60a2                	ld	ra,8(sp)
    8000134e:	4501                	li	a0,0
    80001350:	0141                	addi	sp,sp,16
    80001352:	8082                	ret
    80001354:	50440737          	lui	a4,0x50440
    80001358:	571c                	lw	a5,40(a4)
    8000135a:	0087e793          	ori	a5,a5,8
    8000135e:	d71c                	sw	a5,40(a4)
    80001360:	b7cd                	j	80001342 <sysctl_clock_enable+0x32>
    80001362:	50440737          	lui	a4,0x50440
    80001366:	571c                	lw	a5,40(a4)
    80001368:	0107e793          	ori	a5,a5,16
    8000136c:	bfcd                	j	8000135e <sysctl_clock_enable+0x4e>
    8000136e:	50440737          	lui	a4,0x50440
    80001372:	571c                	lw	a5,40(a4)
    80001374:	0207e793          	ori	a5,a5,32
    80001378:	b7dd                	j	8000135e <sysctl_clock_enable+0x4e>
    8000137a:	557d                	li	a0,-1
    8000137c:	8082                	ret

000000008000137e <sysctl_clock_source_get_freq>:
    8000137e:	4791                	li	a5,4
    80001380:	00a7ec63          	bltu	a5,a0,80001398 <sysctl_clock_source_get_freq+0x1a>
    80001384:	1502                	slli	a0,a0,0x20
    80001386:	0000c717          	auipc	a4,0xc
    8000138a:	f6e70713          	addi	a4,a4,-146 # 8000d2f4 <uart+0x124>
    8000138e:	8179                	srli	a0,a0,0x1e
    80001390:	953a                	add	a0,a0,a4
    80001392:	411c                	lw	a5,0(a0)
    80001394:	97ba                	add	a5,a5,a4
    80001396:	8782                	jr	a5
    80001398:	4501                	li	a0,0
    8000139a:	8082                	ret
    8000139c:	00000317          	auipc	t1,0x0
    800013a0:	15030067          	jr	336(t1) # 800014ec <sysctl_clock_source_get_freq.part.3>
    800013a4:	4505                	li	a0,1
    800013a6:	00000317          	auipc	t1,0x0
    800013aa:	02230067          	jr	34(t1) # 800013c8 <sysctl_pll_get_freq.part.4>
    800013ae:	4509                	li	a0,2
    800013b0:	bfdd                	j	800013a6 <sysctl_clock_source_get_freq+0x28>
    800013b2:	02800513          	li	a0,40
    800013b6:	00000317          	auipc	t1,0x0
    800013ba:	14030067          	jr	320(t1) # 800014f6 <sysctl_clock_get_freq.part.2>
    800013be:	018cc537          	lui	a0,0x18cc
    800013c2:	a8050513          	addi	a0,a0,-1408 # 18cba80 <_stack_size+0x18c3a80>
    800013c6:	8082                	ret

00000000800013c8 <sysctl_pll_get_freq.part.4>:
    800013c8:	7179                	addi	sp,sp,-48
    800013ca:	f406                	sd	ra,40(sp)
    800013cc:	f022                	sd	s0,32(sp)
    800013ce:	ec26                	sd	s1,24(sp)
    800013d0:	e84a                	sd	s2,16(sp)
    800013d2:	e44e                	sd	s3,8(sp)
    800013d4:	4785                	li	a5,1
    800013d6:	0af50563          	beq	a0,a5,80001480 <sysctl_pll_get_freq.part.4+0xb8>
    800013da:	cd25                	beqz	a0,80001452 <sysctl_pll_get_freq.part.4+0x8a>
    800013dc:	4789                	li	a5,2
    800013de:	0cf50063          	beq	a0,a5,8000149e <sysctl_pll_get_freq.part.4+0xd6>
    800013e2:	4401                	li	s0,0
    800013e4:	4481                	li	s1,0
    800013e6:	4901                	li	s2,0
    800013e8:	4501                	li	a0,0
    800013ea:	00006097          	auipc	ra,0x6
    800013ee:	ef8080e7          	jalr	-264(ra) # 800072e2 <__floatunsidf>
    800013f2:	89aa                	mv	s3,a0
    800013f4:	854a                	mv	a0,s2
    800013f6:	00006097          	auipc	ra,0x6
    800013fa:	eec080e7          	jalr	-276(ra) # 800072e2 <__floatunsidf>
    800013fe:	85aa                	mv	a1,a0
    80001400:	854e                	mv	a0,s3
    80001402:	00005097          	auipc	ra,0x5
    80001406:	fe0080e7          	jalr	-32(ra) # 800063e2 <__divdf3>
    8000140a:	892a                	mv	s2,a0
    8000140c:	8526                	mv	a0,s1
    8000140e:	00006097          	auipc	ra,0x6
    80001412:	ed4080e7          	jalr	-300(ra) # 800072e2 <__floatunsidf>
    80001416:	85aa                	mv	a1,a0
    80001418:	854a                	mv	a0,s2
    8000141a:	00005097          	auipc	ra,0x5
    8000141e:	486080e7          	jalr	1158(ra) # 800068a0 <__muldf3>
    80001422:	84aa                	mv	s1,a0
    80001424:	8522                	mv	a0,s0
    80001426:	00006097          	auipc	ra,0x6
    8000142a:	ebc080e7          	jalr	-324(ra) # 800072e2 <__floatunsidf>
    8000142e:	85aa                	mv	a1,a0
    80001430:	8526                	mv	a0,s1
    80001432:	00005097          	auipc	ra,0x5
    80001436:	fb0080e7          	jalr	-80(ra) # 800063e2 <__divdf3>
    8000143a:	00006097          	auipc	ra,0x6
    8000143e:	de0080e7          	jalr	-544(ra) # 8000721a <__fixunsdfsi>
    80001442:	2501                	sext.w	a0,a0
    80001444:	70a2                	ld	ra,40(sp)
    80001446:	7402                	ld	s0,32(sp)
    80001448:	64e2                	ld	s1,24(sp)
    8000144a:	6942                	ld	s2,16(sp)
    8000144c:	69a2                	ld	s3,8(sp)
    8000144e:	6145                	addi	sp,sp,48
    80001450:	8082                	ret
    80001452:	504407b7          	lui	a5,0x50440
    80001456:	0087a903          	lw	s2,8(a5) # 50440008 <_stack_size+0x50438008>
    8000145a:	4784                	lw	s1,8(a5)
    8000145c:	4780                	lw	s0,8(a5)
    8000145e:	00f97913          	andi	s2,s2,15
    80001462:	0044d49b          	srliw	s1,s1,0x4
    80001466:	03f4f493          	andi	s1,s1,63
    8000146a:	0905                	addi	s2,s2,1
    8000146c:	0485                	addi	s1,s1,1
    8000146e:	00a4541b          	srliw	s0,s0,0xa
    80001472:	883d                	andi	s0,s0,15
    80001474:	018cc537          	lui	a0,0x18cc
    80001478:	0405                	addi	s0,s0,1
    8000147a:	a8050513          	addi	a0,a0,-1408 # 18cba80 <_stack_size+0x18c3a80>
    8000147e:	b7b5                	j	800013ea <sysctl_pll_get_freq.part.4+0x22>
    80001480:	504407b7          	lui	a5,0x50440
    80001484:	00c7a903          	lw	s2,12(a5) # 5044000c <_stack_size+0x5043800c>
    80001488:	47c4                	lw	s1,12(a5)
    8000148a:	47c0                	lw	s0,12(a5)
    8000148c:	00f97913          	andi	s2,s2,15
    80001490:	0044d49b          	srliw	s1,s1,0x4
    80001494:	03f4f493          	andi	s1,s1,63
    80001498:	0905                	addi	s2,s2,1
    8000149a:	0485                	addi	s1,s1,1
    8000149c:	bfc9                	j	8000146e <sysctl_pll_get_freq.part.4+0xa6>
    8000149e:	50440437          	lui	s0,0x50440
    800014a2:	481c                	lw	a5,16(s0)
    800014a4:	470d                	li	a4,3
    800014a6:	4501                	li	a0,0
    800014a8:	01a7d79b          	srliw	a5,a5,0x1a
    800014ac:	8b8d                	andi	a5,a5,3
    800014ae:	f8e78be3          	beq	a5,a4,80001444 <sysctl_pll_get_freq.part.4+0x7c>
    800014b2:	0000d717          	auipc	a4,0xd
    800014b6:	26e70713          	addi	a4,a4,622 # 8000e720 <get_source_pll2>
    800014ba:	97ba                	add	a5,a5,a4
    800014bc:	0007c503          	lbu	a0,0(a5)
    800014c0:	00000097          	auipc	ra,0x0
    800014c4:	ebe080e7          	jalr	-322(ra) # 8000137e <sysctl_clock_source_get_freq>
    800014c8:	01042903          	lw	s2,16(s0) # 50440010 <_stack_size+0x50438010>
    800014cc:	4804                	lw	s1,16(s0)
    800014ce:	4800                	lw	s0,16(s0)
    800014d0:	00f97913          	andi	s2,s2,15
    800014d4:	0044d49b          	srliw	s1,s1,0x4
    800014d8:	00a4541b          	srliw	s0,s0,0xa
    800014dc:	03f4f493          	andi	s1,s1,63
    800014e0:	883d                	andi	s0,s0,15
    800014e2:	2501                	sext.w	a0,a0
    800014e4:	0905                	addi	s2,s2,1
    800014e6:	0485                	addi	s1,s1,1
    800014e8:	0405                	addi	s0,s0,1
    800014ea:	b701                	j	800013ea <sysctl_pll_get_freq.part.4+0x22>

00000000800014ec <sysctl_clock_source_get_freq.part.3>:
    800014ec:	4501                	li	a0,0
    800014ee:	00000317          	auipc	t1,0x0
    800014f2:	eda30067          	jr	-294(t1) # 800013c8 <sysctl_pll_get_freq.part.4>

00000000800014f6 <sysctl_clock_get_freq.part.2>:
    800014f6:	02a00793          	li	a5,42
    800014fa:	2ca7ec63          	bltu	a5,a0,800017d2 <sysctl_clock_get_freq.part.2+0x2dc>
    800014fe:	1502                	slli	a0,a0,0x20
    80001500:	0000c717          	auipc	a4,0xc
    80001504:	e0870713          	addi	a4,a4,-504 # 8000d308 <uart+0x138>
    80001508:	8179                	srli	a0,a0,0x1e
    8000150a:	953a                	add	a0,a0,a4
    8000150c:	411c                	lw	a5,0(a0)
    8000150e:	1141                	addi	sp,sp,-16
    80001510:	e406                	sd	ra,8(sp)
    80001512:	e022                	sd	s0,0(sp)
    80001514:	97ba                	add	a5,a5,a4
    80001516:	8782                	jr	a5
    80001518:	4501                	li	a0,0
    8000151a:	60a2                	ld	ra,8(sp)
    8000151c:	6402                	ld	s0,0(sp)
    8000151e:	0141                	addi	sp,sp,16
    80001520:	8082                	ret
    80001522:	6402                	ld	s0,0(sp)
    80001524:	60a2                	ld	ra,8(sp)
    80001526:	0141                	addi	sp,sp,16
    80001528:	00000317          	auipc	t1,0x0
    8000152c:	fc430067          	jr	-60(t1) # 800014ec <sysctl_clock_source_get_freq.part.3>
    80001530:	4505                	li	a0,1
    80001532:	6402                	ld	s0,0(sp)
    80001534:	60a2                	ld	ra,8(sp)
    80001536:	0141                	addi	sp,sp,16
    80001538:	00000317          	auipc	t1,0x0
    8000153c:	e9030067          	jr	-368(t1) # 800013c8 <sysctl_pll_get_freq.part.4>
    80001540:	4509                	li	a0,2
    80001542:	bfc5                	j	80001532 <sysctl_clock_get_freq.part.2+0x3c>
    80001544:	50440437          	lui	s0,0x50440
    80001548:	501c                	lw	a5,32(s0)
    8000154a:	8b85                	andi	a5,a5,1
    8000154c:	26078e63          	beqz	a5,800017c8 <sysctl_clock_get_freq.part.2+0x2d2>
    80001550:	4501                	li	a0,0
    80001552:	d7e1                	beqz	a5,8000151a <sysctl_clock_get_freq.part.2+0x24>
    80001554:	00000097          	auipc	ra,0x0
    80001558:	f98080e7          	jalr	-104(ra) # 800014ec <sysctl_clock_source_get_freq.part.3>
    8000155c:	501c                	lw	a5,32(s0)
    8000155e:	1502                	slli	a0,a0,0x20
    80001560:	9101                	srli	a0,a0,0x20
    80001562:	0017d79b          	srliw	a5,a5,0x1
    80001566:	8b8d                	andi	a5,a5,3
    80001568:	2785                	addiw	a5,a5,1
    8000156a:	00f55533          	srl	a0,a0,a5
    8000156e:	2501                	sext.w	a0,a0
    80001570:	b76d                	j	8000151a <sysctl_clock_get_freq.part.2+0x24>
    80001572:	02800513          	li	a0,40
    80001576:	00000097          	auipc	ra,0x0
    8000157a:	f80080e7          	jalr	-128(ra) # 800014f6 <sysctl_clock_get_freq.part.2>
    8000157e:	504407b7          	lui	a5,0x50440
    80001582:	5f9c                	lw	a5,56(a5)
    80001584:	8bbd                	andi	a5,a5,15
    80001586:	a08d                	j	800015e8 <sysctl_clock_get_freq.part.2+0xf2>
    80001588:	02800513          	li	a0,40
    8000158c:	00000097          	auipc	ra,0x0
    80001590:	f6a080e7          	jalr	-150(ra) # 800014f6 <sysctl_clock_get_freq.part.2>
    80001594:	504407b7          	lui	a5,0x50440
    80001598:	5f9c                	lw	a5,56(a5)
    8000159a:	0047d79b          	srliw	a5,a5,0x4
    8000159e:	b7dd                	j	80001584 <sysctl_clock_get_freq.part.2+0x8e>
    800015a0:	02800513          	li	a0,40
    800015a4:	00000097          	auipc	ra,0x0
    800015a8:	f52080e7          	jalr	-174(ra) # 800014f6 <sysctl_clock_get_freq.part.2>
    800015ac:	504407b7          	lui	a5,0x50440
    800015b0:	5f9c                	lw	a5,56(a5)
    800015b2:	0107d79b          	srliw	a5,a5,0x10
    800015b6:	b7f9                	j	80001584 <sysctl_clock_get_freq.part.2+0x8e>
    800015b8:	02800513          	li	a0,40
    800015bc:	00000097          	auipc	ra,0x0
    800015c0:	f3a080e7          	jalr	-198(ra) # 800014f6 <sysctl_clock_get_freq.part.2>
    800015c4:	504407b7          	lui	a5,0x50440
    800015c8:	5f9c                	lw	a5,56(a5)
    800015ca:	00c7d79b          	srliw	a5,a5,0xc
    800015ce:	bf5d                	j	80001584 <sysctl_clock_get_freq.part.2+0x8e>
    800015d0:	02800513          	li	a0,40
    800015d4:	00000097          	auipc	ra,0x0
    800015d8:	f22080e7          	jalr	-222(ra) # 800014f6 <sysctl_clock_get_freq.part.2>
    800015dc:	504407b7          	lui	a5,0x50440
    800015e0:	539c                	lw	a5,32(a5)
    800015e2:	0037d79b          	srliw	a5,a5,0x3
    800015e6:	8b9d                	andi	a5,a5,7
    800015e8:	2785                	addiw	a5,a5,1
    800015ea:	02f5553b          	divuw	a0,a0,a5
    800015ee:	b735                	j	8000151a <sysctl_clock_get_freq.part.2+0x24>
    800015f0:	02800513          	li	a0,40
    800015f4:	00000097          	auipc	ra,0x0
    800015f8:	f02080e7          	jalr	-254(ra) # 800014f6 <sysctl_clock_get_freq.part.2>
    800015fc:	504407b7          	lui	a5,0x50440
    80001600:	539c                	lw	a5,32(a5)
    80001602:	0067d79b          	srliw	a5,a5,0x6
    80001606:	b7c5                	j	800015e6 <sysctl_clock_get_freq.part.2+0xf0>
    80001608:	02800513          	li	a0,40
    8000160c:	00000097          	auipc	ra,0x0
    80001610:	eea080e7          	jalr	-278(ra) # 800014f6 <sysctl_clock_get_freq.part.2>
    80001614:	504407b7          	lui	a5,0x50440
    80001618:	539c                	lw	a5,32(a5)
    8000161a:	0097d79b          	srliw	a5,a5,0x9
    8000161e:	b7e1                	j	800015e6 <sysctl_clock_get_freq.part.2+0xf0>
    80001620:	4505                	li	a0,1
    80001622:	00000097          	auipc	ra,0x0
    80001626:	da6080e7          	jalr	-602(ra) # 800013c8 <sysctl_pll_get_freq.part.4>
    8000162a:	504407b7          	lui	a5,0x50440
    8000162e:	5f9c                	lw	a5,56(a5)
    80001630:	0087d79b          	srliw	a5,a5,0x8
    80001634:	bf81                	j	80001584 <sysctl_clock_get_freq.part.2+0x8e>
    80001636:	4509                	li	a0,2
    80001638:	00000097          	auipc	ra,0x0
    8000163c:	d90080e7          	jalr	-624(ra) # 800013c8 <sysctl_pll_get_freq.part.4>
    80001640:	504407b7          	lui	a5,0x50440
    80001644:	43fc                	lw	a5,68(a5)
    80001646:	17c2                	slli	a5,a5,0x30
    80001648:	93c1                	srli	a5,a5,0x30
    8000164a:	a819                	j	80001660 <sysctl_clock_get_freq.part.2+0x16a>
    8000164c:	4509                	li	a0,2
    8000164e:	00000097          	auipc	ra,0x0
    80001652:	d7a080e7          	jalr	-646(ra) # 800013c8 <sysctl_pll_get_freq.part.4>
    80001656:	504407b7          	lui	a5,0x50440
    8000165a:	43fc                	lw	a5,68(a5)
    8000165c:	0107d79b          	srliw	a5,a5,0x10
    80001660:	2785                	addiw	a5,a5,1
    80001662:	0017979b          	slliw	a5,a5,0x1
    80001666:	b751                	j	800015ea <sysctl_clock_get_freq.part.2+0xf4>
    80001668:	4509                	li	a0,2
    8000166a:	00000097          	auipc	ra,0x0
    8000166e:	d5e080e7          	jalr	-674(ra) # 800013c8 <sysctl_pll_get_freq.part.4>
    80001672:	504407b7          	lui	a5,0x50440
    80001676:	47bc                	lw	a5,72(a5)
    80001678:	b7f9                	j	80001646 <sysctl_clock_get_freq.part.2+0x150>
    8000167a:	504407b7          	lui	a5,0x50440
    8000167e:	4ba8                	lw	a0,80(a5)
    80001680:	0ff57513          	andi	a0,a0,255
    80001684:	2505                	addiw	a0,a0,1
    80001686:	0015179b          	slliw	a5,a0,0x1
    8000168a:	018cc537          	lui	a0,0x18cc
    8000168e:	a805051b          	addiw	a0,a0,-1408
    80001692:	bfa1                	j	800015ea <sysctl_clock_get_freq.part.2+0xf4>
    80001694:	504407b7          	lui	a5,0x50440
    80001698:	4ba8                	lw	a0,80(a5)
    8000169a:	0085551b          	srliw	a0,a0,0x8
    8000169e:	b7cd                	j	80001680 <sysctl_clock_get_freq.part.2+0x18a>
    800016a0:	00000097          	auipc	ra,0x0
    800016a4:	e4c080e7          	jalr	-436(ra) # 800014ec <sysctl_clock_source_get_freq.part.3>
    800016a8:	504407b7          	lui	a5,0x50440
    800016ac:	5fdc                	lw	a5,60(a5)
    800016ae:	0ff7f793          	andi	a5,a5,255
    800016b2:	b77d                	j	80001660 <sysctl_clock_get_freq.part.2+0x16a>
    800016b4:	00000097          	auipc	ra,0x0
    800016b8:	e38080e7          	jalr	-456(ra) # 800014ec <sysctl_clock_source_get_freq.part.3>
    800016bc:	504407b7          	lui	a5,0x50440
    800016c0:	5fdc                	lw	a5,60(a5)
    800016c2:	0087d79b          	srliw	a5,a5,0x8
    800016c6:	b7e5                	j	800016ae <sysctl_clock_get_freq.part.2+0x1b8>
    800016c8:	00000097          	auipc	ra,0x0
    800016cc:	e24080e7          	jalr	-476(ra) # 800014ec <sysctl_clock_source_get_freq.part.3>
    800016d0:	504407b7          	lui	a5,0x50440
    800016d4:	5fdc                	lw	a5,60(a5)
    800016d6:	0107d79b          	srliw	a5,a5,0x10
    800016da:	bfd1                	j	800016ae <sysctl_clock_get_freq.part.2+0x1b8>
    800016dc:	00000097          	auipc	ra,0x0
    800016e0:	e10080e7          	jalr	-496(ra) # 800014ec <sysctl_clock_source_get_freq.part.3>
    800016e4:	504407b7          	lui	a5,0x50440
    800016e8:	47fc                	lw	a5,76(a5)
    800016ea:	bfe1                	j	800016c2 <sysctl_clock_get_freq.part.2+0x1cc>
    800016ec:	00000097          	auipc	ra,0x0
    800016f0:	e00080e7          	jalr	-512(ra) # 800014ec <sysctl_clock_source_get_freq.part.3>
    800016f4:	504407b7          	lui	a5,0x50440
    800016f8:	47fc                	lw	a5,76(a5)
    800016fa:	bff1                	j	800016d6 <sysctl_clock_get_freq.part.2+0x1e0>
    800016fc:	00000097          	auipc	ra,0x0
    80001700:	df0080e7          	jalr	-528(ra) # 800014ec <sysctl_clock_source_get_freq.part.3>
    80001704:	504407b7          	lui	a5,0x50440
    80001708:	47fc                	lw	a5,76(a5)
    8000170a:	0187d79b          	srliw	a5,a5,0x18
    8000170e:	bf89                	j	80001660 <sysctl_clock_get_freq.part.2+0x16a>
    80001710:	504407b7          	lui	a5,0x50440
    80001714:	539c                	lw	a5,32(a5)
    80001716:	00c7d79b          	srliw	a5,a5,0xc
    8000171a:	8b85                	andi	a5,a5,1
    8000171c:	cf81                	beqz	a5,80001734 <sysctl_clock_get_freq.part.2+0x23e>
    8000171e:	4501                	li	a0,0
    80001720:	c791                	beqz	a5,8000172c <sysctl_clock_get_freq.part.2+0x236>
    80001722:	00000097          	auipc	ra,0x0
    80001726:	dca080e7          	jalr	-566(ra) # 800014ec <sysctl_clock_source_get_freq.part.3>
    8000172a:	2501                	sext.w	a0,a0
    8000172c:	504407b7          	lui	a5,0x50440
    80001730:	5fdc                	lw	a5,60(a5)
    80001732:	bfe1                	j	8000170a <sysctl_clock_get_freq.part.2+0x214>
    80001734:	018cc537          	lui	a0,0x18cc
    80001738:	a8050513          	addi	a0,a0,-1408 # 18cba80 <_stack_size+0x18c3a80>
    8000173c:	bfc5                	j	8000172c <sysctl_clock_get_freq.part.2+0x236>
    8000173e:	504407b7          	lui	a5,0x50440
    80001742:	539c                	lw	a5,32(a5)
    80001744:	00d7d79b          	srliw	a5,a5,0xd
    80001748:	8b85                	andi	a5,a5,1
    8000174a:	cf81                	beqz	a5,80001762 <sysctl_clock_get_freq.part.2+0x26c>
    8000174c:	4501                	li	a0,0
    8000174e:	c791                	beqz	a5,8000175a <sysctl_clock_get_freq.part.2+0x264>
    80001750:	00000097          	auipc	ra,0x0
    80001754:	d9c080e7          	jalr	-612(ra) # 800014ec <sysctl_clock_source_get_freq.part.3>
    80001758:	2501                	sext.w	a0,a0
    8000175a:	504407b7          	lui	a5,0x50440
    8000175e:	43bc                	lw	a5,64(a5)
    80001760:	b7b9                	j	800016ae <sysctl_clock_get_freq.part.2+0x1b8>
    80001762:	018cc537          	lui	a0,0x18cc
    80001766:	a8050513          	addi	a0,a0,-1408 # 18cba80 <_stack_size+0x18c3a80>
    8000176a:	bfc5                	j	8000175a <sysctl_clock_get_freq.part.2+0x264>
    8000176c:	504407b7          	lui	a5,0x50440
    80001770:	539c                	lw	a5,32(a5)
    80001772:	00e7d79b          	srliw	a5,a5,0xe
    80001776:	8b85                	andi	a5,a5,1
    80001778:	cf81                	beqz	a5,80001790 <sysctl_clock_get_freq.part.2+0x29a>
    8000177a:	4501                	li	a0,0
    8000177c:	c791                	beqz	a5,80001788 <sysctl_clock_get_freq.part.2+0x292>
    8000177e:	00000097          	auipc	ra,0x0
    80001782:	d6e080e7          	jalr	-658(ra) # 800014ec <sysctl_clock_source_get_freq.part.3>
    80001786:	2501                	sext.w	a0,a0
    80001788:	504407b7          	lui	a5,0x50440
    8000178c:	43bc                	lw	a5,64(a5)
    8000178e:	bf15                	j	800016c2 <sysctl_clock_get_freq.part.2+0x1cc>
    80001790:	018cc537          	lui	a0,0x18cc
    80001794:	a8050513          	addi	a0,a0,-1408 # 18cba80 <_stack_size+0x18c3a80>
    80001798:	bfc5                	j	80001788 <sysctl_clock_get_freq.part.2+0x292>
    8000179a:	504407b7          	lui	a5,0x50440
    8000179e:	539c                	lw	a5,32(a5)
    800017a0:	00f7d79b          	srliw	a5,a5,0xf
    800017a4:	8b85                	andi	a5,a5,1
    800017a6:	cf81                	beqz	a5,800017be <sysctl_clock_get_freq.part.2+0x2c8>
    800017a8:	4501                	li	a0,0
    800017aa:	c791                	beqz	a5,800017b6 <sysctl_clock_get_freq.part.2+0x2c0>
    800017ac:	00000097          	auipc	ra,0x0
    800017b0:	d40080e7          	jalr	-704(ra) # 800014ec <sysctl_clock_source_get_freq.part.3>
    800017b4:	2501                	sext.w	a0,a0
    800017b6:	504407b7          	lui	a5,0x50440
    800017ba:	43bc                	lw	a5,64(a5)
    800017bc:	bf29                	j	800016d6 <sysctl_clock_get_freq.part.2+0x1e0>
    800017be:	018cc537          	lui	a0,0x18cc
    800017c2:	a8050513          	addi	a0,a0,-1408 # 18cba80 <_stack_size+0x18c3a80>
    800017c6:	bfc5                	j	800017b6 <sysctl_clock_get_freq.part.2+0x2c0>
    800017c8:	018cc537          	lui	a0,0x18cc
    800017cc:	a8050513          	addi	a0,a0,-1408 # 18cba80 <_stack_size+0x18c3a80>
    800017d0:	b3a9                	j	8000151a <sysctl_clock_get_freq.part.2+0x24>
    800017d2:	4501                	li	a0,0
    800017d4:	8082                	ret

00000000800017d6 <sysctl_pll_get_freq>:
    800017d6:	4789                	li	a5,2
    800017d8:	00a7e663          	bltu	a5,a0,800017e4 <sysctl_pll_get_freq+0xe>
    800017dc:	00000317          	auipc	t1,0x0
    800017e0:	bec30067          	jr	-1044(t1) # 800013c8 <sysctl_pll_get_freq.part.4>
    800017e4:	4501                	li	a0,0
    800017e6:	8082                	ret

00000000800017e8 <sysctl_pll_source_set_freq.part.5>:
    800017e8:	712d                	addi	sp,sp,-288
    800017ea:	ea22                	sd	s0,272(sp)
    800017ec:	fdce                	sd	s3,248(sp)
    800017ee:	f5d6                	sd	s5,232(sp)
    800017f0:	ee06                	sd	ra,280(sp)
    800017f2:	e626                	sd	s1,264(sp)
    800017f4:	e24a                	sd	s2,256(sp)
    800017f6:	f9d2                	sd	s4,240(sp)
    800017f8:	f1da                	sd	s6,224(sp)
    800017fa:	edde                	sd	s7,216(sp)
    800017fc:	e9e2                	sd	s8,208(sp)
    800017fe:	e5e6                	sd	s9,200(sp)
    80001800:	e1ea                	sd	s10,192(sp)
    80001802:	fd6e                	sd	s11,184(sp)
    80001804:	4785                	li	a5,1
    80001806:	89aa                	mv	s3,a0
    80001808:	8aae                	mv	s5,a1
    8000180a:	8432                	mv	s0,a2
    8000180c:	02a7f563          	bleu	a0,a5,80001836 <sysctl_pll_source_set_freq.part.5+0x4e>
    80001810:	4789                	li	a5,2
    80001812:	02f50863          	beq	a0,a5,80001842 <sysctl_pll_source_set_freq.part.5+0x5a>
    80001816:	60f2                	ld	ra,280(sp)
    80001818:	6452                	ld	s0,272(sp)
    8000181a:	64b2                	ld	s1,264(sp)
    8000181c:	6912                	ld	s2,256(sp)
    8000181e:	79ee                	ld	s3,248(sp)
    80001820:	7a4e                	ld	s4,240(sp)
    80001822:	7aae                	ld	s5,232(sp)
    80001824:	7b0e                	ld	s6,224(sp)
    80001826:	6bee                	ld	s7,216(sp)
    80001828:	6c4e                	ld	s8,208(sp)
    8000182a:	6cae                	ld	s9,200(sp)
    8000182c:	6d0e                	ld	s10,192(sp)
    8000182e:	7dea                	ld	s11,184(sp)
    80001830:	4501                	li	a0,0
    80001832:	6115                	addi	sp,sp,288
    80001834:	8082                	ret
    80001836:	f1e5                	bnez	a1,80001816 <sysctl_pll_source_set_freq.part.5+0x2e>
    80001838:	018cc537          	lui	a0,0x18cc
    8000183c:	a8050513          	addi	a0,a0,-1408 # 18cba80 <_stack_size+0x18c3a80>
    80001840:	a811                	j	80001854 <sysctl_pll_source_set_freq.part.5+0x6c>
    80001842:	fcb56ae3          	bltu	a0,a1,80001816 <sysctl_pll_source_set_freq.part.5+0x2e>
    80001846:	852e                	mv	a0,a1
    80001848:	00000097          	auipc	ra,0x0
    8000184c:	b36080e7          	jalr	-1226(ra) # 8000137e <sysctl_clock_source_get_freq>
    80001850:	2501                	sext.w	a0,a0
    80001852:	d171                	beqz	a0,80001816 <sysctl_pll_source_set_freq.part.5+0x2e>
    80001854:	00006097          	auipc	ra,0x6
    80001858:	a8e080e7          	jalr	-1394(ra) # 800072e2 <__floatunsidf>
    8000185c:	ec2a                	sd	a0,24(sp)
    8000185e:	8522                	mv	a0,s0
    80001860:	00006097          	auipc	ra,0x6
    80001864:	a82080e7          	jalr	-1406(ra) # 800072e2 <__floatunsidf>
    80001868:	65e2                	ld	a1,24(sp)
    8000186a:	842a                	mv	s0,a0
    8000186c:	0000cb97          	auipc	s7,0xc
    80001870:	b6cb8b93          	addi	s7,s7,-1172 # 8000d3d8 <CSWTCH.33+0x20>
    80001874:	00005097          	auipc	ra,0x5
    80001878:	b6e080e7          	jalr	-1170(ra) # 800063e2 <__divdf3>
    8000187c:	fc2a                	sd	a0,56(sp)
    8000187e:	00006097          	auipc	ra,0x6
    80001882:	918080e7          	jalr	-1768(ra) # 80007196 <__fixdfsi>
    80001886:	0005079b          	sext.w	a5,a0
    8000188a:	75e2                	ld	a1,56(sp)
    8000188c:	000bb503          	ld	a0,0(s7)
    80001890:	e0be                	sd	a5,64(sp)
    80001892:	0000ca17          	auipc	s4,0xc
    80001896:	b4ea0a13          	addi	s4,s4,-1202 # 8000d3e0 <CSWTCH.33+0x28>
    8000189a:	00005097          	auipc	ra,0x5
    8000189e:	b48080e7          	jalr	-1208(ra) # 800063e2 <__divdf3>
    800018a2:	f4aa                	sd	a0,104(sp)
    800018a4:	000a3503          	ld	a0,0(s4)
    800018a8:	85a2                	mv	a1,s0
    800018aa:	0000c917          	auipc	s2,0xc
    800018ae:	b3e90913          	addi	s2,s2,-1218 # 8000d3e8 <CSWTCH.33+0x30>
    800018b2:	00005097          	auipc	ra,0x5
    800018b6:	b30080e7          	jalr	-1232(ra) # 800063e2 <__divdf3>
    800018ba:	ecaa                	sd	a0,88(sp)
    800018bc:	00093503          	ld	a0,0(s2)
    800018c0:	85a2                	mv	a1,s0
    800018c2:	4d01                	li	s10,0
    800018c4:	00005097          	auipc	ra,0x5
    800018c8:	b1e080e7          	jalr	-1250(ra) # 800063e2 <__divdf3>
    800018cc:	0000c797          	auipc	a5,0xc
    800018d0:	b0478793          	addi	a5,a5,-1276 # 8000d3d0 <CSWTCH.33+0x18>
    800018d4:	639c                	ld	a5,0(a5)
    800018d6:	f0aa                	sd	a0,96(sp)
    800018d8:	e802                	sd	zero,16(sp)
    800018da:	e43e                	sd	a5,8(sp)
    800018dc:	4785                	li	a5,1
    800018de:	e03e                	sd	a5,0(sp)
    800018e0:	57fd                	li	a5,-1
    800018e2:	8385                	srli	a5,a5,0x1
    800018e4:	f802                	sd	zero,48(sp)
    800018e6:	4c81                	li	s9,0
    800018e8:	4401                	li	s0,0
    800018ea:	4481                	li	s1,0
    800018ec:	f402                	sd	zero,40(sp)
    800018ee:	f8de                	sd	s7,112(sp)
    800018f0:	e8d2                	sd	s4,80(sp)
    800018f2:	fcbe                	sd	a5,120(sp)
    800018f4:	e14a                	sd	s2,128(sp)
    800018f6:	6786                	ld	a5,64(sp)
    800018f8:	6742                	ld	a4,16(sp)
    800018fa:	00e78c3b          	addw	s8,a5,a4
    800018fe:	03f00793          	li	a5,63
    80001902:	8562                	mv	a0,s8
    80001904:	0b87da63          	ble	s8,a5,800019b8 <sysctl_pll_source_set_freq.part.5+0x1d0>
    80001908:	77a2                	ld	a5,40(sp)
    8000190a:	d791                	beqz	a5,80001816 <sysctl_pll_source_set_freq.part.5+0x2e>
    8000190c:	0000c797          	auipc	a5,0xc
    80001910:	b0478793          	addi	a5,a5,-1276 # 8000d410 <CSWTCH.33+0x58>
    80001914:	638c                	ld	a1,0(a5)
    80001916:	77c2                	ld	a5,48(sp)
    80001918:	557d                	li	a0,-1
    8000191a:	8105                	srli	a0,a0,0x1
    8000191c:	8d7d                	and	a0,a0,a5
    8000191e:	00005097          	auipc	ra,0x5
    80001922:	e72080e7          	jalr	-398(ra) # 80006790 <__gedf2>
    80001926:	ee0558e3          	bgez	a0,80001816 <sysctl_pll_source_set_freq.part.5+0x2e>
    8000192a:	4785                	li	a5,1
    8000192c:	38f98e63          	beq	s3,a5,80001cc8 <sysctl_pll_source_set_freq.part.5+0x4e0>
    80001930:	32098563          	beqz	s3,80001c5a <sysctl_pll_source_set_freq.part.5+0x472>
    80001934:	4789                	li	a5,2
    80001936:	eef990e3          	bne	s3,a5,80001816 <sysctl_pll_source_set_freq.part.5+0x2e>
    8000193a:	504407b7          	lui	a5,0x50440
    8000193e:	4b9c                	lw	a5,16(a5)
    80001940:	01a7d69b          	srliw	a3,a5,0x1a
    80001944:	8a8d                	andi	a3,a3,3
    80001946:	0159ed63          	bltu	s3,s5,80001960 <sysctl_pll_source_set_freq.part.5+0x178>
    8000194a:	1a82                	slli	s5,s5,0x20
    8000194c:	020ada93          	srli	s5,s5,0x20
    80001950:	0000d717          	auipc	a4,0xd
    80001954:	dc870713          	addi	a4,a4,-568 # 8000e718 <get_select_pll2>
    80001958:	9aba                	add	s5,s5,a4
    8000195a:	000ac683          	lbu	a3,0(s5)
    8000195e:	8a8d                	andi	a3,a3,3
    80001960:	34fd                	addiw	s1,s1,-1
    80001962:	00f4f713          	andi	a4,s1,15
    80001966:	fffd049b          	addiw	s1,s10,-1
    8000196a:	c007f793          	andi	a5,a5,-1024
    8000196e:	03f4f493          	andi	s1,s1,63
    80001972:	8fd9                	or	a5,a5,a4
    80001974:	0044949b          	slliw	s1,s1,0x4
    80001978:	8cdd                	or	s1,s1,a5
    8000197a:	347d                	addiw	s0,s0,-1
    8000197c:	77f1                	lui	a5,0xffffc
    8000197e:	883d                	andi	s0,s0,15
    80001980:	3ff78793          	addi	a5,a5,1023 # ffffffffffffc3ff <_buffer_start+0xffffffff7ffb4bbf>
    80001984:	8fe5                	and	a5,a5,s1
    80001986:	00a4141b          	slliw	s0,s0,0xa
    8000198a:	8c5d                	or	s0,s0,a5
    8000198c:	fffc879b          	addiw	a5,s9,-1
    80001990:	03f7f793          	andi	a5,a5,63
    80001994:	00e7971b          	slliw	a4,a5,0xe
    80001998:	fff047b7          	lui	a5,0xfff04
    8000199c:	17fd                	addi	a5,a5,-1
    8000199e:	8fe1                	and	a5,a5,s0
    800019a0:	8fd9                	or	a5,a5,a4
    800019a2:	f4000737          	lui	a4,0xf4000
    800019a6:	177d                	addi	a4,a4,-1
    800019a8:	8ff9                	and	a5,a5,a4
    800019aa:	01a6969b          	slliw	a3,a3,0x1a
    800019ae:	8fd5                	or	a5,a5,a3
    800019b0:	50440737          	lui	a4,0x50440
    800019b4:	cb1c                	sw	a5,16(a4)
    800019b6:	a4f5                	j	80001ca2 <sysctl_pll_source_set_freq.part.5+0x4ba>
    800019b8:	00006097          	auipc	ra,0x6
    800019bc:	8c8080e7          	jalr	-1848(ra) # 80007280 <__floatsidf>
    800019c0:	75a6                	ld	a1,104(sp)
    800019c2:	8a2a                	mv	s4,a0
    800019c4:	00005097          	auipc	ra,0x5
    800019c8:	edc080e7          	jalr	-292(ra) # 800068a0 <__muldf3>
    800019cc:	00004097          	auipc	ra,0x4
    800019d0:	2fc080e7          	jalr	764(ra) # 80005cc8 <rint>
    800019d4:	00005097          	auipc	ra,0x5
    800019d8:	7c2080e7          	jalr	1986(ra) # 80007196 <__fixdfsi>
    800019dc:	0005091b          	sext.w	s2,a0
    800019e0:	8dca                	mv	s11,s2
    800019e2:	0d205763          	blez	s2,80001ab0 <sysctl_pll_source_set_freq.part.5+0x2c8>
    800019e6:	00006097          	auipc	ra,0x6
    800019ea:	89a080e7          	jalr	-1894(ra) # 80007280 <__floatsidf>
    800019ee:	85aa                	mv	a1,a0
    800019f0:	8baa                	mv	s7,a0
    800019f2:	6562                	ld	a0,24(sp)
    800019f4:	00005097          	auipc	ra,0x5
    800019f8:	9ee080e7          	jalr	-1554(ra) # 800063e2 <__divdf3>
    800019fc:	67c6                	ld	a5,80(sp)
    800019fe:	638c                	ld	a1,0(a5)
    80001a00:	00005097          	auipc	ra,0x5
    80001a04:	d90080e7          	jalr	-624(ra) # 80006790 <__gedf2>
    80001a08:	0aa04463          	bgtz	a0,80001ab0 <sysctl_pll_source_set_freq.part.5+0x2c8>
    80001a0c:	000c1363          	bnez	s8,80001a12 <sysctl_pll_source_set_freq.part.5+0x22a>
    80001a10:	4c05                	li	s8,1
    80001a12:	7562                	ld	a0,56(sp)
    80001a14:	85de                	mv	a1,s7
    80001a16:	00005097          	auipc	ra,0x5
    80001a1a:	e8a080e7          	jalr	-374(ra) # 800068a0 <__muldf3>
    80001a1e:	85aa                	mv	a1,a0
    80001a20:	8552                	mv	a0,s4
    80001a22:	00005097          	auipc	ra,0x5
    80001a26:	9c0080e7          	jalr	-1600(ra) # 800063e2 <__divdf3>
    80001a2a:	77c6                	ld	a5,112(sp)
    80001a2c:	85aa                	mv	a1,a0
    80001a2e:	6388                	ld	a0,0(a5)
    80001a30:	00005097          	auipc	ra,0x5
    80001a34:	1ec080e7          	jalr	492(ra) # 80006c1c <__subdf3>
    80001a38:	f02a                	sd	a0,32(sp)
    80001a3a:	7782                	ld	a5,32(sp)
    80001a3c:	7766                	ld	a4,120(sp)
    80001a3e:	6522                	ld	a0,8(sp)
    80001a40:	00e7fbb3          	and	s7,a5,a4
    80001a44:	0000c797          	auipc	a5,0xc
    80001a48:	9ac78793          	addi	a5,a5,-1620 # 8000d3f0 <CSWTCH.33+0x38>
    80001a4c:	638c                	ld	a1,0(a5)
    80001a4e:	00005097          	auipc	ra,0x5
    80001a52:	e52080e7          	jalr	-430(ra) # 800068a0 <__muldf3>
    80001a56:	85aa                	mv	a1,a0
    80001a58:	855e                	mv	a0,s7
    80001a5a:	00005097          	auipc	ra,0x5
    80001a5e:	dbe080e7          	jalr	-578(ra) # 80006818 <__ledf2>
    80001a62:	00054e63          	bltz	a0,80001a7e <sysctl_pll_source_set_freq.part.5+0x296>
    80001a66:	0000c797          	auipc	a5,0xc
    80001a6a:	99278793          	addi	a5,a5,-1646 # 8000d3f8 <CSWTCH.33+0x40>
    80001a6e:	638c                	ld	a1,0(a5)
    80001a70:	855e                	mv	a0,s7
    80001a72:	00005097          	auipc	ra,0x5
    80001a76:	da6080e7          	jalr	-602(ra) # 80006818 <__ledf2>
    80001a7a:	02055b63          	bgez	a0,80001ab0 <sysctl_pll_source_set_freq.part.5+0x2c8>
    80001a7e:	6566                	ld	a0,88(sp)
    80001a80:	00004097          	auipc	ra,0x4
    80001a84:	0e0080e7          	jalr	224(ra) # 80005b60 <floor>
    80001a88:	00005097          	auipc	ra,0x5
    80001a8c:	70e080e7          	jalr	1806(ra) # 80007196 <__fixdfsi>
    80001a90:	0005081b          	sext.w	a6,a0
    80001a94:	46c1                	li	a3,16
    80001a96:	872a                	mv	a4,a0
    80001a98:	0005079b          	sext.w	a5,a0
    80001a9c:	0106d363          	ble	a6,a3,80001aa2 <sysctl_pll_source_set_freq.part.5+0x2ba>
    80001aa0:	47c1                	li	a5,16
    80001aa2:	8a3e                	mv	s4,a5
    80001aa4:	4685                	li	a3,1
    80001aa6:	0146c963          	blt	a3,s4,80001ab8 <sysctl_pll_source_set_freq.part.5+0x2d0>
    80001aaa:	034de6bb          	remw	a3,s11,s4
    80001aae:	ca99                	beqz	a3,80001ac4 <sysctl_pll_source_set_freq.part.5+0x2dc>
    80001ab0:	67c2                	ld	a5,16(sp)
    80001ab2:	0785                	addi	a5,a5,1
    80001ab4:	e83e                	sd	a5,16(sp)
    80001ab6:	b581                	j	800018f6 <sysctl_pll_source_set_freq.part.5+0x10e>
    80001ab8:	034946bb          	divw	a3,s2,s4
    80001abc:	ced1                	beqz	a3,80001b58 <sysctl_pll_source_set_freq.part.5+0x370>
    80001abe:	034966bb          	remw	a3,s2,s4
    80001ac2:	ead9                	bnez	a3,80001b58 <sysctl_pll_source_set_freq.part.5+0x370>
    80001ac4:	6686                	ld	a3,64(sp)
    80001ac6:	6642                	ld	a2,16(sp)
    80001ac8:	00c685b3          	add	a1,a3,a2
    80001acc:	0347c63b          	divw	a2,a5,s4
    80001ad0:	04000693          	li	a3,64
    80001ad4:	0386c6bb          	divw	a3,a3,s8
    80001ad8:	87b2                	mv	a5,a2
    80001ada:	0006889b          	sext.w	a7,a3
    80001ade:	00c8d363          	ble	a2,a7,80001ae4 <sysctl_pll_source_set_freq.part.5+0x2fc>
    80001ae2:	87b6                	mv	a5,a3
    80001ae4:	03478b3b          	mulw	s6,a5,s4
    80001ae8:	4017551b          	sraiw	a0,a4,0x1
    80001aec:	0007861b          	sext.w	a2,a5
    80001af0:	02ab4a63          	blt	s6,a0,80001b24 <sysctl_pll_source_set_freq.part.5+0x33c>
    80001af4:	7506                	ld	a0,96(sp)
    80001af6:	f536                	sd	a3,168(sp)
    80001af8:	f142                	sd	a6,160(sp)
    80001afa:	ed3a                	sd	a4,152(sp)
    80001afc:	e92e                	sd	a1,144(sp)
    80001afe:	e532                	sd	a2,136(sp)
    80001b00:	e4c6                	sd	a7,72(sp)
    80001b02:	00004097          	auipc	ra,0x4
    80001b06:	efe080e7          	jalr	-258(ra) # 80005a00 <ceil>
    80001b0a:	00005097          	auipc	ra,0x5
    80001b0e:	68c080e7          	jalr	1676(ra) # 80007196 <__fixdfsi>
    80001b12:	2501                	sext.w	a0,a0
    80001b14:	68a6                	ld	a7,72(sp)
    80001b16:	662a                	ld	a2,136(sp)
    80001b18:	65ca                	ld	a1,144(sp)
    80001b1a:	676a                	ld	a4,152(sp)
    80001b1c:	780a                	ld	a6,160(sp)
    80001b1e:	76aa                	ld	a3,168(sp)
    80001b20:	02ab5e63          	ble	a0,s6,80001b5c <sysctl_pll_source_set_freq.part.5+0x374>
    80001b24:	031b5c63          	ble	a7,s6,80001b5c <sysctl_pll_source_set_freq.part.5+0x374>
    80001b28:	2681                	sext.w	a3,a3
    80001b2a:	4641                	li	a2,16
    80001b2c:	87b6                	mv	a5,a3
    80001b2e:	00d65363          	ble	a3,a2,80001b34 <sysctl_pll_source_set_freq.part.5+0x34c>
    80001b32:	47c1                	li	a5,16
    80001b34:	0007869b          	sext.w	a3,a5
    80001b38:	0106d363          	ble	a6,a3,80001b3e <sysctl_pll_source_set_freq.part.5+0x356>
    80001b3c:	873e                	mv	a4,a5
    80001b3e:	038707bb          	mulw	a5,a4,s8
    80001b42:	00070b1b          	sext.w	s6,a4
    80001b46:	e4be                	sd	a5,72(sp)
    80001b48:	4785                	li	a5,1
    80001b4a:	02bb0a33          	mul	s4,s6,a1
    80001b4e:	0367d463          	ble	s6,a5,80001b76 <sysctl_pll_source_set_freq.part.5+0x38e>
    80001b52:	6782                	ld	a5,0(sp)
    80001b54:	e38d                	bnez	a5,80001b76 <sysctl_pll_source_set_freq.part.5+0x38e>
    80001b56:	bfa9                	j	80001ab0 <sysctl_pll_source_set_freq.part.5+0x2c8>
    80001b58:	3a7d                	addiw	s4,s4,-1
    80001b5a:	b7a9                	j	80001aa4 <sysctl_pll_source_set_freq.part.5+0x2bc>
    80001b5c:	02cc07bb          	mulw	a5,s8,a2
    80001b60:	e4be                	sd	a5,72(sp)
    80001b62:	47c1                	li	a5,16
    80001b64:	034dc93b          	divw	s2,s11,s4
    80001b68:	02b60a33          	mul	s4,a2,a1
    80001b6c:	f567c2e3          	blt	a5,s6,80001ab0 <sysctl_pll_source_set_freq.part.5+0x2c8>
    80001b70:	4785                	li	a5,1
    80001b72:	fec7c0e3          	blt	a5,a2,80001b52 <sysctl_pll_source_set_freq.part.5+0x36a>
    80001b76:	000a0c1b          	sext.w	s8,s4
    80001b7a:	0d805363          	blez	s8,80001c40 <sysctl_pll_source_set_freq.part.5+0x458>
    80001b7e:	04000793          	li	a5,64
    80001b82:	f387c7e3          	blt	a5,s8,80001ab0 <sysctl_pll_source_set_freq.part.5+0x2c8>
    80001b86:	854a                	mv	a0,s2
    80001b88:	00005097          	auipc	ra,0x5
    80001b8c:	6f8080e7          	jalr	1784(ra) # 80007280 <__floatsidf>
    80001b90:	85aa                	mv	a1,a0
    80001b92:	6562                	ld	a0,24(sp)
    80001b94:	00005097          	auipc	ra,0x5
    80001b98:	84e080e7          	jalr	-1970(ra) # 800063e2 <__divdf3>
    80001b9c:	8daa                	mv	s11,a0
    80001b9e:	8552                	mv	a0,s4
    80001ba0:	00005097          	auipc	ra,0x5
    80001ba4:	7f8080e7          	jalr	2040(ra) # 80007398 <__floatdidf>
    80001ba8:	85ee                	mv	a1,s11
    80001baa:	00005097          	auipc	ra,0x5
    80001bae:	cf6080e7          	jalr	-778(ra) # 800068a0 <__muldf3>
    80001bb2:	678a                	ld	a5,128(sp)
    80001bb4:	e52a                	sd	a0,136(sp)
    80001bb6:	638c                	ld	a1,0(a5)
    80001bb8:	00005097          	auipc	ra,0x5
    80001bbc:	c60080e7          	jalr	-928(ra) # 80006818 <__ledf2>
    80001bc0:	ee0548e3          	bltz	a0,80001ab0 <sysctl_pll_source_set_freq.part.5+0x2c8>
    80001bc4:	67c6                	ld	a5,80(sp)
    80001bc6:	672a                	ld	a4,136(sp)
    80001bc8:	638c                	ld	a1,0(a5)
    80001bca:	853a                	mv	a0,a4
    80001bcc:	00005097          	auipc	ra,0x5
    80001bd0:	bc4080e7          	jalr	-1084(ra) # 80006790 <__gedf2>
    80001bd4:	eca04ee3          	bgtz	a0,80001ab0 <sysctl_pll_source_set_freq.part.5+0x2c8>
    80001bd8:	67a6                	ld	a5,72(sp)
    80001bda:	ecf05be3          	blez	a5,80001ab0 <sysctl_pll_source_set_freq.part.5+0x2c8>
    80001bde:	0000c797          	auipc	a5,0xc
    80001be2:	82278793          	addi	a5,a5,-2014 # 8000d400 <CSWTCH.33+0x48>
    80001be6:	638c                	ld	a1,0(a5)
    80001be8:	856e                	mv	a0,s11
    80001bea:	00005097          	auipc	ra,0x5
    80001bee:	c2e080e7          	jalr	-978(ra) # 80006818 <__ledf2>
    80001bf2:	ea054fe3          	bltz	a0,80001ab0 <sysctl_pll_source_set_freq.part.5+0x2c8>
    80001bf6:	47c1                	li	a5,16
    80001bf8:	eb27cce3          	blt	a5,s2,80001ab0 <sysctl_pll_source_set_freq.part.5+0x2c8>
    80001bfc:	0000c797          	auipc	a5,0xc
    80001c00:	80c78793          	addi	a5,a5,-2036 # 8000d408 <CSWTCH.33+0x50>
    80001c04:	638c                	ld	a1,0(a5)
    80001c06:	6522                	ld	a0,8(sp)
    80001c08:	00005097          	auipc	ra,0x5
    80001c0c:	c98080e7          	jalr	-872(ra) # 800068a0 <__muldf3>
    80001c10:	85aa                	mv	a1,a0
    80001c12:	855e                	mv	a0,s7
    80001c14:	00005097          	auipc	ra,0x5
    80001c18:	b7c080e7          	jalr	-1156(ra) # 80006790 <__gedf2>
    80001c1c:	00054463          	bltz	a0,80001c24 <sysctl_pll_source_set_freq.part.5+0x43c>
    80001c20:	e96458e3          	ble	s6,s0,80001ab0 <sysctl_pll_source_set_freq.part.5+0x2c8>
    80001c24:	6782                	ld	a5,0(sp)
    80001c26:	ef99                	bnez	a5,80001c44 <sysctl_pll_source_set_freq.part.5+0x45c>
    80001c28:	e924c4e3          	blt	s1,s2,80001ab0 <sysctl_pll_source_set_freq.part.5+0x2c8>
    80001c2c:	7782                	ld	a5,32(sp)
    80001c2e:	8d52                	mv	s10,s4
    80001c30:	8ce2                	mv	s9,s8
    80001c32:	f83e                	sd	a5,48(sp)
    80001c34:	4785                	li	a5,1
    80001c36:	845a                	mv	s0,s6
    80001c38:	84ca                	mv	s1,s2
    80001c3a:	e45e                	sd	s7,8(sp)
    80001c3c:	f43e                	sd	a5,40(sp)
    80001c3e:	bd8d                	j	80001ab0 <sysctl_pll_source_set_freq.part.5+0x2c8>
    80001c40:	4c05                	li	s8,1
    80001c42:	b791                	j	80001b86 <sysctl_pll_source_set_freq.part.5+0x39e>
    80001c44:	7782                	ld	a5,32(sp)
    80001c46:	8d52                	mv	s10,s4
    80001c48:	8ce2                	mv	s9,s8
    80001c4a:	f83e                	sd	a5,48(sp)
    80001c4c:	6782                	ld	a5,0(sp)
    80001c4e:	845a                	mv	s0,s6
    80001c50:	84ca                	mv	s1,s2
    80001c52:	e45e                	sd	s7,8(sp)
    80001c54:	f43e                	sd	a5,40(sp)
    80001c56:	e002                	sd	zero,0(sp)
    80001c58:	bda1                	j	80001ab0 <sysctl_pll_source_set_freq.part.5+0x2c8>
    80001c5a:	50440637          	lui	a2,0x50440
    80001c5e:	461c                	lw	a5,8(a2)
    80001c60:	34fd                	addiw	s1,s1,-1
    80001c62:	fffd071b          	addiw	a4,s10,-1
    80001c66:	88bd                	andi	s1,s1,15
    80001c68:	c007f793          	andi	a5,a5,-1024
    80001c6c:	03f77713          	andi	a4,a4,63
    80001c70:	0047171b          	slliw	a4,a4,0x4
    80001c74:	8fc5                	or	a5,a5,s1
    80001c76:	8fd9                	or	a5,a5,a4
    80001c78:	347d                	addiw	s0,s0,-1
    80001c7a:	7771                	lui	a4,0xffffc
    80001c7c:	3ff70713          	addi	a4,a4,1023 # ffffffffffffc3ff <_buffer_start+0xffffffff7ffb4bbf>
    80001c80:	883d                	andi	s0,s0,15
    80001c82:	8ff9                	and	a5,a5,a4
    80001c84:	00a4141b          	slliw	s0,s0,0xa
    80001c88:	fffc871b          	addiw	a4,s9,-1
    80001c8c:	fff046b7          	lui	a3,0xfff04
    80001c90:	8fc1                	or	a5,a5,s0
    80001c92:	03f77713          	andi	a4,a4,63
    80001c96:	16fd                	addi	a3,a3,-1
    80001c98:	00e7171b          	slliw	a4,a4,0xe
    80001c9c:	8ff5                	and	a5,a5,a3
    80001c9e:	8fd9                	or	a5,a5,a4
    80001ca0:	c61c                	sw	a5,8(a2)
    80001ca2:	6452                	ld	s0,272(sp)
    80001ca4:	60f2                	ld	ra,280(sp)
    80001ca6:	64b2                	ld	s1,264(sp)
    80001ca8:	6912                	ld	s2,256(sp)
    80001caa:	7a4e                	ld	s4,240(sp)
    80001cac:	7aae                	ld	s5,232(sp)
    80001cae:	7b0e                	ld	s6,224(sp)
    80001cb0:	6bee                	ld	s7,216(sp)
    80001cb2:	6c4e                	ld	s8,208(sp)
    80001cb4:	6cae                	ld	s9,200(sp)
    80001cb6:	6d0e                	ld	s10,192(sp)
    80001cb8:	7dea                	ld	s11,184(sp)
    80001cba:	854e                	mv	a0,s3
    80001cbc:	79ee                	ld	s3,248(sp)
    80001cbe:	6115                	addi	sp,sp,288
    80001cc0:	00000317          	auipc	t1,0x0
    80001cc4:	b1630067          	jr	-1258(t1) # 800017d6 <sysctl_pll_get_freq>
    80001cc8:	50440637          	lui	a2,0x50440
    80001ccc:	465c                	lw	a5,12(a2)
    80001cce:	34fd                	addiw	s1,s1,-1
    80001cd0:	fffd071b          	addiw	a4,s10,-1
    80001cd4:	88bd                	andi	s1,s1,15
    80001cd6:	c007f793          	andi	a5,a5,-1024
    80001cda:	03f77713          	andi	a4,a4,63
    80001cde:	0047171b          	slliw	a4,a4,0x4
    80001ce2:	8fc5                	or	a5,a5,s1
    80001ce4:	8fd9                	or	a5,a5,a4
    80001ce6:	347d                	addiw	s0,s0,-1
    80001ce8:	7771                	lui	a4,0xffffc
    80001cea:	3ff70713          	addi	a4,a4,1023 # ffffffffffffc3ff <_buffer_start+0xffffffff7ffb4bbf>
    80001cee:	883d                	andi	s0,s0,15
    80001cf0:	8ff9                	and	a5,a5,a4
    80001cf2:	00a4141b          	slliw	s0,s0,0xa
    80001cf6:	fffc871b          	addiw	a4,s9,-1
    80001cfa:	fff046b7          	lui	a3,0xfff04
    80001cfe:	8fc1                	or	a5,a5,s0
    80001d00:	03f77713          	andi	a4,a4,63
    80001d04:	16fd                	addi	a3,a3,-1
    80001d06:	00e7171b          	slliw	a4,a4,0xe
    80001d0a:	8ff5                	and	a5,a5,a3
    80001d0c:	8fd9                	or	a5,a5,a4
    80001d0e:	c65c                	sw	a5,12(a2)
    80001d10:	bf49                	j	80001ca2 <sysctl_pll_source_set_freq.part.5+0x4ba>

0000000080001d12 <sysctl_clock_get_freq>:
    80001d12:	fffff317          	auipc	t1,0xfffff
    80001d16:	7e430067          	jr	2020(t1) # 800014f6 <sysctl_clock_get_freq.part.2>

0000000080001d1a <sysctl_set_power_mode>:
    80001d1a:	504406b7          	lui	a3,0x50440
    80001d1e:	4785                	li	a5,1
    80001d20:	56f8                	lw	a4,108(a3)
    80001d22:	00a7953b          	sllw	a0,a5,a0
    80001d26:	c581                	beqz	a1,80001d2e <sysctl_set_power_mode+0x14>
    80001d28:	8d59                	or	a0,a0,a4
    80001d2a:	d6e8                	sw	a0,108(a3)
    80001d2c:	8082                	ret
    80001d2e:	fff54513          	not	a0,a0
    80001d32:	8d79                	and	a0,a0,a4
    80001d34:	bfdd                	j	80001d2a <sysctl_set_power_mode+0x10>

0000000080001d36 <sysctl_pll_set_freq>:
    80001d36:	7179                	addi	sp,sp,-48
    80001d38:	e84a                	sd	s2,16(sp)
    80001d3a:	f406                	sd	ra,40(sp)
    80001d3c:	f022                	sd	s0,32(sp)
    80001d3e:	ec26                	sd	s1,24(sp)
    80001d40:	e44e                	sd	s3,8(sp)
    80001d42:	892e                	mv	s2,a1
    80001d44:	c9e9                	beqz	a1,80001e16 <sysctl_pll_set_freq+0xe0>
    80001d46:	4789                	li	a5,2
    80001d48:	84aa                	mv	s1,a0
    80001d4a:	0ea7e863          	bltu	a5,a0,80001e3a <sysctl_pll_set_freq+0x104>
    80001d4e:	02051793          	slli	a5,a0,0x20
    80001d52:	01d7d713          	srli	a4,a5,0x1d
    80001d56:	0000b797          	auipc	a5,0xb
    80001d5a:	66278793          	addi	a5,a5,1634 # 8000d3b8 <CSWTCH.33>
    80001d5e:	97ba                	add	a5,a5,a4
    80001d60:	6380                	ld	s0,0(a5)
    80001d62:	e511                	bnez	a0,80001d6e <sysctl_pll_set_freq+0x38>
    80001d64:	50440737          	lui	a4,0x50440
    80001d68:	531c                	lw	a5,32(a4)
    80001d6a:	9bf9                	andi	a5,a5,-2
    80001d6c:	d31c                	sw	a5,32(a4)
    80001d6e:	401c                	lw	a5,0(s0)
    80001d70:	fe000737          	lui	a4,0xfe000
    80001d74:	177d                	addi	a4,a4,-1
    80001d76:	8ff9                	and	a5,a5,a4
    80001d78:	c01c                	sw	a5,0(s0)
    80001d7a:	401c                	lw	a5,0(s0)
    80001d7c:	ffe00737          	lui	a4,0xffe00
    80001d80:	177d                	addi	a4,a4,-1
    80001d82:	8ff9                	and	a5,a5,a4
    80001d84:	c01c                	sw	a5,0(s0)
    80001d86:	4789                	li	a5,2
    80001d88:	08f49f63          	bne	s1,a5,80001e26 <sysctl_pll_set_freq+0xf0>
    80001d8c:	504407b7          	lui	a5,0x50440
    80001d90:	4b8c                	lw	a1,16(a5)
    80001d92:	864a                	mv	a2,s2
    80001d94:	4509                	li	a0,2
    80001d96:	01a5d59b          	srliw	a1,a1,0x1a
    80001d9a:	898d                	andi	a1,a1,3
    80001d9c:	00000097          	auipc	ra,0x0
    80001da0:	a4c080e7          	jalr	-1460(ra) # 800017e8 <sysctl_pll_source_set_freq.part.5>
    80001da4:	401c                	lw	a5,0(s0)
    80001da6:	00200737          	lui	a4,0x200
    80001daa:	0005091b          	sext.w	s2,a0
    80001dae:	8fd9                	or	a5,a5,a4
    80001db0:	c01c                	sw	a5,0(s0)
    80001db2:	4505                	li	a0,1
    80001db4:	ffffe097          	auipc	ra,0xffffe
    80001db8:	5e2080e7          	jalr	1506(ra) # 80000396 <usleep>
    80001dbc:	401c                	lw	a5,0(s0)
    80001dbe:	fff009b7          	lui	s3,0xfff00
    80001dc2:	19fd                	addi	s3,s3,-1
    80001dc4:	0137f7b3          	and	a5,a5,s3
    80001dc8:	c01c                	sw	a5,0(s0)
    80001dca:	401c                	lw	a5,0(s0)
    80001dcc:	00100737          	lui	a4,0x100
    80001dd0:	4505                	li	a0,1
    80001dd2:	8fd9                	or	a5,a5,a4
    80001dd4:	c01c                	sw	a5,0(s0)
    80001dd6:	ffffe097          	auipc	ra,0xffffe
    80001dda:	5c0080e7          	jalr	1472(ra) # 80000396 <usleep>
    80001dde:	401c                	lw	a5,0(s0)
    80001de0:	0137f9b3          	and	s3,a5,s3
    80001de4:	01342023          	sw	s3,0(s0) # 50440000 <_stack_size+0x50438000>
    80001de8:	8526                	mv	a0,s1
    80001dea:	fffff097          	auipc	ra,0xfffff
    80001dee:	46c080e7          	jalr	1132(ra) # 80001256 <sysctl_pll_is_lock.part.0>
    80001df2:	cd15                	beqz	a0,80001e2e <sysctl_pll_set_freq+0xf8>
    80001df4:	401c                	lw	a5,0(s0)
    80001df6:	02000737          	lui	a4,0x2000
    80001dfa:	8fd9                	or	a5,a5,a4
    80001dfc:	c01c                	sw	a5,0(s0)
    80001dfe:	ec81                	bnez	s1,80001e16 <sysctl_pll_set_freq+0xe0>
    80001e00:	50440737          	lui	a4,0x50440
    80001e04:	531c                	lw	a5,32(a4)
    80001e06:	557d                	li	a0,-1
    80001e08:	0017e793          	ori	a5,a5,1
    80001e0c:	d31c                	sw	a5,32(a4)
    80001e0e:	fffff097          	auipc	ra,0xfffff
    80001e12:	ebe080e7          	jalr	-322(ra) # 80000ccc <uart_debug_init>
    80001e16:	70a2                	ld	ra,40(sp)
    80001e18:	7402                	ld	s0,32(sp)
    80001e1a:	854a                	mv	a0,s2
    80001e1c:	64e2                	ld	s1,24(sp)
    80001e1e:	6942                	ld	s2,16(sp)
    80001e20:	69a2                	ld	s3,8(sp)
    80001e22:	6145                	addi	sp,sp,48
    80001e24:	8082                	ret
    80001e26:	864a                	mv	a2,s2
    80001e28:	4581                	li	a1,0
    80001e2a:	8526                	mv	a0,s1
    80001e2c:	bf85                	j	80001d9c <sysctl_pll_set_freq+0x66>
    80001e2e:	8526                	mv	a0,s1
    80001e30:	fffff097          	auipc	ra,0xfffff
    80001e34:	462080e7          	jalr	1122(ra) # 80001292 <sysctl_pll_clear_slip>
    80001e38:	bf45                	j	80001de8 <sysctl_pll_set_freq+0xb2>
    80001e3a:	4901                	li	s2,0
    80001e3c:	bfe9                	j	80001e16 <sysctl_pll_set_freq+0xe0>

0000000080001e3e <sysctl_enable_irq>:
    80001e3e:	6785                	lui	a5,0x1
    80001e40:	8007879b          	addiw	a5,a5,-2048
    80001e44:	3047a7f3          	csrrs	a5,mie,a5
    80001e48:	300467f3          	csrrsi	a5,mstatus,8
    80001e4c:	8082                	ret

0000000080001e4e <sysctl_disable_irq>:
    80001e4e:	6785                	lui	a5,0x1
    80001e50:	8007879b          	addiw	a5,a5,-2048
    80001e54:	3047b7f3          	csrrc	a5,mie,a5
    80001e58:	300477f3          	csrrci	a5,mstatus,8
    80001e5c:	8082                	ret

0000000080001e5e <sysctl_get_reset_status>:
    80001e5e:	00010797          	auipc	a5,0x10
    80001e62:	bfa78793          	addi	a5,a5,-1030 # 80011a58 <s_reset_status.5845>
    80001e66:	4388                	lw	a0,0(a5)
    80001e68:	873e                	mv	a4,a5
    80001e6a:	e505                	bnez	a0,80001e92 <sysctl_get_reset_status+0x34>
    80001e6c:	504406b7          	lui	a3,0x50440
    80001e70:	52bc                	lw	a5,96(a3)
    80001e72:	0027d79b          	srliw	a5,a5,0x2
    80001e76:	8b85                	andi	a5,a5,1
    80001e78:	cf91                	beqz	a5,80001e94 <sysctl_get_reset_status+0x36>
    80001e7a:	4789                	li	a5,2
    80001e7c:	00010697          	auipc	a3,0x10
    80001e80:	bcf6ae23          	sw	a5,-1060(a3) # 80011a58 <s_reset_status.5845>
    80001e84:	504406b7          	lui	a3,0x50440
    80001e88:	52bc                	lw	a5,96(a3)
    80001e8a:	0017e793          	ori	a5,a5,1
    80001e8e:	d2bc                	sw	a5,96(a3)
    80001e90:	4308                	lw	a0,0(a4)
    80001e92:	8082                	ret
    80001e94:	52bc                	lw	a5,96(a3)
    80001e96:	0037d79b          	srliw	a5,a5,0x3
    80001e9a:	8b85                	andi	a5,a5,1
    80001e9c:	c399                	beqz	a5,80001ea2 <sysctl_get_reset_status+0x44>
    80001e9e:	478d                	li	a5,3
    80001ea0:	bff1                	j	80001e7c <sysctl_get_reset_status+0x1e>
    80001ea2:	52bc                	lw	a5,96(a3)
    80001ea4:	0047d79b          	srliw	a5,a5,0x4
    80001ea8:	8b85                	andi	a5,a5,1
    80001eaa:	dfe9                	beqz	a5,80001e84 <sysctl_get_reset_status+0x26>
    80001eac:	4785                	li	a5,1
    80001eae:	b7f9                	j	80001e7c <sysctl_get_reset_status+0x1e>

0000000080001eb0 <syslog_print>:
    80001eb0:	7159                	addi	sp,sp,-112
    80001eb2:	ec26                	sd	s1,24(sp)
    80001eb4:	00017497          	auipc	s1,0x17
    80001eb8:	b5c48493          	addi	s1,s1,-1188 # 80018a10 <buf>
    80001ebc:	fc2e                	sd	a1,56(sp)
    80001ebe:	e0b2                	sd	a2,64(sp)
    80001ec0:	85aa                	mv	a1,a0
    80001ec2:	1830                	addi	a2,sp,56
    80001ec4:	8526                	mv	a0,s1
    80001ec6:	f406                	sd	ra,40(sp)
    80001ec8:	f022                	sd	s0,32(sp)
    80001eca:	e4b6                	sd	a3,72(sp)
    80001ecc:	e8ba                	sd	a4,80(sp)
    80001ece:	ecbe                	sd	a5,88(sp)
    80001ed0:	f0c2                	sd	a6,96(sp)
    80001ed2:	f4c6                	sd	a7,104(sp)
    80001ed4:	e432                	sd	a2,8(sp)
    80001ed6:	00006097          	auipc	ra,0x6
    80001eda:	916080e7          	jalr	-1770(ra) # 800077ec <vsprintf>
    80001ede:	842a                	mv	s0,a0
    80001ee0:	862a                	mv	a2,a0
    80001ee2:	85a6                	mv	a1,s1
    80001ee4:	4509                	li	a0,2
    80001ee6:	fffff097          	auipc	ra,0xfffff
    80001eea:	c76080e7          	jalr	-906(ra) # 80000b5c <uart_send_data>
    80001eee:	8522                	mv	a0,s0
    80001ef0:	70a2                	ld	ra,40(sp)
    80001ef2:	7402                	ld	s0,32(sp)
    80001ef4:	64e2                	ld	s1,24(sp)
    80001ef6:	6165                	addi	sp,sp,112
    80001ef8:	8082                	ret

0000000080001efa <syslog_vprint>:
    80001efa:	1101                	addi	sp,sp,-32
    80001efc:	e426                	sd	s1,8(sp)
    80001efe:	00017497          	auipc	s1,0x17
    80001f02:	b1248493          	addi	s1,s1,-1262 # 80018a10 <buf>
    80001f06:	862e                	mv	a2,a1
    80001f08:	85aa                	mv	a1,a0
    80001f0a:	8526                	mv	a0,s1
    80001f0c:	ec06                	sd	ra,24(sp)
    80001f0e:	e822                	sd	s0,16(sp)
    80001f10:	00006097          	auipc	ra,0x6
    80001f14:	8dc080e7          	jalr	-1828(ra) # 800077ec <vsprintf>
    80001f18:	842a                	mv	s0,a0
    80001f1a:	862a                	mv	a2,a0
    80001f1c:	85a6                	mv	a1,s1
    80001f1e:	4509                	li	a0,2
    80001f20:	fffff097          	auipc	ra,0xfffff
    80001f24:	c3c080e7          	jalr	-964(ra) # 80000b5c <uart_send_data>
    80001f28:	8522                	mv	a0,s0
    80001f2a:	60e2                	ld	ra,24(sp)
    80001f2c:	6442                	ld	s0,16(sp)
    80001f2e:	64a2                	ld	s1,8(sp)
    80001f30:	6105                	addi	sp,sp,32
    80001f32:	8082                	ret

0000000080001f34 <syslog_debug>:
    80001f34:	7179                	addi	sp,sp,-48
    80001f36:	e032                	sd	a2,0(sp)
    80001f38:	e436                	sd	a3,8(sp)
    80001f3a:	e83a                	sd	a4,16(sp)
    80001f3c:	ec3e                	sd	a5,24(sp)
    80001f3e:	f042                	sd	a6,32(sp)
    80001f40:	f446                	sd	a7,40(sp)
    80001f42:	6145                	addi	sp,sp,48
    80001f44:	8082                	ret

0000000080001f46 <syslog_info>:
    80001f46:	7179                	addi	sp,sp,-48
    80001f48:	e032                	sd	a2,0(sp)
    80001f4a:	e436                	sd	a3,8(sp)
    80001f4c:	e83a                	sd	a4,16(sp)
    80001f4e:	ec3e                	sd	a5,24(sp)
    80001f50:	f042                	sd	a6,32(sp)
    80001f52:	f446                	sd	a7,40(sp)
    80001f54:	6145                	addi	sp,sp,48
    80001f56:	8082                	ret

0000000080001f58 <syslog_warning>:
    80001f58:	7179                	addi	sp,sp,-48
    80001f5a:	e032                	sd	a2,0(sp)
    80001f5c:	e436                	sd	a3,8(sp)
    80001f5e:	e83a                	sd	a4,16(sp)
    80001f60:	ec3e                	sd	a5,24(sp)
    80001f62:	f042                	sd	a6,32(sp)
    80001f64:	f446                	sd	a7,40(sp)
    80001f66:	6145                	addi	sp,sp,48
    80001f68:	8082                	ret

0000000080001f6a <syslog_error>:
    80001f6a:	7179                	addi	sp,sp,-48
    80001f6c:	e032                	sd	a2,0(sp)
    80001f6e:	e436                	sd	a3,8(sp)
    80001f70:	e83a                	sd	a4,16(sp)
    80001f72:	ec3e                	sd	a5,24(sp)
    80001f74:	f042                	sd	a6,32(sp)
    80001f76:	f446                	sd	a7,40(sp)
    80001f78:	6145                	addi	sp,sp,48
    80001f7a:	8082                	ret

0000000080001f7c <syslog_dump_memory>:
    80001f7c:	715d                	addi	sp,sp,-80
    80001f7e:	e0a2                	sd	s0,64(sp)
    80001f80:	842a                	mv	s0,a0
    80001f82:	0000b517          	auipc	a0,0xb
    80001f86:	49650513          	addi	a0,a0,1174 # 8000d418 <CSWTCH.33+0x60>
    80001f8a:	fc26                	sd	s1,56(sp)
    80001f8c:	f84a                	sd	s2,48(sp)
    80001f8e:	f44e                	sd	s3,40(sp)
    80001f90:	f052                	sd	s4,32(sp)
    80001f92:	e486                	sd	ra,72(sp)
    80001f94:	ec56                	sd	s5,24(sp)
    80001f96:	e85a                	sd	s6,16(sp)
    80001f98:	e45e                	sd	s7,8(sp)
    80001f9a:	892e                	mv	s2,a1
    80001f9c:	4481                	li	s1,0
    80001f9e:	00000097          	auipc	ra,0x0
    80001fa2:	f12080e7          	jalr	-238(ra) # 80001eb0 <syslog_print>
    80001fa6:	0000ba17          	auipc	s4,0xb
    80001faa:	48aa0a13          	addi	s4,s4,1162 # 8000d430 <CSWTCH.33+0x78>
    80001fae:	49c1                	li	s3,16
    80001fb0:	85a6                	mv	a1,s1
    80001fb2:	8552                	mv	a0,s4
    80001fb4:	2485                	addiw	s1,s1,1
    80001fb6:	00000097          	auipc	ra,0x0
    80001fba:	efa080e7          	jalr	-262(ra) # 80001eb0 <syslog_print>
    80001fbe:	ff3499e3          	bne	s1,s3,80001fb0 <syslog_dump_memory+0x34>
    80001fc2:	ff047a13          	andi	s4,s0,-16
    80001fc6:	944a                	add	s0,s0,s2
    80001fc8:	597d                	li	s2,-1
    80001fca:	41440433          	sub	s0,s0,s4
    80001fce:	4481                	li	s1,0
    80001fd0:	0000ca97          	auipc	s5,0xc
    80001fd4:	cf8a8a93          	addi	s5,s5,-776 # 8000dcc8 <CSWTCH.0+0x4a0>
    80001fd8:	02095913          	srli	s2,s2,0x20
    80001fdc:	0000bb17          	auipc	s6,0xb
    80001fe0:	45cb0b13          	addi	s6,s6,1116 # 8000d438 <CSWTCH.33+0x80>
    80001fe4:	0000bb97          	auipc	s7,0xb
    80001fe8:	44cb8b93          	addi	s7,s7,1100 # 8000d430 <CSWTCH.33+0x78>
    80001fec:	0004879b          	sext.w	a5,s1
    80001ff0:	02941463          	bne	s0,s1,80002018 <syslog_dump_memory+0x9c>
    80001ff4:	6406                	ld	s0,64(sp)
    80001ff6:	60a6                	ld	ra,72(sp)
    80001ff8:	74e2                	ld	s1,56(sp)
    80001ffa:	7942                	ld	s2,48(sp)
    80001ffc:	79a2                	ld	s3,40(sp)
    80001ffe:	7a02                	ld	s4,32(sp)
    80002000:	6ae2                	ld	s5,24(sp)
    80002002:	6b42                	ld	s6,16(sp)
    80002004:	6ba2                	ld	s7,8(sp)
    80002006:	0000c517          	auipc	a0,0xc
    8000200a:	cc250513          	addi	a0,a0,-830 # 8000dcc8 <CSWTCH.0+0x4a0>
    8000200e:	6161                	addi	sp,sp,80
    80002010:	00000317          	auipc	t1,0x0
    80002014:	ea030067          	jr	-352(t1) # 80001eb0 <syslog_print>
    80002018:	8bbd                	andi	a5,a5,15
    8000201a:	009a09b3          	add	s3,s4,s1
    8000201e:	ef99                	bnez	a5,8000203c <syslog_dump_memory+0xc0>
    80002020:	8556                	mv	a0,s5
    80002022:	00000097          	auipc	ra,0x0
    80002026:	e8e080e7          	jalr	-370(ra) # 80001eb0 <syslog_print>
    8000202a:	0129f633          	and	a2,s3,s2
    8000202e:	0209d593          	srli	a1,s3,0x20
    80002032:	855a                	mv	a0,s6
    80002034:	00000097          	auipc	ra,0x0
    80002038:	e7c080e7          	jalr	-388(ra) # 80001eb0 <syslog_print>
    8000203c:	0009c583          	lbu	a1,0(s3) # fffffffffff00000 <_buffer_start+0xffffffff7feb87c0>
    80002040:	855e                	mv	a0,s7
    80002042:	0485                	addi	s1,s1,1
    80002044:	00000097          	auipc	ra,0x0
    80002048:	e6c080e7          	jalr	-404(ra) # 80001eb0 <syslog_print>
    8000204c:	b745                	j	80001fec <syslog_dump_memory+0x70>

000000008000204e <syslog_flagn>:
    8000204e:	8082                	ret

0000000080002050 <privilege_getstring>:
    80002050:	478d                	li	a5,3
    80002052:	00a7eb63          	bltu	a5,a0,80002068 <privilege_getstring+0x18>
    80002056:	1502                	slli	a0,a0,0x20
    80002058:	0000b797          	auipc	a5,0xb
    8000205c:	3f078793          	addi	a5,a5,1008 # 8000d448 <CSWTCH.3>
    80002060:	8175                	srli	a0,a0,0x1d
    80002062:	953e                	add	a0,a0,a5
    80002064:	6108                	ld	a0,0(a0)
    80002066:	8082                	ret
    80002068:	0000b517          	auipc	a0,0xb
    8000206c:	40050513          	addi	a0,a0,1024 # 8000d468 <CSWTCH.3+0x20>
    80002070:	8082                	ret

0000000080002072 <privilege_init>:
    80002072:	1141                	addi	sp,sp,-16
    80002074:	e022                	sd	s0,0(sp)
    80002076:	e406                	sd	ra,8(sp)
    80002078:	842a                	mv	s0,a0
    8000207a:	00000097          	auipc	ra,0x0
    8000207e:	33a080e7          	jalr	826(ra) # 800023b4 <core_get_info>
    80002082:	c900                	sw	s0,16(a0)
    80002084:	478d                	li	a5,3
    80002086:	0000b617          	auipc	a2,0xb
    8000208a:	3e260613          	addi	a2,a2,994 # 8000d468 <CSWTCH.3+0x20>
    8000208e:	0087ec63          	bltu	a5,s0,800020a6 <privilege_init+0x34>
    80002092:	02041793          	slli	a5,s0,0x20
    80002096:	01d7d713          	srli	a4,a5,0x1d
    8000209a:	0000b797          	auipc	a5,0xb
    8000209e:	3ae78793          	addi	a5,a5,942 # 8000d448 <CSWTCH.3>
    800020a2:	97ba                	add	a5,a5,a4
    800020a4:	6390                	ld	a2,0(a5)
    800020a6:	0000b597          	auipc	a1,0xb
    800020aa:	3ca58593          	addi	a1,a1,970 # 8000d470 <CSWTCH.3+0x28>
    800020ae:	0000b517          	auipc	a0,0xb
    800020b2:	3f250513          	addi	a0,a0,1010 # 8000d4a0 <CSWTCH.3+0x58>
    800020b6:	00000097          	auipc	ra,0x0
    800020ba:	e90080e7          	jalr	-368(ra) # 80001f46 <syslog_info>
    800020be:	00000097          	auipc	ra,0x0
    800020c2:	2f6080e7          	jalr	758(ra) # 800023b4 <core_get_info>
    800020c6:	491c                	lw	a5,16(a0)
    800020c8:	02878663          	beq	a5,s0,800020f4 <privilege_init+0x82>
    800020cc:	00000097          	auipc	ra,0x0
    800020d0:	2e8080e7          	jalr	744(ra) # 800023b4 <core_get_info>
    800020d4:	6402                	ld	s0,0(sp)
    800020d6:	60a2                	ld	ra,8(sp)
    800020d8:	862a                	mv	a2,a0
    800020da:	0000b597          	auipc	a1,0xb
    800020de:	72658593          	addi	a1,a1,1830 # 8000d800 <CSWTCH.3+0x3b8>
    800020e2:	0000b517          	auipc	a0,0xb
    800020e6:	3ce50513          	addi	a0,a0,974 # 8000d4b0 <CSWTCH.3+0x68>
    800020ea:	0141                	addi	sp,sp,16
    800020ec:	00000317          	auipc	t1,0x0
    800020f0:	e7e30067          	jr	-386(t1) # 80001f6a <syslog_error>
    800020f4:	60a2                	ld	ra,8(sp)
    800020f6:	6402                	ld	s0,0(sp)
    800020f8:	0141                	addi	sp,sp,16
    800020fa:	8082                	ret

00000000800020fc <privilege_trap_entry>:
    800020fc:	7139                	addi	sp,sp,-64
    800020fe:	f822                	sd	s0,48(sp)
    80002100:	f426                	sd	s1,40(sp)
    80002102:	e832                	sd	a2,16(sp)
    80002104:	e436                	sd	a3,8(sp)
    80002106:	fc06                	sd	ra,56(sp)
    80002108:	842a                	mv	s0,a0
    8000210a:	ec2e                	sd	a1,24(sp)
    8000210c:	00000097          	auipc	ra,0x0
    80002110:	2a8080e7          	jalr	680(ra) # 800023b4 <core_get_info>
    80002114:	84aa                	mv	s1,a0
    80002116:	4908                	lw	a0,16(a0)
    80002118:	468d                	li	a3,3
    8000211a:	6822                	ld	a6,8(sp)
    8000211c:	67c2                	ld	a5,16(sp)
    8000211e:	6762                	ld	a4,24(sp)
    80002120:	0000b617          	auipc	a2,0xb
    80002124:	34860613          	addi	a2,a2,840 # 8000d468 <CSWTCH.3+0x20>
    80002128:	00a6ea63          	bltu	a3,a0,8000213c <privilege_trap_entry+0x40>
    8000212c:	1502                	slli	a0,a0,0x20
    8000212e:	8175                	srli	a0,a0,0x1d
    80002130:	0000b897          	auipc	a7,0xb
    80002134:	31888893          	addi	a7,a7,792 # 8000d448 <CSWTCH.3>
    80002138:	9546                	add	a0,a0,a7
    8000213a:	6110                	ld	a2,0(a0)
    8000213c:	458d                	li	a1,3
    8000213e:	0000b697          	auipc	a3,0xb
    80002142:	32a68693          	addi	a3,a3,810 # 8000d468 <CSWTCH.3+0x20>
    80002146:	0085ec63          	bltu	a1,s0,8000215e <privilege_trap_entry+0x62>
    8000214a:	02041513          	slli	a0,s0,0x20
    8000214e:	01d55893          	srli	a7,a0,0x1d
    80002152:	0000b517          	auipc	a0,0xb
    80002156:	2f650513          	addi	a0,a0,758 # 8000d448 <CSWTCH.3>
    8000215a:	9546                	add	a0,a0,a7
    8000215c:	6114                	ld	a3,0(a0)
    8000215e:	0000b597          	auipc	a1,0xb
    80002162:	49258593          	addi	a1,a1,1170 # 8000d5f0 <CSWTCH.3+0x1a8>
    80002166:	0000b517          	auipc	a0,0xb
    8000216a:	4e250513          	addi	a0,a0,1250 # 8000d648 <CSWTCH.3+0x200>
    8000216e:	00000097          	auipc	ra,0x0
    80002172:	dd8080e7          	jalr	-552(ra) # 80001f46 <syslog_info>
    80002176:	70e2                	ld	ra,56(sp)
    80002178:	c880                	sw	s0,16(s1)
    8000217a:	7442                	ld	s0,48(sp)
    8000217c:	74a2                	ld	s1,40(sp)
    8000217e:	6121                	addi	sp,sp,64
    80002180:	8082                	ret

0000000080002182 <privilege_get_previous_level>:
    80002182:	1141                	addi	sp,sp,-16
    80002184:	e406                	sd	ra,8(sp)
    80002186:	00000097          	auipc	ra,0x0
    8000218a:	22e080e7          	jalr	558(ra) # 800023b4 <core_get_info>
    8000218e:	491c                	lw	a5,16(a0)
    80002190:	4705                	li	a4,1
    80002192:	00e78d63          	beq	a5,a4,800021ac <privilege_get_previous_level+0x2a>
    80002196:	470d                	li	a4,3
    80002198:	4501                	li	a0,0
    8000219a:	00e79663          	bne	a5,a4,800021a6 <privilege_get_previous_level+0x24>
    8000219e:	30002573          	csrr	a0,mstatus
    800021a2:	812d                	srli	a0,a0,0xb
    800021a4:	890d                	andi	a0,a0,3
    800021a6:	60a2                	ld	ra,8(sp)
    800021a8:	0141                	addi	sp,sp,16
    800021aa:	8082                	ret
    800021ac:	10002573          	csrr	a0,sstatus
    800021b0:	8121                	srli	a0,a0,0x8
    800021b2:	8905                	andi	a0,a0,1
    800021b4:	bfcd                	j	800021a6 <privilege_get_previous_level+0x24>

00000000800021b6 <privilege_trap_exit>:
    800021b6:	7179                	addi	sp,sp,-48
    800021b8:	f022                	sd	s0,32(sp)
    800021ba:	ec26                	sd	s1,24(sp)
    800021bc:	f406                	sd	ra,40(sp)
    800021be:	84aa                	mv	s1,a0
    800021c0:	00000097          	auipc	ra,0x0
    800021c4:	1f4080e7          	jalr	500(ra) # 800023b4 <core_get_info>
    800021c8:	491c                	lw	a5,16(a0)
    800021ca:	470d                	li	a4,3
    800021cc:	842a                	mv	s0,a0
    800021ce:	0000b617          	auipc	a2,0xb
    800021d2:	29a60613          	addi	a2,a2,666 # 8000d468 <CSWTCH.3+0x20>
    800021d6:	00f76a63          	bltu	a4,a5,800021ea <privilege_trap_exit+0x34>
    800021da:	1782                	slli	a5,a5,0x20
    800021dc:	83f5                	srli	a5,a5,0x1d
    800021de:	0000b717          	auipc	a4,0xb
    800021e2:	26a70713          	addi	a4,a4,618 # 8000d448 <CSWTCH.3>
    800021e6:	97ba                	add	a5,a5,a4
    800021e8:	6390                	ld	a2,0(a5)
    800021ea:	e432                	sd	a2,8(sp)
    800021ec:	00000097          	auipc	ra,0x0
    800021f0:	f96080e7          	jalr	-106(ra) # 80002182 <privilege_get_previous_level>
    800021f4:	2501                	sext.w	a0,a0
    800021f6:	478d                	li	a5,3
    800021f8:	0000b697          	auipc	a3,0xb
    800021fc:	27068693          	addi	a3,a3,624 # 8000d468 <CSWTCH.3+0x20>
    80002200:	6622                	ld	a2,8(sp)
    80002202:	00a7ea63          	bltu	a5,a0,80002216 <privilege_trap_exit+0x60>
    80002206:	1502                	slli	a0,a0,0x20
    80002208:	8175                	srli	a0,a0,0x1d
    8000220a:	0000b797          	auipc	a5,0xb
    8000220e:	23e78793          	addi	a5,a5,574 # 8000d448 <CSWTCH.3>
    80002212:	953e                	add	a0,a0,a5
    80002214:	6114                	ld	a3,0(a0)
    80002216:	34102773          	csrr	a4,mepc
    8000221a:	0000b597          	auipc	a1,0xb
    8000221e:	44658593          	addi	a1,a1,1094 # 8000d660 <CSWTCH.3+0x218>
    80002222:	0000b517          	auipc	a0,0xb
    80002226:	47e50513          	addi	a0,a0,1150 # 8000d6a0 <CSWTCH.3+0x258>
    8000222a:	00000097          	auipc	ra,0x0
    8000222e:	d1c080e7          	jalr	-740(ra) # 80001f46 <syslog_info>
    80002232:	00000097          	auipc	ra,0x0
    80002236:	f50080e7          	jalr	-176(ra) # 80002182 <privilege_get_previous_level>
    8000223a:	c808                	sw	a0,16(s0)
    8000223c:	70a2                	ld	ra,40(sp)
    8000223e:	7402                	ld	s0,32(sp)
    80002240:	8526                	mv	a0,s1
    80002242:	64e2                	ld	s1,24(sp)
    80002244:	6145                	addi	sp,sp,48
    80002246:	8082                	ret

0000000080002248 <privilege_to_user>:
    80002248:	1101                	addi	sp,sp,-32
    8000224a:	e822                	sd	s0,16(sp)
    8000224c:	e426                	sd	s1,8(sp)
    8000224e:	ec06                	sd	ra,24(sp)
    80002250:	84aa                	mv	s1,a0
    80002252:	00000097          	auipc	ra,0x0
    80002256:	162080e7          	jalr	354(ra) # 800023b4 <core_get_info>
    8000225a:	491c                	lw	a5,16(a0)
    8000225c:	4705                	li	a4,1
    8000225e:	842a                	mv	s0,a0
    80002260:	04e78a63          	beq	a5,a4,800022b4 <privilege_to_user+0x6c>
    80002264:	470d                	li	a4,3
    80002266:	08e79663          	bne	a5,a4,800022f2 <privilege_to_user+0xaa>
    8000226a:	0000b617          	auipc	a2,0xb
    8000226e:	2a660613          	addi	a2,a2,678 # 8000d510 <CSWTCH.3+0xc8>
    80002272:	0000b597          	auipc	a1,0xb
    80002276:	2e658593          	addi	a1,a1,742 # 8000d558 <CSWTCH.3+0x110>
    8000227a:	0000b517          	auipc	a0,0xb
    8000227e:	27e50513          	addi	a0,a0,638 # 8000d4f8 <CSWTCH.3+0xb0>
    80002282:	00000097          	auipc	ra,0x0
    80002286:	cc4080e7          	jalr	-828(ra) # 80001f46 <syslog_info>
    8000228a:	00042823          	sw	zero,16(s0)
    8000228e:	300027f3          	csrr	a5,mstatus
    80002292:	34102773          	csrr	a4,mepc
    80002296:	7779                	lui	a4,0xffffe
    80002298:	7ff70713          	addi	a4,a4,2047 # ffffffffffffe7ff <_buffer_start+0xffffffff7ffb6fbf>
    8000229c:	8ff9                	and	a5,a5,a4
    8000229e:	30079073          	csrw	mstatus,a5
    800022a2:	34149073          	csrw	mepc,s1
    800022a6:	30200073          	mret
    800022aa:	60e2                	ld	ra,24(sp)
    800022ac:	6442                	ld	s0,16(sp)
    800022ae:	64a2                	ld	s1,8(sp)
    800022b0:	6105                	addi	sp,sp,32
    800022b2:	8082                	ret
    800022b4:	0000b617          	auipc	a2,0xb
    800022b8:	2dc60613          	addi	a2,a2,732 # 8000d590 <CSWTCH.3+0x148>
    800022bc:	0000b597          	auipc	a1,0xb
    800022c0:	29c58593          	addi	a1,a1,668 # 8000d558 <CSWTCH.3+0x110>
    800022c4:	0000b517          	auipc	a0,0xb
    800022c8:	23450513          	addi	a0,a0,564 # 8000d4f8 <CSWTCH.3+0xb0>
    800022cc:	00000097          	auipc	ra,0x0
    800022d0:	c7a080e7          	jalr	-902(ra) # 80001f46 <syslog_info>
    800022d4:	00042823          	sw	zero,16(s0)
    800022d8:	100027f3          	csrr	a5,sstatus
    800022dc:	14102773          	csrr	a4,sepc
    800022e0:	eff7f793          	andi	a5,a5,-257
    800022e4:	10079073          	csrw	sstatus,a5
    800022e8:	14149073          	csrw	sepc,s1
    800022ec:	10200073          	sret
    800022f0:	bf6d                	j	800022aa <privilege_to_user+0x62>
    800022f2:	0000b617          	auipc	a2,0xb
    800022f6:	17660613          	addi	a2,a2,374 # 8000d468 <CSWTCH.3+0x20>
    800022fa:	00f76a63          	bltu	a4,a5,8000230e <privilege_to_user+0xc6>
    800022fe:	1782                	slli	a5,a5,0x20
    80002300:	83f5                	srli	a5,a5,0x1d
    80002302:	0000b717          	auipc	a4,0xb
    80002306:	14670713          	addi	a4,a4,326 # 8000d448 <CSWTCH.3>
    8000230a:	97ba                	add	a5,a5,a4
    8000230c:	6390                	ld	a2,0(a5)
    8000230e:	6442                	ld	s0,16(sp)
    80002310:	60e2                	ld	ra,24(sp)
    80002312:	64a2                	ld	s1,8(sp)
    80002314:	0000b597          	auipc	a1,0xb
    80002318:	28c58593          	addi	a1,a1,652 # 8000d5a0 <CSWTCH.3+0x158>
    8000231c:	0000b517          	auipc	a0,0xb
    80002320:	2bc50513          	addi	a0,a0,700 # 8000d5d8 <CSWTCH.3+0x190>
    80002324:	6105                	addi	sp,sp,32
    80002326:	00000317          	auipc	t1,0x0
    8000232a:	c4430067          	jr	-956(t1) # 80001f6a <syslog_error>

000000008000232e <privilege_get_cur_level>:
    8000232e:	1141                	addi	sp,sp,-16
    80002330:	e406                	sd	ra,8(sp)
    80002332:	00000097          	auipc	ra,0x0
    80002336:	088080e7          	jalr	136(ra) # 800023ba <core_get_readonly_info>
    8000233a:	60a2                	ld	ra,8(sp)
    8000233c:	4908                	lw	a0,16(a0)
    8000233e:	0141                	addi	sp,sp,16
    80002340:	8082                	ret

0000000080002342 <core_init>:
    80002342:	f1402673          	csrr	a2,mhartid
    80002346:	4785                	li	a5,1
    80002348:	00c7fe63          	bleu	a2,a5,80002364 <core_init+0x22>
    8000234c:	0000b597          	auipc	a1,0xb
    80002350:	37458593          	addi	a1,a1,884 # 8000d6c0 <CSWTCH.3+0x278>
    80002354:	0000b517          	auipc	a0,0xb
    80002358:	38450513          	addi	a0,a0,900 # 8000d6d8 <CSWTCH.3+0x290>
    8000235c:	00000317          	auipc	t1,0x0
    80002360:	c0e30067          	jr	-1010(t1) # 80001f6a <syslog_error>
    80002364:	4761                	li	a4,24
    80002366:	02e607b3          	mul	a5,a2,a4
    8000236a:	00017717          	auipc	a4,0x17
    8000236e:	aa670713          	addi	a4,a4,-1370 # 80018e10 <core_info>
    80002372:	973e                	add	a4,a4,a5
    80002374:	34071073          	csrw	mscratch,a4
    80002378:	14071073          	csrw	sscratch,a4
    8000237c:	321027f3          	csrr	a5,mscounteren
    80002380:	0077e693          	ori	a3,a5,7
    80002384:	0ff6f693          	andi	a3,a3,255
    80002388:	f007f793          	andi	a5,a5,-256
    8000238c:	8fd5                	or	a5,a5,a3
    8000238e:	32179073          	csrw	mscounteren,a5
    80002392:	320027f3          	csrr	a5,mucounteren
    80002396:	0077e693          	ori	a3,a5,7
    8000239a:	0ff6f693          	andi	a3,a3,255
    8000239e:	f007f793          	andi	a5,a5,-256
    800023a2:	8fd5                	or	a5,a5,a3
    800023a4:	32079073          	csrw	mucounteren,a5
    800023a8:	450d                	li	a0,3
    800023aa:	e710                	sd	a2,8(a4)
    800023ac:	00000317          	auipc	t1,0x0
    800023b0:	cc630067          	jr	-826(t1) # 80002072 <privilege_init>

00000000800023b4 <core_get_info>:
    800023b4:	14002573          	csrr	a0,sscratch
    800023b8:	8082                	ret

00000000800023ba <core_get_readonly_info>:
    800023ba:	14002573          	csrr	a0,sscratch
    800023be:	8082                	ret

00000000800023c0 <core_get_coreid>:
    800023c0:	140027f3          	csrr	a5,sscratch
    800023c4:	6788                	ld	a0,8(a5)
    800023c6:	8082                	ret

00000000800023c8 <pte_common_init>:
    800023c8:	00359613          	slli	a2,a1,0x3
    800023cc:	4581                	li	a1,0
    800023ce:	00005317          	auipc	t1,0x5
    800023d2:	34230067          	jr	834(t1) # 80007710 <memset>

00000000800023d6 <pte_common_set_accessibility>:
    800023d6:	0015f793          	andi	a5,a1,1
    800023da:	0017971b          	slliw	a4,a5,0x1
    800023de:	411c                	lw	a5,0(a0)
    800023e0:	9bf5                	andi	a5,a5,-3
    800023e2:	8fd9                	or	a5,a5,a4
    800023e4:	c11c                	sw	a5,0(a0)
    800023e6:	0015d79b          	srliw	a5,a1,0x1
    800023ea:	8b85                	andi	a5,a5,1
    800023ec:	0027971b          	slliw	a4,a5,0x2
    800023f0:	411c                	lw	a5,0(a0)
    800023f2:	0025d59b          	srliw	a1,a1,0x2
    800023f6:	8985                	andi	a1,a1,1
    800023f8:	9bed                	andi	a5,a5,-5
    800023fa:	8fd9                	or	a5,a5,a4
    800023fc:	c11c                	sw	a5,0(a0)
    800023fe:	411c                	lw	a5,0(a0)
    80002400:	0035959b          	slliw	a1,a1,0x3
    80002404:	9bdd                	andi	a5,a5,-9
    80002406:	8ddd                	or	a1,a1,a5
    80002408:	c10c                	sw	a1,0(a0)
    8000240a:	8082                	ret

000000008000240c <pte_common_addr_to_ppn>:
    8000240c:	411c                	lw	a5,0(a0)
    8000240e:	05ba                	slli	a1,a1,0xe
    80002410:	81e9                	srli	a1,a1,0x1a
    80002412:	00a5971b          	slliw	a4,a1,0xa
    80002416:	3ff7f793          	andi	a5,a5,1023
    8000241a:	8fd9                	or	a5,a5,a4
    8000241c:	c11c                	sw	a5,0(a0)
    8000241e:	415c                	lw	a5,4(a0)
    80002420:	7741                	lui	a4,0xffff0
    80002422:	81d9                	srli	a1,a1,0x16
    80002424:	8ff9                	and	a5,a5,a4
    80002426:	8ddd                	or	a1,a1,a5
    80002428:	c14c                	sw	a1,4(a0)
    8000242a:	8082                	ret

000000008000242c <pte_common_ppn_to_addr>:
    8000242c:	411c                	lw	a5,0(a0)
    8000242e:	00a7d71b          	srliw	a4,a5,0xa
    80002432:	415c                	lw	a5,4(a0)
    80002434:	557d                	li	a0,-1
    80002436:	8169                	srli	a0,a0,0x1a
    80002438:	17c2                	slli	a5,a5,0x30
    8000243a:	83e9                	srli	a5,a5,0x1a
    8000243c:	8fd9                	or	a5,a5,a4
    8000243e:	07b2                	slli	a5,a5,0xc
    80002440:	8d7d                	and	a0,a0,a5
    80002442:	8082                	ret

0000000080002444 <pte_common_enable_entry>:
    80002444:	1141                	addi	sp,sp,-16
    80002446:	e022                	sd	s0,0(sp)
    80002448:	862a                	mv	a2,a0
    8000244a:	842a                	mv	s0,a0
    8000244c:	0000b597          	auipc	a1,0xb
    80002450:	29c58593          	addi	a1,a1,668 # 8000d6e8 <CSWTCH.3+0x2a0>
    80002454:	0000b517          	auipc	a0,0xb
    80002458:	2ac50513          	addi	a0,a0,684 # 8000d700 <CSWTCH.3+0x2b8>
    8000245c:	e406                	sd	ra,8(sp)
    8000245e:	00000097          	auipc	ra,0x0
    80002462:	ae8080e7          	jalr	-1304(ra) # 80001f46 <syslog_info>
    80002466:	401c                	lw	a5,0(s0)
    80002468:	60a2                	ld	ra,8(sp)
    8000246a:	0017e793          	ori	a5,a5,1
    8000246e:	c01c                	sw	a5,0(s0)
    80002470:	6402                	ld	s0,0(sp)
    80002472:	0141                	addi	sp,sp,16
    80002474:	8082                	ret

0000000080002476 <pte_common_enable_user>:
    80002476:	411c                	lw	a5,0(a0)
    80002478:	0107e793          	ori	a5,a5,16
    8000247c:	c11c                	sw	a5,0(a0)
    8000247e:	8082                	ret

0000000080002480 <pte_common_set_writeable>:
    80002480:	411c                	lw	a5,0(a0)
    80002482:	0047e793          	ori	a5,a5,4
    80002486:	c11c                	sw	a5,0(a0)
    80002488:	8082                	ret

000000008000248a <pte_entry_sv39>:
    8000248a:	1141                	addi	sp,sp,-16
    8000248c:	0000b597          	auipc	a1,0xb
    80002490:	28c58593          	addi	a1,a1,652 # 8000d718 <CSWTCH.3+0x2d0>
    80002494:	0000b517          	auipc	a0,0xb
    80002498:	29c50513          	addi	a0,a0,668 # 8000d730 <CSWTCH.3+0x2e8>
    8000249c:	e406                	sd	ra,8(sp)
    8000249e:	00000097          	auipc	ra,0x0
    800024a2:	aa8080e7          	jalr	-1368(ra) # 80001f46 <syslog_info>
    800024a6:	300027f3          	csrr	a5,mstatus
    800024aa:	e1000737          	lui	a4,0xe1000
    800024ae:	177d                	addi	a4,a4,-1
    800024b0:	8ff9                	and	a5,a5,a4
    800024b2:	09000737          	lui	a4,0x9000
    800024b6:	8fd9                	or	a5,a5,a4
    800024b8:	30079073          	csrw	mstatus,a5
    800024bc:	60a2                	ld	ra,8(sp)
    800024be:	0141                	addi	sp,sp,16
    800024c0:	8082                	ret

00000000800024c2 <pte_refresh_tlb>:
    800024c2:	10400073          	sfence.vm
    800024c6:	8082                	ret

00000000800024c8 <pte_set_root_page_table>:
    800024c8:	180027f3          	csrr	a5,satp
    800024cc:	577d                	li	a4,-1
    800024ce:	01a75693          	srli	a3,a4,0x1a
    800024d2:	8131                	srli	a0,a0,0xc
    800024d4:	171a                	slli	a4,a4,0x26
    800024d6:	8d75                	and	a0,a0,a3
    800024d8:	8ff9                	and	a5,a5,a4
    800024da:	8fc9                	or	a5,a5,a0
    800024dc:	18079073          	csrw	satp,a5
    800024e0:	10400073          	sfence.vm
    800024e4:	8082                	ret

00000000800024e6 <regs_backup>:
    800024e6:	00153423          	sd	ra,8(a0)
    800024ea:	00253823          	sd	sp,16(a0)
    800024ee:	00353c23          	sd	gp,24(a0)
    800024f2:	02453023          	sd	tp,32(a0)
    800024f6:	02553423          	sd	t0,40(a0)
    800024fa:	02653823          	sd	t1,48(a0)
    800024fe:	02753c23          	sd	t2,56(a0)
    80002502:	e120                	sd	s0,64(a0)
    80002504:	e524                	sd	s1,72(a0)
    80002506:	e928                	sd	a0,80(a0)
    80002508:	ed2c                	sd	a1,88(a0)
    8000250a:	f130                	sd	a2,96(a0)
    8000250c:	f534                	sd	a3,104(a0)
    8000250e:	f938                	sd	a4,112(a0)
    80002510:	fd3c                	sd	a5,120(a0)
    80002512:	09053023          	sd	a6,128(a0)
    80002516:	09153423          	sd	a7,136(a0)
    8000251a:	09253823          	sd	s2,144(a0)
    8000251e:	09353c23          	sd	s3,152(a0)
    80002522:	0b453023          	sd	s4,160(a0)
    80002526:	0b553423          	sd	s5,168(a0)
    8000252a:	0b653823          	sd	s6,176(a0)
    8000252e:	0b753c23          	sd	s7,184(a0)
    80002532:	0d853023          	sd	s8,192(a0)
    80002536:	0d953423          	sd	s9,200(a0)
    8000253a:	0da53823          	sd	s10,208(a0)
    8000253e:	0db53c23          	sd	s11,216(a0)
    80002542:	0fc53023          	sd	t3,224(a0)
    80002546:	0fd53423          	sd	t4,232(a0)
    8000254a:	0fe53823          	sd	t5,240(a0)
    8000254e:	0ff53c23          	sd	t6,248(a0)
    80002552:	1005a027          	fsw	ft0,256(a1)
    80002556:	1015a427          	fsw	ft1,264(a1)
    8000255a:	1025a827          	fsw	ft2,272(a1)
    8000255e:	1035ac27          	fsw	ft3,280(a1)
    80002562:	1245a027          	fsw	ft4,288(a1)
    80002566:	1255a427          	fsw	ft5,296(a1)
    8000256a:	1265a827          	fsw	ft6,304(a1)
    8000256e:	1275ac27          	fsw	ft7,312(a1)
    80002572:	1485a027          	fsw	fs0,320(a1)
    80002576:	1495a427          	fsw	fs1,328(a1)
    8000257a:	14a5a827          	fsw	fa0,336(a1)
    8000257e:	14b5ac27          	fsw	fa1,344(a1)
    80002582:	16c5a027          	fsw	fa2,352(a1)
    80002586:	16d5a427          	fsw	fa3,360(a1)
    8000258a:	16e5a827          	fsw	fa4,368(a1)
    8000258e:	16f5ac27          	fsw	fa5,376(a1)
    80002592:	1905a027          	fsw	fa6,384(a1)
    80002596:	1915a427          	fsw	fa7,392(a1)
    8000259a:	1925a827          	fsw	fs2,400(a1)
    8000259e:	1935ac27          	fsw	fs3,408(a1)
    800025a2:	1b45a027          	fsw	fs4,416(a1)
    800025a6:	1b55a427          	fsw	fs5,424(a1)
    800025aa:	1b65a827          	fsw	fs6,432(a1)
    800025ae:	1b75ac27          	fsw	fs7,440(a1)
    800025b2:	1d85a027          	fsw	fs8,448(a1)
    800025b6:	1d95a427          	fsw	fs9,456(a1)
    800025ba:	1da5a827          	fsw	fs10,464(a1)
    800025be:	1db5ac27          	fsw	fs11,472(a1)
    800025c2:	1fc5a027          	fsw	ft8,480(a1)
    800025c6:	1fd5a427          	fsw	ft9,488(a1)
    800025ca:	1fe5a827          	fsw	ft10,496(a1)
    800025ce:	1ff5ac27          	fsw	ft11,504(a1)
    800025d2:	8082                	ret

00000000800025d4 <thread_entry>:
    800025d4:	050e                	slli	a0,a0,0x3
    800025d6:	ffffe797          	auipc	a5,0xffffe
    800025da:	a3278793          	addi	a5,a5,-1486 # 80000008 <g_wake_up>
    800025de:	97aa                	add	a5,a5,a0
    800025e0:	6398                	ld	a4,0(a5)
    800025e2:	df7d                	beqz	a4,800025e0 <thread_entry+0xc>
    800025e4:	8082                	ret

00000000800025e6 <init_bss>:
    800025e6:	00010797          	auipc	a5,0x10
    800025ea:	a1a78793          	addi	a5,a5,-1510 # 80012000 <page_dir_table>
    800025ee:	00025717          	auipc	a4,0x25
    800025f2:	24270713          	addi	a4,a4,578 # 80027830 <_ebss>
    800025f6:	00e7e363          	bltu	a5,a4,800025fc <init_bss+0x16>
    800025fa:	8082                	ret
    800025fc:	0791                	addi	a5,a5,4
    800025fe:	fe07ae23          	sw	zero,-4(a5)
    80002602:	bfd5                	j	800025f6 <init_bss+0x10>

0000000080002604 <entry>:
    80002604:	1141                	addi	sp,sp,-16
    80002606:	e406                	sd	ra,8(sp)
    80002608:	e022                	sd	s0,0(sp)
    8000260a:	e15d                	bnez	a0,800026b0 <entry+0xac>
    8000260c:	2faf15b7          	lui	a1,0x2faf1
    80002610:	80058593          	addi	a1,a1,-2048 # 2faf0800 <_stack_size+0x2fae8800>
    80002614:	fffff097          	auipc	ra,0xfffff
    80002618:	722080e7          	jalr	1826(ra) # 80001d36 <sysctl_pll_set_freq>
    8000261c:	00000097          	auipc	ra,0x0
    80002620:	fca080e7          	jalr	-54(ra) # 800025e6 <init_bss>
    80002624:	04400593          	li	a1,68
    80002628:	4511                	li	a0,4
    8000262a:	ffffe097          	auipc	ra,0xffffe
    8000262e:	eb8080e7          	jalr	-328(ra) # 800004e2 <fpioa_set_function>
    80002632:	04500593          	li	a1,69
    80002636:	4515                	li	a0,5
    80002638:	ffffe097          	auipc	ra,0xffffe
    8000263c:	eaa080e7          	jalr	-342(ra) # 800004e2 <fpioa_set_function>
    80002640:	4509                	li	a0,2
    80002642:	ffffe097          	auipc	ra,0xffffe
    80002646:	68a080e7          	jalr	1674(ra) # 80000ccc <uart_debug_init>
    8000264a:	4581                	li	a1,0
    8000264c:	4501                	li	a0,0
    8000264e:	fffff097          	auipc	ra,0xfffff
    80002652:	6cc080e7          	jalr	1740(ra) # 80001d1a <sysctl_set_power_mode>
    80002656:	ffffe097          	auipc	ra,0xffffe
    8000265a:	da6080e7          	jalr	-602(ra) # 800003fc <fpioa_init>
    8000265e:	00000097          	auipc	ra,0x0
    80002662:	800080e7          	jalr	-2048(ra) # 80001e5e <sysctl_get_reset_status>
    80002666:	fffff097          	auipc	ra,0xfffff
    8000266a:	7e8080e7          	jalr	2024(ra) # 80001e4e <sysctl_disable_irq>
    8000266e:	00000097          	auipc	ra,0x0
    80002672:	cd4080e7          	jalr	-812(ra) # 80002342 <core_init>
    80002676:	ffffe097          	auipc	ra,0xffffe
    8000267a:	ef2080e7          	jalr	-270(ra) # 80000568 <plic_init>
    8000267e:	4515                	li	a0,5
    80002680:	ffffe097          	auipc	ra,0xffffe
    80002684:	d68080e7          	jalr	-664(ra) # 800003e8 <sleep>
    80002688:	6402                	ld	s0,0(sp)
    8000268a:	60a2                	ld	ra,8(sp)
    8000268c:	00017797          	auipc	a5,0x17
    80002690:	9a07ba23          	sd	zero,-1612(a5) # 80019040 <core1_instance>
    80002694:	00017797          	auipc	a5,0x17
    80002698:	9a07ba23          	sd	zero,-1612(a5) # 80019048 <core1_instance+0x8>
    8000269c:	0141                	addi	sp,sp,16
    8000269e:	00000317          	auipc	t1,0x0
    800026a2:	18030067          	jr	384(t1) # 8000281e <machine_main>
    800026a6:	6402                	ld	s0,0(sp)
    800026a8:	60a2                	ld	ra,8(sp)
    800026aa:	6788                	ld	a0,8(a5)
    800026ac:	0141                	addi	sp,sp,16
    800026ae:	8302                	jr	t1
    800026b0:	842a                	mv	s0,a0
    800026b2:	fffff097          	auipc	ra,0xfffff
    800026b6:	79c080e7          	jalr	1948(ra) # 80001e4e <sysctl_disable_irq>
    800026ba:	8522                	mv	a0,s0
    800026bc:	00000097          	auipc	ra,0x0
    800026c0:	f18080e7          	jalr	-232(ra) # 800025d4 <thread_entry>
    800026c4:	00017797          	auipc	a5,0x17
    800026c8:	97c78793          	addi	a5,a5,-1668 # 80019040 <core1_instance>
    800026cc:	0007b303          	ld	t1,0(a5)
    800026d0:	fc031be3          	bnez	t1,800026a6 <entry+0xa2>
    800026d4:	a001                	j	800026d4 <entry+0xd0>

00000000800026d6 <usersyscall_fork>:
    800026d6:	4509                	li	a0,2
    800026d8:	00080437          	lui	s0,0x80
    800026dc:	00d4041b          	addiw	s0,s0,13
    800026e0:	00c41413          	slli	s0,s0,0xc
    800026e4:	97040413          	addi	s0,s0,-1680 # 7f970 <_stack_size+0x77970>
    800026e8:	00000073          	ecall
    800026ec:	852a                	mv	a0,a0
    800026ee:	00055963          	bgez	a0,80002700 <usersyscall_fork+0x2a>
    800026f2:	40a0053b          	negw	a0,a0
    800026f6:	00025797          	auipc	a5,0x25
    800026fa:	12a7a923          	sw	a0,306(a5) # 80027828 <errno>
    800026fe:	557d                	li	a0,-1
    80002700:	8082                	ret

0000000080002702 <usersyscall_write>:
    80002702:	85aa                	mv	a1,a0
    80002704:	4511                	li	a0,4
    80002706:	00000073          	ecall
    8000270a:	852a                	mv	a0,a0
    8000270c:	00055963          	bgez	a0,8000271e <usersyscall_write+0x1c>
    80002710:	40a0053b          	negw	a0,a0
    80002714:	00025797          	auipc	a5,0x25
    80002718:	10a7aa23          	sw	a0,276(a5) # 80027828 <errno>
    8000271c:	557d                	li	a0,-1
    8000271e:	8082                	ret

0000000080002720 <init3>:
    80002720:	1101                	addi	sp,sp,-32
    80002722:	e822                	sd	s0,16(sp)
    80002724:	e426                	sd	s1,8(sp)
    80002726:	ec06                	sd	ra,24(sp)
    80002728:	0000b497          	auipc	s1,0xb
    8000272c:	03848493          	addi	s1,s1,56 # 8000d760 <CSWTCH.3+0x318>
    80002730:	0000b417          	auipc	s0,0xb
    80002734:	03840413          	addi	s0,s0,56 # 8000d768 <CSWTCH.3+0x320>
    80002738:	8526                	mv	a0,s1
    8000273a:	00000097          	auipc	ra,0x0
    8000273e:	fc8080e7          	jalr	-56(ra) # 80002702 <usersyscall_write>
    80002742:	8522                	mv	a0,s0
    80002744:	00000097          	auipc	ra,0x0
    80002748:	fbe080e7          	jalr	-66(ra) # 80002702 <usersyscall_write>
    8000274c:	b7f5                	j	80002738 <init3+0x18>

000000008000274e <init2>:
    8000274e:	1101                	addi	sp,sp,-32
    80002750:	ec06                	sd	ra,24(sp)
    80002752:	e822                	sd	s0,16(sp)
    80002754:	e426                	sd	s1,8(sp)
    80002756:	00000097          	auipc	ra,0x0
    8000275a:	f80080e7          	jalr	-128(ra) # 800026d6 <usersyscall_fork>
    8000275e:	c505                	beqz	a0,80002786 <init2+0x38>
    80002760:	0000b497          	auipc	s1,0xb
    80002764:	ff048493          	addi	s1,s1,-16 # 8000d750 <CSWTCH.3+0x308>
    80002768:	0000b417          	auipc	s0,0xb
    8000276c:	ff040413          	addi	s0,s0,-16 # 8000d758 <CSWTCH.3+0x310>
    80002770:	8526                	mv	a0,s1
    80002772:	00000097          	auipc	ra,0x0
    80002776:	f90080e7          	jalr	-112(ra) # 80002702 <usersyscall_write>
    8000277a:	8522                	mv	a0,s0
    8000277c:	00000097          	auipc	ra,0x0
    80002780:	f86080e7          	jalr	-122(ra) # 80002702 <usersyscall_write>
    80002784:	b7f5                	j	80002770 <init2+0x22>
    80002786:	00000097          	auipc	ra,0x0
    8000278a:	f9a080e7          	jalr	-102(ra) # 80002720 <init3>

000000008000278e <init>:
    8000278e:	1101                	addi	sp,sp,-32
    80002790:	ec06                	sd	ra,24(sp)
    80002792:	e822                	sd	s0,16(sp)
    80002794:	e426                	sd	s1,8(sp)
    80002796:	00000097          	auipc	ra,0x0
    8000279a:	f40080e7          	jalr	-192(ra) # 800026d6 <usersyscall_fork>
    8000279e:	c505                	beqz	a0,800027c6 <init+0x38>
    800027a0:	0000b497          	auipc	s1,0xb
    800027a4:	fa048493          	addi	s1,s1,-96 # 8000d740 <CSWTCH.3+0x2f8>
    800027a8:	0000b417          	auipc	s0,0xb
    800027ac:	fa040413          	addi	s0,s0,-96 # 8000d748 <CSWTCH.3+0x300>
    800027b0:	8526                	mv	a0,s1
    800027b2:	00000097          	auipc	ra,0x0
    800027b6:	f50080e7          	jalr	-176(ra) # 80002702 <usersyscall_write>
    800027ba:	8522                	mv	a0,s0
    800027bc:	00000097          	auipc	ra,0x0
    800027c0:	f46080e7          	jalr	-186(ra) # 80002702 <usersyscall_write>
    800027c4:	b7f5                	j	800027b0 <init+0x22>
    800027c6:	00000097          	auipc	ra,0x0
    800027ca:	f88080e7          	jalr	-120(ra) # 8000274e <init2>

00000000800027ce <user_main>:
    800027ce:	1141                	addi	sp,sp,-16
    800027d0:	e406                	sd	ra,8(sp)
    800027d2:	00000097          	auipc	ra,0x0
    800027d6:	f04080e7          	jalr	-252(ra) # 800026d6 <usersyscall_fork>
    800027da:	ed09                	bnez	a0,800027f4 <user_main+0x26>
    800027dc:	0000b517          	auipc	a0,0xb
    800027e0:	ff450513          	addi	a0,a0,-12 # 8000d7d0 <CSWTCH.3+0x388>
    800027e4:	00000097          	auipc	ra,0x0
    800027e8:	f1e080e7          	jalr	-226(ra) # 80002702 <usersyscall_write>
    800027ec:	00000097          	auipc	ra,0x0
    800027f0:	fa2080e7          	jalr	-94(ra) # 8000278e <init>
    800027f4:	0000b517          	auipc	a0,0xb
    800027f8:	ff450513          	addi	a0,a0,-12 # 8000d7e8 <CSWTCH.3+0x3a0>
    800027fc:	00000097          	auipc	ra,0x0
    80002800:	f06080e7          	jalr	-250(ra) # 80002702 <usersyscall_write>
    80002804:	4575                	li	a0,29
    80002806:	00080437          	lui	s0,0x80
    8000280a:	00d4041b          	addiw	s0,s0,13
    8000280e:	00c41413          	slli	s0,s0,0xc
    80002812:	97040413          	addi	s0,s0,-1680 # 7f970 <_stack_size+0x77970>
    80002816:	00000073          	ecall
    8000281a:	87aa                	mv	a5,a0
    8000281c:	b7e5                	j	80002804 <user_main+0x36>

000000008000281e <machine_main>:
    8000281e:	7119                	addi	sp,sp,-128
    80002820:	fc86                	sd	ra,120(sp)
    80002822:	f8a2                	sd	s0,112(sp)
    80002824:	f0ca                	sd	s2,96(sp)
    80002826:	ecce                	sd	s3,88(sp)
    80002828:	f4a6                	sd	s1,104(sp)
    8000282a:	e8d2                	sd	s4,80(sp)
    8000282c:	e4d6                	sd	s5,72(sp)
    8000282e:	e0da                	sd	s6,64(sp)
    80002830:	fc5e                	sd	s7,56(sp)
    80002832:	f862                	sd	s8,48(sp)
    80002834:	ffffe097          	auipc	ra,0xffffe
    80002838:	2aa080e7          	jalr	682(ra) # 80000ade <otp_read_serial>
    8000283c:	45a1                	li	a1,8
    8000283e:	00016517          	auipc	a0,0x16
    80002842:	7c250513          	addi	a0,a0,1986 # 80019000 <page_root_table>
    80002846:	00000097          	auipc	ra,0x0
    8000284a:	b82080e7          	jalr	-1150(ra) # 800023c8 <pte_common_init>
    8000284e:	4581                	li	a1,0
    80002850:	00016517          	auipc	a0,0x16
    80002854:	7b050513          	addi	a0,a0,1968 # 80019000 <page_root_table>
    80002858:	00000097          	auipc	ra,0x0
    8000285c:	bb4080e7          	jalr	-1100(ra) # 8000240c <pte_common_addr_to_ppn>
    80002860:	459d                	li	a1,7
    80002862:	00016517          	auipc	a0,0x16
    80002866:	79e50513          	addi	a0,a0,1950 # 80019000 <page_root_table>
    8000286a:	00000097          	auipc	ra,0x0
    8000286e:	b6c080e7          	jalr	-1172(ra) # 800023d6 <pte_common_set_accessibility>
    80002872:	00016517          	auipc	a0,0x16
    80002876:	78e50513          	addi	a0,a0,1934 # 80019000 <page_root_table>
    8000287a:	00000097          	auipc	ra,0x0
    8000287e:	bca080e7          	jalr	-1078(ra) # 80002444 <pte_common_enable_entry>
    80002882:	00016517          	auipc	a0,0x16
    80002886:	77e50513          	addi	a0,a0,1918 # 80019000 <page_root_table>
    8000288a:	00000097          	auipc	ra,0x0
    8000288e:	bec080e7          	jalr	-1044(ra) # 80002476 <pte_common_enable_user>
    80002892:	400005b7          	lui	a1,0x40000
    80002896:	00016517          	auipc	a0,0x16
    8000289a:	77250513          	addi	a0,a0,1906 # 80019008 <page_root_table+0x8>
    8000289e:	00000097          	auipc	ra,0x0
    800028a2:	b6e080e7          	jalr	-1170(ra) # 8000240c <pte_common_addr_to_ppn>
    800028a6:	459d                	li	a1,7
    800028a8:	00016517          	auipc	a0,0x16
    800028ac:	76050513          	addi	a0,a0,1888 # 80019008 <page_root_table+0x8>
    800028b0:	00000097          	auipc	ra,0x0
    800028b4:	b26080e7          	jalr	-1242(ra) # 800023d6 <pte_common_set_accessibility>
    800028b8:	00016517          	auipc	a0,0x16
    800028bc:	75050513          	addi	a0,a0,1872 # 80019008 <page_root_table+0x8>
    800028c0:	00000097          	auipc	ra,0x0
    800028c4:	b84080e7          	jalr	-1148(ra) # 80002444 <pte_common_enable_entry>
    800028c8:	00016517          	auipc	a0,0x16
    800028cc:	74050513          	addi	a0,a0,1856 # 80019008 <page_root_table+0x8>
    800028d0:	00000097          	auipc	ra,0x0
    800028d4:	ba6080e7          	jalr	-1114(ra) # 80002476 <pte_common_enable_user>
    800028d8:	4585                	li	a1,1
    800028da:	05fe                	slli	a1,a1,0x1f
    800028dc:	00016517          	auipc	a0,0x16
    800028e0:	73450513          	addi	a0,a0,1844 # 80019010 <page_root_table+0x10>
    800028e4:	00000097          	auipc	ra,0x0
    800028e8:	b28080e7          	jalr	-1240(ra) # 8000240c <pte_common_addr_to_ppn>
    800028ec:	459d                	li	a1,7
    800028ee:	00016517          	auipc	a0,0x16
    800028f2:	72250513          	addi	a0,a0,1826 # 80019010 <page_root_table+0x10>
    800028f6:	00000097          	auipc	ra,0x0
    800028fa:	ae0080e7          	jalr	-1312(ra) # 800023d6 <pte_common_set_accessibility>
    800028fe:	00016517          	auipc	a0,0x16
    80002902:	71250513          	addi	a0,a0,1810 # 80019010 <page_root_table+0x10>
    80002906:	00000097          	auipc	ra,0x0
    8000290a:	b3e080e7          	jalr	-1218(ra) # 80002444 <pte_common_enable_entry>
    8000290e:	00016517          	auipc	a0,0x16
    80002912:	70250513          	addi	a0,a0,1794 # 80019010 <page_root_table+0x10>
    80002916:	00000097          	auipc	ra,0x0
    8000291a:	b60080e7          	jalr	-1184(ra) # 80002476 <pte_common_enable_user>
    8000291e:	440d                	li	s0,3
    80002920:	00016997          	auipc	s3,0x16
    80002924:	6e098993          	addi	s3,s3,1760 # 80019000 <page_root_table>
    80002928:	4921                	li	s2,8
    8000292a:	00341493          	slli	s1,s0,0x3
    8000292e:	94ce                	add	s1,s1,s3
    80002930:	4581                	li	a1,0
    80002932:	8526                	mv	a0,s1
    80002934:	00000097          	auipc	ra,0x0
    80002938:	aa2080e7          	jalr	-1374(ra) # 800023d6 <pte_common_set_accessibility>
    8000293c:	8526                	mv	a0,s1
    8000293e:	0405                	addi	s0,s0,1
    80002940:	00000097          	auipc	ra,0x0
    80002944:	b04080e7          	jalr	-1276(ra) # 80002444 <pte_common_enable_entry>
    80002948:	ff2411e3          	bne	s0,s2,8000292a <machine_main+0x10c>
    8000294c:	00016517          	auipc	a0,0x16
    80002950:	6b450513          	addi	a0,a0,1716 # 80019000 <page_root_table>
    80002954:	00000097          	auipc	ra,0x0
    80002958:	b74080e7          	jalr	-1164(ra) # 800024c8 <pte_set_root_page_table>
    8000295c:	00000097          	auipc	ra,0x0
    80002960:	b2e080e7          	jalr	-1234(ra) # 8000248a <pte_entry_sv39>
    80002964:	04000593          	li	a1,64
    80002968:	00016517          	auipc	a0,0x16
    8000296c:	69850513          	addi	a0,a0,1688 # 80019000 <page_root_table>
    80002970:	fffff097          	auipc	ra,0xfffff
    80002974:	60c080e7          	jalr	1548(ra) # 80001f7c <syslog_dump_memory>
    80002978:	fffff097          	auipc	ra,0xfffff
    8000297c:	4d6080e7          	jalr	1238(ra) # 80001e4e <sysctl_disable_irq>
    80002980:	40300593          	li	a1,1027
    80002984:	00801537          	lui	a0,0x801
    80002988:	05d6                	slli	a1,a1,0x15
    8000298a:	0522                	slli	a0,a0,0x8
    8000298c:	00003097          	auipc	ra,0x3
    80002990:	022080e7          	jalr	34(ra) # 800059ae <mem_init>
    80002994:	00002097          	auipc	ra,0x2
    80002998:	56e080e7          	jalr	1390(ra) # 80004f02 <blk_dev_init>
    8000299c:	00003097          	auipc	ra,0x3
    800029a0:	8b6080e7          	jalr	-1866(ra) # 80005252 <chr_dev_init>
    800029a4:	00002097          	auipc	ra,0x2
    800029a8:	580080e7          	jalr	1408(ra) # 80004f24 <tty_init>
    800029ac:	03300793          	li	a5,51
    800029b0:	1782                	slli	a5,a5,0x20
    800029b2:	07b1                	addi	a5,a5,12
    800029b4:	e43e                	sd	a5,8(sp)
    800029b6:	4795                	li	a5,5
    800029b8:	178a                	slli	a5,a5,0x22
    800029ba:	07d9                	addi	a5,a5,22
    800029bc:	e83e                	sd	a5,16(sp)
    800029be:	7e300793          	li	a5,2019
    800029c2:	1782                	slli	a5,a5,0x20
    800029c4:	07ad                	addi	a5,a5,11
    800029c6:	0028                	addi	a0,sp,8
    800029c8:	ec3e                	sd	a5,24(sp)
    800029ca:	00002097          	auipc	ra,0x2
    800029ce:	96c080e7          	jalr	-1684(ra) # 80004336 <kernel_mktime>
    800029d2:	0000f797          	auipc	a5,0xf
    800029d6:	0aa7bb23          	sd	a0,182(a5) # 80011a88 <startup_time>
    800029da:	00002097          	auipc	ra,0x2
    800029de:	84a080e7          	jalr	-1974(ra) # 80004224 <sched_init>
    800029e2:	fffff097          	auipc	ra,0xfffff
    800029e6:	45c080e7          	jalr	1116(ra) # 80001e3e <sysctl_enable_irq>
    800029ea:	00000517          	auipc	a0,0x0
    800029ee:	de450513          	addi	a0,a0,-540 # 800027ce <user_main>
    800029f2:	00000097          	auipc	ra,0x0
    800029f6:	856080e7          	jalr	-1962(ra) # 80002248 <privilege_to_user>
    800029fa:	0000b797          	auipc	a5,0xb
    800029fe:	d7e78793          	addi	a5,a5,-642 # 8000d778 <CSWTCH.3+0x330>
    80002a02:	0007bc03          	ld	s8,0(a5)
    80002a06:	698d                	lui	s3,0x3
    80002a08:	690d                	lui	s2,0x3
    80002a0a:	0000bb97          	auipc	s7,0xb
    80002a0e:	d76b8b93          	addi	s7,s7,-650 # 8000d780 <CSWTCH.3+0x338>
    80002a12:	0000bb17          	auipc	s6,0xb
    80002a16:	d76b0b13          	addi	s6,s6,-650 # 8000d788 <CSWTCH.3+0x340>
    80002a1a:	0399899b          	addiw	s3,s3,57
    80002a1e:	03990913          	addi	s2,s2,57 # 3039 <_stack_size-0x4fc7>
    80002a22:	0000b417          	auipc	s0,0xb
    80002a26:	dde40413          	addi	s0,s0,-546 # 8000d800 <CSWTCH.3+0x3b8>
    80002a2a:	0000ba97          	auipc	s5,0xb
    80002a2e:	d6ea8a93          	addi	s5,s5,-658 # 8000d798 <CSWTCH.3+0x350>
    80002a32:	0000ba17          	auipc	s4,0xb
    80002a36:	d76a0a13          	addi	s4,s4,-650 # 8000d7a8 <CSWTCH.3+0x360>
    80002a3a:	e462                	sd	s8,8(sp)
    80002a3c:	00003097          	auipc	ra,0x3
    80002a40:	92e080e7          	jalr	-1746(ra) # 8000536a <get_free_page>
    80002a44:	84aa                	mv	s1,a0
    80002a46:	862a                	mv	a2,a0
    80002a48:	85de                	mv	a1,s7
    80002a4a:	855a                	mv	a0,s6
    80002a4c:	fffff097          	auipc	ra,0xfffff
    80002a50:	4fa080e7          	jalr	1274(ra) # 80001f46 <syslog_info>
    80002a54:	864a                	mv	a2,s2
    80002a56:	85a2                	mv	a1,s0
    80002a58:	8556                	mv	a0,s5
    80002a5a:	0134a023          	sw	s3,0(s1)
    80002a5e:	fffff097          	auipc	ra,0xfffff
    80002a62:	4e8080e7          	jalr	1256(ra) # 80001f46 <syslog_info>
    80002a66:	8526                	mv	a0,s1
    80002a68:	00003097          	auipc	ra,0x3
    80002a6c:	9c4080e7          	jalr	-1596(ra) # 8000542c <free_page>
    80002a70:	85a2                	mv	a1,s0
    80002a72:	8552                	mv	a0,s4
    80002a74:	4605                	li	a2,1
    80002a76:	fffff097          	auipc	ra,0xfffff
    80002a7a:	4e2080e7          	jalr	1250(ra) # 80001f58 <syslog_warning>
    80002a7e:	85a2                	mv	a1,s0
    80002a80:	4609                	li	a2,2
    80002a82:	0000b517          	auipc	a0,0xb
    80002a86:	d2e50513          	addi	a0,a0,-722 # 8000d7b0 <CSWTCH.3+0x368>
    80002a8a:	fffff097          	auipc	ra,0xfffff
    80002a8e:	4e0080e7          	jalr	1248(ra) # 80001f6a <syslog_error>
    80002a92:	00000097          	auipc	ra,0x0
    80002a96:	89c080e7          	jalr	-1892(ra) # 8000232e <privilege_get_cur_level>
    80002a9a:	2501                	sext.w	a0,a0
    80002a9c:	fffff097          	auipc	ra,0xfffff
    80002aa0:	5b4080e7          	jalr	1460(ra) # 80002050 <privilege_getstring>
    80002aa4:	862a                	mv	a2,a0
    80002aa6:	0000b597          	auipc	a1,0xb
    80002aaa:	d1258593          	addi	a1,a1,-750 # 8000d7b8 <CSWTCH.3+0x370>
    80002aae:	0000b517          	auipc	a0,0xb
    80002ab2:	d1250513          	addi	a0,a0,-750 # 8000d7c0 <CSWTCH.3+0x378>
    80002ab6:	fffff097          	auipc	ra,0xfffff
    80002aba:	490080e7          	jalr	1168(ra) # 80001f46 <syslog_info>
    80002abe:	4621                	li	a2,8
    80002ac0:	85a2                	mv	a1,s0
    80002ac2:	0000b517          	auipc	a0,0xb
    80002ac6:	d0650513          	addi	a0,a0,-762 # 8000d7c8 <CSWTCH.3+0x380>
    80002aca:	fffff097          	auipc	ra,0xfffff
    80002ace:	47c080e7          	jalr	1148(ra) # 80001f46 <syslog_info>
    80002ad2:	3e800513          	li	a0,1000
    80002ad6:	ffffe097          	auipc	ra,0xffffe
    80002ada:	902080e7          	jalr	-1790(ra) # 800003d8 <msleep>
    80002ade:	bfb1                	j	80002a3a <machine_main+0x21c>

0000000080002ae0 <supervisor_interrupt_handler>:
    80002ae0:	1101                	addi	sp,sp,-32
    80002ae2:	e822                	sd	s0,16(sp)
    80002ae4:	e426                	sd	s1,8(sp)
    80002ae6:	862a                	mv	a2,a0
    80002ae8:	84aa                	mv	s1,a0
    80002aea:	842e                	mv	s0,a1
    80002aec:	0000b517          	auipc	a0,0xb
    80002af0:	d1c50513          	addi	a0,a0,-740 # 8000d808 <CSWTCH.3+0x3c0>
    80002af4:	0000b597          	auipc	a1,0xb
    80002af8:	d0458593          	addi	a1,a1,-764 # 8000d7f8 <CSWTCH.3+0x3b0>
    80002afc:	ec06                	sd	ra,24(sp)
    80002afe:	fffff097          	auipc	ra,0xfffff
    80002b02:	448080e7          	jalr	1096(ra) # 80001f46 <syslog_info>
    80002b06:	47ad                	li	a5,11
    80002b08:	00f49963          	bne	s1,a5,80002b1a <supervisor_interrupt_handler+0x3a>
    80002b0c:	85a2                	mv	a1,s0
    80002b0e:	452d                	li	a0,11
    80002b10:	ffffe097          	auipc	ra,0xffffe
    80002b14:	c9e080e7          	jalr	-866(ra) # 800007ae <handle_irq_s_ext>
    80002b18:	842a                	mv	s0,a0
    80002b1a:	8522                	mv	a0,s0
    80002b1c:	60e2                	ld	ra,24(sp)
    80002b1e:	6442                	ld	s0,16(sp)
    80002b20:	64a2                	ld	s1,8(sp)
    80002b22:	6105                	addi	sp,sp,32
    80002b24:	8082                	ret

0000000080002b26 <supervisor_exception_handler>:
    80002b26:	1101                	addi	sp,sp,-32
    80002b28:	e822                	sd	s0,16(sp)
    80002b2a:	e426                	sd	s1,8(sp)
    80002b2c:	ec06                	sd	ra,24(sp)
    80002b2e:	47ad                	li	a5,11
    80002b30:	842a                	mv	s0,a0
    80002b32:	84ae                	mv	s1,a1
    80002b34:	0000b697          	auipc	a3,0xb
    80002b38:	e8468693          	addi	a3,a3,-380 # 8000d9b8 <CSWTCH.0+0x190>
    80002b3c:	00a7ea63          	bltu	a5,a0,80002b50 <supervisor_exception_handler+0x2a>
    80002b40:	00351713          	slli	a4,a0,0x3
    80002b44:	0000b797          	auipc	a5,0xb
    80002b48:	ce478793          	addi	a5,a5,-796 # 8000d828 <CSWTCH.0>
    80002b4c:	97ba                	add	a5,a5,a4
    80002b4e:	6394                	ld	a3,0(a5)
    80002b50:	8622                	mv	a2,s0
    80002b52:	0000b597          	auipc	a1,0xb
    80002b56:	e7e58593          	addi	a1,a1,-386 # 8000d9d0 <CSWTCH.0+0x1a8>
    80002b5a:	0000b517          	auipc	a0,0xb
    80002b5e:	e8650513          	addi	a0,a0,-378 # 8000d9e0 <CSWTCH.0+0x1b8>
    80002b62:	fffff097          	auipc	ra,0xfffff
    80002b66:	3d2080e7          	jalr	978(ra) # 80001f34 <syslog_debug>
    80002b6a:	1461                	addi	s0,s0,-8
    80002b6c:	478d                	li	a5,3
    80002b6e:	0087f363          	bleu	s0,a5,80002b74 <supervisor_exception_handler+0x4e>
    80002b72:	a001                	j	80002b72 <supervisor_exception_handler+0x4c>
    80002b74:	60e2                	ld	ra,24(sp)
    80002b76:	6442                	ld	s0,16(sp)
    80002b78:	8526                	mv	a0,s1
    80002b7a:	64a2                	ld	s1,8(sp)
    80002b7c:	6105                	addi	sp,sp,32
    80002b7e:	8082                	ret

0000000080002b80 <machine_syscall>:
    80002b80:	6930                	ld	a2,80(a0)
    80002b82:	1141                	addi	sp,sp,-16
    80002b84:	e022                	sd	s0,0(sp)
    80002b86:	0000b597          	auipc	a1,0xb
    80002b8a:	f6258593          	addi	a1,a1,-158 # 8000dae8 <CSWTCH.0+0x2c0>
    80002b8e:	842a                	mv	s0,a0
    80002b90:	0000b517          	auipc	a0,0xb
    80002b94:	f6850513          	addi	a0,a0,-152 # 8000daf8 <CSWTCH.0+0x2d0>
    80002b98:	e406                	sd	ra,8(sp)
    80002b9a:	fffff097          	auipc	ra,0xfffff
    80002b9e:	3ac080e7          	jalr	940(ra) # 80001f46 <syslog_info>
    80002ba2:	683c                	ld	a5,80(s0)
    80002ba4:	eb85                	bnez	a5,80002bd4 <machine_syscall+0x54>
    80002ba6:	304027f3          	csrr	a5,mie
    80002baa:	6705                	lui	a4,0x1
    80002bac:	80070713          	addi	a4,a4,-2048 # 800 <_stack_size-0x7800>
    80002bb0:	8fd9                	or	a5,a5,a4
    80002bb2:	30479073          	csrw	mie,a5
    80002bb6:	6402                	ld	s0,0(sp)
    80002bb8:	60a2                	ld	ra,8(sp)
    80002bba:	0000b597          	auipc	a1,0xb
    80002bbe:	f4e58593          	addi	a1,a1,-178 # 8000db08 <CSWTCH.0+0x2e0>
    80002bc2:	0000b517          	auipc	a0,0xb
    80002bc6:	f3650513          	addi	a0,a0,-202 # 8000daf8 <CSWTCH.0+0x2d0>
    80002bca:	0141                	addi	sp,sp,16
    80002bcc:	fffff317          	auipc	t1,0xfffff
    80002bd0:	37a30067          	jr	890(t1) # 80001f46 <syslog_info>
    80002bd4:	60a2                	ld	ra,8(sp)
    80002bd6:	6402                	ld	s0,0(sp)
    80002bd8:	0141                	addi	sp,sp,16
    80002bda:	8082                	ret

0000000080002bdc <machine_exception_handler>:
    80002bdc:	7119                	addi	sp,sp,-128
    80002bde:	f4a6                	sd	s1,104(sp)
    80002be0:	f0ca                	sd	s2,96(sp)
    80002be2:	ecce                	sd	s3,88(sp)
    80002be4:	e8d2                	sd	s4,80(sp)
    80002be6:	84b2                	mv	s1,a2
    80002be8:	8a2e                	mv	s4,a1
    80002bea:	89b6                	mv	s3,a3
    80002bec:	892a                	mv	s2,a0
    80002bee:	02800613          	li	a2,40
    80002bf2:	00016597          	auipc	a1,0x16
    80002bf6:	45e58593          	addi	a1,a1,1118 # 80019050 <trap_info>
    80002bfa:	0828                	addi	a0,sp,24
    80002bfc:	e4d6                	sd	s5,72(sp)
    80002bfe:	fc86                	sd	ra,120(sp)
    80002c00:	f8a2                	sd	s0,112(sp)
    80002c02:	00005097          	auipc	ra,0x5
    80002c06:	a58080e7          	jalr	-1448(ra) # 8000765a <memcpy>
    80002c0a:	0000fa97          	auipc	s5,0xf
    80002c0e:	3feaca83          	lbu	s5,1022(s5) # 80012008 <trap_from_interrupt>
    80002c12:	00016797          	auipc	a5,0x16
    80002c16:	4497b723          	sd	s1,1102(a5) # 80019060 <trap_info+0x10>
    80002c1a:	0000f797          	auipc	a5,0xf
    80002c1e:	3e078723          	sb	zero,1006(a5) # 80012008 <trap_from_interrupt>
    80002c22:	00016797          	auipc	a5,0x16
    80002c26:	4537b323          	sd	s3,1094(a5) # 80019068 <trap_info+0x18>
    80002c2a:	00016797          	auipc	a5,0x16
    80002c2e:	4347b323          	sd	s4,1062(a5) # 80019050 <trap_info>
    80002c32:	004a0793          	addi	a5,s4,4
    80002c36:	00016717          	auipc	a4,0x16
    80002c3a:	42f73123          	sd	a5,1058(a4) # 80019058 <trap_info+0x8>
    80002c3e:	47ad                	li	a5,11
    80002c40:	0f27e463          	bltu	a5,s2,80002d28 <machine_exception_handler+0x14c>
    80002c44:	0000b697          	auipc	a3,0xb
    80002c48:	dbc68693          	addi	a3,a3,-580 # 8000da00 <CSWTCH.0+0x1d8>
    80002c4c:	00291713          	slli	a4,s2,0x2
    80002c50:	9736                	add	a4,a4,a3
    80002c52:	431c                	lw	a5,0(a4)
    80002c54:	97b6                	add	a5,a5,a3
    80002c56:	8782                	jr	a5
    80002c58:	0000b417          	auipc	s0,0xb
    80002c5c:	c5040413          	addi	s0,s0,-944 # 8000d8a8 <CSWTCH.0+0x80>
    80002c60:	86a2                	mv	a3,s0
    80002c62:	864a                	mv	a2,s2
    80002c64:	0000b597          	auipc	a1,0xb
    80002c68:	d6c58593          	addi	a1,a1,-660 # 8000d9d0 <CSWTCH.0+0x1a8>
    80002c6c:	0000b517          	auipc	a0,0xb
    80002c70:	dc450513          	addi	a0,a0,-572 # 8000da30 <CSWTCH.0+0x208>
    80002c74:	fffff097          	auipc	ra,0xfffff
    80002c78:	2f6080e7          	jalr	758(ra) # 80001f6a <syslog_error>
    80002c7c:	ff890793          	addi	a5,s2,-8
    80002c80:	470d                	li	a4,3
    80002c82:	0af77d63          	bleu	a5,a4,80002d3c <machine_exception_handler+0x160>
    80002c86:	fffff097          	auipc	ra,0xfffff
    80002c8a:	1c8080e7          	jalr	456(ra) # 80001e4e <sysctl_disable_irq>
    80002c8e:	34302773          	csrr	a4,mtval
    80002c92:	e43a                	sd	a4,8(sp)
    80002c94:	fffff097          	auipc	ra,0xfffff
    80002c98:	4ee080e7          	jalr	1262(ra) # 80002182 <privilege_get_previous_level>
    80002c9c:	6722                	ld	a4,8(sp)
    80002c9e:	0005079b          	sext.w	a5,a0
    80002ca2:	86d2                	mv	a3,s4
    80002ca4:	8622                	mv	a2,s0
    80002ca6:	85ca                	mv	a1,s2
    80002ca8:	0000b517          	auipc	a0,0xb
    80002cac:	da850513          	addi	a0,a0,-600 # 8000da50 <CSWTCH.0+0x228>
    80002cb0:	fffff097          	auipc	ra,0xfffff
    80002cb4:	200080e7          	jalr	512(ra) # 80001eb0 <syslog_print>
    80002cb8:	00000097          	auipc	ra,0x0
    80002cbc:	14e080e7          	jalr	334(ra) # 80002e06 <trap_listregs>
    80002cc0:	a001                	j	80002cc0 <machine_exception_handler+0xe4>
    80002cc2:	0000b417          	auipc	s0,0xb
    80002cc6:	c0640413          	addi	s0,s0,-1018 # 8000d8c8 <CSWTCH.0+0xa0>
    80002cca:	bf59                	j	80002c60 <machine_exception_handler+0x84>
    80002ccc:	0000b417          	auipc	s0,0xb
    80002cd0:	c1440413          	addi	s0,s0,-1004 # 8000d8e0 <CSWTCH.0+0xb8>
    80002cd4:	b771                	j	80002c60 <machine_exception_handler+0x84>
    80002cd6:	0000b417          	auipc	s0,0xb
    80002cda:	c1a40413          	addi	s0,s0,-998 # 8000d8f0 <CSWTCH.0+0xc8>
    80002cde:	b749                	j	80002c60 <machine_exception_handler+0x84>
    80002ce0:	0000b417          	auipc	s0,0xb
    80002ce4:	c2840413          	addi	s0,s0,-984 # 8000d908 <CSWTCH.0+0xe0>
    80002ce8:	bfa5                	j	80002c60 <machine_exception_handler+0x84>
    80002cea:	0000b417          	auipc	s0,0xb
    80002cee:	c3640413          	addi	s0,s0,-970 # 8000d920 <CSWTCH.0+0xf8>
    80002cf2:	b7bd                	j	80002c60 <machine_exception_handler+0x84>
    80002cf4:	0000b417          	auipc	s0,0xb
    80002cf8:	c4c40413          	addi	s0,s0,-948 # 8000d940 <CSWTCH.0+0x118>
    80002cfc:	b795                	j	80002c60 <machine_exception_handler+0x84>
    80002cfe:	0000b417          	auipc	s0,0xb
    80002d02:	c5a40413          	addi	s0,s0,-934 # 8000d958 <CSWTCH.0+0x130>
    80002d06:	bfa9                	j	80002c60 <machine_exception_handler+0x84>
    80002d08:	85ce                	mv	a1,s3
    80002d0a:	8526                	mv	a0,s1
    80002d0c:	00000097          	auipc	ra,0x0
    80002d10:	e74080e7          	jalr	-396(ra) # 80002b80 <machine_syscall>
    80002d14:	0000b417          	auipc	s0,0xb
    80002d18:	c6440413          	addi	s0,s0,-924 # 8000d978 <CSWTCH.0+0x150>
    80002d1c:	b791                	j	80002c60 <machine_exception_handler+0x84>
    80002d1e:	0000b417          	auipc	s0,0xb
    80002d22:	c7a40413          	addi	s0,s0,-902 # 8000d998 <CSWTCH.0+0x170>
    80002d26:	bf2d                	j	80002c60 <machine_exception_handler+0x84>
    80002d28:	0000b417          	auipc	s0,0xb
    80002d2c:	c9040413          	addi	s0,s0,-880 # 8000d9b8 <CSWTCH.0+0x190>
    80002d30:	bf05                	j	80002c60 <machine_exception_handler+0x84>
    80002d32:	0000b417          	auipc	s0,0xb
    80002d36:	b5640413          	addi	s0,s0,-1194 # 8000d888 <CSWTCH.0+0x60>
    80002d3a:	b71d                	j	80002c60 <machine_exception_handler+0x84>
    80002d3c:	47a1                	li	a5,8
    80002d3e:	04f90a63          	beq	s2,a5,80002d92 <machine_exception_handler+0x1b6>
    80002d42:	47a5                	li	a5,9
    80002d44:	0af90063          	beq	s2,a5,80002de4 <machine_exception_handler+0x208>
    80002d48:	fffff097          	auipc	ra,0xfffff
    80002d4c:	106080e7          	jalr	262(ra) # 80001e4e <sysctl_disable_irq>
    80002d50:	00016797          	auipc	a5,0x16
    80002d54:	30078793          	addi	a5,a5,768 # 80019050 <trap_info>
    80002d58:	02800613          	li	a2,40
    80002d5c:	082c                	addi	a1,sp,24
    80002d5e:	853e                	mv	a0,a5
    80002d60:	6780                	ld	s0,8(a5)
    80002d62:	00005097          	auipc	ra,0x5
    80002d66:	8f8080e7          	jalr	-1800(ra) # 8000765a <memcpy>
    80002d6a:	0000f717          	auipc	a4,0xf
    80002d6e:	29570f23          	sb	s5,670(a4) # 80012008 <trap_from_interrupt>
    80002d72:	80000737          	lui	a4,0x80000
    80002d76:	fff74713          	not	a4,a4
    80002d7a:	06876c63          	bltu	a4,s0,80002df2 <machine_exception_handler+0x216>
    80002d7e:	650c                	ld	a1,8(a0)
    80002d80:	0000b517          	auipc	a0,0xb
    80002d84:	d4850513          	addi	a0,a0,-696 # 8000dac8 <CSWTCH.0+0x2a0>
    80002d88:	00002097          	auipc	ra,0x2
    80002d8c:	a1a080e7          	jalr	-1510(ra) # 800047a2 <printk>
    80002d90:	a001                	j	80002d90 <machine_exception_handler+0x1b4>
    80002d92:	68b0                	ld	a2,80(s1)
    80002d94:	0000b597          	auipc	a1,0xb
    80002d98:	cec58593          	addi	a1,a1,-788 # 8000da80 <CSWTCH.0+0x258>
    80002d9c:	0000b517          	auipc	a0,0xb
    80002da0:	cf450513          	addi	a0,a0,-780 # 8000da90 <CSWTCH.0+0x268>
    80002da4:	fffff097          	auipc	ra,0xfffff
    80002da8:	1a2080e7          	jalr	418(ra) # 80001f46 <syslog_info>
    80002dac:	70b4                	ld	a3,96(s1)
    80002dae:	6cb0                	ld	a2,88(s1)
    80002db0:	74b8                	ld	a4,104(s1)
    80002db2:	0000b597          	auipc	a1,0xb
    80002db6:	cf658593          	addi	a1,a1,-778 # 8000daa8 <CSWTCH.0+0x280>
    80002dba:	0000b517          	auipc	a0,0xb
    80002dbe:	cd650513          	addi	a0,a0,-810 # 8000da90 <CSWTCH.0+0x268>
    80002dc2:	fffff097          	auipc	ra,0xfffff
    80002dc6:	184080e7          	jalr	388(ra) # 80001f46 <syslog_info>
    80002dca:	fffff097          	auipc	ra,0xfffff
    80002dce:	074080e7          	jalr	116(ra) # 80001e3e <sysctl_enable_irq>
    80002dd2:	74b4                	ld	a3,104(s1)
    80002dd4:	70b0                	ld	a2,96(s1)
    80002dd6:	6cac                	ld	a1,88(s1)
    80002dd8:	68a8                	ld	a0,80(s1)
    80002dda:	00002097          	auipc	ra,0x2
    80002dde:	f42080e7          	jalr	-190(ra) # 80004d1c <system_call>
    80002de2:	b79d                	j	80002d48 <machine_exception_handler+0x16c>
    80002de4:	85ce                	mv	a1,s3
    80002de6:	8526                	mv	a0,s1
    80002de8:	00000097          	auipc	ra,0x0
    80002dec:	d98080e7          	jalr	-616(ra) # 80002b80 <machine_syscall>
    80002df0:	bfa1                	j	80002d48 <machine_exception_handler+0x16c>
    80002df2:	8522                	mv	a0,s0
    80002df4:	70e6                	ld	ra,120(sp)
    80002df6:	7446                	ld	s0,112(sp)
    80002df8:	74a6                	ld	s1,104(sp)
    80002dfa:	7906                	ld	s2,96(sp)
    80002dfc:	69e6                	ld	s3,88(sp)
    80002dfe:	6a46                	ld	s4,80(sp)
    80002e00:	6aa6                	ld	s5,72(sp)
    80002e02:	6109                	addi	sp,sp,128
    80002e04:	8082                	ret

0000000080002e06 <trap_listregs>:
    80002e06:	7179                	addi	sp,sp,-48
    80002e08:	ec26                	sd	s1,24(sp)
    80002e0a:	0000b517          	auipc	a0,0xb
    80002e0e:	d0650513          	addi	a0,a0,-762 # 8000db10 <CSWTCH.0+0x2e8>
    80002e12:	00016497          	auipc	s1,0x16
    80002e16:	23e48493          	addi	s1,s1,574 # 80019050 <trap_info>
    80002e1a:	f022                	sd	s0,32(sp)
    80002e1c:	e84a                	sd	s2,16(sp)
    80002e1e:	e44e                	sd	s3,8(sp)
    80002e20:	e052                	sd	s4,0(sp)
    80002e22:	f406                	sd	ra,40(sp)
    80002e24:	4401                	li	s0,0
    80002e26:	00002097          	auipc	ra,0x2
    80002e2a:	97c080e7          	jalr	-1668(ra) # 800047a2 <printk>
    80002e2e:	0000ba17          	auipc	s4,0xb
    80002e32:	d02a0a13          	addi	s4,s4,-766 # 8000db30 <CSWTCH.0+0x308>
    80002e36:	02000913          	li	s2,32
    80002e3a:	89a6                	mv	s3,s1
    80002e3c:	689c                	ld	a5,16(s1)
    80002e3e:	00341713          	slli	a4,s0,0x3
    80002e42:	0004059b          	sext.w	a1,s0
    80002e46:	97ba                	add	a5,a5,a4
    80002e48:	6390                	ld	a2,0(a5)
    80002e4a:	8552                	mv	a0,s4
    80002e4c:	0405                	addi	s0,s0,1
    80002e4e:	00002097          	auipc	ra,0x2
    80002e52:	954080e7          	jalr	-1708(ra) # 800047a2 <printk>
    80002e56:	ff2413e3          	bne	s0,s2,80002e3c <trap_listregs+0x36>
    80002e5a:	4401                	li	s0,0
    80002e5c:	0000b917          	auipc	s2,0xb
    80002e60:	ce490913          	addi	s2,s2,-796 # 8000db40 <CSWTCH.0+0x318>
    80002e64:	02000493          	li	s1,32
    80002e68:	0189b783          	ld	a5,24(s3) # 3018 <_stack_size-0x4fe8>
    80002e6c:	00341713          	slli	a4,s0,0x3
    80002e70:	0004059b          	sext.w	a1,s0
    80002e74:	97ba                	add	a5,a5,a4
    80002e76:	6390                	ld	a2,0(a5)
    80002e78:	854a                	mv	a0,s2
    80002e7a:	0405                	addi	s0,s0,1
    80002e7c:	00002097          	auipc	ra,0x2
    80002e80:	926080e7          	jalr	-1754(ra) # 800047a2 <printk>
    80002e84:	fe9412e3          	bne	s0,s1,80002e68 <trap_listregs+0x62>
    80002e88:	70a2                	ld	ra,40(sp)
    80002e8a:	7402                	ld	s0,32(sp)
    80002e8c:	64e2                	ld	s1,24(sp)
    80002e8e:	6942                	ld	s2,16(sp)
    80002e90:	69a2                	ld	s3,8(sp)
    80002e92:	6a02                	ld	s4,0(sp)
    80002e94:	6145                	addi	sp,sp,48
    80002e96:	8082                	ret

0000000080002e98 <machine_interrupt_handler>:
    80002e98:	711d                	addi	sp,sp,-96
    80002e9a:	e8a2                	sd	s0,80(sp)
    80002e9c:	e4a6                	sd	s1,72(sp)
    80002e9e:	842e                	mv	s0,a1
    80002ea0:	f852                	sd	s4,48(sp)
    80002ea2:	84aa                	mv	s1,a0
    80002ea4:	8a32                	mv	s4,a2
    80002ea6:	00016597          	auipc	a1,0x16
    80002eaa:	1aa58593          	addi	a1,a1,426 # 80019050 <trap_info>
    80002eae:	02800613          	li	a2,40
    80002eb2:	0028                	addi	a0,sp,8
    80002eb4:	ec86                	sd	ra,88(sp)
    80002eb6:	e0ca                	sd	s2,64(sp)
    80002eb8:	fc4e                	sd	s3,56(sp)
    80002eba:	89b6                	mv	s3,a3
    80002ebc:	00004097          	auipc	ra,0x4
    80002ec0:	79e080e7          	jalr	1950(ra) # 8000765a <memcpy>
    80002ec4:	86a2                	mv	a3,s0
    80002ec6:	8626                	mv	a2,s1
    80002ec8:	0000b597          	auipc	a1,0xb
    80002ecc:	c9058593          	addi	a1,a1,-880 # 8000db58 <CSWTCH.0+0x330>
    80002ed0:	0000b517          	auipc	a0,0xb
    80002ed4:	ca050513          	addi	a0,a0,-864 # 8000db70 <CSWTCH.0+0x348>
    80002ed8:	0000f917          	auipc	s2,0xf
    80002edc:	13094903          	lbu	s2,304(s2) # 80012008 <trap_from_interrupt>
    80002ee0:	fffff097          	auipc	ra,0xfffff
    80002ee4:	066080e7          	jalr	102(ra) # 80001f46 <syslog_info>
    80002ee8:	4785                	li	a5,1
    80002eea:	0000f717          	auipc	a4,0xf
    80002eee:	10f70f23          	sb	a5,286(a4) # 80012008 <trap_from_interrupt>
    80002ef2:	00016797          	auipc	a5,0x16
    80002ef6:	1747b723          	sd	s4,366(a5) # 80019060 <trap_info+0x10>
    80002efa:	00016797          	auipc	a5,0x16
    80002efe:	1737b723          	sd	s3,366(a5) # 80019068 <trap_info+0x18>
    80002f02:	00016797          	auipc	a5,0x16
    80002f06:	1487b723          	sd	s0,334(a5) # 80019050 <trap_info>
    80002f0a:	00016797          	auipc	a5,0x16
    80002f0e:	1487b723          	sd	s0,334(a5) # 80019058 <trap_info+0x8>
    80002f12:	47ad                	li	a5,11
    80002f14:	00f49863          	bne	s1,a5,80002f24 <machine_interrupt_handler+0x8c>
    80002f18:	85a2                	mv	a1,s0
    80002f1a:	452d                	li	a0,11
    80002f1c:	ffffd097          	auipc	ra,0xffffd
    80002f20:	7a4080e7          	jalr	1956(ra) # 800006c0 <handle_irq_m_ext>
    80002f24:	00016417          	auipc	s0,0x16
    80002f28:	12c40413          	addi	s0,s0,300 # 80019050 <trap_info>
    80002f2c:	6410                	ld	a2,8(s0)
    80002f2e:	0000b597          	auipc	a1,0xb
    80002f32:	c6258593          	addi	a1,a1,-926 # 8000db90 <CSWTCH.0+0x368>
    80002f36:	0000b517          	auipc	a0,0xb
    80002f3a:	c3a50513          	addi	a0,a0,-966 # 8000db70 <CSWTCH.0+0x348>
    80002f3e:	fffff097          	auipc	ra,0xfffff
    80002f42:	008080e7          	jalr	8(ra) # 80001f46 <syslog_info>
    80002f46:	fffff097          	auipc	ra,0xfffff
    80002f4a:	f08080e7          	jalr	-248(ra) # 80001e4e <sysctl_disable_irq>
    80002f4e:	02800613          	li	a2,40
    80002f52:	002c                	addi	a1,sp,8
    80002f54:	8522                	mv	a0,s0
    80002f56:	6404                	ld	s1,8(s0)
    80002f58:	00004097          	auipc	ra,0x4
    80002f5c:	702080e7          	jalr	1794(ra) # 8000765a <memcpy>
    80002f60:	0000f797          	auipc	a5,0xf
    80002f64:	0b278423          	sb	s2,168(a5) # 80012008 <trap_from_interrupt>
    80002f68:	800007b7          	lui	a5,0x80000
    80002f6c:	fff7c793          	not	a5,a5
    80002f70:	0097ec63          	bltu	a5,s1,80002f88 <machine_interrupt_handler+0xf0>
    80002f74:	640c                	ld	a1,8(s0)
    80002f76:	0000b517          	auipc	a0,0xb
    80002f7a:	c2a50513          	addi	a0,a0,-982 # 8000dba0 <CSWTCH.0+0x378>
    80002f7e:	00002097          	auipc	ra,0x2
    80002f82:	824080e7          	jalr	-2012(ra) # 800047a2 <printk>
    80002f86:	a001                	j	80002f86 <machine_interrupt_handler+0xee>
    80002f88:	100017b7          	lui	a5,0x10001
    80002f8c:	9b178793          	addi	a5,a5,-1615 # 100009b1 <_stack_size+0xfff89b1>
    80002f90:	078e                	slli	a5,a5,0x3
    80002f92:	02f49063          	bne	s1,a5,80002fb2 <machine_interrupt_handler+0x11a>
    80002f96:	600c                	ld	a1,0(s0)
    80002f98:	8626                	mv	a2,s1
    80002f9a:	0000b517          	auipc	a0,0xb
    80002f9e:	c2650513          	addi	a0,a0,-986 # 8000dbc0 <CSWTCH.0+0x398>
    80002fa2:	00002097          	auipc	ra,0x2
    80002fa6:	800080e7          	jalr	-2048(ra) # 800047a2 <printk>
    80002faa:	00000097          	auipc	ra,0x0
    80002fae:	e5c080e7          	jalr	-420(ra) # 80002e06 <trap_listregs>
    80002fb2:	60e6                	ld	ra,88(sp)
    80002fb4:	6446                	ld	s0,80(sp)
    80002fb6:	8526                	mv	a0,s1
    80002fb8:	6906                	ld	s2,64(sp)
    80002fba:	64a6                	ld	s1,72(sp)
    80002fbc:	79e2                	ld	s3,56(sp)
    80002fbe:	7a42                	ld	s4,48(sp)
    80002fc0:	6125                	addi	sp,sp,96
    80002fc2:	8082                	ret

0000000080002fc4 <supervisor_trap_entry_insert_entry>:
    80002fc4:	00000513          	li	a0,0
    80002fc8:	0505                	addi	a0,a0,1
    80002fca:	342025f3          	csrr	a1,mcause
    80002fce:	92eff0ef          	jal	ra,800020fc <privilege_trap_entry>
    80002fd2:	00000293          	li	t0,0
    80002fd6:	0285                	addi	t0,t0,1
    80002fd8:	34202573          	csrr	a0,mcause
    80002fdc:	341025f3          	csrr	a1,mepc
    80002fe0:	00000317          	auipc	t1,0x0
    80002fe4:	10430313          	addi	t1,t1,260 # 800030e4 <supervisor_trap_entry_insert>
    80002fe8:	34131073          	csrw	mepc,t1
    80002fec:	30405073          	csrwi	mie,0
    80002ff0:	10002373          	csrr	t1,sstatus
    80002ff4:	10036313          	ori	t1,t1,256
    80002ff8:	10031073          	csrw	sstatus,t1
    80002ffc:	140022f3          	csrr	t0,sscratch
    80003000:	4305                	li	t1,1
    80003002:	0062b023          	sd	t1,0(t0) # 6000 <_stack_size-0x2000>
    80003006:	30200073          	mret

000000008000300a <supervisor_trap_entry>:
    8000300a:	140022f3          	csrr	t0,sscratch
    8000300e:	0002b023          	sd	zero,0(t0)
    80003012:	7101                	addi	sp,sp,-512
    80003014:	e406                	sd	ra,8(sp)
    80003016:	e80a                	sd	sp,16(sp)
    80003018:	ec0e                	sd	gp,24(sp)
    8000301a:	f012                	sd	tp,32(sp)
    8000301c:	f416                	sd	t0,40(sp)
    8000301e:	f81a                	sd	t1,48(sp)
    80003020:	fc1e                	sd	t2,56(sp)
    80003022:	e0a2                	sd	s0,64(sp)
    80003024:	e4a6                	sd	s1,72(sp)
    80003026:	e8aa                	sd	a0,80(sp)
    80003028:	ecae                	sd	a1,88(sp)
    8000302a:	f0b2                	sd	a2,96(sp)
    8000302c:	f4b6                	sd	a3,104(sp)
    8000302e:	f8ba                	sd	a4,112(sp)
    80003030:	fcbe                	sd	a5,120(sp)
    80003032:	e142                	sd	a6,128(sp)
    80003034:	e546                	sd	a7,136(sp)
    80003036:	e94a                	sd	s2,144(sp)
    80003038:	ed4e                	sd	s3,152(sp)
    8000303a:	f152                	sd	s4,160(sp)
    8000303c:	f556                	sd	s5,168(sp)
    8000303e:	f95a                	sd	s6,176(sp)
    80003040:	fd5e                	sd	s7,184(sp)
    80003042:	e1e2                	sd	s8,192(sp)
    80003044:	e5e6                	sd	s9,200(sp)
    80003046:	e9ea                	sd	s10,208(sp)
    80003048:	edee                	sd	s11,216(sp)
    8000304a:	f1f2                	sd	t3,224(sp)
    8000304c:	f5f6                	sd	t4,232(sp)
    8000304e:	f9fa                	sd	t5,240(sp)
    80003050:	fdfe                	sd	t6,248(sp)
    80003052:	10012027          	fsw	ft0,256(sp)
    80003056:	10112427          	fsw	ft1,264(sp)
    8000305a:	10212827          	fsw	ft2,272(sp)
    8000305e:	10312c27          	fsw	ft3,280(sp)
    80003062:	12412027          	fsw	ft4,288(sp)
    80003066:	12512427          	fsw	ft5,296(sp)
    8000306a:	12612827          	fsw	ft6,304(sp)
    8000306e:	12712c27          	fsw	ft7,312(sp)
    80003072:	14812027          	fsw	fs0,320(sp)
    80003076:	14912427          	fsw	fs1,328(sp)
    8000307a:	14a12827          	fsw	fa0,336(sp)
    8000307e:	14b12c27          	fsw	fa1,344(sp)
    80003082:	16c12027          	fsw	fa2,352(sp)
    80003086:	16d12427          	fsw	fa3,360(sp)
    8000308a:	16e12827          	fsw	fa4,368(sp)
    8000308e:	16f12c27          	fsw	fa5,376(sp)
    80003092:	19012027          	fsw	fa6,384(sp)
    80003096:	19112427          	fsw	fa7,392(sp)
    8000309a:	19212827          	fsw	fs2,400(sp)
    8000309e:	19312c27          	fsw	fs3,408(sp)
    800030a2:	1b412027          	fsw	fs4,416(sp)
    800030a6:	1b512427          	fsw	fs5,424(sp)
    800030aa:	1b612827          	fsw	fs6,432(sp)
    800030ae:	1b712c27          	fsw	fs7,440(sp)
    800030b2:	1d812027          	fsw	fs8,448(sp)
    800030b6:	1d912427          	fsw	fs9,456(sp)
    800030ba:	1da12827          	fsw	fs10,464(sp)
    800030be:	1db12c27          	fsw	fs11,472(sp)
    800030c2:	1fc12027          	fsw	ft8,480(sp)
    800030c6:	1fd12427          	fsw	ft9,488(sp)
    800030ca:	1fe12827          	fsw	ft10,496(sp)
    800030ce:	1ff12c27          	fsw	ft11,504(sp)
    800030d2:	00000513          	li	a0,0
    800030d6:	0505                	addi	a0,a0,1
    800030d8:	142025f3          	csrr	a1,scause
    800030dc:	820ff0ef          	jal	ra,800020fc <privilege_trap_entry>
    800030e0:	00000293          	li	t0,0

00000000800030e4 <supervisor_trap_entry_insert>:
    800030e4:	00029663          	bnez	t0,800030f0 <supervisor_trap_entry_insert_2>
    800030e8:	14202573          	csrr	a0,scause
    800030ec:	141025f3          	csrr	a1,sepc

00000000800030f0 <supervisor_trap_entry_insert_2>:
    800030f0:	860a                	mv	a2,sp
    800030f2:	0214                	addi	a3,sp,256
    800030f4:	00055d63          	bgez	a0,8000310e <supervisor_exception_handler_call>
    800030f8:	fff0031b          	addiw	t1,zero,-1
    800030fc:	03f31313          	slli	t1,t1,0x3f
    80003100:	fff30313          	addi	t1,t1,-1
    80003104:	00657533          	and	a0,a0,t1
    80003108:	9d9ff0ef          	jal	ra,80002ae0 <supervisor_interrupt_handler>
    8000310c:	a019                	j	80003112 <supervisor_handler_call_ok>

000000008000310e <supervisor_exception_handler_call>:
    8000310e:	a19ff0ef          	jal	ra,80002b26 <supervisor_exception_handler>

0000000080003112 <supervisor_handler_call_ok>:
    80003112:	8a4ff0ef          	jal	ra,800021b6 <privilege_trap_exit>
    80003116:	140022f3          	csrr	t0,sscratch
    8000311a:	0002b303          	ld	t1,0(t0)
    8000311e:	00030763          	beqz	t1,8000312c <supervisor_mie_set_syscall_skip>
    80003122:	14151073          	csrw	sepc,a0
    80003126:	4501                	li	a0,0
    80003128:	00000073          	ecall

000000008000312c <supervisor_mie_set_syscall_skip>:
    8000312c:	60a2                	ld	ra,8(sp)
    8000312e:	6142                	ld	sp,16(sp)
    80003130:	61e2                	ld	gp,24(sp)
    80003132:	7202                	ld	tp,32(sp)
    80003134:	72a2                	ld	t0,40(sp)
    80003136:	7342                	ld	t1,48(sp)
    80003138:	73e2                	ld	t2,56(sp)
    8000313a:	6406                	ld	s0,64(sp)
    8000313c:	64a6                	ld	s1,72(sp)
    8000313e:	6546                	ld	a0,80(sp)
    80003140:	65e6                	ld	a1,88(sp)
    80003142:	7606                	ld	a2,96(sp)
    80003144:	76a6                	ld	a3,104(sp)
    80003146:	7746                	ld	a4,112(sp)
    80003148:	77e6                	ld	a5,120(sp)
    8000314a:	680a                	ld	a6,128(sp)
    8000314c:	68aa                	ld	a7,136(sp)
    8000314e:	694a                	ld	s2,144(sp)
    80003150:	69ea                	ld	s3,152(sp)
    80003152:	7a0a                	ld	s4,160(sp)
    80003154:	7aaa                	ld	s5,168(sp)
    80003156:	7b4a                	ld	s6,176(sp)
    80003158:	7bea                	ld	s7,184(sp)
    8000315a:	6c0e                	ld	s8,192(sp)
    8000315c:	6cae                	ld	s9,200(sp)
    8000315e:	6d4e                	ld	s10,208(sp)
    80003160:	6dee                	ld	s11,216(sp)
    80003162:	7e0e                	ld	t3,224(sp)
    80003164:	7eae                	ld	t4,232(sp)
    80003166:	7f4e                	ld	t5,240(sp)
    80003168:	7fee                	ld	t6,248(sp)
    8000316a:	10012007          	flw	ft0,256(sp)
    8000316e:	10812087          	flw	ft1,264(sp)
    80003172:	11012107          	flw	ft2,272(sp)
    80003176:	11812187          	flw	ft3,280(sp)
    8000317a:	12012207          	flw	ft4,288(sp)
    8000317e:	12812287          	flw	ft5,296(sp)
    80003182:	13012307          	flw	ft6,304(sp)
    80003186:	13812387          	flw	ft7,312(sp)
    8000318a:	14012407          	flw	fs0,320(sp)
    8000318e:	14812487          	flw	fs1,328(sp)
    80003192:	15012507          	flw	fa0,336(sp)
    80003196:	15812587          	flw	fa1,344(sp)
    8000319a:	16012607          	flw	fa2,352(sp)
    8000319e:	16812687          	flw	fa3,360(sp)
    800031a2:	17012707          	flw	fa4,368(sp)
    800031a6:	17812787          	flw	fa5,376(sp)
    800031aa:	18012807          	flw	fa6,384(sp)
    800031ae:	18812887          	flw	fa7,392(sp)
    800031b2:	19012907          	flw	fs2,400(sp)
    800031b6:	19812987          	flw	fs3,408(sp)
    800031ba:	1a012a07          	flw	fs4,416(sp)
    800031be:	1a812a87          	flw	fs5,424(sp)
    800031c2:	1b012b07          	flw	fs6,432(sp)
    800031c6:	1b812b87          	flw	fs7,440(sp)
    800031ca:	1c012c07          	flw	fs8,448(sp)
    800031ce:	1c812c87          	flw	fs9,456(sp)
    800031d2:	1d012d07          	flw	fs10,464(sp)
    800031d6:	1d812d87          	flw	fs11,472(sp)
    800031da:	1e012e07          	flw	ft8,480(sp)
    800031de:	1e812e87          	flw	ft9,488(sp)
    800031e2:	1f012f07          	flw	ft10,496(sp)
    800031e6:	1f812f87          	flw	ft11,504(sp)
    800031ea:	20010113          	addi	sp,sp,512
    800031ee:	10200073          	sret
	...

00000000800031f4 <machine_trap_entry>:
    800031f4:	34011073          	csrw	mscratch,sp
    800031f8:	14129073          	csrw	sepc,t0
    800031fc:	300022f3          	csrr	t0,mstatus
    80003200:	00002337          	lui	t1,0x2
    80003204:	8003031b          	addiw	t1,t1,-2048
    80003208:	0062f2b3          	and	t0,t0,t1
    8000320c:	02029463          	bnez	t0,80003234 <stack_switch_ok>
    80003210:	f14022f3          	csrr	t0,mhartid
    80003214:	00029863          	bnez	t0,80003224 <other_core_stack_switch>
    80003218:	0000f117          	auipc	sp,0xf
    8000321c:	84810113          	addi	sp,sp,-1976 # 80011a60 <cur_kernel_stack>
    80003220:	6102                	ld	sp,0(sp)
    80003222:	a809                	j	80003234 <stack_switch_ok>

0000000080003224 <other_core_stack_switch>:
    80003224:	0003c117          	auipc	sp,0x3c
    80003228:	61c10113          	addi	sp,sp,1564 # 8003f840 <_trapsp0>
    8000322c:	f14022f3          	csrr	t0,mhartid
    80003230:	02be                	slli	t0,t0,0xf
    80003232:	9116                	add	sp,sp,t0

0000000080003234 <stack_switch_ok>:
    80003234:	df010113          	addi	sp,sp,-528
    80003238:	e406                	sd	ra,8(sp)
    8000323a:	e80a                	sd	sp,16(sp)
    8000323c:	ec0e                	sd	gp,24(sp)
    8000323e:	f012                	sd	tp,32(sp)
    80003240:	f416                	sd	t0,40(sp)
    80003242:	f81a                	sd	t1,48(sp)
    80003244:	fc1e                	sd	t2,56(sp)
    80003246:	e0a2                	sd	s0,64(sp)
    80003248:	e4a6                	sd	s1,72(sp)
    8000324a:	e8aa                	sd	a0,80(sp)
    8000324c:	ecae                	sd	a1,88(sp)
    8000324e:	f0b2                	sd	a2,96(sp)
    80003250:	f4b6                	sd	a3,104(sp)
    80003252:	f8ba                	sd	a4,112(sp)
    80003254:	fcbe                	sd	a5,120(sp)
    80003256:	e142                	sd	a6,128(sp)
    80003258:	e546                	sd	a7,136(sp)
    8000325a:	e94a                	sd	s2,144(sp)
    8000325c:	ed4e                	sd	s3,152(sp)
    8000325e:	f152                	sd	s4,160(sp)
    80003260:	f556                	sd	s5,168(sp)
    80003262:	f95a                	sd	s6,176(sp)
    80003264:	fd5e                	sd	s7,184(sp)
    80003266:	e1e2                	sd	s8,192(sp)
    80003268:	e5e6                	sd	s9,200(sp)
    8000326a:	e9ea                	sd	s10,208(sp)
    8000326c:	edee                	sd	s11,216(sp)
    8000326e:	f1f2                	sd	t3,224(sp)
    80003270:	f5f6                	sd	t4,232(sp)
    80003272:	f9fa                	sd	t5,240(sp)
    80003274:	fdfe                	sd	t6,248(sp)
    80003276:	141022f3          	csrr	t0,sepc
    8000327a:	34002373          	csrr	t1,mscratch
    8000327e:	f416                	sd	t0,40(sp)
    80003280:	e81a                	sd	t1,16(sp)
    80003282:	10012027          	fsw	ft0,256(sp)
    80003286:	10112427          	fsw	ft1,264(sp)
    8000328a:	10212827          	fsw	ft2,272(sp)
    8000328e:	10312c27          	fsw	ft3,280(sp)
    80003292:	12412027          	fsw	ft4,288(sp)
    80003296:	12512427          	fsw	ft5,296(sp)
    8000329a:	12612827          	fsw	ft6,304(sp)
    8000329e:	12712c27          	fsw	ft7,312(sp)
    800032a2:	14812027          	fsw	fs0,320(sp)
    800032a6:	14912427          	fsw	fs1,328(sp)
    800032aa:	14a12827          	fsw	fa0,336(sp)
    800032ae:	14b12c27          	fsw	fa1,344(sp)
    800032b2:	16c12027          	fsw	fa2,352(sp)
    800032b6:	16d12427          	fsw	fa3,360(sp)
    800032ba:	16e12827          	fsw	fa4,368(sp)
    800032be:	16f12c27          	fsw	fa5,376(sp)
    800032c2:	19012027          	fsw	fa6,384(sp)
    800032c6:	19112427          	fsw	fa7,392(sp)
    800032ca:	19212827          	fsw	fs2,400(sp)
    800032ce:	19312c27          	fsw	fs3,408(sp)
    800032d2:	1b412027          	fsw	fs4,416(sp)
    800032d6:	1b512427          	fsw	fs5,424(sp)
    800032da:	1b612827          	fsw	fs6,432(sp)
    800032de:	1b712c27          	fsw	fs7,440(sp)
    800032e2:	1d812027          	fsw	fs8,448(sp)
    800032e6:	1d912427          	fsw	fs9,456(sp)
    800032ea:	1da12827          	fsw	fs10,464(sp)
    800032ee:	1db12c27          	fsw	fs11,472(sp)
    800032f2:	1fc12027          	fsw	ft8,480(sp)
    800032f6:	1fd12427          	fsw	ft9,488(sp)
    800032fa:	1fe12827          	fsw	ft10,496(sp)
    800032fe:	1ff12c27          	fsw	ft11,504(sp)
    80003302:	300022f3          	csrr	t0,mstatus
    80003306:	20513023          	sd	t0,512(sp)
    8000330a:	304022f3          	csrr	t0,mie
    8000330e:	20513423          	sd	t0,520(sp)
    80003312:	a821                	j	8000332a <supervisor_trap_check_skip>
    80003314:	300022f3          	csrr	t0,mstatus
    80003318:	00b2d293          	srli	t0,t0,0xb
    8000331c:	0032f293          	andi	t0,t0,3
    80003320:	12f5                	addi	t0,t0,-3
    80003322:	00028463          	beqz	t0,8000332a <supervisor_trap_check_skip>
    80003326:	c9fff06f          	j	80002fc4 <supervisor_trap_entry_insert_entry>

000000008000332a <supervisor_trap_check_skip>:
    8000332a:	00000513          	li	a0,0
    8000332e:	050d                	addi	a0,a0,3
    80003330:	342025f3          	csrr	a1,mcause
    80003334:	34102673          	csrr	a2,mepc
    80003338:	343026f3          	csrr	a3,mtval
    8000333c:	dc1fe0ef          	jal	ra,800020fc <privilege_trap_entry>
    80003340:	34011073          	csrw	mscratch,sp
    80003344:	34202573          	csrr	a0,mcause
    80003348:	341025f3          	csrr	a1,mepc
    8000334c:	860a                	mv	a2,sp
    8000334e:	0214                	addi	a3,sp,256
    80003350:	870a                	mv	a4,sp
    80003352:	0418                	addi	a4,sp,512
    80003354:	00055d63          	bgez	a0,8000336e <machine_exception_handler_call>
    80003358:	fff0031b          	addiw	t1,zero,-1
    8000335c:	03f31313          	slli	t1,t1,0x3f
    80003360:	fff30313          	addi	t1,t1,-1 # 1fff <_stack_size-0x6001>
    80003364:	00657533          	and	a0,a0,t1
    80003368:	b31ff0ef          	jal	ra,80002e98 <machine_interrupt_handler>
    8000336c:	a019                	j	80003372 <machine_handler_call_ok>

000000008000336e <machine_exception_handler_call>:
    8000336e:	86fff0ef          	jal	ra,80002bdc <machine_exception_handler>

0000000080003372 <machine_handler_call_ok>:
    80003372:	34151073          	csrw	mepc,a0
    80003376:	000012b7          	lui	t0,0x1
    8000337a:	8002829b          	addiw	t0,t0,-2048
    8000337e:	30429073          	csrw	mie,t0
    80003382:	e35fe0ef          	jal	ra,800021b6 <privilege_trap_exit>
    80003386:	300022f3          	csrr	t0,mstatus
    8000338a:	ff72f293          	andi	t0,t0,-9
    8000338e:	30029073          	csrw	mstatus,t0
    80003392:	20013283          	ld	t0,512(sp)
    80003396:	30002373          	csrr	t1,mstatus
    8000339a:	ffffe3b7          	lui	t2,0xffffe
    8000339e:	77f3839b          	addiw	t2,t2,1919
    800033a2:	00737333          	and	t1,t1,t2
    800033a6:	000023b7          	lui	t2,0x2
    800033aa:	8803839b          	addiw	t2,t2,-1920
    800033ae:	0072f2b3          	and	t0,t0,t2
    800033b2:	00536333          	or	t1,t1,t0
    800033b6:	30031073          	csrw	mstatus,t1
    800033ba:	20813303          	ld	t1,520(sp)
    800033be:	30431073          	csrw	mie,t1
    800033c2:	60a2                	ld	ra,8(sp)
    800033c4:	61e2                	ld	gp,24(sp)
    800033c6:	7202                	ld	tp,32(sp)
    800033c8:	72a2                	ld	t0,40(sp)
    800033ca:	7342                	ld	t1,48(sp)
    800033cc:	73e2                	ld	t2,56(sp)
    800033ce:	6406                	ld	s0,64(sp)
    800033d0:	64a6                	ld	s1,72(sp)
    800033d2:	6546                	ld	a0,80(sp)
    800033d4:	65e6                	ld	a1,88(sp)
    800033d6:	7606                	ld	a2,96(sp)
    800033d8:	76a6                	ld	a3,104(sp)
    800033da:	7746                	ld	a4,112(sp)
    800033dc:	77e6                	ld	a5,120(sp)
    800033de:	680a                	ld	a6,128(sp)
    800033e0:	68aa                	ld	a7,136(sp)
    800033e2:	694a                	ld	s2,144(sp)
    800033e4:	69ea                	ld	s3,152(sp)
    800033e6:	7a0a                	ld	s4,160(sp)
    800033e8:	7aaa                	ld	s5,168(sp)
    800033ea:	7b4a                	ld	s6,176(sp)
    800033ec:	7bea                	ld	s7,184(sp)
    800033ee:	6c0e                	ld	s8,192(sp)
    800033f0:	6cae                	ld	s9,200(sp)
    800033f2:	6d4e                	ld	s10,208(sp)
    800033f4:	6dee                	ld	s11,216(sp)
    800033f6:	7e0e                	ld	t3,224(sp)
    800033f8:	7eae                	ld	t4,232(sp)
    800033fa:	7f4e                	ld	t5,240(sp)
    800033fc:	7fee                	ld	t6,248(sp)
    800033fe:	10012007          	flw	ft0,256(sp)
    80003402:	10812087          	flw	ft1,264(sp)
    80003406:	11012107          	flw	ft2,272(sp)
    8000340a:	11812187          	flw	ft3,280(sp)
    8000340e:	12012207          	flw	ft4,288(sp)
    80003412:	12812287          	flw	ft5,296(sp)
    80003416:	13012307          	flw	ft6,304(sp)
    8000341a:	13812387          	flw	ft7,312(sp)
    8000341e:	14012407          	flw	fs0,320(sp)
    80003422:	14812487          	flw	fs1,328(sp)
    80003426:	15012507          	flw	fa0,336(sp)
    8000342a:	15812587          	flw	fa1,344(sp)
    8000342e:	16012607          	flw	fa2,352(sp)
    80003432:	16812687          	flw	fa3,360(sp)
    80003436:	17012707          	flw	fa4,368(sp)
    8000343a:	17812787          	flw	fa5,376(sp)
    8000343e:	18012807          	flw	fa6,384(sp)
    80003442:	18812887          	flw	fa7,392(sp)
    80003446:	19012907          	flw	fs2,400(sp)
    8000344a:	19812987          	flw	fs3,408(sp)
    8000344e:	1a012a07          	flw	fs4,416(sp)
    80003452:	1a812a87          	flw	fs5,424(sp)
    80003456:	1b012b07          	flw	fs6,432(sp)
    8000345a:	1b812b87          	flw	fs7,440(sp)
    8000345e:	1c012c07          	flw	fs8,448(sp)
    80003462:	1c812c87          	flw	fs9,456(sp)
    80003466:	1d012d07          	flw	fs10,464(sp)
    8000346a:	1d812d87          	flw	fs11,472(sp)
    8000346e:	1e012e07          	flw	ft8,480(sp)
    80003472:	1e812e87          	flw	ft9,488(sp)
    80003476:	1f012f07          	flw	ft10,496(sp)
    8000347a:	1f812f87          	flw	ft11,504(sp)
    8000347e:	6142                	ld	sp,16(sp)
    80003480:	30200073          	mret
	...

0000000080003486 <verify_area>:
    80003486:	6785                	lui	a5,0x1
    80003488:	1101                	addi	sp,sp,-32
    8000348a:	17fd                	addi	a5,a5,-1
    8000348c:	e426                	sd	s1,8(sp)
    8000348e:	8fe9                	and	a5,a5,a0
    80003490:	74fd                	lui	s1,0xfffff
    80003492:	9dbd                	addw	a1,a1,a5
    80003494:	8ce9                	and	s1,s1,a0
    80003496:	e822                	sd	s0,16(sp)
    80003498:	e04a                	sd	s2,0(sp)
    8000349a:	ec06                	sd	ra,24(sp)
    8000349c:	00b4843b          	addw	s0,s1,a1
    800034a0:	6905                	lui	s2,0x1
    800034a2:	409407bb          	subw	a5,s0,s1
    800034a6:	00f04863          	bgtz	a5,800034b6 <verify_area+0x30>
    800034aa:	60e2                	ld	ra,24(sp)
    800034ac:	6442                	ld	s0,16(sp)
    800034ae:	64a2                	ld	s1,8(sp)
    800034b0:	6902                	ld	s2,0(sp)
    800034b2:	6105                	addi	sp,sp,32
    800034b4:	8082                	ret
    800034b6:	8526                	mv	a0,s1
    800034b8:	00002097          	auipc	ra,0x2
    800034bc:	336080e7          	jalr	822(ra) # 800057ee <write_verify>
    800034c0:	94ca                	add	s1,s1,s2
    800034c2:	b7c5                	j	800034a2 <verify_area+0x1c>

00000000800034c4 <copy_mem>:
    800034c4:	1101                	addi	sp,sp,-32
    800034c6:	e426                	sd	s1,8(sp)
    800034c8:	87ae                	mv	a5,a1
    800034ca:	3e85b483          	ld	s1,1000(a1)
    800034ce:	e822                	sd	s0,16(sp)
    800034d0:	01a5141b          	slliw	s0,a0,0x1a
    800034d4:	3d87b503          	ld	a0,984(a5) # 13d8 <_stack_size-0x6c28>
    800034d8:	ec06                	sd	ra,24(sp)
    800034da:	3285b823          	sd	s0,816(a1)
    800034de:	8626                	mv	a2,s1
    800034e0:	85a2                	mv	a1,s0
    800034e2:	00002097          	auipc	ra,0x2
    800034e6:	0c2080e7          	jalr	194(ra) # 800055a4 <copy_page_tables>
    800034ea:	c901                	beqz	a0,800034fa <copy_mem+0x36>
    800034ec:	85a6                	mv	a1,s1
    800034ee:	8522                	mv	a0,s0
    800034f0:	00002097          	auipc	ra,0x2
    800034f4:	fdc080e7          	jalr	-36(ra) # 800054cc <free_page_tables>
    800034f8:	5551                	li	a0,-12
    800034fa:	60e2                	ld	ra,24(sp)
    800034fc:	6442                	ld	s0,16(sp)
    800034fe:	64a2                	ld	s1,8(sp)
    80003500:	6105                	addi	sp,sp,32
    80003502:	8082                	ret

0000000080003504 <copy_process>:
    80003504:	7139                	addi	sp,sp,-64
    80003506:	e852                	sd	s4,16(sp)
    80003508:	8a2a                	mv	s4,a0
    8000350a:	4515                	li	a0,5
    8000350c:	fc06                	sd	ra,56(sp)
    8000350e:	f822                	sd	s0,48(sp)
    80003510:	f426                	sd	s1,40(sp)
    80003512:	f04a                	sd	s2,32(sp)
    80003514:	ec4e                	sd	s3,24(sp)
    80003516:	e456                	sd	s5,8(sp)
    80003518:	00002097          	auipc	ra,0x2
    8000351c:	e9a080e7          	jalr	-358(ra) # 800053b2 <get_free_pages>
    80003520:	cd55                	beqz	a0,800035dc <copy_process+0xd8>
    80003522:	842a                	mv	s0,a0
    80003524:	86aa                	mv	a3,a0
    80003526:	8652                	mv	a2,s4
    80003528:	0000a597          	auipc	a1,0xa
    8000352c:	6a858593          	addi	a1,a1,1704 # 8000dbd0 <CSWTCH.0+0x3a8>
    80003530:	0000a517          	auipc	a0,0xa
    80003534:	6b850513          	addi	a0,a0,1720 # 8000dbe8 <CSWTCH.0+0x3c0>
    80003538:	fffff097          	auipc	ra,0xfffff
    8000353c:	9fc080e7          	jalr	-1540(ra) # 80001f34 <syslog_debug>
    80003540:	0000e797          	auipc	a5,0xe
    80003544:	52878793          	addi	a5,a5,1320 # 80011a68 <current>
    80003548:	0007b983          	ld	s3,0(a5)
    8000354c:	003a1493          	slli	s1,s4,0x3
    80003550:	0000b917          	auipc	s2,0xb
    80003554:	64890913          	addi	s2,s2,1608 # 8000eb98 <task>
    80003558:	9926                	add	s2,s2,s1
    8000355a:	5f800613          	li	a2,1528
    8000355e:	85ce                	mv	a1,s3
    80003560:	8522                	mv	a0,s0
    80003562:	00893023          	sd	s0,0(s2)
    80003566:	00004097          	auipc	ra,0x4
    8000356a:	0f4080e7          	jalr	244(ra) # 8000765a <memcpy>
    8000356e:	4789                	li	a5,2
    80003570:	0000ea97          	auipc	s5,0xe
    80003574:	4eca8a93          	addi	s5,s5,1260 # 80011a5c <last_pid>
    80003578:	e01c                	sd	a5,0(s0)
    8000357a:	000aa783          	lw	a5,0(s5)
    8000357e:	4521                	li	a0,8
    80003580:	34f43c23          	sd	a5,856(s0)
    80003584:	3589b783          	ld	a5,856(s3)
    80003588:	00043c23          	sd	zero,24(s0)
    8000358c:	38043823          	sd	zero,912(s0)
    80003590:	36f43023          	sd	a5,864(s0)
    80003594:	681c                	ld	a5,16(s0)
    80003596:	36043c23          	sd	zero,888(s0)
    8000359a:	3a043023          	sd	zero,928(s0)
    8000359e:	e41c                	sd	a5,8(s0)
    800035a0:	0000e797          	auipc	a5,0xe
    800035a4:	4d078793          	addi	a5,a5,1232 # 80011a70 <jiffies>
    800035a8:	639c                	ld	a5,0(a5)
    800035aa:	38043c23          	sd	zero,920(s0)
    800035ae:	3a043823          	sd	zero,944(s0)
    800035b2:	3af43c23          	sd	a5,952(s0)
    800035b6:	3a043423          	sd	zero,936(s0)
    800035ba:	00002097          	auipc	ra,0x2
    800035be:	df8080e7          	jalr	-520(ra) # 800053b2 <get_free_pages>
    800035c2:	0000b797          	auipc	a5,0xb
    800035c6:	19678793          	addi	a5,a5,406 # 8000e758 <kernel_stack>
    800035ca:	94be                	add	s1,s1,a5
    800035cc:	e088                	sd	a0,0(s1)
    800035ce:	e909                	bnez	a0,800035e0 <copy_process+0xdc>
    800035d0:	4595                	li	a1,5
    800035d2:	8522                	mv	a0,s0
    800035d4:	00002097          	auipc	ra,0x2
    800035d8:	ec8080e7          	jalr	-312(ra) # 8000549c <free_pages>
    800035dc:	5555                	li	a0,-11
    800035de:	a211                	j	800036e2 <copy_process+0x1de>
    800035e0:	00016997          	auipc	s3,0x16
    800035e4:	a7098993          	addi	s3,s3,-1424 # 80019050 <trap_info>
    800035e8:	67a1                	lui	a5,0x8
    800035ea:	00f50733          	add	a4,a0,a5
    800035ee:	0109b583          	ld	a1,16(s3)
    800035f2:	e0078793          	addi	a5,a5,-512 # 7e00 <_stack_size-0x200>
    800035f6:	953e                	add	a0,a0,a5
    800035f8:	10000613          	li	a2,256
    800035fc:	40a43023          	sd	a0,1024(s0)
    80003600:	e098                	sd	a4,0(s1)
    80003602:	00004097          	auipc	ra,0x4
    80003606:	058080e7          	jalr	88(ra) # 8000765a <memcpy>
    8000360a:	40043503          	ld	a0,1024(s0)
    8000360e:	0189b583          	ld	a1,24(s3)
    80003612:	10000613          	li	a2,256
    80003616:	10050513          	addi	a0,a0,256
    8000361a:	00004097          	auipc	ra,0x4
    8000361e:	040080e7          	jalr	64(ra) # 8000765a <memcpy>
    80003622:	0009b683          	ld	a3,0(s3)
    80003626:	40043603          	ld	a2,1024(s0)
    8000362a:	8722                	mv	a4,s0
    8000362c:	0691                	addi	a3,a3,4
    8000362e:	5ed43823          	sd	a3,1520(s0)
    80003632:	0000a597          	auipc	a1,0xa
    80003636:	5c658593          	addi	a1,a1,1478 # 8000dbf8 <CSWTCH.0+0x3d0>
    8000363a:	0000a517          	auipc	a0,0xa
    8000363e:	5ae50513          	addi	a0,a0,1454 # 8000dbe8 <CSWTCH.0+0x3c0>
    80003642:	fffff097          	auipc	ra,0xfffff
    80003646:	8f2080e7          	jalr	-1806(ra) # 80001f34 <syslog_debug>
    8000364a:	40043783          	ld	a5,1024(s0)
    8000364e:	00001717          	auipc	a4,0x1
    80003652:	37a70713          	addi	a4,a4,890 # 800049c8 <fork_process_exit>
    80003656:	005f8537          	lui	a0,0x5f8
    8000365a:	0407b823          	sd	zero,80(a5)
    8000365e:	40043783          	ld	a5,1024(s0)
    80003662:	9522                	add	a0,a0,s0
    80003664:	6585                	lui	a1,0x1
    80003666:	e798                	sd	a4,8(a5)
    80003668:	0109b783          	ld	a5,16(s3)
    8000366c:	80058593          	addi	a1,a1,-2048 # 800 <_stack_size-0x7800>
    80003670:	6798                	ld	a4,8(a5)
    80003672:	40043783          	ld	a5,1024(s0)
    80003676:	fee7bc23          	sd	a4,-8(a5)
    8000367a:	3ca43423          	sd	a0,968(s0)
    8000367e:	fffff097          	auipc	ra,0xfffff
    80003682:	d4a080e7          	jalr	-694(ra) # 800023c8 <pte_common_init>
    80003686:	0000a597          	auipc	a1,0xa
    8000368a:	58a58593          	addi	a1,a1,1418 # 8000dc10 <CSWTCH.0+0x3e8>
    8000368e:	0000a517          	auipc	a0,0xa
    80003692:	55a50513          	addi	a0,a0,1370 # 8000dbe8 <CSWTCH.0+0x3c0>
    80003696:	fffff097          	auipc	ra,0xfffff
    8000369a:	89e080e7          	jalr	-1890(ra) # 80001f34 <syslog_debug>
    8000369e:	85a2                	mv	a1,s0
    800036a0:	8552                	mv	a0,s4
    800036a2:	00000097          	auipc	ra,0x0
    800036a6:	e22080e7          	jalr	-478(ra) # 800034c4 <copy_mem>
    800036aa:	c905                	beqz	a0,800036da <copy_process+0x1d6>
    800036ac:	0000a597          	auipc	a1,0xa
    800036b0:	56c58593          	addi	a1,a1,1388 # 8000dc18 <CSWTCH.0+0x3f0>
    800036b4:	0000a517          	auipc	a0,0xa
    800036b8:	53450513          	addi	a0,a0,1332 # 8000dbe8 <CSWTCH.0+0x3c0>
    800036bc:	fffff097          	auipc	ra,0xfffff
    800036c0:	878080e7          	jalr	-1928(ra) # 80001f34 <syslog_debug>
    800036c4:	609c                	ld	a5,0(s1)
    800036c6:	7561                	lui	a0,0xffff8
    800036c8:	45a1                	li	a1,8
    800036ca:	953e                	add	a0,a0,a5
    800036cc:	00093023          	sd	zero,0(s2)
    800036d0:	00002097          	auipc	ra,0x2
    800036d4:	dcc080e7          	jalr	-564(ra) # 8000549c <free_pages>
    800036d8:	bde5                	j	800035d0 <copy_process+0xcc>
    800036da:	000aa503          	lw	a0,0(s5)
    800036de:	00043023          	sd	zero,0(s0)
    800036e2:	70e2                	ld	ra,56(sp)
    800036e4:	7442                	ld	s0,48(sp)
    800036e6:	74a2                	ld	s1,40(sp)
    800036e8:	7902                	ld	s2,32(sp)
    800036ea:	69e2                	ld	s3,24(sp)
    800036ec:	6a42                	ld	s4,16(sp)
    800036ee:	6aa2                	ld	s5,8(sp)
    800036f0:	6121                	addi	sp,sp,64
    800036f2:	8082                	ret

00000000800036f4 <find_empty_process>:
    800036f4:	0000e797          	auipc	a5,0xe
    800036f8:	36878793          	addi	a5,a5,872 # 80011a5c <last_pid>
    800036fc:	439c                	lw	a5,0(a5)
    800036fe:	0000b597          	auipc	a1,0xb
    80003702:	69a58593          	addi	a1,a1,1690 # 8000ed98 <table_list>
    80003706:	2785                	addiw	a5,a5,1
    80003708:	0007d363          	bgez	a5,8000370e <find_empty_process+0x1a>
    8000370c:	4785                	li	a5,1
    8000370e:	0000b717          	auipc	a4,0xb
    80003712:	48a70713          	addi	a4,a4,1162 # 8000eb98 <task>
    80003716:	86ba                	mv	a3,a4
    80003718:	6290                	ld	a2,0(a3)
    8000371a:	c609                	beqz	a2,80003724 <find_empty_process+0x30>
    8000371c:	35863603          	ld	a2,856(a2)
    80003720:	fef603e3          	beq	a2,a5,80003706 <find_empty_process+0x12>
    80003724:	06a1                	addi	a3,a3,8
    80003726:	feb699e3          	bne	a3,a1,80003718 <find_empty_process+0x24>
    8000372a:	0000e697          	auipc	a3,0xe
    8000372e:	32f6a923          	sw	a5,818(a3) # 80011a5c <last_pid>
    80003732:	4505                	li	a0,1
    80003734:	04000793          	li	a5,64
    80003738:	6714                	ld	a3,8(a4)
    8000373a:	c691                	beqz	a3,80003746 <find_empty_process+0x52>
    8000373c:	2505                	addiw	a0,a0,1
    8000373e:	0721                	addi	a4,a4,8
    80003740:	fef51ce3          	bne	a0,a5,80003738 <find_empty_process+0x44>
    80003744:	5555                	li	a0,-11
    80003746:	8082                	ret

0000000080003748 <sys_ftime>:
    80003748:	fda00513          	li	a0,-38
    8000374c:	8082                	ret

000000008000374e <sys_break>:
    8000374e:	fda00513          	li	a0,-38
    80003752:	8082                	ret

0000000080003754 <sys_ptrace>:
    80003754:	fda00513          	li	a0,-38
    80003758:	8082                	ret

000000008000375a <sys_stty>:
    8000375a:	fda00513          	li	a0,-38
    8000375e:	8082                	ret

0000000080003760 <sys_gtty>:
    80003760:	fda00513          	li	a0,-38
    80003764:	8082                	ret

0000000080003766 <sys_rename>:
    80003766:	fda00513          	li	a0,-38
    8000376a:	8082                	ret

000000008000376c <sys_prof>:
    8000376c:	fda00513          	li	a0,-38
    80003770:	8082                	ret

0000000080003772 <sys_setregid>:
    80003772:	02a05263          	blez	a0,80003796 <sys_setregid+0x24>
    80003776:	0000e797          	auipc	a5,0xe
    8000377a:	2f278793          	addi	a5,a5,754 # 80011a68 <current>
    8000377e:	639c                	ld	a5,0(a5)
    80003780:	3867d703          	lhu	a4,902(a5)
    80003784:	00a70763          	beq	a4,a0,80003792 <sys_setregid+0x20>
    80003788:	3827d703          	lhu	a4,898(a5)
    8000378c:	c319                	beqz	a4,80003792 <sys_setregid+0x20>
    8000378e:	557d                	li	a0,-1
    80003790:	8082                	ret
    80003792:	38a79323          	sh	a0,902(a5)
    80003796:	4501                	li	a0,0
    80003798:	02b05d63          	blez	a1,800037d2 <sys_setregid+0x60>
    8000379c:	0000e797          	auipc	a5,0xe
    800037a0:	2cc78793          	addi	a5,a5,716 # 80011a68 <current>
    800037a4:	639c                	ld	a5,0(a5)
    800037a6:	03059713          	slli	a4,a1,0x30
    800037aa:	9341                	srli	a4,a4,0x30
    800037ac:	3867d683          	lhu	a3,902(a5)
    800037b0:	00b69663          	bne	a3,a1,800037bc <sys_setregid+0x4a>
    800037b4:	38e79423          	sh	a4,904(a5)
    800037b8:	4501                	li	a0,0
    800037ba:	8082                	ret
    800037bc:	3887d683          	lhu	a3,904(a5)
    800037c0:	feb68ae3          	beq	a3,a1,800037b4 <sys_setregid+0x42>
    800037c4:	38e79523          	sh	a4,906(a5)
    800037c8:	f775                	bnez	a4,800037b4 <sys_setregid+0x42>
    800037ca:	3827d683          	lhu	a3,898(a5)
    800037ce:	d2fd                	beqz	a3,800037b4 <sys_setregid+0x42>
    800037d0:	bf7d                	j	8000378e <sys_setregid+0x1c>
    800037d2:	8082                	ret

00000000800037d4 <sys_setgid>:
    800037d4:	85aa                	mv	a1,a0
    800037d6:	00000317          	auipc	t1,0x0
    800037da:	f9c30067          	jr	-100(t1) # 80003772 <sys_setregid>

00000000800037de <sys_acct>:
    800037de:	fda00513          	li	a0,-38
    800037e2:	8082                	ret

00000000800037e4 <sys_phys>:
    800037e4:	fda00513          	li	a0,-38
    800037e8:	8082                	ret

00000000800037ea <sys_lock>:
    800037ea:	fda00513          	li	a0,-38
    800037ee:	8082                	ret

00000000800037f0 <sys_mpx>:
    800037f0:	fda00513          	li	a0,-38
    800037f4:	8082                	ret

00000000800037f6 <sys_ulimit>:
    800037f6:	fda00513          	li	a0,-38
    800037fa:	8082                	ret

00000000800037fc <sys_time>:
    800037fc:	1101                	addi	sp,sp,-32
    800037fe:	0000e797          	auipc	a5,0xe
    80003802:	27278793          	addi	a5,a5,626 # 80011a70 <jiffies>
    80003806:	e822                	sd	s0,16(sp)
    80003808:	6380                	ld	s0,0(a5)
    8000380a:	06400793          	li	a5,100
    8000380e:	ec06                	sd	ra,24(sp)
    80003810:	02f44433          	div	s0,s0,a5
    80003814:	0000e797          	auipc	a5,0xe
    80003818:	27478793          	addi	a5,a5,628 # 80011a88 <startup_time>
    8000381c:	639c                	ld	a5,0(a5)
    8000381e:	e42a                	sd	a0,8(sp)
    80003820:	9c3d                	addw	s0,s0,a5
    80003822:	cd09                	beqz	a0,8000383c <sys_time+0x40>
    80003824:	45a1                	li	a1,8
    80003826:	00000097          	auipc	ra,0x0
    8000382a:	c60080e7          	jalr	-928(ra) # 80003486 <verify_area>
    8000382e:	0028                	addi	a0,sp,8
    80003830:	00002097          	auipc	ra,0x2
    80003834:	176080e7          	jalr	374(ra) # 800059a6 <user_ptr_to_kernel>
    80003838:	67a2                	ld	a5,8(sp)
    8000383a:	e380                	sd	s0,0(a5)
    8000383c:	8522                	mv	a0,s0
    8000383e:	60e2                	ld	ra,24(sp)
    80003840:	6442                	ld	s0,16(sp)
    80003842:	6105                	addi	sp,sp,32
    80003844:	8082                	ret

0000000080003846 <sys_setreuid>:
    80003846:	0000e797          	auipc	a5,0xe
    8000384a:	22278793          	addi	a5,a5,546 # 80011a68 <current>
    8000384e:	639c                	ld	a5,0(a5)
    80003850:	3807d683          	lhu	a3,896(a5)
    80003854:	00a05c63          	blez	a0,8000386c <sys_setreuid+0x26>
    80003858:	3827d603          	lhu	a2,898(a5)
    8000385c:	00a60663          	beq	a2,a0,80003868 <sys_setreuid+0x22>
    80003860:	00d50463          	beq	a0,a3,80003868 <sys_setreuid+0x22>
    80003864:	577d                	li	a4,-1
    80003866:	ee19                	bnez	a2,80003884 <sys_setreuid+0x3e>
    80003868:	38a79023          	sh	a0,896(a5)
    8000386c:	4701                	li	a4,0
    8000386e:	c999                	beqz	a1,80003884 <sys_setreuid+0x3e>
    80003870:	00b68763          	beq	a3,a1,8000387e <sys_setreuid+0x38>
    80003874:	3827d703          	lhu	a4,898(a5)
    80003878:	00b70363          	beq	a4,a1,8000387e <sys_setreuid+0x38>
    8000387c:	e711                	bnez	a4,80003888 <sys_setreuid+0x42>
    8000387e:	38b79123          	sh	a1,898(a5)
    80003882:	4701                	li	a4,0
    80003884:	853a                	mv	a0,a4
    80003886:	8082                	ret
    80003888:	38d79023          	sh	a3,896(a5)
    8000388c:	577d                	li	a4,-1
    8000388e:	bfdd                	j	80003884 <sys_setreuid+0x3e>

0000000080003890 <sys_setuid>:
    80003890:	85aa                	mv	a1,a0
    80003892:	00000317          	auipc	t1,0x0
    80003896:	fb430067          	jr	-76(t1) # 80003846 <sys_setreuid>

000000008000389a <sys_stime>:
    8000389a:	0000e797          	auipc	a5,0xe
    8000389e:	1ce78793          	addi	a5,a5,462 # 80011a68 <current>
    800038a2:	639c                	ld	a5,0(a5)
    800038a4:	1101                	addi	sp,sp,-32
    800038a6:	e42a                	sd	a0,8(sp)
    800038a8:	3827d783          	lhu	a5,898(a5)
    800038ac:	ec06                	sd	ra,24(sp)
    800038ae:	557d                	li	a0,-1
    800038b0:	e79d                	bnez	a5,800038de <sys_stime+0x44>
    800038b2:	0028                	addi	a0,sp,8
    800038b4:	00002097          	auipc	ra,0x2
    800038b8:	0f2080e7          	jalr	242(ra) # 800059a6 <user_ptr_to_kernel>
    800038bc:	0000e797          	auipc	a5,0xe
    800038c0:	1b478793          	addi	a5,a5,436 # 80011a70 <jiffies>
    800038c4:	639c                	ld	a5,0(a5)
    800038c6:	f9c00713          	li	a4,-100
    800038ca:	4501                	li	a0,0
    800038cc:	02e7c733          	div	a4,a5,a4
    800038d0:	67a2                	ld	a5,8(sp)
    800038d2:	639c                	ld	a5,0(a5)
    800038d4:	97ba                	add	a5,a5,a4
    800038d6:	0000e717          	auipc	a4,0xe
    800038da:	1af73923          	sd	a5,434(a4) # 80011a88 <startup_time>
    800038de:	60e2                	ld	ra,24(sp)
    800038e0:	6105                	addi	sp,sp,32
    800038e2:	8082                	ret

00000000800038e4 <sys_times>:
    800038e4:	cd29                	beqz	a0,8000393e <sys_times+0x5a>
    800038e6:	7179                	addi	sp,sp,-48
    800038e8:	02000593          	li	a1,32
    800038ec:	f406                	sd	ra,40(sp)
    800038ee:	f022                	sd	s0,32(sp)
    800038f0:	842a                	mv	s0,a0
    800038f2:	00000097          	auipc	ra,0x0
    800038f6:	b94080e7          	jalr	-1132(ra) # 80003486 <verify_area>
    800038fa:	0000e797          	auipc	a5,0xe
    800038fe:	16e78793          	addi	a5,a5,366 # 80011a68 <current>
    80003902:	639c                	ld	a5,0(a5)
    80003904:	850a                	mv	a0,sp
    80003906:	85a2                	mv	a1,s0
    80003908:	3987b703          	ld	a4,920(a5)
    8000390c:	02000613          	li	a2,32
    80003910:	e03a                	sd	a4,0(sp)
    80003912:	3a07b703          	ld	a4,928(a5)
    80003916:	e43a                	sd	a4,8(sp)
    80003918:	3a87b703          	ld	a4,936(a5)
    8000391c:	3b07b783          	ld	a5,944(a5)
    80003920:	e83a                	sd	a4,16(sp)
    80003922:	ec3e                	sd	a5,24(sp)
    80003924:	00002097          	auipc	ra,0x2
    80003928:	004080e7          	jalr	4(ra) # 80005928 <mem_copy_from_kernel>
    8000392c:	70a2                	ld	ra,40(sp)
    8000392e:	7402                	ld	s0,32(sp)
    80003930:	0000e797          	auipc	a5,0xe
    80003934:	14078793          	addi	a5,a5,320 # 80011a70 <jiffies>
    80003938:	6388                	ld	a0,0(a5)
    8000393a:	6145                	addi	sp,sp,48
    8000393c:	8082                	ret
    8000393e:	0000e797          	auipc	a5,0xe
    80003942:	13278793          	addi	a5,a5,306 # 80011a70 <jiffies>
    80003946:	6388                	ld	a0,0(a5)
    80003948:	8082                	ret

000000008000394a <sys_brk>:
    8000394a:	0000e797          	auipc	a5,0xe
    8000394e:	11e78793          	addi	a5,a5,286 # 80011a68 <current>
    80003952:	639c                	ld	a5,0(a5)
    80003954:	3387b703          	ld	a4,824(a5)
    80003958:	00e56a63          	bltu	a0,a4,8000396c <sys_brk+0x22>
    8000395c:	3507b683          	ld	a3,848(a5)
    80003960:	7771                	lui	a4,0xffffc
    80003962:	9736                	add	a4,a4,a3
    80003964:	00e57463          	bleu	a4,a0,8000396c <sys_brk+0x22>
    80003968:	34a7b423          	sd	a0,840(a5)
    8000396c:	3487b503          	ld	a0,840(a5)
    80003970:	8082                	ret

0000000080003972 <sys_setpgid>:
    80003972:	e901                	bnez	a0,80003982 <sys_setpgid+0x10>
    80003974:	0000e797          	auipc	a5,0xe
    80003978:	0f478793          	addi	a5,a5,244 # 80011a68 <current>
    8000397c:	639c                	ld	a5,0(a5)
    8000397e:	3587a503          	lw	a0,856(a5)
    80003982:	e981                	bnez	a1,80003992 <sys_setpgid+0x20>
    80003984:	0000e797          	auipc	a5,0xe
    80003988:	0e478793          	addi	a5,a5,228 # 80011a68 <current>
    8000398c:	639c                	ld	a5,0(a5)
    8000398e:	3587a583          	lw	a1,856(a5)
    80003992:	0000b717          	auipc	a4,0xb
    80003996:	20670713          	addi	a4,a4,518 # 8000eb98 <task>
    8000399a:	0000b697          	auipc	a3,0xb
    8000399e:	3fe68693          	addi	a3,a3,1022 # 8000ed98 <table_list>
    800039a2:	631c                	ld	a5,0(a4)
    800039a4:	c795                	beqz	a5,800039d0 <sys_setpgid+0x5e>
    800039a6:	3587b603          	ld	a2,856(a5)
    800039aa:	02a61363          	bne	a2,a0,800039d0 <sys_setpgid+0x5e>
    800039ae:	3787b503          	ld	a0,888(a5)
    800039b2:	e505                	bnez	a0,800039da <sys_setpgid+0x68>
    800039b4:	0000e717          	auipc	a4,0xe
    800039b8:	0b470713          	addi	a4,a4,180 # 80011a68 <current>
    800039bc:	6318                	ld	a4,0(a4)
    800039be:	3707b683          	ld	a3,880(a5)
    800039c2:	37073703          	ld	a4,880(a4)
    800039c6:	00e69a63          	bne	a3,a4,800039da <sys_setpgid+0x68>
    800039ca:	36b7b423          	sd	a1,872(a5)
    800039ce:	8082                	ret
    800039d0:	0721                	addi	a4,a4,8
    800039d2:	fcd718e3          	bne	a4,a3,800039a2 <sys_setpgid+0x30>
    800039d6:	5575                	li	a0,-3
    800039d8:	8082                	ret
    800039da:	557d                	li	a0,-1
    800039dc:	8082                	ret

00000000800039de <sys_getpgrp>:
    800039de:	0000e797          	auipc	a5,0xe
    800039e2:	08a78793          	addi	a5,a5,138 # 80011a68 <current>
    800039e6:	639c                	ld	a5,0(a5)
    800039e8:	3687b503          	ld	a0,872(a5)
    800039ec:	8082                	ret

00000000800039ee <sys_setsid>:
    800039ee:	0000e797          	auipc	a5,0xe
    800039f2:	07a78793          	addi	a5,a5,122 # 80011a68 <current>
    800039f6:	639c                	ld	a5,0(a5)
    800039f8:	3787b703          	ld	a4,888(a5)
    800039fc:	c709                	beqz	a4,80003a06 <sys_setsid+0x18>
    800039fe:	3827d703          	lhu	a4,898(a5)
    80003a02:	557d                	li	a0,-1
    80003a04:	ef09                	bnez	a4,80003a1e <sys_setsid+0x30>
    80003a06:	3587b503          	ld	a0,856(a5)
    80003a0a:	4705                	li	a4,1
    80003a0c:	36e7bc23          	sd	a4,888(a5)
    80003a10:	577d                	li	a4,-1
    80003a12:	36a7b423          	sd	a0,872(a5)
    80003a16:	36a7b823          	sd	a0,880(a5)
    80003a1a:	3ce7a023          	sw	a4,960(a5)
    80003a1e:	8082                	ret

0000000080003a20 <sys_uname>:
    80003a20:	c91d                	beqz	a0,80003a56 <sys_uname+0x36>
    80003a22:	1141                	addi	sp,sp,-16
    80003a24:	02d00593          	li	a1,45
    80003a28:	e406                	sd	ra,8(sp)
    80003a2a:	e022                	sd	s0,0(sp)
    80003a2c:	842a                	mv	s0,a0
    80003a2e:	00000097          	auipc	ra,0x0
    80003a32:	a58080e7          	jalr	-1448(ra) # 80003486 <verify_area>
    80003a36:	85a2                	mv	a1,s0
    80003a38:	0000b517          	auipc	a0,0xb
    80003a3c:	cf050513          	addi	a0,a0,-784 # 8000e728 <thisname.5746>
    80003a40:	02d00613          	li	a2,45
    80003a44:	00002097          	auipc	ra,0x2
    80003a48:	ee4080e7          	jalr	-284(ra) # 80005928 <mem_copy_from_kernel>
    80003a4c:	60a2                	ld	ra,8(sp)
    80003a4e:	6402                	ld	s0,0(sp)
    80003a50:	4501                	li	a0,0
    80003a52:	0141                	addi	sp,sp,16
    80003a54:	8082                	ret
    80003a56:	f9d00513          	li	a0,-99
    80003a5a:	8082                	ret

0000000080003a5c <sys_umask>:
    80003a5c:	0000e797          	auipc	a5,0xe
    80003a60:	00c78793          	addi	a5,a5,12 # 80011a68 <current>
    80003a64:	639c                	ld	a5,0(a5)
    80003a66:	1ff57513          	andi	a0,a0,511
    80003a6a:	3c47d703          	lhu	a4,964(a5)
    80003a6e:	3ca79223          	sh	a0,964(a5)
    80003a72:	853a                	mv	a0,a4
    80003a74:	8082                	ret

0000000080003a76 <sys_write>:
    80003a76:	1101                	addi	sp,sp,-32
    80003a78:	e42a                	sd	a0,8(sp)
    80003a7a:	0028                	addi	a0,sp,8
    80003a7c:	ec06                	sd	ra,24(sp)
    80003a7e:	00002097          	auipc	ra,0x2
    80003a82:	dcc080e7          	jalr	-564(ra) # 8000584a <user_addr_to_kernel>
    80003a86:	60e2                	ld	ra,24(sp)
    80003a88:	4501                	li	a0,0
    80003a8a:	6105                	addi	sp,sp,32
    80003a8c:	8082                	ret

0000000080003a8e <sys_sgetmask>:
    80003a8e:	0000e797          	auipc	a5,0xe
    80003a92:	fda78793          	addi	a5,a5,-38 # 80011a68 <current>
    80003a96:	639c                	ld	a5,0(a5)
    80003a98:	3207a503          	lw	a0,800(a5)
    80003a9c:	8082                	ret

0000000080003a9e <sys_ssetmask>:
    80003a9e:	0000e797          	auipc	a5,0xe
    80003aa2:	fca78793          	addi	a5,a5,-54 # 80011a68 <current>
    80003aa6:	639c                	ld	a5,0(a5)
    80003aa8:	eff57513          	andi	a0,a0,-257
    80003aac:	3207a703          	lw	a4,800(a5)
    80003ab0:	32a7b023          	sd	a0,800(a5)
    80003ab4:	853a                	mv	a0,a4
    80003ab6:	8082                	ret

0000000080003ab8 <sys_signal>:
    80003ab8:	fff5079b          	addiw	a5,a0,-1
    80003abc:	477d                	li	a4,31
    80003abe:	56fd                	li	a3,-1
    80003ac0:	02f76963          	bltu	a4,a5,80003af2 <sys_signal+0x3a>
    80003ac4:	4725                	li	a4,9
    80003ac6:	56fd                	li	a3,-1
    80003ac8:	02e50563          	beq	a0,a4,80003af2 <sys_signal+0x3a>
    80003acc:	46e1                	li	a3,24
    80003ace:	02d787b3          	mul	a5,a5,a3
    80003ad2:	0000e717          	auipc	a4,0xe
    80003ad6:	f9670713          	addi	a4,a4,-106 # 80011a68 <current>
    80003ada:	6318                	ld	a4,0(a4)
    80003adc:	00f706b3          	add	a3,a4,a5
    80003ae0:	02078793          	addi	a5,a5,32
    80003ae4:	97ba                	add	a5,a5,a4
    80003ae6:	577d                	li	a4,-1
    80003ae8:	177a                	slli	a4,a4,0x3e
    80003aea:	7294                	ld	a3,32(a3)
    80003aec:	e38c                	sd	a1,0(a5)
    80003aee:	e798                	sd	a4,8(a5)
    80003af0:	eb90                	sd	a2,16(a5)
    80003af2:	8536                	mv	a0,a3
    80003af4:	8082                	ret

0000000080003af6 <sys_sigaction>:
    80003af6:	711d                	addi	sp,sp,-96
    80003af8:	e0ca                	sd	s2,64(sp)
    80003afa:	ec86                	sd	ra,88(sp)
    80003afc:	e8a2                	sd	s0,80(sp)
    80003afe:	e4a6                	sd	s1,72(sp)
    80003b00:	fc4e                	sd	s3,56(sp)
    80003b02:	f852                	sd	s4,48(sp)
    80003b04:	f456                	sd	s5,40(sp)
    80003b06:	f05a                	sd	s6,32(sp)
    80003b08:	fff5091b          	addiw	s2,a0,-1
    80003b0c:	477d                	li	a4,31
    80003b0e:	0b276663          	bltu	a4,s2,80003bba <sys_sigaction+0xc4>
    80003b12:	842a                	mv	s0,a0
    80003b14:	4725                	li	a4,9
    80003b16:	557d                	li	a0,-1
    80003b18:	06e40d63          	beq	s0,a4,80003b92 <sys_sigaction+0x9c>
    80003b1c:	4b61                	li	s6,24
    80003b1e:	8aae                	mv	s5,a1
    80003b20:	036905b3          	mul	a1,s2,s6
    80003b24:	0000e997          	auipc	s3,0xe
    80003b28:	f4498993          	addi	s3,s3,-188 # 80011a68 <current>
    80003b2c:	0009ba03          	ld	s4,0(s3)
    80003b30:	84b2                	mv	s1,a2
    80003b32:	0028                	addi	a0,sp,8
    80003b34:	4661                	li	a2,24
    80003b36:	95d2                	add	a1,a1,s4
    80003b38:	02058593          	addi	a1,a1,32
    80003b3c:	00004097          	auipc	ra,0x4
    80003b40:	b1e080e7          	jalr	-1250(ra) # 8000765a <memcpy>
    80003b44:	036407b3          	mul	a5,s0,s6
    80003b48:	4661                	li	a2,24
    80003b4a:	8556                	mv	a0,s5
    80003b4c:	97d2                	add	a5,a5,s4
    80003b4e:	00878593          	addi	a1,a5,8
    80003b52:	00002097          	auipc	ra,0x2
    80003b56:	e16080e7          	jalr	-490(ra) # 80005968 <mem_copy_to_kernel>
    80003b5a:	cc91                	beqz	s1,80003b76 <sys_sigaction+0x80>
    80003b5c:	45e1                	li	a1,24
    80003b5e:	8526                	mv	a0,s1
    80003b60:	00000097          	auipc	ra,0x0
    80003b64:	926080e7          	jalr	-1754(ra) # 80003486 <verify_area>
    80003b68:	4661                	li	a2,24
    80003b6a:	85a6                	mv	a1,s1
    80003b6c:	0028                	addi	a0,sp,8
    80003b6e:	00002097          	auipc	ra,0x2
    80003b72:	dba080e7          	jalr	-582(ra) # 80005928 <mem_copy_from_kernel>
    80003b76:	4761                	li	a4,24
    80003b78:	02e90733          	mul	a4,s2,a4
    80003b7c:	0009b783          	ld	a5,0(s3)
    80003b80:	97ba                	add	a5,a5,a4
    80003b82:	57d8                	lw	a4,44(a5)
    80003b84:	02171693          	slli	a3,a4,0x21
    80003b88:	0006df63          	bgez	a3,80003ba6 <sys_sigaction+0xb0>
    80003b8c:	0207a423          	sw	zero,40(a5)
    80003b90:	4501                	li	a0,0
    80003b92:	60e6                	ld	ra,88(sp)
    80003b94:	6446                	ld	s0,80(sp)
    80003b96:	64a6                	ld	s1,72(sp)
    80003b98:	6906                	ld	s2,64(sp)
    80003b9a:	79e2                	ld	s3,56(sp)
    80003b9c:	7a42                	ld	s4,48(sp)
    80003b9e:	7aa2                	ld	s5,40(sp)
    80003ba0:	7b02                	ld	s6,32(sp)
    80003ba2:	6125                	addi	sp,sp,96
    80003ba4:	8082                	ret
    80003ba6:	4705                	li	a4,1
    80003ba8:	0127173b          	sllw	a4,a4,s2
    80003bac:	0287a903          	lw	s2,40(a5)
    80003bb0:	00e96933          	or	s2,s2,a4
    80003bb4:	0327a423          	sw	s2,40(a5)
    80003bb8:	bfe1                	j	80003b90 <sys_sigaction+0x9a>
    80003bba:	557d                	li	a0,-1
    80003bbc:	bfd9                	j	80003b92 <sys_sigaction+0x9c>

0000000080003bbe <do_signal>:
    80003bbe:	47e1                	li	a5,24
    80003bc0:	02f507b3          	mul	a5,a0,a5
    80003bc4:	7139                	addi	sp,sp,-64
    80003bc6:	f04a                	sd	s2,32(sp)
    80003bc8:	0000e917          	auipc	s2,0xe
    80003bcc:	ea090913          	addi	s2,s2,-352 # 80011a68 <current>
    80003bd0:	f822                	sd	s0,48(sp)
    80003bd2:	00093403          	ld	s0,0(s2)
    80003bd6:	e456                	sd	s5,8(sp)
    80003bd8:	fc06                	sd	ra,56(sp)
    80003bda:	f426                	sd	s1,40(sp)
    80003bdc:	ec4e                	sd	s3,24(sp)
    80003bde:	943e                	add	s0,s0,a5
    80003be0:	0421                	addi	s0,s0,8
    80003be2:	00043a83          	ld	s5,0(s0)
    80003be6:	e852                	sd	s4,16(sp)
    80003be8:	e05a                	sd	s6,0(sp)
    80003bea:	4785                	li	a5,1
    80003bec:	0cfa8b63          	beq	s5,a5,80003cc2 <do_signal+0x104>
    80003bf0:	84aa                	mv	s1,a0
    80003bf2:	000a9d63          	bnez	s5,80003c0c <do_signal+0x4e>
    80003bf6:	47c5                	li	a5,17
    80003bf8:	0cf50563          	beq	a0,a5,80003cc2 <do_signal+0x104>
    80003bfc:	357d                	addiw	a0,a0,-1
    80003bfe:	4785                	li	a5,1
    80003c00:	00a7953b          	sllw	a0,a5,a0
    80003c04:	00001097          	auipc	ra,0x1
    80003c08:	960080e7          	jalr	-1696(ra) # 80004564 <do_exit>
    80003c0c:	445c                	lw	a5,12(s0)
    80003c0e:	0007d463          	bgez	a5,80003c16 <do_signal+0x58>
    80003c12:	00043023          	sd	zero,0(s0)
    80003c16:	00015997          	auipc	s3,0x15
    80003c1a:	43a98993          	addi	s3,s3,1082 # 80019050 <trap_info>
    80003c1e:	0109b783          	ld	a5,16(s3)
    80003c22:	21000593          	li	a1,528
    80003c26:	0107ba03          	ld	s4,16(a5)
    80003c2a:	fd0a0b13          	addi	s6,s4,-48
    80003c2e:	855a                	mv	a0,s6
    80003c30:	00000097          	auipc	ra,0x0
    80003c34:	856080e7          	jalr	-1962(ra) # 80003486 <verify_area>
    80003c38:	10000613          	li	a2,256
    80003c3c:	85da                	mv	a1,s6
    80003c3e:	00015517          	auipc	a0,0x15
    80003c42:	42250513          	addi	a0,a0,1058 # 80019060 <trap_info+0x10>
    80003c46:	00002097          	auipc	ra,0x2
    80003c4a:	ce2080e7          	jalr	-798(ra) # 80005928 <mem_copy_from_kernel>
    80003c4e:	10000613          	li	a2,256
    80003c52:	0d0a0593          	addi	a1,s4,208
    80003c56:	00015517          	auipc	a0,0x15
    80003c5a:	41250513          	addi	a0,a0,1042 # 80019068 <trap_info+0x18>
    80003c5e:	00002097          	auipc	ra,0x2
    80003c62:	cca080e7          	jalr	-822(ra) # 80005928 <mem_copy_from_kernel>
    80003c66:	4621                	li	a2,8
    80003c68:	1d0a0593          	addi	a1,s4,464
    80003c6c:	854e                	mv	a0,s3
    80003c6e:	00002097          	auipc	ra,0x2
    80003c72:	cba080e7          	jalr	-838(ra) # 80005928 <mem_copy_from_kernel>
    80003c76:	445c                	lw	a5,12(s0)
    80003c78:	02179713          	slli	a4,a5,0x21
    80003c7c:	00074d63          	bltz	a4,80003c96 <do_signal+0xd8>
    80003c80:	00093503          	ld	a0,0(s2)
    80003c84:	4621                	li	a2,8
    80003c86:	1d8a0593          	addi	a1,s4,472
    80003c8a:	32050513          	addi	a0,a0,800
    80003c8e:	00002097          	auipc	ra,0x2
    80003c92:	c9a080e7          	jalr	-870(ra) # 80005928 <mem_copy_from_kernel>
    80003c96:	0109b783          	ld	a5,16(s3)
    80003c9a:	6818                	ld	a4,16(s0)
    80003c9c:	00846683          	lwu	a3,8(s0)
    80003ca0:	eba4                	sd	s1,80(a5)
    80003ca2:	e798                	sd	a4,8(a5)
    80003ca4:	6b98                	ld	a4,16(a5)
    80003ca6:	df070713          	addi	a4,a4,-528
    80003caa:	eb98                	sd	a4,16(a5)
    80003cac:	00093703          	ld	a4,0(s2)
    80003cb0:	00015797          	auipc	a5,0x15
    80003cb4:	3b57b423          	sd	s5,936(a5) # 80019058 <trap_info+0x8>
    80003cb8:	32073783          	ld	a5,800(a4)
    80003cbc:	8fd5                	or	a5,a5,a3
    80003cbe:	32f73023          	sd	a5,800(a4)
    80003cc2:	70e2                	ld	ra,56(sp)
    80003cc4:	7442                	ld	s0,48(sp)
    80003cc6:	74a2                	ld	s1,40(sp)
    80003cc8:	7902                	ld	s2,32(sp)
    80003cca:	69e2                	ld	s3,24(sp)
    80003ccc:	6a42                	ld	s4,16(sp)
    80003cce:	6aa2                	ld	s5,8(sp)
    80003cd0:	6b02                	ld	s6,0(sp)
    80003cd2:	6121                	addi	sp,sp,64
    80003cd4:	8082                	ret

0000000080003cd6 <sys_alarm>:
    80003cd6:	0000e797          	auipc	a5,0xe
    80003cda:	d9278793          	addi	a5,a5,-622 # 80011a68 <current>
    80003cde:	6394                	ld	a3,0(a5)
    80003ce0:	3906a783          	lw	a5,912(a3)
    80003ce4:	cf81                	beqz	a5,80003cfc <sys_alarm+0x26>
    80003ce6:	0000e717          	auipc	a4,0xe
    80003cea:	d8a70713          	addi	a4,a4,-630 # 80011a70 <jiffies>
    80003cee:	6318                	ld	a4,0(a4)
    80003cf0:	8f99                	sub	a5,a5,a4
    80003cf2:	06400713          	li	a4,100
    80003cf6:	02e7c7b3          	div	a5,a5,a4
    80003cfa:	2781                	sext.w	a5,a5
    80003cfc:	4701                	li	a4,0
    80003cfe:	00a05c63          	blez	a0,80003d16 <sys_alarm+0x40>
    80003d02:	06400613          	li	a2,100
    80003d06:	02c50533          	mul	a0,a0,a2
    80003d0a:	0000e717          	auipc	a4,0xe
    80003d0e:	d6670713          	addi	a4,a4,-666 # 80011a70 <jiffies>
    80003d12:	6318                	ld	a4,0(a4)
    80003d14:	972a                	add	a4,a4,a0
    80003d16:	38e6b823          	sd	a4,912(a3)
    80003d1a:	853e                	mv	a0,a5
    80003d1c:	8082                	ret

0000000080003d1e <sys_getpid>:
    80003d1e:	0000e797          	auipc	a5,0xe
    80003d22:	d4a78793          	addi	a5,a5,-694 # 80011a68 <current>
    80003d26:	639c                	ld	a5,0(a5)
    80003d28:	3587b503          	ld	a0,856(a5)
    80003d2c:	8082                	ret

0000000080003d2e <sys_getppid>:
    80003d2e:	0000e797          	auipc	a5,0xe
    80003d32:	d3a78793          	addi	a5,a5,-710 # 80011a68 <current>
    80003d36:	639c                	ld	a5,0(a5)
    80003d38:	3607b503          	ld	a0,864(a5)
    80003d3c:	8082                	ret

0000000080003d3e <sys_getuid>:
    80003d3e:	0000e797          	auipc	a5,0xe
    80003d42:	d2a78793          	addi	a5,a5,-726 # 80011a68 <current>
    80003d46:	639c                	ld	a5,0(a5)
    80003d48:	3807d503          	lhu	a0,896(a5)
    80003d4c:	8082                	ret

0000000080003d4e <sys_geteuid>:
    80003d4e:	0000e797          	auipc	a5,0xe
    80003d52:	d1a78793          	addi	a5,a5,-742 # 80011a68 <current>
    80003d56:	639c                	ld	a5,0(a5)
    80003d58:	3827d503          	lhu	a0,898(a5)
    80003d5c:	8082                	ret

0000000080003d5e <sys_getgid>:
    80003d5e:	0000e797          	auipc	a5,0xe
    80003d62:	d0a78793          	addi	a5,a5,-758 # 80011a68 <current>
    80003d66:	639c                	ld	a5,0(a5)
    80003d68:	3867d503          	lhu	a0,902(a5)
    80003d6c:	8082                	ret

0000000080003d6e <sys_nice>:
    80003d6e:	0000e797          	auipc	a5,0xe
    80003d72:	cfa78793          	addi	a5,a5,-774 # 80011a68 <current>
    80003d76:	6398                	ld	a4,0(a5)
    80003d78:	6b1c                	ld	a5,16(a4)
    80003d7a:	40a78533          	sub	a0,a5,a0
    80003d7e:	00a05363          	blez	a0,80003d84 <sys_nice+0x16>
    80003d82:	eb08                	sd	a0,16(a4)
    80003d84:	4501                	li	a0,0
    80003d86:	8082                	ret

0000000080003d88 <mepc_recover>:
    80003d88:	0000e797          	auipc	a5,0xe
    80003d8c:	ce078793          	addi	a5,a5,-800 # 80011a68 <current>
    80003d90:	6390                	ld	a2,0(a5)
    80003d92:	5f063683          	ld	a3,1520(a2)
    80003d96:	34169073          	csrw	mepc,a3
    80003d9a:	0000a597          	auipc	a1,0xa
    80003d9e:	f3658593          	addi	a1,a1,-202 # 8000dcd0 <CSWTCH.0+0x4a8>
    80003da2:	0000a517          	auipc	a0,0xa
    80003da6:	f4650513          	addi	a0,a0,-186 # 8000dce8 <CSWTCH.0+0x4c0>
    80003daa:	ffffe317          	auipc	t1,0xffffe
    80003dae:	18a30067          	jr	394(t1) # 80001f34 <syslog_debug>

0000000080003db2 <interrupt_recover>:
    80003db2:	1101                	addi	sp,sp,-32
    80003db4:	ec06                	sd	ra,24(sp)
    80003db6:	e822                	sd	s0,16(sp)
    80003db8:	e426                	sd	s1,8(sp)
    80003dba:	0000e797          	auipc	a5,0xe
    80003dbe:	24e7c783          	lbu	a5,590(a5) # 80012008 <trap_from_interrupt>
    80003dc2:	c7b9                	beqz	a5,80003e10 <interrupt_recover+0x5e>
    80003dc4:	00009797          	auipc	a5,0x9
    80003dc8:	3ec78793          	addi	a5,a5,1004 # 8000d1b0 <timer>
    80003dcc:	639c                	ld	a5,0(a5)
    80003dce:	00015497          	auipc	s1,0x15
    80003dd2:	28248493          	addi	s1,s1,642 # 80019050 <trap_info>
    80003dd6:	47d8                	lw	a4,12(a5)
    80003dd8:	2701                	sext.w	a4,a4
    80003dda:	c7d8                	sw	a4,12(a5)
    80003ddc:	47dc                	lw	a5,12(a5)
    80003dde:	0000b797          	auipc	a5,0xb
    80003de2:	92a78793          	addi	a5,a5,-1750 # 8000e708 <plic>
    80003de6:	6380                	ld	s0,0(a5)
    80003de8:	ffffe097          	auipc	ra,0xffffe
    80003dec:	5d8080e7          	jalr	1496(ra) # 800023c0 <core_get_coreid>
    80003df0:	509c                	lw	a5,32(s1)
    80003df2:	10050513          	addi	a0,a0,256
    80003df6:	0536                	slli	a0,a0,0xd
    80003df8:	9522                	add	a0,a0,s0
    80003dfa:	c15c                	sw	a5,4(a0)
    80003dfc:	ffffe097          	auipc	ra,0xffffe
    80003e00:	5c4080e7          	jalr	1476(ra) # 800023c0 <core_get_coreid>
    80003e04:	50dc                	lw	a5,36(s1)
    80003e06:	10050513          	addi	a0,a0,256
    80003e0a:	0536                	slli	a0,a0,0xd
    80003e0c:	942a                	add	s0,s0,a0
    80003e0e:	c01c                	sw	a5,0(s0)
    80003e10:	304027f3          	csrr	a5,mie
    80003e14:	6705                	lui	a4,0x1
    80003e16:	80070713          	addi	a4,a4,-2048 # 800 <_stack_size-0x7800>
    80003e1a:	8fd9                	or	a5,a5,a4
    80003e1c:	30479073          	csrw	mie,a5
    80003e20:	300027f3          	csrr	a5,mstatus
    80003e24:	f777f793          	andi	a5,a5,-137
    80003e28:	0807e793          	ori	a5,a5,128
    80003e2c:	30079073          	csrw	mstatus,a5
    80003e30:	60e2                	ld	ra,24(sp)
    80003e32:	6442                	ld	s0,16(sp)
    80003e34:	64a2                	ld	s1,8(sp)
    80003e36:	6105                	addi	sp,sp,32
    80003e38:	8082                	ret

0000000080003e3a <kernel_stack_overflow>:
    80003e3a:	0000e797          	auipc	a5,0xe
    80003e3e:	c4678793          	addi	a5,a5,-954 # 80011a80 <old_kernel_stack>
    80003e42:	7179                	addi	sp,sp,-48
    80003e44:	6390                	ld	a2,0(a5)
    80003e46:	f406                	sd	ra,40(sp)
    80003e48:	0000e797          	auipc	a5,0xe
    80003e4c:	1c07c783          	lbu	a5,448(a5) # 80012008 <trap_from_interrupt>
    80003e50:	85aa                	mv	a1,a0
    80003e52:	0000a697          	auipc	a3,0xa
    80003e56:	b6e68693          	addi	a3,a3,-1170 # 8000d9c0 <CSWTCH.0+0x198>
    80003e5a:	c789                	beqz	a5,80003e64 <kernel_stack_overflow+0x2a>
    80003e5c:	0000a697          	auipc	a3,0xa
    80003e60:	e9c68693          	addi	a3,a3,-356 # 8000dcf8 <CSWTCH.0+0x4d0>
    80003e64:	ec2e                	sd	a1,24(sp)
    80003e66:	e836                	sd	a3,16(sp)
    80003e68:	e432                	sd	a2,8(sp)
    80003e6a:	ffffe097          	auipc	ra,0xffffe
    80003e6e:	318080e7          	jalr	792(ra) # 80002182 <privilege_get_previous_level>
    80003e72:	66c2                	ld	a3,16(sp)
    80003e74:	6622                	ld	a2,8(sp)
    80003e76:	65e2                	ld	a1,24(sp)
    80003e78:	0005071b          	sext.w	a4,a0
    80003e7c:	0000a517          	auipc	a0,0xa
    80003e80:	dfc50513          	addi	a0,a0,-516 # 8000dc78 <CSWTCH.0+0x450>
    80003e84:	00001097          	auipc	ra,0x1
    80003e88:	91e080e7          	jalr	-1762(ra) # 800047a2 <printk>
    80003e8c:	a001                	j	80003e8c <kernel_stack_overflow+0x52>

0000000080003e8e <switch_to>:
    80003e8e:	7159                	addi	sp,sp,-112
    80003e90:	f0a2                	sd	s0,96(sp)
    80003e92:	e0d2                	sd	s4,64(sp)
    80003e94:	0000b417          	auipc	s0,0xb
    80003e98:	d0440413          	addi	s0,s0,-764 # 8000eb98 <task>
    80003e9c:	00351a13          	slli	s4,a0,0x3
    80003ea0:	862a                	mv	a2,a0
    80003ea2:	eca6                	sd	s1,88(sp)
    80003ea4:	fc56                	sd	s5,56(sp)
    80003ea6:	9452                	add	s0,s0,s4
    80003ea8:	0000ea97          	auipc	s5,0xe
    80003eac:	bc0a8a93          	addi	s5,s5,-1088 # 80011a68 <current>
    80003eb0:	0000a597          	auipc	a1,0xa
    80003eb4:	ee858593          	addi	a1,a1,-280 # 8000dd98 <CSWTCH.0+0x570>
    80003eb8:	84aa                	mv	s1,a0
    80003eba:	0000a517          	auipc	a0,0xa
    80003ebe:	eee50513          	addi	a0,a0,-274 # 8000dda8 <CSWTCH.0+0x580>
    80003ec2:	f486                	sd	ra,104(sp)
    80003ec4:	e8ca                	sd	s2,80(sp)
    80003ec6:	e4ce                	sd	s3,72(sp)
    80003ec8:	00043903          	ld	s2,0(s0)
    80003ecc:	000ab983          	ld	s3,0(s5)
    80003ed0:	ffffe097          	auipc	ra,0xffffe
    80003ed4:	064080e7          	jalr	100(ra) # 80001f34 <syslog_debug>
    80003ed8:	00001097          	auipc	ra,0x1
    80003edc:	c98080e7          	jalr	-872(ra) # 80004b70 <stack_overflow_check>
    80003ee0:	6018                	ld	a4,0(s0)
    80003ee2:	000ab783          	ld	a5,0(s5)
    80003ee6:	4505                	li	a0,1
    80003ee8:	0af70763          	beq	a4,a5,80003f96 <switch_to+0x108>
    80003eec:	8626                	mv	a2,s1
    80003eee:	0000a597          	auipc	a1,0xa
    80003ef2:	eca58593          	addi	a1,a1,-310 # 8000ddb8 <CSWTCH.0+0x590>
    80003ef6:	0000a517          	auipc	a0,0xa
    80003efa:	eb250513          	addi	a0,a0,-334 # 8000dda8 <CSWTCH.0+0x580>
    80003efe:	ffffe097          	auipc	ra,0xffffe
    80003f02:	036080e7          	jalr	54(ra) # 80001f34 <syslog_debug>
    80003f06:	00015497          	auipc	s1,0x15
    80003f0a:	14a48493          	addi	s1,s1,330 # 80019050 <trap_info>
    80003f0e:	02800613          	li	a2,40
    80003f12:	85a6                	mv	a1,s1
    80003f14:	0028                	addi	a0,sp,8
    80003f16:	00003097          	auipc	ra,0x3
    80003f1a:	744080e7          	jalr	1860(ra) # 8000765a <memcpy>
    80003f1e:	649c                	ld	a5,8(s1)
    80003f20:	3f090593          	addi	a1,s2,1008
    80003f24:	3f098513          	addi	a0,s3,1008
    80003f28:	5ef9b823          	sd	a5,1520(s3)
    80003f2c:	601c                	ld	a5,0(s0)
    80003f2e:	0000e717          	auipc	a4,0xe
    80003f32:	b2f73d23          	sd	a5,-1222(a4) # 80011a68 <current>
    80003f36:	0000e797          	auipc	a5,0xe
    80003f3a:	b2a78793          	addi	a5,a5,-1238 # 80011a60 <cur_kernel_stack>
    80003f3e:	639c                	ld	a5,0(a5)
    80003f40:	0000e717          	auipc	a4,0xe
    80003f44:	b4f73023          	sd	a5,-1216(a4) # 80011a80 <old_kernel_stack>
    80003f48:	0000b797          	auipc	a5,0xb
    80003f4c:	81078793          	addi	a5,a5,-2032 # 8000e758 <kernel_stack>
    80003f50:	97d2                	add	a5,a5,s4
    80003f52:	639c                	ld	a5,0(a5)
    80003f54:	0000e717          	auipc	a4,0xe
    80003f58:	b0f73623          	sd	a5,-1268(a4) # 80011a60 <cur_kernel_stack>
    80003f5c:	00001097          	auipc	ra,0x1
    80003f60:	8a4080e7          	jalr	-1884(ra) # 80004800 <switch_to_tss>
    80003f64:	00000097          	auipc	ra,0x0
    80003f68:	e4e080e7          	jalr	-434(ra) # 80003db2 <interrupt_recover>
    80003f6c:	02800613          	li	a2,40
    80003f70:	002c                	addi	a1,sp,8
    80003f72:	8526                	mv	a0,s1
    80003f74:	00003097          	auipc	ra,0x3
    80003f78:	6e6080e7          	jalr	1766(ra) # 8000765a <memcpy>
    80003f7c:	5f093783          	ld	a5,1520(s2)
    80003f80:	0c800513          	li	a0,200
    80003f84:	00015717          	auipc	a4,0x15
    80003f88:	0cf73a23          	sd	a5,212(a4) # 80019058 <trap_info+0x8>
    80003f8c:	ffffe097          	auipc	ra,0xffffe
    80003f90:	0c2080e7          	jalr	194(ra) # 8000204e <syslog_flagn>
    80003f94:	4501                	li	a0,0
    80003f96:	70a6                	ld	ra,104(sp)
    80003f98:	7406                	ld	s0,96(sp)
    80003f9a:	64e6                	ld	s1,88(sp)
    80003f9c:	6946                	ld	s2,80(sp)
    80003f9e:	69a6                	ld	s3,72(sp)
    80003fa0:	6a06                	ld	s4,64(sp)
    80003fa2:	7ae2                	ld	s5,56(sp)
    80003fa4:	6165                	addi	sp,sp,112
    80003fa6:	8082                	ret

0000000080003fa8 <schedule>:
    80003fa8:	711d                	addi	sp,sp,-96
    80003faa:	ec86                	sd	ra,88(sp)
    80003fac:	e8a2                	sd	s0,80(sp)
    80003fae:	e4a6                	sd	s1,72(sp)
    80003fb0:	e0ca                	sd	s2,64(sp)
    80003fb2:	fc4e                	sd	s3,56(sp)
    80003fb4:	f852                	sd	s4,48(sp)
    80003fb6:	f456                	sd	s5,40(sp)
    80003fb8:	f05a                	sd	s6,32(sp)
    80003fba:	ec5e                	sd	s7,24(sp)
    80003fbc:	e862                	sd	s8,16(sp)
    80003fbe:	e466                	sd	s9,8(sp)
    80003fc0:	300024f3          	csrr	s1,mstatus
    80003fc4:	30402973          	csrr	s2,mie
    80003fc8:	fffc0a37          	lui	s4,0xfffc0
    80003fcc:	ffffe097          	auipc	ra,0xffffe
    80003fd0:	e82080e7          	jalr	-382(ra) # 80001e4e <sysctl_disable_irq>
    80003fd4:	0000b417          	auipc	s0,0xb
    80003fd8:	dbc40413          	addi	s0,s0,-580 # 8000ed90 <task+0x1f8>
    80003fdc:	0000b997          	auipc	s3,0xb
    80003fe0:	bbc98993          	addi	s3,s3,-1092 # 8000eb98 <task>
    80003fe4:	0000aa97          	auipc	s5,0xa
    80003fe8:	d74a8a93          	addi	s5,s5,-652 # 8000dd58 <CSWTCH.0+0x530>
    80003fec:	0000ab17          	auipc	s6,0xa
    80003ff0:	d9cb0b13          	addi	s6,s6,-612 # 8000dd88 <CSWTCH.0+0x560>
    80003ff4:	effa0a13          	addi	s4,s4,-257 # fffffffffffbfeff <_buffer_start+0xffffffff7ff786bf>
    80003ff8:	4b85                	li	s7,1
    80003ffa:	0000ec17          	auipc	s8,0xe
    80003ffe:	a76c0c13          	addi	s8,s8,-1418 # 80011a70 <jiffies>
    80004002:	6c89                	lui	s9,0x2
    80004004:	6014                	ld	a3,0(s0)
    80004006:	c6b1                	beqz	a3,80004052 <schedule+0xaa>
    80004008:	41340633          	sub	a2,s0,s3
    8000400c:	860d                	srai	a2,a2,0x3
    8000400e:	85d6                	mv	a1,s5
    80004010:	855a                	mv	a0,s6
    80004012:	ffffe097          	auipc	ra,0xffffe
    80004016:	f34080e7          	jalr	-204(ra) # 80001f46 <syslog_info>
    8000401a:	601c                	ld	a5,0(s0)
    8000401c:	3907b703          	ld	a4,912(a5)
    80004020:	cb19                	beqz	a4,80004036 <schedule+0x8e>
    80004022:	000c3683          	ld	a3,0(s8)
    80004026:	00d75863          	ble	a3,a4,80004036 <schedule+0x8e>
    8000402a:	6f98                	ld	a4,24(a5)
    8000402c:	3807b823          	sd	zero,912(a5)
    80004030:	01976733          	or	a4,a4,s9
    80004034:	ef98                	sd	a4,24(a5)
    80004036:	3207b703          	ld	a4,800(a5)
    8000403a:	6f94                	ld	a3,24(a5)
    8000403c:	03470733          	mul	a4,a4,s4
    80004040:	fff74713          	not	a4,a4
    80004044:	8f75                	and	a4,a4,a3
    80004046:	c711                	beqz	a4,80004052 <schedule+0xaa>
    80004048:	6398                	ld	a4,0(a5)
    8000404a:	01771463          	bne	a4,s7,80004052 <schedule+0xaa>
    8000404e:	0007b023          	sd	zero,0(a5)
    80004052:	1461                	addi	s0,s0,-8
    80004054:	fb3418e3          	bne	s0,s3,80004004 <schedule+0x5c>
    80004058:	0000b697          	auipc	a3,0xb
    8000405c:	d4068693          	addi	a3,a3,-704 # 8000ed98 <table_list>
    80004060:	577d                	li	a4,-1
    80004062:	4501                	li	a0,0
    80004064:	04000793          	li	a5,64
    80004068:	37fd                	addiw	a5,a5,-1
    8000406a:	e38d                	bnez	a5,8000408c <schedule+0xe4>
    8000406c:	ef05                	bnez	a4,800040a4 <schedule+0xfc>
    8000406e:	0000b717          	auipc	a4,0xb
    80004072:	d2270713          	addi	a4,a4,-734 # 8000ed90 <task+0x1f8>
    80004076:	6314                	ld	a3,0(a4)
    80004078:	c691                	beqz	a3,80004084 <schedule+0xdc>
    8000407a:	669c                	ld	a5,8(a3)
    8000407c:	6a90                	ld	a2,16(a3)
    8000407e:	8785                	srai	a5,a5,0x1
    80004080:	97b2                	add	a5,a5,a2
    80004082:	e69c                	sd	a5,8(a3)
    80004084:	1761                	addi	a4,a4,-8
    80004086:	ff3718e3          	bne	a4,s3,80004076 <schedule+0xce>
    8000408a:	b7f9                	j	80004058 <schedule+0xb0>
    8000408c:	16e1                	addi	a3,a3,-8
    8000408e:	6290                	ld	a2,0(a3)
    80004090:	de61                	beqz	a2,80004068 <schedule+0xc0>
    80004092:	620c                	ld	a1,0(a2)
    80004094:	f9f1                	bnez	a1,80004068 <schedule+0xc0>
    80004096:	6610                	ld	a2,8(a2)
    80004098:	fcc758e3          	ble	a2,a4,80004068 <schedule+0xc0>
    8000409c:	0006071b          	sext.w	a4,a2
    800040a0:	853e                	mv	a0,a5
    800040a2:	b7d9                	j	80004068 <schedule+0xc0>
    800040a4:	00000097          	auipc	ra,0x0
    800040a8:	dea080e7          	jalr	-534(ra) # 80003e8e <switch_to>
    800040ac:	30491073          	csrw	mie,s2
    800040b0:	30049073          	csrw	mstatus,s1
    800040b4:	60e6                	ld	ra,88(sp)
    800040b6:	6446                	ld	s0,80(sp)
    800040b8:	64a6                	ld	s1,72(sp)
    800040ba:	6906                	ld	s2,64(sp)
    800040bc:	79e2                	ld	s3,56(sp)
    800040be:	7a42                	ld	s4,48(sp)
    800040c0:	7aa2                	ld	s5,40(sp)
    800040c2:	7b02                	ld	s6,32(sp)
    800040c4:	6be2                	ld	s7,24(sp)
    800040c6:	6c42                	ld	s8,16(sp)
    800040c8:	6ca2                	ld	s9,8(sp)
    800040ca:	6125                	addi	sp,sp,96
    800040cc:	8082                	ret

00000000800040ce <sys_pause>:
    800040ce:	0000e797          	auipc	a5,0xe
    800040d2:	99a78793          	addi	a5,a5,-1638 # 80011a68 <current>
    800040d6:	639c                	ld	a5,0(a5)
    800040d8:	1141                	addi	sp,sp,-16
    800040da:	e406                	sd	ra,8(sp)
    800040dc:	4705                	li	a4,1
    800040de:	e398                	sd	a4,0(a5)
    800040e0:	00000097          	auipc	ra,0x0
    800040e4:	ec8080e7          	jalr	-312(ra) # 80003fa8 <schedule>
    800040e8:	60a2                	ld	ra,8(sp)
    800040ea:	4501                	li	a0,0
    800040ec:	0141                	addi	sp,sp,16
    800040ee:	8082                	ret

00000000800040f0 <wake_up>:
    800040f0:	c509                	beqz	a0,800040fa <wake_up+0xa>
    800040f2:	611c                	ld	a5,0(a0)
    800040f4:	c399                	beqz	a5,800040fa <wake_up+0xa>
    800040f6:	0007b023          	sd	zero,0(a5)
    800040fa:	8082                	ret

00000000800040fc <do_timer>:
    800040fc:	1101                	addi	sp,sp,-32
    800040fe:	ec06                	sd	ra,24(sp)
    80004100:	e822                	sd	s0,16(sp)
    80004102:	e04a                	sd	s2,0(sp)
    80004104:	e426                	sd	s1,8(sp)
    80004106:	ffffe097          	auipc	ra,0xffffe
    8000410a:	07c080e7          	jalr	124(ra) # 80002182 <privilege_get_previous_level>
    8000410e:	0005091b          	sext.w	s2,a0
    80004112:	864a                	mv	a2,s2
    80004114:	0000a597          	auipc	a1,0xa
    80004118:	b0c58593          	addi	a1,a1,-1268 # 8000dc20 <CSWTCH.0+0x3f8>
    8000411c:	0000a517          	auipc	a0,0xa
    80004120:	b1450513          	addi	a0,a0,-1260 # 8000dc30 <CSWTCH.0+0x408>
    80004124:	ffffe097          	auipc	ra,0xffffe
    80004128:	e10080e7          	jalr	-496(ra) # 80001f34 <syslog_debug>
    8000412c:	0000e417          	auipc	s0,0xe
    80004130:	93c40413          	addi	s0,s0,-1732 # 80011a68 <current>
    80004134:	04091963          	bnez	s2,80004186 <do_timer+0x8a>
    80004138:	6018                	ld	a4,0(s0)
    8000413a:	39873783          	ld	a5,920(a4)
    8000413e:	0785                	addi	a5,a5,1
    80004140:	38f73c23          	sd	a5,920(a4)
    80004144:	0000e797          	auipc	a5,0xe
    80004148:	93478793          	addi	a5,a5,-1740 # 80011a78 <next_timer>
    8000414c:	6398                	ld	a4,0(a5)
    8000414e:	84be                	mv	s1,a5
    80004150:	e325                	bnez	a4,800041b0 <do_timer+0xb4>
    80004152:	601c                	ld	a5,0(s0)
    80004154:	0000a597          	auipc	a1,0xa
    80004158:	afc58593          	addi	a1,a1,-1284 # 8000dc50 <CSWTCH.0+0x428>
    8000415c:	0000a517          	auipc	a0,0xa
    80004160:	ad450513          	addi	a0,a0,-1324 # 8000dc30 <CSWTCH.0+0x408>
    80004164:	6790                	ld	a2,8(a5)
    80004166:	ffffe097          	auipc	ra,0xffffe
    8000416a:	dce080e7          	jalr	-562(ra) # 80001f34 <syslog_debug>
    8000416e:	6018                	ld	a4,0(s0)
    80004170:	671c                	ld	a5,8(a4)
    80004172:	17fd                	addi	a5,a5,-1
    80004174:	06f05063          	blez	a5,800041d4 <do_timer+0xd8>
    80004178:	60e2                	ld	ra,24(sp)
    8000417a:	6442                	ld	s0,16(sp)
    8000417c:	e71c                	sd	a5,8(a4)
    8000417e:	64a2                	ld	s1,8(sp)
    80004180:	6902                	ld	s2,0(sp)
    80004182:	6105                	addi	sp,sp,32
    80004184:	8082                	ret
    80004186:	34102673          	csrr	a2,mepc
    8000418a:	0000a597          	auipc	a1,0xa
    8000418e:	ab658593          	addi	a1,a1,-1354 # 8000dc40 <CSWTCH.0+0x418>
    80004192:	0000a517          	auipc	a0,0xa
    80004196:	a9e50513          	addi	a0,a0,-1378 # 8000dc30 <CSWTCH.0+0x408>
    8000419a:	ffffe097          	auipc	ra,0xffffe
    8000419e:	d9a080e7          	jalr	-614(ra) # 80001f34 <syslog_debug>
    800041a2:	6018                	ld	a4,0(s0)
    800041a4:	3a073783          	ld	a5,928(a4)
    800041a8:	0785                	addi	a5,a5,1
    800041aa:	3af73023          	sd	a5,928(a4)
    800041ae:	bf59                	j	80004144 <do_timer+0x48>
    800041b0:	631c                	ld	a5,0(a4)
    800041b2:	17fd                	addi	a5,a5,-1
    800041b4:	e31c                	sd	a5,0(a4)
    800041b6:	609c                	ld	a5,0(s1)
    800041b8:	dfc9                	beqz	a5,80004152 <do_timer+0x56>
    800041ba:	6398                	ld	a4,0(a5)
    800041bc:	f8e04be3          	bgtz	a4,80004152 <do_timer+0x56>
    800041c0:	6798                	ld	a4,8(a5)
    800041c2:	0007b423          	sd	zero,8(a5)
    800041c6:	6b9c                	ld	a5,16(a5)
    800041c8:	0000e697          	auipc	a3,0xe
    800041cc:	8af6b823          	sd	a5,-1872(a3) # 80011a78 <next_timer>
    800041d0:	9702                	jalr	a4
    800041d2:	b7d5                	j	800041b6 <do_timer+0xba>
    800041d4:	00073423          	sd	zero,8(a4)
    800041d8:	02090363          	beqz	s2,800041fe <do_timer+0x102>
    800041dc:	6442                	ld	s0,16(sp)
    800041de:	60e2                	ld	ra,24(sp)
    800041e0:	64a2                	ld	s1,8(sp)
    800041e2:	6902                	ld	s2,0(sp)
    800041e4:	0000a597          	auipc	a1,0xa
    800041e8:	a7c58593          	addi	a1,a1,-1412 # 8000dc60 <CSWTCH.0+0x438>
    800041ec:	0000a517          	auipc	a0,0xa
    800041f0:	a4450513          	addi	a0,a0,-1468 # 8000dc30 <CSWTCH.0+0x408>
    800041f4:	6105                	addi	sp,sp,32
    800041f6:	ffffe317          	auipc	t1,0xffffe
    800041fa:	d3e30067          	jr	-706(t1) # 80001f34 <syslog_debug>
    800041fe:	6442                	ld	s0,16(sp)
    80004200:	60e2                	ld	ra,24(sp)
    80004202:	64a2                	ld	s1,8(sp)
    80004204:	6902                	ld	s2,0(sp)
    80004206:	6105                	addi	sp,sp,32
    80004208:	00000317          	auipc	t1,0x0
    8000420c:	da030067          	jr	-608(t1) # 80003fa8 <schedule>

0000000080004210 <timer_interrupt>:
    80004210:	1141                	addi	sp,sp,-16
    80004212:	e406                	sd	ra,8(sp)
    80004214:	00000097          	auipc	ra,0x0
    80004218:	ee8080e7          	jalr	-280(ra) # 800040fc <do_timer>
    8000421c:	60a2                	ld	ra,8(sp)
    8000421e:	4501                	li	a0,0
    80004220:	0141                	addi	sp,sp,16
    80004222:	8082                	ret

0000000080004224 <sched_init>:
    80004224:	1141                	addi	sp,sp,-16
    80004226:	e406                	sd	ra,8(sp)
    80004228:	e022                	sd	s0,0(sp)
    8000422a:	0000b797          	auipc	a5,0xb
    8000422e:	96e78793          	addi	a5,a5,-1682 # 8000eb98 <task>
    80004232:	0000b717          	auipc	a4,0xb
    80004236:	b5e70713          	addi	a4,a4,-1186 # 8000ed90 <task+0x1f8>
    8000423a:	0007b423          	sd	zero,8(a5)
    8000423e:	07a1                	addi	a5,a5,8
    80004240:	fee79de3          	bne	a5,a4,8000423a <sched_init+0x16>
    80004244:	5f800613          	li	a2,1528
    80004248:	4581                	li	a1,0
    8000424a:	00015517          	auipc	a0,0x15
    8000424e:	e2e50513          	addi	a0,a0,-466 # 80019078 <init_task>
    80004252:	00003097          	auipc	ra,0x3
    80004256:	4be080e7          	jalr	1214(ra) # 80007710 <memset>
    8000425a:	6585                	lui	a1,0x1
    8000425c:	47bd                	li	a5,15
    8000425e:	547d                	li	s0,-1
    80004260:	0001f517          	auipc	a0,0x1f
    80004264:	da050513          	addi	a0,a0,-608 # 80023000 <init_task_page_dir_table>
    80004268:	80058593          	addi	a1,a1,-2048 # 800 <_stack_size-0x7800>
    8000426c:	00015717          	auipc	a4,0x15
    80004270:	e0f73a23          	sd	a5,-492(a4) # 80019080 <init_task+0x8>
    80004274:	00015717          	auipc	a4,0x15
    80004278:	e0f73a23          	sd	a5,-492(a4) # 80019088 <init_task+0x10>
    8000427c:	00015797          	auipc	a5,0x15
    80004280:	1487be23          	sd	s0,348(a5) # 800193d8 <init_task+0x360>
    80004284:	00015797          	auipc	a5,0x15
    80004288:	1aa7be23          	sd	a0,444(a5) # 80019440 <init_task+0x3c8>
    8000428c:	ffffe097          	auipc	ra,0xffffe
    80004290:	13c080e7          	jalr	316(ra) # 800023c8 <pte_common_init>
    80004294:	000a07b7          	lui	a5,0xa0
    80004298:	00015597          	auipc	a1,0x15
    8000429c:	2d058593          	addi	a1,a1,720 # 80019568 <init_task+0x4f0>
    800042a0:	00015517          	auipc	a0,0x15
    800042a4:	1c850513          	addi	a0,a0,456 # 80019468 <init_task+0x3f0>
    800042a8:	00015717          	auipc	a4,0x15
    800042ac:	1af73823          	sd	a5,432(a4) # 80019458 <init_task+0x3e0>
    800042b0:	00015717          	auipc	a4,0x15
    800042b4:	1af73823          	sd	a5,432(a4) # 80019460 <init_task+0x3e8>
    800042b8:	ffffe097          	auipc	ra,0xffffe
    800042bc:	22e080e7          	jalr	558(ra) # 800024e6 <regs_backup>
    800042c0:	00016797          	auipc	a5,0x16
    800042c4:	db878793          	addi	a5,a5,-584 # 8001a078 <init_task+0x1000>
    800042c8:	00015717          	auipc	a4,0x15
    800042cc:	1af73823          	sd	a5,432(a4) # 80019478 <init_task+0x400>
    800042d0:	00015797          	auipc	a5,0x15
    800042d4:	1687a423          	sw	s0,360(a5) # 80019438 <init_task+0x3c0>
    800042d8:	0000a797          	auipc	a5,0xa
    800042dc:	48078793          	addi	a5,a5,1152 # 8000e758 <kernel_stack>
    800042e0:	639c                	ld	a5,0(a5)
    800042e2:	4501                	li	a0,0
    800042e4:	0000d717          	auipc	a4,0xd
    800042e8:	76f73e23          	sd	a5,1916(a4) # 80011a60 <cur_kernel_stack>
    800042ec:	ffffc097          	auipc	ra,0xffffc
    800042f0:	60a080e7          	jalr	1546(ra) # 800008f6 <timer_init>
    800042f4:	00989637          	lui	a2,0x989
    800042f8:	68060613          	addi	a2,a2,1664 # 989680 <_stack_size+0x981680>
    800042fc:	4581                	li	a1,0
    800042fe:	4501                	li	a0,0
    80004300:	ffffc097          	auipc	ra,0xffffc
    80004304:	65e080e7          	jalr	1630(ra) # 8000095e <timer_set_interval>
    80004308:	4601                	li	a2,0
    8000430a:	4581                	li	a1,0
    8000430c:	4781                	li	a5,0
    8000430e:	00000717          	auipc	a4,0x0
    80004312:	f0270713          	addi	a4,a4,-254 # 80004210 <timer_interrupt>
    80004316:	469d                	li	a3,7
    80004318:	4501                	li	a0,0
    8000431a:	ffffc097          	auipc	ra,0xffffc
    8000431e:	6ee080e7          	jalr	1774(ra) # 80000a08 <timer_irq_register>
    80004322:	6402                	ld	s0,0(sp)
    80004324:	60a2                	ld	ra,8(sp)
    80004326:	4605                	li	a2,1
    80004328:	4581                	li	a1,0
    8000432a:	4501                	li	a0,0
    8000432c:	0141                	addi	sp,sp,16
    8000432e:	ffffc317          	auipc	t1,0xffffc
    80004332:	60830067          	jr	1544(t1) # 80000936 <timer_set_enable>

0000000080004336 <kernel_mktime>:
    80004336:	4954                	lw	a3,20(a0)
    80004338:	6755                	lui	a4,0x15
    8000433a:	1807071b          	addiw	a4,a4,384
    8000433e:	fbb6879b          	addiw	a5,a3,-69
    80004342:	4027d79b          	sraiw	a5,a5,0x2
    80004346:	01e13637          	lui	a2,0x1e13
    8000434a:	02e787bb          	mulw	a5,a5,a4
    8000434e:	3806061b          	addiw	a2,a2,896
    80004352:	fba6871b          	addiw	a4,a3,-70
    80004356:	02c7073b          	mulw	a4,a4,a2
    8000435a:	4910                	lw	a2,16(a0)
    8000435c:	00261593          	slli	a1,a2,0x2
    80004360:	9fb9                	addw	a5,a5,a4
    80004362:	0000a717          	auipc	a4,0xa
    80004366:	a6e70713          	addi	a4,a4,-1426 # 8000ddd0 <month>
    8000436a:	972e                	add	a4,a4,a1
    8000436c:	4318                	lw	a4,0(a4)
    8000436e:	973e                	add	a4,a4,a5
    80004370:	4785                	li	a5,1
    80004372:	00c7d863          	ble	a2,a5,80004382 <kernel_mktime+0x4c>
    80004376:	8a8d                	andi	a3,a3,3
    80004378:	c689                	beqz	a3,80004382 <kernel_mktime+0x4c>
    8000437a:	77ad                	lui	a5,0xfffeb
    8000437c:	e8078793          	addi	a5,a5,-384 # fffffffffffeae80 <_buffer_start+0xffffffff7ffa3640>
    80004380:	973e                	add	a4,a4,a5
    80004382:	455c                	lw	a5,12(a0)
    80004384:	66d5                	lui	a3,0x15
    80004386:	1806869b          	addiw	a3,a3,384
    8000438a:	2785                	addiw	a5,a5,1
    8000438c:	02d787bb          	mulw	a5,a5,a3
    80004390:	6685                	lui	a3,0x1
    80004392:	e106869b          	addiw	a3,a3,-496
    80004396:	97ba                	add	a5,a5,a4
    80004398:	4518                	lw	a4,8(a0)
    8000439a:	02d7073b          	mulw	a4,a4,a3
    8000439e:	4154                	lw	a3,4(a0)
    800043a0:	4108                	lw	a0,0(a0)
    800043a2:	973e                	add	a4,a4,a5
    800043a4:	03c00793          	li	a5,60
    800043a8:	02d787bb          	mulw	a5,a5,a3
    800043ac:	97ba                	add	a5,a5,a4
    800043ae:	953e                	add	a0,a0,a5
    800043b0:	8082                	ret

00000000800043b2 <send_sig>:
    800043b2:	cd95                	beqz	a1,800043ee <send_sig+0x3c>
    800043b4:	fff5069b          	addiw	a3,a0,-1
    800043b8:	477d                	li	a4,31
    800043ba:	87b6                	mv	a5,a3
    800043bc:	5529                	li	a0,-22
    800043be:	02d76963          	bltu	a4,a3,800043f0 <send_sig+0x3e>
    800043c2:	ee11                	bnez	a2,800043de <send_sig+0x2c>
    800043c4:	0000d717          	auipc	a4,0xd
    800043c8:	6a470713          	addi	a4,a4,1700 # 80011a68 <current>
    800043cc:	6318                	ld	a4,0(a4)
    800043ce:	3825d683          	lhu	a3,898(a1)
    800043d2:	38275703          	lhu	a4,898(a4)
    800043d6:	00e68463          	beq	a3,a4,800043de <send_sig+0x2c>
    800043da:	557d                	li	a0,-1
    800043dc:	eb11                	bnez	a4,800043f0 <send_sig+0x3e>
    800043de:	4505                	li	a0,1
    800043e0:	00f5153b          	sllw	a0,a0,a5
    800043e4:	6d9c                	ld	a5,24(a1)
    800043e6:	8fc9                	or	a5,a5,a0
    800043e8:	ed9c                	sd	a5,24(a1)
    800043ea:	4501                	li	a0,0
    800043ec:	8082                	ret
    800043ee:	5529                	li	a0,-22
    800043f0:	8082                	ret

00000000800043f2 <release>:
    800043f2:	c925                	beqz	a0,80004462 <release+0x70>
    800043f4:	0000a717          	auipc	a4,0xa
    800043f8:	7a470713          	addi	a4,a4,1956 # 8000eb98 <task>
    800043fc:	4785                	li	a5,1
    800043fe:	86ba                	mv	a3,a4
    80004400:	04000613          	li	a2,64
    80004404:	670c                	ld	a1,8(a4)
    80004406:	04b51263          	bne	a0,a1,8000444a <release+0x58>
    8000440a:	1141                	addi	sp,sp,-16
    8000440c:	e022                	sd	s0,0(sp)
    8000440e:	00379413          	slli	s0,a5,0x3
    80004412:	e406                	sd	ra,8(sp)
    80004414:	96a2                	add	a3,a3,s0
    80004416:	4595                	li	a1,5
    80004418:	0006b023          	sd	zero,0(a3) # 1000 <_stack_size-0x7000>
    8000441c:	00001097          	auipc	ra,0x1
    80004420:	080080e7          	jalr	128(ra) # 8000549c <free_pages>
    80004424:	0000a797          	auipc	a5,0xa
    80004428:	33478793          	addi	a5,a5,820 # 8000e758 <kernel_stack>
    8000442c:	943e                	add	s0,s0,a5
    8000442e:	6008                	ld	a0,0(s0)
    80004430:	00001097          	auipc	ra,0x1
    80004434:	ffc080e7          	jalr	-4(ra) # 8000542c <free_page>
    80004438:	00043023          	sd	zero,0(s0)
    8000443c:	6402                	ld	s0,0(sp)
    8000443e:	60a2                	ld	ra,8(sp)
    80004440:	0141                	addi	sp,sp,16
    80004442:	00000317          	auipc	t1,0x0
    80004446:	b6630067          	jr	-1178(t1) # 80003fa8 <schedule>
    8000444a:	2785                	addiw	a5,a5,1
    8000444c:	0721                	addi	a4,a4,8
    8000444e:	fac79be3          	bne	a5,a2,80004404 <release+0x12>
    80004452:	0000a517          	auipc	a0,0xa
    80004456:	9ce50513          	addi	a0,a0,-1586 # 8000de20 <month+0x50>
    8000445a:	00000317          	auipc	t1,0x0
    8000445e:	36c30067          	jr	876(t1) # 800047c6 <panic>
    80004462:	8082                	ret

0000000080004464 <sys_kill>:
    80004464:	7179                	addi	sp,sp,-48
    80004466:	e84a                	sd	s2,16(sp)
    80004468:	e052                	sd	s4,0(sp)
    8000446a:	f406                	sd	ra,40(sp)
    8000446c:	f022                	sd	s0,32(sp)
    8000446e:	ec26                	sd	s1,24(sp)
    80004470:	e44e                	sd	s3,8(sp)
    80004472:	8a2e                	mv	s4,a1
    80004474:	0000a917          	auipc	s2,0xa
    80004478:	72490913          	addi	s2,s2,1828 # 8000eb98 <task>
    8000447c:	cd3d                	beqz	a0,800044fa <sys_kill+0x96>
    8000447e:	842a                	mv	s0,a0
    80004480:	0aa04a63          	bgtz	a0,80004534 <sys_kill+0xd0>
    80004484:	57fd                	li	a5,-1
    80004486:	4481                	li	s1,0
    80004488:	0cf50963          	beq	a0,a5,8000455a <sys_kill+0xf6>
    8000448c:	0000b997          	auipc	s3,0xb
    80004490:	90c98993          	addi	s3,s3,-1780 # 8000ed98 <table_list>
    80004494:	40a0043b          	negw	s0,a0
    80004498:	19e1                	addi	s3,s3,-8
    8000449a:	05298763          	beq	s3,s2,800044e8 <sys_kill+0x84>
    8000449e:	0009b583          	ld	a1,0(s3)
    800044a2:	d9fd                	beqz	a1,80004498 <sys_kill+0x34>
    800044a4:	3685b783          	ld	a5,872(a1)
    800044a8:	fe8798e3          	bne	a5,s0,80004498 <sys_kill+0x34>
    800044ac:	4601                	li	a2,0
    800044ae:	8552                	mv	a0,s4
    800044b0:	00000097          	auipc	ra,0x0
    800044b4:	f02080e7          	jalr	-254(ra) # 800043b2 <send_sig>
    800044b8:	d165                	beqz	a0,80004498 <sys_kill+0x34>
    800044ba:	84aa                	mv	s1,a0
    800044bc:	bff1                	j	80004498 <sys_kill+0x34>
    800044be:	600c                	ld	a1,0(s0)
    800044c0:	c18d                	beqz	a1,800044e2 <sys_kill+0x7e>
    800044c2:	0009b783          	ld	a5,0(s3)
    800044c6:	3685b703          	ld	a4,872(a1)
    800044ca:	3587b783          	ld	a5,856(a5)
    800044ce:	00f71a63          	bne	a4,a5,800044e2 <sys_kill+0x7e>
    800044d2:	4605                	li	a2,1
    800044d4:	8552                	mv	a0,s4
    800044d6:	00000097          	auipc	ra,0x0
    800044da:	edc080e7          	jalr	-292(ra) # 800043b2 <send_sig>
    800044de:	c111                	beqz	a0,800044e2 <sys_kill+0x7e>
    800044e0:	84aa                	mv	s1,a0
    800044e2:	1461                	addi	s0,s0,-8
    800044e4:	fd241de3          	bne	s0,s2,800044be <sys_kill+0x5a>
    800044e8:	70a2                	ld	ra,40(sp)
    800044ea:	7402                	ld	s0,32(sp)
    800044ec:	8526                	mv	a0,s1
    800044ee:	6942                	ld	s2,16(sp)
    800044f0:	64e2                	ld	s1,24(sp)
    800044f2:	69a2                	ld	s3,8(sp)
    800044f4:	6a02                	ld	s4,0(sp)
    800044f6:	6145                	addi	sp,sp,48
    800044f8:	8082                	ret
    800044fa:	4481                	li	s1,0
    800044fc:	0000b417          	auipc	s0,0xb
    80004500:	89c40413          	addi	s0,s0,-1892 # 8000ed98 <table_list>
    80004504:	0000d997          	auipc	s3,0xd
    80004508:	56498993          	addi	s3,s3,1380 # 80011a68 <current>
    8000450c:	bfd9                	j	800044e2 <sys_kill+0x7e>
    8000450e:	0009b583          	ld	a1,0(s3)
    80004512:	cd89                	beqz	a1,8000452c <sys_kill+0xc8>
    80004514:	3585b783          	ld	a5,856(a1)
    80004518:	00879a63          	bne	a5,s0,8000452c <sys_kill+0xc8>
    8000451c:	4601                	li	a2,0
    8000451e:	8552                	mv	a0,s4
    80004520:	00000097          	auipc	ra,0x0
    80004524:	e92080e7          	jalr	-366(ra) # 800043b2 <send_sig>
    80004528:	c111                	beqz	a0,8000452c <sys_kill+0xc8>
    8000452a:	84aa                	mv	s1,a0
    8000452c:	19e1                	addi	s3,s3,-8
    8000452e:	ff2990e3          	bne	s3,s2,8000450e <sys_kill+0xaa>
    80004532:	bf5d                	j	800044e8 <sys_kill+0x84>
    80004534:	4481                	li	s1,0
    80004536:	0000b997          	auipc	s3,0xb
    8000453a:	86298993          	addi	s3,s3,-1950 # 8000ed98 <table_list>
    8000453e:	b7fd                	j	8000452c <sys_kill+0xc8>
    80004540:	600c                	ld	a1,0(s0)
    80004542:	4601                	li	a2,0
    80004544:	8552                	mv	a0,s4
    80004546:	00000097          	auipc	ra,0x0
    8000454a:	e6c080e7          	jalr	-404(ra) # 800043b2 <send_sig>
    8000454e:	c111                	beqz	a0,80004552 <sys_kill+0xee>
    80004550:	84aa                	mv	s1,a0
    80004552:	1461                	addi	s0,s0,-8
    80004554:	ff2416e3          	bne	s0,s2,80004540 <sys_kill+0xdc>
    80004558:	bf41                	j	800044e8 <sys_kill+0x84>
    8000455a:	0000b417          	auipc	s0,0xb
    8000455e:	83e40413          	addi	s0,s0,-1986 # 8000ed98 <table_list>
    80004562:	bfc5                	j	80004552 <sys_kill+0xee>

0000000080004564 <do_exit>:
    80004564:	1101                	addi	sp,sp,-32
    80004566:	e822                	sd	s0,16(sp)
    80004568:	0000d417          	auipc	s0,0xd
    8000456c:	50040413          	addi	s0,s0,1280 # 80011a68 <current>
    80004570:	601c                	ld	a5,0(s0)
    80004572:	e426                	sd	s1,8(sp)
    80004574:	84aa                	mv	s1,a0
    80004576:	3c87b503          	ld	a0,968(a5)
    8000457a:	ec06                	sd	ra,24(sp)
    8000457c:	c901                	beqz	a0,8000458c <do_exit+0x28>
    8000457e:	6585                	lui	a1,0x1
    80004580:	80058593          	addi	a1,a1,-2048 # 800 <_stack_size-0x7800>
    80004584:	00001097          	auipc	ra,0x1
    80004588:	f48080e7          	jalr	-184(ra) # 800054cc <free_page_tables>
    8000458c:	0000a797          	auipc	a5,0xa
    80004590:	60c78793          	addi	a5,a5,1548 # 8000eb98 <task>
    80004594:	6018                	ld	a4,0(s0)
    80004596:	678c                	ld	a1,8(a5)
    80004598:	0000b517          	auipc	a0,0xb
    8000459c:	80050513          	addi	a0,a0,-2048 # 8000ed98 <table_list>
    800045a0:	86be                	mv	a3,a5
    800045a2:	883e                	mv	a6,a5
    800045a4:	4885                	li	a7,1
    800045a6:	430d                	li	t1,3
    800045a8:	6e41                	lui	t3,0x10
    800045aa:	6290                	ld	a2,0(a3)
    800045ac:	c20d                	beqz	a2,800045ce <do_exit+0x6a>
    800045ae:	36063f03          	ld	t5,864(a2) # 1e13360 <_stack_size+0x1e0b360>
    800045b2:	35873e83          	ld	t4,856(a4)
    800045b6:	01df1c63          	bne	t5,t4,800045ce <do_exit+0x6a>
    800045ba:	37163023          	sd	a7,864(a2)
    800045be:	6210                	ld	a2,0(a2)
    800045c0:	00661763          	bne	a2,t1,800045ce <do_exit+0x6a>
    800045c4:	c589                	beqz	a1,800045ce <do_exit+0x6a>
    800045c6:	6d90                	ld	a2,24(a1)
    800045c8:	01c66633          	or	a2,a2,t3
    800045cc:	ed90                	sd	a2,24(a1)
    800045ce:	06a1                	addi	a3,a3,8
    800045d0:	fcd51de3          	bne	a0,a3,800045aa <do_exit+0x46>
    800045d4:	37873683          	ld	a3,888(a4)
    800045d8:	e6b1                	bnez	a3,80004624 <do_exit+0xc0>
    800045da:	468d                	li	a3,3
    800045dc:	e314                	sd	a3,0(a4)
    800045de:	36072683          	lw	a3,864(a4)
    800045e2:	32972423          	sw	s1,808(a4)
    800045e6:	e6b9                	bnez	a3,80004634 <do_exit+0xd0>
    800045e8:	0000a517          	auipc	a0,0xa
    800045ec:	81850513          	addi	a0,a0,-2024 # 8000de00 <month+0x30>
    800045f0:	00000097          	auipc	ra,0x0
    800045f4:	1b2080e7          	jalr	434(ra) # 800047a2 <printk>
    800045f8:	6008                	ld	a0,0(s0)
    800045fa:	00000097          	auipc	ra,0x0
    800045fe:	df8080e7          	jalr	-520(ra) # 800043f2 <release>
    80004602:	a099                	j	80004648 <do_exit+0xe4>
    80004604:	6290                	ld	a2,0(a3)
    80004606:	ca19                	beqz	a2,8000461c <do_exit+0xb8>
    80004608:	37063883          	ld	a7,880(a2)
    8000460c:	37073583          	ld	a1,880(a4)
    80004610:	00b89663          	bne	a7,a1,8000461c <do_exit+0xb8>
    80004614:	6e0c                	ld	a1,24(a2)
    80004616:	0015e593          	ori	a1,a1,1
    8000461a:	ee0c                	sd	a1,24(a2)
    8000461c:	16e1                	addi	a3,a3,-8
    8000461e:	ff0693e3          	bne	a3,a6,80004604 <do_exit+0xa0>
    80004622:	bf65                	j	800045da <do_exit+0x76>
    80004624:	0000a697          	auipc	a3,0xa
    80004628:	77468693          	addi	a3,a3,1908 # 8000ed98 <table_list>
    8000462c:	bfc5                	j	8000461c <do_exit+0xb8>
    8000462e:	07a1                	addi	a5,a5,8
    80004630:	faf50ce3          	beq	a0,a5,800045e8 <do_exit+0x84>
    80004634:	6398                	ld	a4,0(a5)
    80004636:	df65                	beqz	a4,8000462e <do_exit+0xca>
    80004638:	35873603          	ld	a2,856(a4)
    8000463c:	fed619e3          	bne	a2,a3,8000462e <do_exit+0xca>
    80004640:	6f1c                	ld	a5,24(a4)
    80004642:	66c1                	lui	a3,0x10
    80004644:	8fd5                	or	a5,a5,a3
    80004646:	ef1c                	sd	a5,24(a4)
    80004648:	6442                	ld	s0,16(sp)
    8000464a:	60e2                	ld	ra,24(sp)
    8000464c:	64a2                	ld	s1,8(sp)
    8000464e:	6105                	addi	sp,sp,32
    80004650:	00000317          	auipc	t1,0x0
    80004654:	95830067          	jr	-1704(t1) # 80003fa8 <schedule>

0000000080004658 <sys_exit>:
    80004658:	67c1                	lui	a5,0x10
    8000465a:	17fd                	addi	a5,a5,-1
    8000465c:	0085151b          	slliw	a0,a0,0x8
    80004660:	8d7d                	and	a0,a0,a5
    80004662:	1141                	addi	sp,sp,-16
    80004664:	2501                	sext.w	a0,a0
    80004666:	e406                	sd	ra,8(sp)
    80004668:	00000097          	auipc	ra,0x0
    8000466c:	efc080e7          	jalr	-260(ra) # 80004564 <do_exit>
    80004670:	60a2                	ld	ra,8(sp)
    80004672:	557d                	li	a0,-1
    80004674:	0141                	addi	sp,sp,16
    80004676:	8082                	ret

0000000080004678 <sys_waitpid>:
    80004678:	7139                	addi	sp,sp,-64
    8000467a:	f822                	sd	s0,48(sp)
    8000467c:	e42e                	sd	a1,8(sp)
    8000467e:	842a                	mv	s0,a0
    80004680:	852e                	mv	a0,a1
    80004682:	4591                	li	a1,4
    80004684:	fc06                	sd	ra,56(sp)
    80004686:	f426                	sd	s1,40(sp)
    80004688:	f04a                	sd	s2,32(sp)
    8000468a:	84b2                	mv	s1,a2
    8000468c:	ec4e                	sd	s3,24(sp)
    8000468e:	e852                	sd	s4,16(sp)
    80004690:	fffff097          	auipc	ra,0xfffff
    80004694:	df6080e7          	jalr	-522(ra) # 80003486 <verify_area>
    80004698:	0024f913          	andi	s2,s1,2
    8000469c:	0028                	addi	a0,sp,8
    8000469e:	00001097          	auipc	ra,0x1
    800046a2:	308080e7          	jalr	776(ra) # 800059a6 <user_ptr_to_kernel>
    800046a6:	2901                	sext.w	s2,s2
    800046a8:	408009bb          	negw	s3,s0
    800046ac:	8885                	andi	s1,s1,1
    800046ae:	0000da17          	auipc	s4,0xd
    800046b2:	3baa0a13          	addi	s4,s4,954 # 80011a68 <current>
    800046b6:	000a3783          	ld	a5,0(s4)
    800046ba:	0000a717          	auipc	a4,0xa
    800046be:	6d670713          	addi	a4,a4,1750 # 8000ed90 <task+0x1f8>
    800046c2:	4681                	li	a3,0
    800046c4:	480d                	li	a6,3
    800046c6:	4891                	li	a7,4
    800046c8:	537d                	li	t1,-1
    800046ca:	0000a597          	auipc	a1,0xa
    800046ce:	4ce58593          	addi	a1,a1,1230 # 8000eb98 <task>
    800046d2:	6308                	ld	a0,0(a4)
    800046d4:	cd19                	beqz	a0,800046f2 <sys_waitpid+0x7a>
    800046d6:	00f50e63          	beq	a0,a5,800046f2 <sys_waitpid+0x7a>
    800046da:	36053e03          	ld	t3,864(a0)
    800046de:	3587b603          	ld	a2,856(a5) # 10358 <_stack_size+0x8358>
    800046e2:	00ce1863          	bne	t3,a2,800046f2 <sys_waitpid+0x7a>
    800046e6:	02805b63          	blez	s0,8000471c <sys_waitpid+0xa4>
    800046ea:	35853603          	ld	a2,856(a0)
    800046ee:	02860e63          	beq	a2,s0,8000472a <sys_waitpid+0xb2>
    800046f2:	1761                	addi	a4,a4,-8
    800046f4:	fcb71fe3          	bne	a4,a1,800046d2 <sys_waitpid+0x5a>
    800046f8:	c2cd                	beqz	a3,8000479a <sys_waitpid+0x122>
    800046fa:	e0d5                	bnez	s1,8000479e <sys_waitpid+0x126>
    800046fc:	4705                	li	a4,1
    800046fe:	e398                	sd	a4,0(a5)
    80004700:	00000097          	auipc	ra,0x0
    80004704:	8a8080e7          	jalr	-1880(ra) # 80003fa8 <schedule>
    80004708:	000a3683          	ld	a3,0(s4)
    8000470c:	7741                	lui	a4,0xffff0
    8000470e:	177d                	addi	a4,a4,-1
    80004710:	6e9c                	ld	a5,24(a3)
    80004712:	8ff9                	and	a5,a5,a4
    80004714:	ee9c                	sd	a5,24(a3)
    80004716:	dfc1                	beqz	a5,800046ae <sys_waitpid+0x36>
    80004718:	5571                	li	a0,-4
    8000471a:	a02d                	j	80004744 <sys_waitpid+0xcc>
    8000471c:	ec05                	bnez	s0,80004754 <sys_waitpid+0xdc>
    8000471e:	36853e03          	ld	t3,872(a0)
    80004722:	3687b603          	ld	a2,872(a5)
    80004726:	fcce16e3          	bne	t3,a2,800046f2 <sys_waitpid+0x7a>
    8000472a:	6110                	ld	a2,0(a0)
    8000472c:	03060b63          	beq	a2,a6,80004762 <sys_waitpid+0xea>
    80004730:	07161363          	bne	a2,a7,80004796 <sys_waitpid+0x11e>
    80004734:	fa090fe3          	beqz	s2,800046f2 <sys_waitpid+0x7a>
    80004738:	67a2                	ld	a5,8(sp)
    8000473a:	35853503          	ld	a0,856(a0)
    8000473e:	07f00713          	li	a4,127
    80004742:	c398                	sw	a4,0(a5)
    80004744:	70e2                	ld	ra,56(sp)
    80004746:	7442                	ld	s0,48(sp)
    80004748:	74a2                	ld	s1,40(sp)
    8000474a:	7902                	ld	s2,32(sp)
    8000474c:	69e2                	ld	s3,24(sp)
    8000474e:	6a42                	ld	s4,16(sp)
    80004750:	6121                	addi	sp,sp,64
    80004752:	8082                	ret
    80004754:	fc640be3          	beq	s0,t1,8000472a <sys_waitpid+0xb2>
    80004758:	36853603          	ld	a2,872(a0)
    8000475c:	fd3607e3          	beq	a2,s3,8000472a <sys_waitpid+0xb2>
    80004760:	bf49                	j	800046f2 <sys_waitpid+0x7a>
    80004762:	39853683          	ld	a3,920(a0)
    80004766:	3a87b703          	ld	a4,936(a5)
    8000476a:	32852483          	lw	s1,808(a0)
    8000476e:	35852403          	lw	s0,856(a0)
    80004772:	9736                	add	a4,a4,a3
    80004774:	3ae7b423          	sd	a4,936(a5)
    80004778:	3a053683          	ld	a3,928(a0)
    8000477c:	3b07b703          	ld	a4,944(a5)
    80004780:	9736                	add	a4,a4,a3
    80004782:	3ae7b823          	sd	a4,944(a5)
    80004786:	00000097          	auipc	ra,0x0
    8000478a:	c6c080e7          	jalr	-916(ra) # 800043f2 <release>
    8000478e:	67a2                	ld	a5,8(sp)
    80004790:	8522                	mv	a0,s0
    80004792:	c384                	sw	s1,0(a5)
    80004794:	bf45                	j	80004744 <sys_waitpid+0xcc>
    80004796:	4685                	li	a3,1
    80004798:	bfa9                	j	800046f2 <sys_waitpid+0x7a>
    8000479a:	5559                	li	a0,-10
    8000479c:	b765                	j	80004744 <sys_waitpid+0xcc>
    8000479e:	4501                	li	a0,0
    800047a0:	b755                	j	80004744 <sys_waitpid+0xcc>

00000000800047a2 <printk>:
    800047a2:	711d                	addi	sp,sp,-96
    800047a4:	f42e                	sd	a1,40(sp)
    800047a6:	102c                	addi	a1,sp,40
    800047a8:	ec06                	sd	ra,24(sp)
    800047aa:	f832                	sd	a2,48(sp)
    800047ac:	fc36                	sd	a3,56(sp)
    800047ae:	e0ba                	sd	a4,64(sp)
    800047b0:	e4be                	sd	a5,72(sp)
    800047b2:	e8c2                	sd	a6,80(sp)
    800047b4:	ecc6                	sd	a7,88(sp)
    800047b6:	e42e                	sd	a1,8(sp)
    800047b8:	ffffd097          	auipc	ra,0xffffd
    800047bc:	742080e7          	jalr	1858(ra) # 80001efa <syslog_vprint>
    800047c0:	60e2                	ld	ra,24(sp)
    800047c2:	6125                	addi	sp,sp,96
    800047c4:	8082                	ret

00000000800047c6 <panic>:
    800047c6:	1141                	addi	sp,sp,-16
    800047c8:	85aa                	mv	a1,a0
    800047ca:	00009517          	auipc	a0,0x9
    800047ce:	67e50513          	addi	a0,a0,1662 # 8000de48 <month+0x78>
    800047d2:	e406                	sd	ra,8(sp)
    800047d4:	00000097          	auipc	ra,0x0
    800047d8:	fce080e7          	jalr	-50(ra) # 800047a2 <printk>
    800047dc:	a001                	j	800047dc <panic+0x16>
	...

0000000080004800 <switch_to_tss>:
    80004800:	7101                	addi	sp,sp,-512
    80004802:	e406                	sd	ra,8(sp)
    80004804:	e80a                	sd	sp,16(sp)
    80004806:	ec0e                	sd	gp,24(sp)
    80004808:	f012                	sd	tp,32(sp)
    8000480a:	f416                	sd	t0,40(sp)
    8000480c:	f81a                	sd	t1,48(sp)
    8000480e:	fc1e                	sd	t2,56(sp)
    80004810:	e0a2                	sd	s0,64(sp)
    80004812:	e4a6                	sd	s1,72(sp)
    80004814:	e8aa                	sd	a0,80(sp)
    80004816:	ecae                	sd	a1,88(sp)
    80004818:	f0b2                	sd	a2,96(sp)
    8000481a:	f4b6                	sd	a3,104(sp)
    8000481c:	f8ba                	sd	a4,112(sp)
    8000481e:	fcbe                	sd	a5,120(sp)
    80004820:	e142                	sd	a6,128(sp)
    80004822:	e546                	sd	a7,136(sp)
    80004824:	e94a                	sd	s2,144(sp)
    80004826:	ed4e                	sd	s3,152(sp)
    80004828:	f152                	sd	s4,160(sp)
    8000482a:	f556                	sd	s5,168(sp)
    8000482c:	f95a                	sd	s6,176(sp)
    8000482e:	fd5e                	sd	s7,184(sp)
    80004830:	e1e2                	sd	s8,192(sp)
    80004832:	e5e6                	sd	s9,200(sp)
    80004834:	e9ea                	sd	s10,208(sp)
    80004836:	edee                	sd	s11,216(sp)
    80004838:	f1f2                	sd	t3,224(sp)
    8000483a:	f5f6                	sd	t4,232(sp)
    8000483c:	f9fa                	sd	t5,240(sp)
    8000483e:	fdfe                	sd	t6,248(sp)
    80004840:	10012027          	fsw	ft0,256(sp)
    80004844:	10112427          	fsw	ft1,264(sp)
    80004848:	10212827          	fsw	ft2,272(sp)
    8000484c:	10312c27          	fsw	ft3,280(sp)
    80004850:	12412027          	fsw	ft4,288(sp)
    80004854:	12512427          	fsw	ft5,296(sp)
    80004858:	12612827          	fsw	ft6,304(sp)
    8000485c:	12712c27          	fsw	ft7,312(sp)
    80004860:	14812027          	fsw	fs0,320(sp)
    80004864:	14912427          	fsw	fs1,328(sp)
    80004868:	14a12827          	fsw	fa0,336(sp)
    8000486c:	14b12c27          	fsw	fa1,344(sp)
    80004870:	16c12027          	fsw	fa2,352(sp)
    80004874:	16d12427          	fsw	fa3,360(sp)
    80004878:	16e12827          	fsw	fa4,368(sp)
    8000487c:	16f12c27          	fsw	fa5,376(sp)
    80004880:	19012027          	fsw	fa6,384(sp)
    80004884:	19112427          	fsw	fa7,392(sp)
    80004888:	19212827          	fsw	fs2,400(sp)
    8000488c:	19312c27          	fsw	fs3,408(sp)
    80004890:	1b412027          	fsw	fs4,416(sp)
    80004894:	1b512427          	fsw	fs5,424(sp)
    80004898:	1b612827          	fsw	fs6,432(sp)
    8000489c:	1b712c27          	fsw	fs7,440(sp)
    800048a0:	1d812027          	fsw	fs8,448(sp)
    800048a4:	1d912427          	fsw	fs9,456(sp)
    800048a8:	1da12827          	fsw	fs10,464(sp)
    800048ac:	1db12c27          	fsw	fs11,472(sp)
    800048b0:	1fc12027          	fsw	ft8,480(sp)
    800048b4:	1fd12427          	fsw	ft9,488(sp)
    800048b8:	1fe12827          	fsw	ft10,496(sp)
    800048bc:	1ff12c27          	fsw	ft11,504(sp)
    800048c0:	03f00293          	li	t0,63

00000000800048c4 <stack_copy_to_oldtss>:
    800048c4:	8316                	mv	t1,t0
    800048c6:	030e                	slli	t1,t1,0x3
    800048c8:	00a303b3          	add	t2,t1,a0
    800048cc:	00230e33          	add	t3,t1,sp
    800048d0:	000e3e83          	ld	t4,0(t3) # 10000 <_stack_size+0x8000>
    800048d4:	01d3b023          	sd	t4,0(t2) # 2000 <_stack_size-0x6000>
    800048d8:	12fd                	addi	t0,t0,-1
    800048da:	fe5045e3          	bgtz	t0,800048c4 <stack_copy_to_oldtss>
    800048de:	0000d297          	auipc	t0,0xd
    800048e2:	1a228293          	addi	t0,t0,418 # 80011a80 <old_kernel_stack>
    800048e6:	0002b283          	ld	t0,0(t0)
    800048ea:	402282b3          	sub	t0,t0,sp
    800048ee:	8516                	mv	a0,t0
    800048f0:	6305                	lui	t1,0x1
    800048f2:	0062c463          	blt	t0,t1,800048fa <stack_copy_to_oldtss+0x36>
    800048f6:	d44ff06f          	j	80003e3a <kernel_stack_overflow>
    800048fa:	1161                	addi	sp,sp,-8
    800048fc:	e02e                	sd	a1,0(sp)
    800048fe:	6582                	ld	a1,0(sp)
    80004900:	0121                	addi	sp,sp,8
    80004902:	0105b103          	ld	sp,16(a1)
    80004906:	60a2                	ld	ra,8(sp)
    80004908:	61e2                	ld	gp,24(sp)
    8000490a:	7202                	ld	tp,32(sp)
    8000490c:	72a2                	ld	t0,40(sp)
    8000490e:	7342                	ld	t1,48(sp)
    80004910:	73e2                	ld	t2,56(sp)
    80004912:	6406                	ld	s0,64(sp)
    80004914:	64a6                	ld	s1,72(sp)
    80004916:	6546                	ld	a0,80(sp)
    80004918:	65e6                	ld	a1,88(sp)
    8000491a:	7606                	ld	a2,96(sp)
    8000491c:	76a6                	ld	a3,104(sp)
    8000491e:	7746                	ld	a4,112(sp)
    80004920:	77e6                	ld	a5,120(sp)
    80004922:	680a                	ld	a6,128(sp)
    80004924:	68aa                	ld	a7,136(sp)
    80004926:	694a                	ld	s2,144(sp)
    80004928:	69ea                	ld	s3,152(sp)
    8000492a:	7a0a                	ld	s4,160(sp)
    8000492c:	7aaa                	ld	s5,168(sp)
    8000492e:	7b4a                	ld	s6,176(sp)
    80004930:	7bea                	ld	s7,184(sp)
    80004932:	6c0e                	ld	s8,192(sp)
    80004934:	6cae                	ld	s9,200(sp)
    80004936:	6d4e                	ld	s10,208(sp)
    80004938:	6dee                	ld	s11,216(sp)
    8000493a:	7e0e                	ld	t3,224(sp)
    8000493c:	7eae                	ld	t4,232(sp)
    8000493e:	7f4e                	ld	t5,240(sp)
    80004940:	7fee                	ld	t6,248(sp)
    80004942:	10012007          	flw	ft0,256(sp)
    80004946:	10812087          	flw	ft1,264(sp)
    8000494a:	11012107          	flw	ft2,272(sp)
    8000494e:	11812187          	flw	ft3,280(sp)
    80004952:	12012207          	flw	ft4,288(sp)
    80004956:	12812287          	flw	ft5,296(sp)
    8000495a:	13012307          	flw	ft6,304(sp)
    8000495e:	13812387          	flw	ft7,312(sp)
    80004962:	14012407          	flw	fs0,320(sp)
    80004966:	14812487          	flw	fs1,328(sp)
    8000496a:	15012507          	flw	fa0,336(sp)
    8000496e:	15812587          	flw	fa1,344(sp)
    80004972:	16012607          	flw	fa2,352(sp)
    80004976:	16812687          	flw	fa3,360(sp)
    8000497a:	17012707          	flw	fa4,368(sp)
    8000497e:	17812787          	flw	fa5,376(sp)
    80004982:	18012807          	flw	fa6,384(sp)
    80004986:	18812887          	flw	fa7,392(sp)
    8000498a:	19012907          	flw	fs2,400(sp)
    8000498e:	19812987          	flw	fs3,408(sp)
    80004992:	1a012a07          	flw	fs4,416(sp)
    80004996:	1a812a87          	flw	fs5,424(sp)
    8000499a:	1b012b07          	flw	fs6,432(sp)
    8000499e:	1b812b87          	flw	fs7,440(sp)
    800049a2:	1c012c07          	flw	fs8,448(sp)
    800049a6:	1c812c87          	flw	fs9,456(sp)
    800049aa:	1d012d07          	flw	fs10,464(sp)
    800049ae:	1d812d87          	flw	fs11,472(sp)
    800049b2:	1e012e07          	flw	ft8,480(sp)
    800049b6:	1e812e87          	flw	ft9,488(sp)
    800049ba:	1f012f07          	flw	ft10,496(sp)
    800049be:	1f812f87          	flw	ft11,504(sp)
    800049c2:	20010113          	addi	sp,sp,512
    800049c6:	8082                	ret

00000000800049c8 <fork_process_exit>:
    800049c8:	df810113          	addi	sp,sp,-520
    800049cc:	6082                	ld	ra,0(sp)
    800049ce:	20810113          	addi	sp,sp,520
    800049d2:	7101                	addi	sp,sp,-512
    800049d4:	e406                	sd	ra,8(sp)
    800049d6:	e80a                	sd	sp,16(sp)
    800049d8:	ec0e                	sd	gp,24(sp)
    800049da:	f012                	sd	tp,32(sp)
    800049dc:	f416                	sd	t0,40(sp)
    800049de:	f81a                	sd	t1,48(sp)
    800049e0:	fc1e                	sd	t2,56(sp)
    800049e2:	e0a2                	sd	s0,64(sp)
    800049e4:	e4a6                	sd	s1,72(sp)
    800049e6:	e8aa                	sd	a0,80(sp)
    800049e8:	ecae                	sd	a1,88(sp)
    800049ea:	f0b2                	sd	a2,96(sp)
    800049ec:	f4b6                	sd	a3,104(sp)
    800049ee:	f8ba                	sd	a4,112(sp)
    800049f0:	fcbe                	sd	a5,120(sp)
    800049f2:	e142                	sd	a6,128(sp)
    800049f4:	e546                	sd	a7,136(sp)
    800049f6:	e94a                	sd	s2,144(sp)
    800049f8:	ed4e                	sd	s3,152(sp)
    800049fa:	f152                	sd	s4,160(sp)
    800049fc:	f556                	sd	s5,168(sp)
    800049fe:	f95a                	sd	s6,176(sp)
    80004a00:	fd5e                	sd	s7,184(sp)
    80004a02:	e1e2                	sd	s8,192(sp)
    80004a04:	e5e6                	sd	s9,200(sp)
    80004a06:	e9ea                	sd	s10,208(sp)
    80004a08:	edee                	sd	s11,216(sp)
    80004a0a:	f1f2                	sd	t3,224(sp)
    80004a0c:	f5f6                	sd	t4,232(sp)
    80004a0e:	f9fa                	sd	t5,240(sp)
    80004a10:	fdfe                	sd	t6,248(sp)
    80004a12:	10012027          	fsw	ft0,256(sp)
    80004a16:	10112427          	fsw	ft1,264(sp)
    80004a1a:	10212827          	fsw	ft2,272(sp)
    80004a1e:	10312c27          	fsw	ft3,280(sp)
    80004a22:	12412027          	fsw	ft4,288(sp)
    80004a26:	12512427          	fsw	ft5,296(sp)
    80004a2a:	12612827          	fsw	ft6,304(sp)
    80004a2e:	12712c27          	fsw	ft7,312(sp)
    80004a32:	14812027          	fsw	fs0,320(sp)
    80004a36:	14912427          	fsw	fs1,328(sp)
    80004a3a:	14a12827          	fsw	fa0,336(sp)
    80004a3e:	14b12c27          	fsw	fa1,344(sp)
    80004a42:	16c12027          	fsw	fa2,352(sp)
    80004a46:	16d12427          	fsw	fa3,360(sp)
    80004a4a:	16e12827          	fsw	fa4,368(sp)
    80004a4e:	16f12c27          	fsw	fa5,376(sp)
    80004a52:	19012027          	fsw	fa6,384(sp)
    80004a56:	19112427          	fsw	fa7,392(sp)
    80004a5a:	19212827          	fsw	fs2,400(sp)
    80004a5e:	19312c27          	fsw	fs3,408(sp)
    80004a62:	1b412027          	fsw	fs4,416(sp)
    80004a66:	1b512427          	fsw	fs5,424(sp)
    80004a6a:	1b612827          	fsw	fs6,432(sp)
    80004a6e:	1b712c27          	fsw	fs7,440(sp)
    80004a72:	1d812027          	fsw	fs8,448(sp)
    80004a76:	1d912427          	fsw	fs9,456(sp)
    80004a7a:	1da12827          	fsw	fs10,464(sp)
    80004a7e:	1db12c27          	fsw	fs11,472(sp)
    80004a82:	1fc12027          	fsw	ft8,480(sp)
    80004a86:	1fd12427          	fsw	ft9,488(sp)
    80004a8a:	1fe12827          	fsw	ft10,496(sp)
    80004a8e:	1ff12c27          	fsw	ft11,504(sp)
    80004a92:	fffff097          	auipc	ra,0xfffff
    80004a96:	2f6080e7          	jalr	758(ra) # 80003d88 <mepc_recover>
    80004a9a:	fffff097          	auipc	ra,0xfffff
    80004a9e:	318080e7          	jalr	792(ra) # 80003db2 <interrupt_recover>
    80004aa2:	ffffd097          	auipc	ra,0xffffd
    80004aa6:	714080e7          	jalr	1812(ra) # 800021b6 <privilege_trap_exit>
    80004aaa:	60a2                	ld	ra,8(sp)
    80004aac:	6142                	ld	sp,16(sp)
    80004aae:	61e2                	ld	gp,24(sp)
    80004ab0:	7202                	ld	tp,32(sp)
    80004ab2:	72a2                	ld	t0,40(sp)
    80004ab4:	7342                	ld	t1,48(sp)
    80004ab6:	73e2                	ld	t2,56(sp)
    80004ab8:	6406                	ld	s0,64(sp)
    80004aba:	64a6                	ld	s1,72(sp)
    80004abc:	6546                	ld	a0,80(sp)
    80004abe:	65e6                	ld	a1,88(sp)
    80004ac0:	7606                	ld	a2,96(sp)
    80004ac2:	76a6                	ld	a3,104(sp)
    80004ac4:	7746                	ld	a4,112(sp)
    80004ac6:	77e6                	ld	a5,120(sp)
    80004ac8:	680a                	ld	a6,128(sp)
    80004aca:	68aa                	ld	a7,136(sp)
    80004acc:	694a                	ld	s2,144(sp)
    80004ace:	69ea                	ld	s3,152(sp)
    80004ad0:	7a0a                	ld	s4,160(sp)
    80004ad2:	7aaa                	ld	s5,168(sp)
    80004ad4:	7b4a                	ld	s6,176(sp)
    80004ad6:	7bea                	ld	s7,184(sp)
    80004ad8:	6c0e                	ld	s8,192(sp)
    80004ada:	6cae                	ld	s9,200(sp)
    80004adc:	6d4e                	ld	s10,208(sp)
    80004ade:	6dee                	ld	s11,216(sp)
    80004ae0:	7e0e                	ld	t3,224(sp)
    80004ae2:	7eae                	ld	t4,232(sp)
    80004ae4:	7f4e                	ld	t5,240(sp)
    80004ae6:	7fee                	ld	t6,248(sp)
    80004ae8:	10012007          	flw	ft0,256(sp)
    80004aec:	10812087          	flw	ft1,264(sp)
    80004af0:	11012107          	flw	ft2,272(sp)
    80004af4:	11812187          	flw	ft3,280(sp)
    80004af8:	12012207          	flw	ft4,288(sp)
    80004afc:	12812287          	flw	ft5,296(sp)
    80004b00:	13012307          	flw	ft6,304(sp)
    80004b04:	13812387          	flw	ft7,312(sp)
    80004b08:	14012407          	flw	fs0,320(sp)
    80004b0c:	14812487          	flw	fs1,328(sp)
    80004b10:	15012507          	flw	fa0,336(sp)
    80004b14:	15812587          	flw	fa1,344(sp)
    80004b18:	16012607          	flw	fa2,352(sp)
    80004b1c:	16812687          	flw	fa3,360(sp)
    80004b20:	17012707          	flw	fa4,368(sp)
    80004b24:	17812787          	flw	fa5,376(sp)
    80004b28:	18012807          	flw	fa6,384(sp)
    80004b2c:	18812887          	flw	fa7,392(sp)
    80004b30:	19012907          	flw	fs2,400(sp)
    80004b34:	19812987          	flw	fs3,408(sp)
    80004b38:	1a012a07          	flw	fs4,416(sp)
    80004b3c:	1a812a87          	flw	fs5,424(sp)
    80004b40:	1b012b07          	flw	fs6,432(sp)
    80004b44:	1b812b87          	flw	fs7,440(sp)
    80004b48:	1c012c07          	flw	fs8,448(sp)
    80004b4c:	1c812c87          	flw	fs9,456(sp)
    80004b50:	1d012d07          	flw	fs10,464(sp)
    80004b54:	1d812d87          	flw	fs11,472(sp)
    80004b58:	1e012e07          	flw	ft8,480(sp)
    80004b5c:	1e812e87          	flw	ft9,488(sp)
    80004b60:	1f012f07          	flw	ft10,496(sp)
    80004b64:	1f812f87          	flw	ft11,504(sp)
    80004b68:	20010113          	addi	sp,sp,512
    80004b6c:	30200073          	mret

0000000080004b70 <stack_overflow_check>:
    80004b70:	1161                	addi	sp,sp,-8
    80004b72:	e006                	sd	ra,0(sp)
    80004b74:	0000d297          	auipc	t0,0xd
    80004b78:	eec28293          	addi	t0,t0,-276 # 80011a60 <cur_kernel_stack>
    80004b7c:	0002b283          	ld	t0,0(t0)
    80004b80:	402282b3          	sub	t0,t0,sp
    80004b84:	8516                	mv	a0,t0
    80004b86:	6305                	lui	t1,0x1
    80004b88:	0062c463          	blt	t0,t1,80004b90 <stack_overflow_check+0x20>
    80004b8c:	aaeff06f          	j	80003e3a <kernel_stack_overflow>
    80004b90:	6082                	ld	ra,0(sp)
    80004b92:	0121                	addi	sp,sp,8
    80004b94:	8082                	ret
	...
    80004c02:	0001                	nop
    80004c04:	00000013          	nop
    80004c08:	00000013          	nop
    80004c0c:	00000013          	nop
    80004c10:	00000013          	nop
    80004c14:	00000013          	nop
    80004c18:	00000013          	nop
    80004c1c:	00000013          	nop
    80004c20:	00000013          	nop
    80004c24:	00000013          	nop
    80004c28:	00000013          	nop
    80004c2c:	00000013          	nop
    80004c30:	00000013          	nop
    80004c34:	00000013          	nop
    80004c38:	00000013          	nop
    80004c3c:	00000013          	nop
    80004c40:	00000013          	nop
    80004c44:	00000013          	nop
    80004c48:	00000013          	nop
    80004c4c:	00000013          	nop
    80004c50:	00000013          	nop
    80004c54:	00000013          	nop
    80004c58:	00000013          	nop
    80004c5c:	00000013          	nop
    80004c60:	00000013          	nop
    80004c64:	00000013          	nop
    80004c68:	00000013          	nop
    80004c6c:	00000013          	nop
    80004c70:	00000013          	nop
    80004c74:	00000013          	nop
    80004c78:	00000013          	nop
    80004c7c:	00000013          	nop
    80004c80:	00000013          	nop
    80004c84:	00000013          	nop
    80004c88:	00000013          	nop
    80004c8c:	00000013          	nop
    80004c90:	00000013          	nop
    80004c94:	00000013          	nop
    80004c98:	00000013          	nop
    80004c9c:	00000013          	nop
    80004ca0:	00000013          	nop
    80004ca4:	00000013          	nop
    80004ca8:	00000013          	nop
    80004cac:	00000013          	nop
    80004cb0:	00000013          	nop
    80004cb4:	00000013          	nop
    80004cb8:	00000013          	nop
    80004cbc:	00000013          	nop
    80004cc0:	00000013          	nop
    80004cc4:	00000013          	nop
    80004cc8:	00000013          	nop
    80004ccc:	00000013          	nop
    80004cd0:	00000013          	nop
    80004cd4:	00000013          	nop
    80004cd8:	00000013          	nop
    80004cdc:	00000013          	nop
    80004ce0:	00000013          	nop
    80004ce4:	00000013          	nop
    80004ce8:	00000013          	nop
    80004cec:	00000013          	nop
    80004cf0:	00000013          	nop
    80004cf4:	00000013          	nop
    80004cf8:	00000013          	nop
    80004cfc:	00000013          	nop

0000000080004d00 <syscall_from_kernel>:
	...

0000000080004d08 <bad_sys_call>:
    80004d08:	557d                	li	a0,-1
    80004d0a:	8082                	ret

0000000080004d0c <reschedule>:
    80004d0c:	00000097          	auipc	ra,0x0
    80004d10:	05808093          	addi	ra,ra,88 # 80004d64 <ret_from_sys_call>
    80004d14:	fffff317          	auipc	t1,0xfffff
    80004d18:	29430067          	jr	660(t1) # 80003fa8 <schedule>

0000000080004d1c <system_call>:
    80004d1c:	1141                	addi	sp,sp,-16
    80004d1e:	e006                	sd	ra,0(sp)
    80004d20:	e422                	sd	s0,8(sp)
    80004d22:	04700293          	li	t0,71
    80004d26:	40a282b3          	sub	t0,t0,a0
    80004d2a:	fc02cfe3          	bltz	t0,80004d08 <bad_sys_call>
    80004d2e:	050e                	slli	a0,a0,0x3
    80004d30:	0000a297          	auipc	t0,0xa
    80004d34:	c2828293          	addi	t0,t0,-984 # 8000e958 <sys_call_table>
    80004d38:	92aa                	add	t0,t0,a0
    80004d3a:	0002b283          	ld	t0,0(t0)
    80004d3e:	852e                	mv	a0,a1
    80004d40:	85b2                	mv	a1,a2
    80004d42:	8636                	mv	a2,a3
    80004d44:	9282                	jalr	t0
    80004d46:	842a                	mv	s0,a0
    80004d48:	0000d297          	auipc	t0,0xd
    80004d4c:	d2028293          	addi	t0,t0,-736 # 80011a68 <current>
    80004d50:	0002b283          	ld	t0,0(t0)
    80004d54:	0002b303          	ld	t1,0(t0)
    80004d58:	fa031ae3          	bnez	t1,80004d0c <reschedule>
    80004d5c:	0082b303          	ld	t1,8(t0)
    80004d60:	fa0306e3          	beqz	t1,80004d0c <reschedule>

0000000080004d64 <ret_from_sys_call>:
    80004d64:	0000d297          	auipc	t0,0xd
    80004d68:	d0428293          	addi	t0,t0,-764 # 80011a68 <current>
    80004d6c:	0002b283          	ld	t0,0(t0)
    80004d70:	0000a317          	auipc	t1,0xa
    80004d74:	e2830313          	addi	t1,t1,-472 # 8000eb98 <task>
    80004d78:	00033303          	ld	t1,0(t1)
    80004d7c:	40628333          	sub	t1,t0,t1
    80004d80:	04030963          	beqz	t1,80004dd2 <ret_from_sys_call+0x6e>
    80004d84:	00000317          	auipc	t1,0x0
    80004d88:	f7c30313          	addi	t1,t1,-132 # 80004d00 <syscall_from_kernel>
    80004d8c:	00033303          	ld	t1,0(t1)
    80004d90:	04030163          	beqz	t1,80004dd2 <ret_from_sys_call+0x6e>
    80004d94:	0182b303          	ld	t1,24(t0)
    80004d98:	3202b383          	ld	t2,800(t0)
    80004d9c:	fff3c393          	not	t2,t2
    80004da0:	00737333          	and	t1,t1,t2
    80004da4:	851a                	mv	a0,t1
    80004da6:	ffffb097          	auipc	ra,0xffffb
    80004daa:	386080e7          	jalr	902(ra) # 8000012c <bitscan>
    80004dae:	00150e13          	addi	t3,a0,1
    80004db2:	020e0063          	beqz	t3,80004dd2 <ret_from_sys_call+0x6e>
    80004db6:	4e05                	li	t3,1
    80004db8:	00ae1e33          	sll	t3,t3,a0
    80004dbc:	fffe4e13          	not	t3,t3
    80004dc0:	01c37333          	and	t1,t1,t3
    80004dc4:	0062bc23          	sd	t1,24(t0)
    80004dc8:	0505                	addi	a0,a0,1
    80004dca:	fffff097          	auipc	ra,0xfffff
    80004dce:	df4080e7          	jalr	-524(ra) # 80003bbe <do_signal>
    80004dd2:	8522                	mv	a0,s0
    80004dd4:	6422                	ld	s0,8(sp)
    80004dd6:	6082                	ld	ra,0(sp)
    80004dd8:	0141                	addi	sp,sp,16
    80004dda:	8082                	ret

0000000080004ddc <sys_execve>:
    80004ddc:	8082                	ret

0000000080004dde <sys_fork>:
    80004dde:	1161                	addi	sp,sp,-8
    80004de0:	e006                	sd	ra,0(sp)
    80004de2:	fffff097          	auipc	ra,0xfffff
    80004de6:	912080e7          	jalr	-1774(ra) # 800036f4 <find_empty_process>
    80004dea:	00054863          	bltz	a0,80004dfa <sys_fork+0x1c>
    80004dee:	ffffe097          	auipc	ra,0xffffe
    80004df2:	716080e7          	jalr	1814(ra) # 80003504 <copy_process>
    80004df6:	6082                	ld	ra,0(sp)
    80004df8:	0121                	addi	sp,sp,8
    80004dfa:	8082                	ret

0000000080004dfc <sys_setup>:
    80004dfc:	8082                	ret

0000000080004dfe <sys_read>:
    80004dfe:	8082                	ret

0000000080004e00 <sys_open>:
    80004e00:	8082                	ret

0000000080004e02 <sys_close>:
    80004e02:	8082                	ret

0000000080004e04 <sys_creat>:
    80004e04:	8082                	ret

0000000080004e06 <sys_link>:
    80004e06:	8082                	ret

0000000080004e08 <sys_unlink>:
    80004e08:	8082                	ret

0000000080004e0a <sys_chdir>:
    80004e0a:	8082                	ret

0000000080004e0c <sys_mknod>:
    80004e0c:	8082                	ret

0000000080004e0e <sys_chmod>:
    80004e0e:	8082                	ret

0000000080004e10 <sys_chown>:
    80004e10:	8082                	ret

0000000080004e12 <sys_stat>:
    80004e12:	8082                	ret

0000000080004e14 <sys_lseek>:
    80004e14:	8082                	ret

0000000080004e16 <sys_mount>:
    80004e16:	8082                	ret

0000000080004e18 <sys_umount>:
    80004e18:	8082                	ret

0000000080004e1a <sys_fstat>:
    80004e1a:	8082                	ret

0000000080004e1c <sys_utime>:
    80004e1c:	8082                	ret

0000000080004e1e <sys_access>:
    80004e1e:	8082                	ret

0000000080004e20 <sys_sync>:
    80004e20:	8082                	ret

0000000080004e22 <sys_mkdir>:
    80004e22:	8082                	ret

0000000080004e24 <sys_rmdir>:
    80004e24:	8082                	ret

0000000080004e26 <sys_dup>:
    80004e26:	8082                	ret

0000000080004e28 <sys_pipe>:
    80004e28:	8082                	ret

0000000080004e2a <sys_getegid>:
    80004e2a:	8082                	ret

0000000080004e2c <sys_ioctl>:
    80004e2c:	8082                	ret

0000000080004e2e <sys_fcntl>:
    80004e2e:	8082                	ret

0000000080004e30 <sys_chroot>:
    80004e30:	8082                	ret

0000000080004e32 <sys_ustat>:
    80004e32:	8082                	ret

0000000080004e34 <sys_dup2>:
    80004e34:	8082                	ret
	...

0000000080004f02 <blk_dev_init>:
    80004f02:	00022797          	auipc	a5,0x22
    80004f06:	0fe78793          	addi	a5,a5,254 # 80027000 <request>
    80004f0a:	00023717          	auipc	a4,0x23
    80004f0e:	8f670713          	addi	a4,a4,-1802 # 80027800 <__malloc_current_mallinfo>
    80004f12:	56fd                	li	a3,-1
    80004f14:	c394                	sw	a3,0(a5)
    80004f16:	0207bc23          	sd	zero,56(a5)
    80004f1a:	04078793          	addi	a5,a5,64
    80004f1e:	fee79be3          	bne	a5,a4,80004f14 <blk_dev_init+0x12>
    80004f22:	8082                	ret

0000000080004f24 <tty_init>:
    80004f24:	00000317          	auipc	t1,0x0
    80004f28:	3b430067          	jr	948(t1) # 800052d8 <rs_init>

0000000080004f2c <tty_intr>:
    80004f2c:	5150                	lw	a2,36(a0)
    80004f2e:	02c05663          	blez	a2,80004f5a <tty_intr+0x2e>
    80004f32:	0000a797          	auipc	a5,0xa
    80004f36:	c6678793          	addi	a5,a5,-922 # 8000eb98 <task>
    80004f3a:	0000a517          	auipc	a0,0xa
    80004f3e:	e5e50513          	addi	a0,a0,-418 # 8000ed98 <table_list>
    80004f42:	6398                	ld	a4,0(a5)
    80004f44:	cb01                	beqz	a4,80004f54 <tty_intr+0x28>
    80004f46:	36873683          	ld	a3,872(a4)
    80004f4a:	00c69563          	bne	a3,a2,80004f54 <tty_intr+0x28>
    80004f4e:	6f14                	ld	a3,24(a4)
    80004f50:	8ecd                	or	a3,a3,a1
    80004f52:	ef14                	sd	a3,24(a4)
    80004f54:	07a1                	addi	a5,a5,8
    80004f56:	fea796e3          	bne	a5,a0,80004f42 <tty_intr+0x16>
    80004f5a:	8082                	ret

0000000080004f5c <copy_to_cooked>:
    80004f5c:	715d                	addi	sp,sp,-80
    80004f5e:	f052                	sd	s4,32(sp)
    80004f60:	6a05                	lui	s4,0x1
    80004f62:	e0a2                	sd	s0,64(sp)
    80004f64:	f84a                	sd	s2,48(sp)
    80004f66:	f44e                	sd	s3,40(sp)
    80004f68:	ec56                	sd	s5,24(sp)
    80004f6a:	e85a                	sd	s6,16(sp)
    80004f6c:	e486                	sd	ra,72(sp)
    80004f6e:	fc26                	sd	s1,56(sp)
    80004f70:	e45e                	sd	s7,8(sp)
    80004f72:	842a                	mv	s0,a0
    80004f74:	01450933          	add	s2,a0,s4
    80004f78:	49a9                	li	s3,10
    80004f7a:	4afd                	li	s5,31
    80004f7c:	00009b17          	auipc	s6,0x9
    80004f80:	16db0b13          	addi	s6,s6,365 # 8000e0e9 <_ctype_+0x1>
    80004f84:	4038                	lw	a4,64(s0)
    80004f86:	5c5c                	lw	a5,60(s0)
    80004f88:	00e78c63          	beq	a5,a4,80004fa0 <copy_to_cooked+0x44>
    80004f8c:	87092603          	lw	a2,-1936(s2)
    80004f90:	86c92783          	lw	a5,-1940(s2)
    80004f94:	fff6069b          	addiw	a3,a2,-1
    80004f98:	9e9d                	subw	a3,a3,a5
    80004f9a:	3ff6f693          	andi	a3,a3,1023
    80004f9e:	e29d                	bnez	a3,80004fc4 <copy_to_cooked+0x68>
    80004fa0:	6505                	lui	a0,0x1
    80004fa2:	87850513          	addi	a0,a0,-1928 # 878 <_stack_size-0x7788>
    80004fa6:	9522                	add	a0,a0,s0
    80004fa8:	6406                	ld	s0,64(sp)
    80004faa:	60a6                	ld	ra,72(sp)
    80004fac:	74e2                	ld	s1,56(sp)
    80004fae:	7942                	ld	s2,48(sp)
    80004fb0:	79a2                	ld	s3,40(sp)
    80004fb2:	7a02                	ld	s4,32(sp)
    80004fb4:	6ae2                	ld	s5,24(sp)
    80004fb6:	6b42                	ld	s6,16(sp)
    80004fb8:	6ba2                	ld	s7,8(sp)
    80004fba:	6161                	addi	sp,sp,80
    80004fbc:	fffff317          	auipc	t1,0xfffff
    80004fc0:	13430067          	jr	308(t1) # 800040f0 <wake_up>
    80004fc4:	02071693          	slli	a3,a4,0x20
    80004fc8:	9281                	srli	a3,a3,0x20
    80004fca:	96a2                	add	a3,a3,s0
    80004fcc:	05068483          	lb	s1,80(a3) # 10050 <_stack_size+0x8050>
    80004fd0:	2705                	addiw	a4,a4,1
    80004fd2:	3ff77713          	andi	a4,a4,1023
    80004fd6:	c038                	sw	a4,64(s0)
    80004fd8:	0ff4f693          	andi	a3,s1,255
    80004fdc:	45b5                	li	a1,13
    80004fde:	4018                	lw	a4,0(s0)
    80004fe0:	0cb69b63          	bne	a3,a1,800050b6 <copy_to_cooked+0x15a>
    80004fe4:	10077693          	andi	a3,a4,256
    80004fe8:	eef1                	bnez	a3,800050c4 <copy_to_cooked+0x168>
    80004fea:	08077693          	andi	a3,a4,128
    80004fee:	fad9                	bnez	a3,80004f84 <copy_to_cooked+0x28>
    80004ff0:	20077713          	andi	a4,a4,512
    80004ff4:	c305                	beqz	a4,80005014 <copy_to_cooked+0xb8>
    80004ff6:	0004871b          	sext.w	a4,s1
    80004ffa:	94da                	add	s1,s1,s6
    80004ffc:	0004c683          	lbu	a3,0(s1)
    80005000:	4585                	li	a1,1
    80005002:	8a8d                	andi	a3,a3,3
    80005004:	00b69463          	bne	a3,a1,8000500c <copy_to_cooked+0xb0>
    80005008:	0207071b          	addiw	a4,a4,32
    8000500c:	0187149b          	slliw	s1,a4,0x18
    80005010:	4184d49b          	sraiw	s1,s1,0x18
    80005014:	4454                	lw	a3,12(s0)
    80005016:	0026f713          	andi	a4,a3,2
    8000501a:	14070463          	beqz	a4,80005162 <copy_to_cooked+0x206>
    8000501e:	01444583          	lbu	a1,20(s0)
    80005022:	0004871b          	sext.w	a4,s1
    80005026:	07f00b93          	li	s7,127
    8000502a:	0ee58863          	beq	a1,a4,8000511a <copy_to_cooked+0x1be>
    8000502e:	01344583          	lbu	a1,19(s0)
    80005032:	10e59a63          	bne	a1,a4,80005146 <copy_to_cooked+0x1ea>
    80005036:	f4f607e3          	beq	a2,a5,80004f84 <copy_to_cooked+0x28>
    8000503a:	fff7871b          	addiw	a4,a5,-1
    8000503e:	3ff77713          	andi	a4,a4,1023
    80005042:	9722                	add	a4,a4,s0
    80005044:	9752                	add	a4,a4,s4
    80005046:	88070703          	lb	a4,-1920(a4)
    8000504a:	0ff77793          	andi	a5,a4,255
    8000504e:	f3378be3          	beq	a5,s3,80004f84 <copy_to_cooked+0x28>
    80005052:	01544783          	lbu	a5,21(s0)
    80005056:	f2e787e3          	beq	a5,a4,80004f84 <copy_to_cooked+0x28>
    8000505a:	0086f793          	andi	a5,a3,8
    8000505e:	c7a1                	beqz	a5,800050a6 <copy_to_cooked+0x14a>
    80005060:	02eac163          	blt	s5,a4,80005082 <copy_to_cooked+0x126>
    80005064:	45442783          	lw	a5,1108(s0)
    80005068:	07f00693          	li	a3,127
    8000506c:	02079713          	slli	a4,a5,0x20
    80005070:	9301                	srli	a4,a4,0x20
    80005072:	9722                	add	a4,a4,s0
    80005074:	2785                	addiw	a5,a5,1
    80005076:	46d70423          	sb	a3,1128(a4)
    8000507a:	3ff7f793          	andi	a5,a5,1023
    8000507e:	44f42a23          	sw	a5,1108(s0)
    80005082:	45442783          	lw	a5,1108(s0)
    80005086:	07f00693          	li	a3,127
    8000508a:	8522                	mv	a0,s0
    8000508c:	02079713          	slli	a4,a5,0x20
    80005090:	9301                	srli	a4,a4,0x20
    80005092:	9722                	add	a4,a4,s0
    80005094:	2785                	addiw	a5,a5,1
    80005096:	46d70423          	sb	a3,1128(a4)
    8000509a:	3ff7f793          	andi	a5,a5,1023
    8000509e:	44f42a23          	sw	a5,1108(s0)
    800050a2:	781c                	ld	a5,48(s0)
    800050a4:	9782                	jalr	a5
    800050a6:	86c92783          	lw	a5,-1940(s2)
    800050aa:	37fd                	addiw	a5,a5,-1
    800050ac:	3ff7f793          	andi	a5,a5,1023
    800050b0:	86f92623          	sw	a5,-1940(s2)
    800050b4:	bdc1                	j	80004f84 <copy_to_cooked+0x28>
    800050b6:	f3369de3          	bne	a3,s3,80004ff0 <copy_to_cooked+0x94>
    800050ba:	04077693          	andi	a3,a4,64
    800050be:	da8d                	beqz	a3,80004ff0 <copy_to_cooked+0x94>
    800050c0:	44b5                	li	s1,13
    800050c2:	b73d                	j	80004ff0 <copy_to_cooked+0x94>
    800050c4:	44a9                	li	s1,10
    800050c6:	b72d                	j	80004ff0 <copy_to_cooked+0x94>
    800050c8:	445c                	lw	a5,12(s0)
    800050ca:	8ba1                	andi	a5,a5,8
    800050cc:	c3a1                	beqz	a5,8000510c <copy_to_cooked+0x1b0>
    800050ce:	009acf63          	blt	s5,s1,800050ec <copy_to_cooked+0x190>
    800050d2:	45442783          	lw	a5,1108(s0)
    800050d6:	02079713          	slli	a4,a5,0x20
    800050da:	9301                	srli	a4,a4,0x20
    800050dc:	9722                	add	a4,a4,s0
    800050de:	2785                	addiw	a5,a5,1
    800050e0:	47770423          	sb	s7,1128(a4)
    800050e4:	3ff7f793          	andi	a5,a5,1023
    800050e8:	44f42a23          	sw	a5,1108(s0)
    800050ec:	45442783          	lw	a5,1108(s0)
    800050f0:	8522                	mv	a0,s0
    800050f2:	02079713          	slli	a4,a5,0x20
    800050f6:	9301                	srli	a4,a4,0x20
    800050f8:	9722                	add	a4,a4,s0
    800050fa:	2785                	addiw	a5,a5,1
    800050fc:	47770423          	sb	s7,1128(a4)
    80005100:	3ff7f793          	andi	a5,a5,1023
    80005104:	44f42a23          	sw	a5,1108(s0)
    80005108:	781c                	ld	a5,48(s0)
    8000510a:	9782                	jalr	a5
    8000510c:	86c92783          	lw	a5,-1940(s2)
    80005110:	37fd                	addiw	a5,a5,-1
    80005112:	3ff7f793          	andi	a5,a5,1023
    80005116:	86f92623          	sw	a5,-1940(s2)
    8000511a:	86c92703          	lw	a4,-1940(s2)
    8000511e:	87092783          	lw	a5,-1936(s2)
    80005122:	fae793e3          	bne	a5,a4,800050c8 <copy_to_cooked+0x16c>
    80005126:	37fd                	addiw	a5,a5,-1
    80005128:	3ff7f793          	andi	a5,a5,1023
    8000512c:	97a2                	add	a5,a5,s0
    8000512e:	97d2                	add	a5,a5,s4
    80005130:	88078483          	lb	s1,-1920(a5)
    80005134:	0ff4f793          	andi	a5,s1,255
    80005138:	f93788e3          	beq	a5,s3,800050c8 <copy_to_cooked+0x16c>
    8000513c:	01544783          	lbu	a5,21(s0)
    80005140:	f89784e3          	beq	a5,s1,800050c8 <copy_to_cooked+0x16c>
    80005144:	b581                	j	80004f84 <copy_to_cooked+0x28>
    80005146:	01a44783          	lbu	a5,26(s0)
    8000514a:	00e79563          	bne	a5,a4,80005154 <copy_to_cooked+0x1f8>
    8000514e:	4785                	li	a5,1
    80005150:	d41c                	sw	a5,40(s0)
    80005152:	bd0d                	j	80004f84 <copy_to_cooked+0x28>
    80005154:	01944783          	lbu	a5,25(s0)
    80005158:	00e79563          	bne	a5,a4,80005162 <copy_to_cooked+0x206>
    8000515c:	02042423          	sw	zero,40(s0)
    80005160:	b515                	j	80004f84 <copy_to_cooked+0x28>
    80005162:	0016f793          	andi	a5,a3,1
    80005166:	c39d                	beqz	a5,8000518c <copy_to_cooked+0x230>
    80005168:	01144703          	lbu	a4,17(s0)
    8000516c:	0004879b          	sext.w	a5,s1
    80005170:	4589                	li	a1,2
    80005172:	00f70763          	beq	a4,a5,80005180 <copy_to_cooked+0x224>
    80005176:	01244703          	lbu	a4,18(s0)
    8000517a:	00f71963          	bne	a4,a5,8000518c <copy_to_cooked+0x230>
    8000517e:	4591                	li	a1,4
    80005180:	8522                	mv	a0,s0
    80005182:	00000097          	auipc	ra,0x0
    80005186:	daa080e7          	jalr	-598(ra) # 80004f2c <tty_intr>
    8000518a:	bbed                	j	80004f84 <copy_to_cooked+0x28>
    8000518c:	0ff4fb93          	andi	s7,s1,255
    80005190:	013b8663          	beq	s7,s3,8000519c <copy_to_cooked+0x240>
    80005194:	01544783          	lbu	a5,21(s0)
    80005198:	00979763          	bne	a5,s1,800051a6 <copy_to_cooked+0x24a>
    8000519c:	86892783          	lw	a5,-1944(s2)
    800051a0:	2785                	addiw	a5,a5,1
    800051a2:	86f92423          	sw	a5,-1944(s2)
    800051a6:	0086f793          	andi	a5,a3,8
    800051aa:	c7a5                	beqz	a5,80005212 <copy_to_cooked+0x2b6>
    800051ac:	033b9363          	bne	s7,s3,800051d2 <copy_to_cooked+0x276>
    800051b0:	45442783          	lw	a5,1108(s0)
    800051b4:	46b5                	li	a3,13
    800051b6:	02079713          	slli	a4,a5,0x20
    800051ba:	9301                	srli	a4,a4,0x20
    800051bc:	2785                	addiw	a5,a5,1
    800051be:	9722                	add	a4,a4,s0
    800051c0:	3ff7f793          	andi	a5,a5,1023
    800051c4:	46d70423          	sb	a3,1128(a4)
    800051c8:	00f40733          	add	a4,s0,a5
    800051cc:	47770423          	sb	s7,1128(a4)
    800051d0:	a80d                	j	80005202 <copy_to_cooked+0x2a6>
    800051d2:	049acb63          	blt	s5,s1,80005228 <copy_to_cooked+0x2cc>
    800051d6:	2006f793          	andi	a5,a3,512
    800051da:	cb8d                	beqz	a5,8000520c <copy_to_cooked+0x2b0>
    800051dc:	45442783          	lw	a5,1108(s0)
    800051e0:	05e00693          	li	a3,94
    800051e4:	02079713          	slli	a4,a5,0x20
    800051e8:	9301                	srli	a4,a4,0x20
    800051ea:	2785                	addiw	a5,a5,1
    800051ec:	9722                	add	a4,a4,s0
    800051ee:	3ff7f793          	andi	a5,a5,1023
    800051f2:	46d70423          	sb	a3,1128(a4)
    800051f6:	00f40733          	add	a4,s0,a5
    800051fa:	040b869b          	addiw	a3,s7,64
    800051fe:	46d70423          	sb	a3,1128(a4)
    80005202:	2785                	addiw	a5,a5,1
    80005204:	3ff7f793          	andi	a5,a5,1023
    80005208:	44f42a23          	sw	a5,1108(s0)
    8000520c:	781c                	ld	a5,48(s0)
    8000520e:	8522                	mv	a0,s0
    80005210:	9782                	jalr	a5
    80005212:	86c92783          	lw	a5,-1940(s2)
    80005216:	02079713          	slli	a4,a5,0x20
    8000521a:	9301                	srli	a4,a4,0x20
    8000521c:	9722                	add	a4,a4,s0
    8000521e:	9752                	add	a4,a4,s4
    80005220:	89770023          	sb	s7,-1920(a4)
    80005224:	2785                	addiw	a5,a5,1
    80005226:	b559                	j	800050ac <copy_to_cooked+0x150>
    80005228:	45442783          	lw	a5,1108(s0)
    8000522c:	02079713          	slli	a4,a5,0x20
    80005230:	9301                	srli	a4,a4,0x20
    80005232:	9722                	add	a4,a4,s0
    80005234:	bf61                	j	800051cc <copy_to_cooked+0x270>

0000000080005236 <do_tty_interrupt>:
    80005236:	6785                	lui	a5,0x1
    80005238:	c8078793          	addi	a5,a5,-896 # c80 <_stack_size-0x7380>
    8000523c:	02f50533          	mul	a0,a0,a5
    80005240:	0000a797          	auipc	a5,0xa
    80005244:	b6878793          	addi	a5,a5,-1176 # 8000eda8 <tty_table>
    80005248:	953e                	add	a0,a0,a5
    8000524a:	00000317          	auipc	t1,0x0
    8000524e:	d1230067          	jr	-750(t1) # 80004f5c <copy_to_cooked>

0000000080005252 <chr_dev_init>:
    80005252:	8082                	ret

0000000080005254 <serial_send_interrupt>:
    80005254:	0000a797          	auipc	a5,0xa
    80005258:	b4478793          	addi	a5,a5,-1212 # 8000ed98 <table_list>
    8000525c:	6798                	ld	a4,8(a5)
    8000525e:	471c                	lw	a5,8(a4)
    80005260:	4354                	lw	a3,4(a4)
    80005262:	6b10                	ld	a2,16(a4)
    80005264:	9e9d                	subw	a3,a3,a5
    80005266:	3ff6f693          	andi	a3,a3,1023
    8000526a:	c219                	beqz	a2,80005270 <serial_send_interrupt+0x1c>
    8000526c:	00063023          	sd	zero,0(a2)
    80005270:	c28d                	beqz	a3,80005292 <serial_send_interrupt+0x3e>
    80005272:	02079693          	slli	a3,a5,0x20
    80005276:	9281                	srli	a3,a3,0x20
    80005278:	96ba                	add	a3,a3,a4
    8000527a:	0186c603          	lbu	a2,24(a3)
    8000527e:	00008697          	auipc	a3,0x8
    80005282:	f5268693          	addi	a3,a3,-174 # 8000d1d0 <uart>
    80005286:	6a94                	ld	a3,16(a3)
    80005288:	2785                	addiw	a5,a5,1
    8000528a:	3ff7f793          	andi	a5,a5,1023
    8000528e:	c290                	sw	a2,0(a3)
    80005290:	c71c                	sw	a5,8(a4)
    80005292:	8082                	ret

0000000080005294 <serial_rev_interrupt>:
    80005294:	0000a797          	auipc	a5,0xa
    80005298:	b0478793          	addi	a5,a5,-1276 # 8000ed98 <table_list>
    8000529c:	6394                	ld	a3,0(a5)
    8000529e:	3ff00613          	li	a2,1023
    800052a2:	42dc                	lw	a5,4(a3)
    800052a4:	4698                	lw	a4,8(a3)
    800052a6:	40e7873b          	subw	a4,a5,a4
    800052aa:	3ff77713          	andi	a4,a4,1023
    800052ae:	02c70063          	beq	a4,a2,800052ce <serial_rev_interrupt+0x3a>
    800052b2:	00008717          	auipc	a4,0x8
    800052b6:	f1e70713          	addi	a4,a4,-226 # 8000d1d0 <uart>
    800052ba:	6b18                	ld	a4,16(a4)
    800052bc:	4310                	lw	a2,0(a4)
    800052be:	02079713          	slli	a4,a5,0x20
    800052c2:	9301                	srli	a4,a4,0x20
    800052c4:	9736                	add	a4,a4,a3
    800052c6:	00c70c23          	sb	a2,24(a4)
    800052ca:	2785                	addiw	a5,a5,1
    800052cc:	c2dc                	sw	a5,4(a3)
    800052ce:	4501                	li	a0,0
    800052d0:	00000317          	auipc	t1,0x0
    800052d4:	f6630067          	jr	-154(t1) # 80005236 <do_tty_interrupt>

00000000800052d8 <rs_init>:
    800052d8:	1141                	addi	sp,sp,-16
    800052da:	471d                	li	a4,7
    800052dc:	4681                	li	a3,0
    800052de:	00000617          	auipc	a2,0x0
    800052e2:	f7660613          	addi	a2,a2,-138 # 80005254 <serial_send_interrupt>
    800052e6:	4585                	li	a1,1
    800052e8:	4509                	li	a0,2
    800052ea:	e406                	sd	ra,8(sp)
    800052ec:	ffffc097          	auipc	ra,0xffffc
    800052f0:	a40080e7          	jalr	-1472(ra) # 80000d2c <uart_irq_register>
    800052f4:	60a2                	ld	ra,8(sp)
    800052f6:	471d                	li	a4,7
    800052f8:	4681                	li	a3,0
    800052fa:	00000617          	auipc	a2,0x0
    800052fe:	f9a60613          	addi	a2,a2,-102 # 80005294 <serial_rev_interrupt>
    80005302:	4589                	li	a1,2
    80005304:	4509                	li	a0,2
    80005306:	0141                	addi	sp,sp,16
    80005308:	ffffc317          	auipc	t1,0xffffc
    8000530c:	a2430067          	jr	-1500(t1) # 80000d2c <uart_irq_register>

0000000080005310 <rs_write>:
    80005310:	45452703          	lw	a4,1108(a0)
    80005314:	45852783          	lw	a5,1112(a0)
    80005318:	02f70063          	beq	a4,a5,80005338 <rs_write+0x28>
    8000531c:	00008797          	auipc	a5,0x8
    80005320:	eb478793          	addi	a5,a5,-332 # 8000d1d0 <uart>
    80005324:	6b98                	ld	a4,16(a5)
    80005326:	4b5c                	lw	a5,20(a4)
    80005328:	0207f793          	andi	a5,a5,32
    8000532c:	ffed                	bnez	a5,80005326 <rs_write+0x16>
    8000532e:	4501                	li	a0,0
    80005330:	00000317          	auipc	t1,0x0
    80005334:	f2430067          	jr	-220(t1) # 80005254 <serial_send_interrupt>
    80005338:	8082                	ret

000000008000533a <oom>:
    8000533a:	1141                	addi	sp,sp,-16
    8000533c:	00009517          	auipc	a0,0x9
    80005340:	c0c50513          	addi	a0,a0,-1012 # 8000df48 <month+0x178>
    80005344:	e406                	sd	ra,8(sp)
    80005346:	fffff097          	auipc	ra,0xfffff
    8000534a:	45c080e7          	jalr	1116(ra) # 800047a2 <printk>
    8000534e:	60a2                	ld	ra,8(sp)
    80005350:	452d                	li	a0,11
    80005352:	0141                	addi	sp,sp,16
    80005354:	fffff317          	auipc	t1,0xfffff
    80005358:	21030067          	jr	528(t1) # 80004564 <do_exit>

000000008000535c <copy_page>:
    8000535c:	20000793          	li	a5,512
    80005360:	6118                	ld	a4,0(a0)
    80005362:	17fd                	addi	a5,a5,-1
    80005364:	e198                	sd	a4,0(a1)
    80005366:	ffed                	bnez	a5,80005360 <copy_page+0x4>
    80005368:	8082                	ret

000000008000536a <get_free_page>:
    8000536a:	6785                	lui	a5,0x1
    8000536c:	f0078793          	addi	a5,a5,-256 # f00 <_stack_size-0x7100>
    80005370:	0000a697          	auipc	a3,0xa
    80005374:	6b868693          	addi	a3,a3,1720 # 8000fa28 <mem_map>
    80005378:	17fd                	addi	a5,a5,-1
    8000537a:	e399                	bnez	a5,80005380 <get_free_page+0x16>
    8000537c:	853e                	mv	a0,a5
    8000537e:	8082                	ret
    80005380:	00d78733          	add	a4,a5,a3
    80005384:	00074603          	lbu	a2,0(a4)
    80005388:	fa65                	bnez	a2,80005378 <get_free_page+0xe>
    8000538a:	1141                	addi	sp,sp,-16
    8000538c:	e406                	sd	ra,8(sp)
    8000538e:	4685                	li	a3,1
    80005390:	00d70023          	sb	a3,0(a4)
    80005394:	00801737          	lui	a4,0x801
    80005398:	0722                	slli	a4,a4,0x8
    8000539a:	07b2                	slli	a5,a5,0xc
    8000539c:	97ba                	add	a5,a5,a4
    8000539e:	6605                	lui	a2,0x1
    800053a0:	4581                	li	a1,0
    800053a2:	853e                	mv	a0,a5
    800053a4:	00002097          	auipc	ra,0x2
    800053a8:	36c080e7          	jalr	876(ra) # 80007710 <memset>
    800053ac:	60a2                	ld	ra,8(sp)
    800053ae:	0141                	addi	sp,sp,16
    800053b0:	8082                	ret

00000000800053b2 <get_free_pages>:
    800053b2:	6785                	lui	a5,0x1
    800053b4:	4605                	li	a2,1
    800053b6:	eff78793          	addi	a5,a5,-257 # eff <_stack_size-0x7101>
    800053ba:	fff50593          	addi	a1,a0,-1
    800053be:	8e09                	sub	a2,a2,a0
    800053c0:	0000a817          	auipc	a6,0xa
    800053c4:	66880813          	addi	a6,a6,1640 # 8000fa28 <mem_map>
    800053c8:	00f5ee63          	bltu	a1,a5,800053e4 <get_free_pages+0x32>
    800053cc:	4781                	li	a5,0
    800053ce:	853e                	mv	a0,a5
    800053d0:	8082                	ret
    800053d2:	010688b3          	add	a7,a3,a6
    800053d6:	0008c883          	lbu	a7,0(a7)
    800053da:	16fd                	addi	a3,a3,-1
    800053dc:	00088763          	beqz	a7,800053ea <get_free_pages+0x38>
    800053e0:	87b6                	mv	a5,a3
    800053e2:	b7dd                	j	800053c8 <get_free_pages+0x16>
    800053e4:	86be                	mv	a3,a5
    800053e6:	00f60733          	add	a4,a2,a5
    800053ea:	fee6f4e3          	bleu	a4,a3,800053d2 <get_free_pages+0x20>
    800053ee:	1141                	addi	sp,sp,-16
    800053f0:	e406                	sd	ra,8(sp)
    800053f2:	0000a697          	auipc	a3,0xa
    800053f6:	63668693          	addi	a3,a3,1590 # 8000fa28 <mem_map>
    800053fa:	4605                	li	a2,1
    800053fc:	02e7f263          	bleu	a4,a5,80005420 <get_free_pages+0x6e>
    80005400:	008017b7          	lui	a5,0x801
    80005404:	0732                	slli	a4,a4,0xc
    80005406:	07a2                	slli	a5,a5,0x8
    80005408:	97ba                	add	a5,a5,a4
    8000540a:	00c51613          	slli	a2,a0,0xc
    8000540e:	4581                	li	a1,0
    80005410:	853e                	mv	a0,a5
    80005412:	00002097          	auipc	ra,0x2
    80005416:	2fe080e7          	jalr	766(ra) # 80007710 <memset>
    8000541a:	60a2                	ld	ra,8(sp)
    8000541c:	0141                	addi	sp,sp,16
    8000541e:	8082                	ret
    80005420:	00d785b3          	add	a1,a5,a3
    80005424:	00c58023          	sb	a2,0(a1)
    80005428:	17fd                	addi	a5,a5,-1
    8000542a:	bfc9                	j	800053fc <get_free_pages+0x4a>

000000008000542c <free_page>:
    8000542c:	008017b7          	lui	a5,0x801
    80005430:	07a2                	slli	a5,a5,0x8
    80005432:	06f56463          	bltu	a0,a5,8000549a <free_page+0x6e>
    80005436:	0000c797          	auipc	a5,0xc
    8000543a:	65a78793          	addi	a5,a5,1626 # 80011a90 <HIGH_MEMORY>
    8000543e:	639c                	ld	a5,0(a5)
    80005440:	1141                	addi	sp,sp,-16
    80005442:	e022                	sd	s0,0(sp)
    80005444:	e406                	sd	ra,8(sp)
    80005446:	842a                	mv	s0,a0
    80005448:	00f56a63          	bltu	a0,a5,8000545c <free_page+0x30>
    8000544c:	00009517          	auipc	a0,0x9
    80005450:	a6450513          	addi	a0,a0,-1436 # 8000deb0 <month+0xe0>
    80005454:	fffff097          	auipc	ra,0xfffff
    80005458:	372080e7          	jalr	882(ra) # 800047c6 <panic>
    8000545c:	ff7ff537          	lui	a0,0xff7ff
    80005460:	0522                	slli	a0,a0,0x8
    80005462:	942a                	add	s0,s0,a0
    80005464:	0000a797          	auipc	a5,0xa
    80005468:	5c478793          	addi	a5,a5,1476 # 8000fa28 <mem_map>
    8000546c:	8031                	srli	s0,s0,0xc
    8000546e:	943e                	add	s0,s0,a5
    80005470:	00044783          	lbu	a5,0(s0)
    80005474:	cb81                	beqz	a5,80005484 <free_page+0x58>
    80005476:	37fd                	addiw	a5,a5,-1
    80005478:	00f40023          	sb	a5,0(s0)
    8000547c:	60a2                	ld	ra,8(sp)
    8000547e:	6402                	ld	s0,0(sp)
    80005480:	0141                	addi	sp,sp,16
    80005482:	8082                	ret
    80005484:	6402                	ld	s0,0(sp)
    80005486:	60a2                	ld	ra,8(sp)
    80005488:	00009517          	auipc	a0,0x9
    8000548c:	a4850513          	addi	a0,a0,-1464 # 8000ded0 <month+0x100>
    80005490:	0141                	addi	sp,sp,16
    80005492:	fffff317          	auipc	t1,0xfffff
    80005496:	33430067          	jr	820(t1) # 800047c6 <panic>
    8000549a:	8082                	ret

000000008000549c <free_pages>:
    8000549c:	7179                	addi	sp,sp,-48
    8000549e:	f022                	sd	s0,32(sp)
    800054a0:	ec26                	sd	s1,24(sp)
    800054a2:	f406                	sd	ra,40(sp)
    800054a4:	84aa                	mv	s1,a0
    800054a6:	4401                	li	s0,0
    800054a8:	00c41513          	slli	a0,s0,0xc
    800054ac:	9526                	add	a0,a0,s1
    800054ae:	00b41763          	bne	s0,a1,800054bc <free_pages+0x20>
    800054b2:	70a2                	ld	ra,40(sp)
    800054b4:	7402                	ld	s0,32(sp)
    800054b6:	64e2                	ld	s1,24(sp)
    800054b8:	6145                	addi	sp,sp,48
    800054ba:	8082                	ret
    800054bc:	e42e                	sd	a1,8(sp)
    800054be:	00000097          	auipc	ra,0x0
    800054c2:	f6e080e7          	jalr	-146(ra) # 8000542c <free_page>
    800054c6:	0405                	addi	s0,s0,1
    800054c8:	65a2                	ld	a1,8(sp)
    800054ca:	bff9                	j	800054a8 <free_pages+0xc>

00000000800054cc <free_page_tables>:
    800054cc:	7179                	addi	sp,sp,-48
    800054ce:	f022                	sd	s0,32(sp)
    800054d0:	ec26                	sd	s1,24(sp)
    800054d2:	02b51793          	slli	a5,a0,0x2b
    800054d6:	f406                	sd	ra,40(sp)
    800054d8:	e84a                	sd	s2,16(sp)
    800054da:	e44e                	sd	s3,8(sp)
    800054dc:	e052                	sd	s4,0(sp)
    800054de:	842a                	mv	s0,a0
    800054e0:	84ae                	mv	s1,a1
    800054e2:	00009517          	auipc	a0,0x9
    800054e6:	a0e50513          	addi	a0,a0,-1522 # 8000def0 <month+0x120>
    800054ea:	e791                	bnez	a5,800054f6 <free_page_tables+0x2a>
    800054ec:	e809                	bnez	s0,800054fe <free_page_tables+0x32>
    800054ee:	00009517          	auipc	a0,0x9
    800054f2:	a3250513          	addi	a0,a0,-1486 # 8000df20 <month+0x150>
    800054f6:	fffff097          	auipc	ra,0xfffff
    800054fa:	2d0080e7          	jalr	720(ra) # 800047c6 <panic>
    800054fe:	8055                	srli	s0,s0,0x15
    80005500:	1ff47413          	andi	s0,s0,511
    80005504:	002005b7          	lui	a1,0x200
    80005508:	0000d717          	auipc	a4,0xd
    8000550c:	af870713          	addi	a4,a4,-1288 # 80012000 <page_dir_table>
    80005510:	00341793          	slli	a5,s0,0x3
    80005514:	15fd                	addi	a1,a1,-1
    80005516:	6300                	ld	s0,0(a4)
    80005518:	94ae                	add	s1,s1,a1
    8000551a:	80d5                	srli	s1,s1,0x15
    8000551c:	943e                	add	s0,s0,a5
    8000551e:	048e                	slli	s1,s1,0x3
    80005520:	94a2                	add	s1,s1,s0
    80005522:	6985                	lui	s3,0x1
    80005524:	00941e63          	bne	s0,s1,80005540 <free_page_tables+0x74>
    80005528:	ffffd097          	auipc	ra,0xffffd
    8000552c:	f9a080e7          	jalr	-102(ra) # 800024c2 <pte_refresh_tlb>
    80005530:	70a2                	ld	ra,40(sp)
    80005532:	7402                	ld	s0,32(sp)
    80005534:	64e2                	ld	s1,24(sp)
    80005536:	6942                	ld	s2,16(sp)
    80005538:	69a2                	ld	s3,8(sp)
    8000553a:	6a02                	ld	s4,0(sp)
    8000553c:	6145                	addi	sp,sp,48
    8000553e:	8082                	ret
    80005540:	401c                	lw	a5,0(s0)
    80005542:	8b85                	andi	a5,a5,1
    80005544:	cfb1                	beqz	a5,800055a0 <free_page_tables+0xd4>
    80005546:	8522                	mv	a0,s0
    80005548:	ffffd097          	auipc	ra,0xffffd
    8000554c:	ee4080e7          	jalr	-284(ra) # 8000242c <pte_common_ppn_to_addr>
    80005550:	892a                	mv	s2,a0
    80005552:	01350a33          	add	s4,a0,s3
    80005556:	00092783          	lw	a5,0(s2)
    8000555a:	8b85                	andi	a5,a5,1
    8000555c:	cb91                	beqz	a5,80005570 <free_page_tables+0xa4>
    8000555e:	854a                	mv	a0,s2
    80005560:	ffffd097          	auipc	ra,0xffffd
    80005564:	ecc080e7          	jalr	-308(ra) # 8000242c <pte_common_ppn_to_addr>
    80005568:	00000097          	auipc	ra,0x0
    8000556c:	ec4080e7          	jalr	-316(ra) # 8000542c <free_page>
    80005570:	854a                	mv	a0,s2
    80005572:	4585                	li	a1,1
    80005574:	0921                	addi	s2,s2,8
    80005576:	ffffd097          	auipc	ra,0xffffd
    8000557a:	e52080e7          	jalr	-430(ra) # 800023c8 <pte_common_init>
    8000557e:	fd491ce3          	bne	s2,s4,80005556 <free_page_tables+0x8a>
    80005582:	8522                	mv	a0,s0
    80005584:	ffffd097          	auipc	ra,0xffffd
    80005588:	ea8080e7          	jalr	-344(ra) # 8000242c <pte_common_ppn_to_addr>
    8000558c:	00000097          	auipc	ra,0x0
    80005590:	ea0080e7          	jalr	-352(ra) # 8000542c <free_page>
    80005594:	4585                	li	a1,1
    80005596:	8522                	mv	a0,s0
    80005598:	ffffd097          	auipc	ra,0xffffd
    8000559c:	e30080e7          	jalr	-464(ra) # 800023c8 <pte_common_init>
    800055a0:	0421                	addi	s0,s0,8
    800055a2:	b749                	j	80005524 <free_page_tables+0x58>

00000000800055a4 <copy_page_tables>:
    800055a4:	7119                	addi	sp,sp,-128
    800055a6:	00b567b3          	or	a5,a0,a1
    800055aa:	f8a2                	sd	s0,112(sp)
    800055ac:	f0ca                	sd	s2,96(sp)
    800055ae:	fc86                	sd	ra,120(sp)
    800055b0:	f4a6                	sd	s1,104(sp)
    800055b2:	ecce                	sd	s3,88(sp)
    800055b4:	e8d2                	sd	s4,80(sp)
    800055b6:	e4d6                	sd	s5,72(sp)
    800055b8:	e0da                	sd	s6,64(sp)
    800055ba:	fc5e                	sd	s7,56(sp)
    800055bc:	f862                	sd	s8,48(sp)
    800055be:	f466                	sd	s9,40(sp)
    800055c0:	f06a                	sd	s10,32(sp)
    800055c2:	ec6e                	sd	s11,24(sp)
    800055c4:	02b79713          	slli	a4,a5,0x2b
    800055c8:	842a                	mv	s0,a0
    800055ca:	8932                	mv	s2,a2
    800055cc:	cb19                	beqz	a4,800055e2 <copy_page_tables+0x3e>
    800055ce:	00009517          	auipc	a0,0x9
    800055d2:	89250513          	addi	a0,a0,-1902 # 8000de60 <month+0x90>
    800055d6:	e42e                	sd	a1,8(sp)
    800055d8:	fffff097          	auipc	ra,0xfffff
    800055dc:	1ee080e7          	jalr	494(ra) # 800047c6 <panic>
    800055e0:	65a2                	ld	a1,8(sp)
    800055e2:	0000d797          	auipc	a5,0xd
    800055e6:	a1e78793          	addi	a5,a5,-1506 # 80012000 <page_dir_table>
    800055ea:	00200637          	lui	a2,0x200
    800055ee:	0007ba03          	ld	s4,0(a5)
    800055f2:	8055                	srli	s0,s0,0x15
    800055f4:	81d5                	srli	a1,a1,0x15
    800055f6:	167d                	addi	a2,a2,-1
    800055f8:	1ff47413          	andi	s0,s0,511
    800055fc:	1ff5f593          	andi	a1,a1,511
    80005600:	9932                	add	s2,s2,a2
    80005602:	040e                	slli	s0,s0,0x3
    80005604:	058e                	slli	a1,a1,0x3
    80005606:	01595913          	srli	s2,s2,0x15
    8000560a:	00801ab7          	lui	s5,0x801
    8000560e:	9452                	add	s0,s0,s4
    80005610:	090e                	slli	s2,s2,0x3
    80005612:	9a2e                	add	s4,s4,a1
    80005614:	4981                	li	s3,0
    80005616:	5bfd                	li	s7,-1
    80005618:	0aa2                	slli	s5,s5,0x8
    8000561a:	0000ac17          	auipc	s8,0xa
    8000561e:	40ec0c13          	addi	s8,s8,1038 # 8000fa28 <mem_map>
    80005622:	013a04b3          	add	s1,s4,s3
    80005626:	01340cb3          	add	s9,s0,s3
    8000562a:	03391663          	bne	s2,s3,80005656 <copy_page_tables+0xb2>
    8000562e:	ffffd097          	auipc	ra,0xffffd
    80005632:	e94080e7          	jalr	-364(ra) # 800024c2 <pte_refresh_tlb>
    80005636:	4501                	li	a0,0
    80005638:	70e6                	ld	ra,120(sp)
    8000563a:	7446                	ld	s0,112(sp)
    8000563c:	74a6                	ld	s1,104(sp)
    8000563e:	7906                	ld	s2,96(sp)
    80005640:	69e6                	ld	s3,88(sp)
    80005642:	6a46                	ld	s4,80(sp)
    80005644:	6aa6                	ld	s5,72(sp)
    80005646:	6b06                	ld	s6,64(sp)
    80005648:	7be2                	ld	s7,56(sp)
    8000564a:	7c42                	ld	s8,48(sp)
    8000564c:	7ca2                	ld	s9,40(sp)
    8000564e:	7d02                	ld	s10,32(sp)
    80005650:	6de2                	ld	s11,24(sp)
    80005652:	6109                	addi	sp,sp,128
    80005654:	8082                	ret
    80005656:	409c                	lw	a5,0(s1)
    80005658:	8b85                	andi	a5,a5,1
    8000565a:	cb89                	beqz	a5,8000566c <copy_page_tables+0xc8>
    8000565c:	00009517          	auipc	a0,0x9
    80005660:	83450513          	addi	a0,a0,-1996 # 8000de90 <month+0xc0>
    80005664:	fffff097          	auipc	ra,0xfffff
    80005668:	162080e7          	jalr	354(ra) # 800047c6 <panic>
    8000566c:	000ca783          	lw	a5,0(s9) # 2000 <_stack_size-0x6000>
    80005670:	8b85                	andi	a5,a5,1
    80005672:	e399                	bnez	a5,80005678 <copy_page_tables+0xd4>
    80005674:	09a1                	addi	s3,s3,8
    80005676:	b775                	j	80005622 <copy_page_tables+0x7e>
    80005678:	8566                	mv	a0,s9
    8000567a:	ffffd097          	auipc	ra,0xffffd
    8000567e:	db2080e7          	jalr	-590(ra) # 8000242c <pte_common_ppn_to_addr>
    80005682:	8caa                	mv	s9,a0
    80005684:	00000097          	auipc	ra,0x0
    80005688:	ce6080e7          	jalr	-794(ra) # 8000536a <get_free_page>
    8000568c:	8b2a                	mv	s6,a0
    8000568e:	c151                	beqz	a0,80005712 <copy_page_tables+0x16e>
    80005690:	85aa                	mv	a1,a0
    80005692:	8526                	mv	a0,s1
    80005694:	ffffd097          	auipc	ra,0xffffd
    80005698:	d78080e7          	jalr	-648(ra) # 8000240c <pte_common_addr_to_ppn>
    8000569c:	4581                	li	a1,0
    8000569e:	8526                	mv	a0,s1
    800056a0:	ffffd097          	auipc	ra,0xffffd
    800056a4:	d36080e7          	jalr	-714(ra) # 800023d6 <pte_common_set_accessibility>
    800056a8:	8526                	mv	a0,s1
    800056aa:	ffffd097          	auipc	ra,0xffffd
    800056ae:	d9a080e7          	jalr	-614(ra) # 80002444 <pte_common_enable_entry>
    800056b2:	4d81                	li	s11,0
    800056b4:	003d9493          	slli	s1,s11,0x3
    800056b8:	009c8d33          	add	s10,s9,s1
    800056bc:	94da                	add	s1,s1,s6
    800056be:	fb7d8be3          	beq	s11,s7,80005674 <copy_page_tables+0xd0>
    800056c2:	000d2703          	lw	a4,0(s10)
    800056c6:	8b05                	andi	a4,a4,1
    800056c8:	c339                	beqz	a4,8000570e <copy_page_tables+0x16a>
    800056ca:	000d2703          	lw	a4,0(s10)
    800056ce:	8526                	mv	a0,s1
    800056d0:	4595                	li	a1,5
    800056d2:	c098                	sw	a4,0(s1)
    800056d4:	004d2703          	lw	a4,4(s10)
    800056d8:	c0d8                	sw	a4,4(s1)
    800056da:	ffffd097          	auipc	ra,0xffffd
    800056de:	cfc080e7          	jalr	-772(ra) # 800023d6 <pte_common_set_accessibility>
    800056e2:	8526                	mv	a0,s1
    800056e4:	ffffd097          	auipc	ra,0xffffd
    800056e8:	d48080e7          	jalr	-696(ra) # 8000242c <pte_common_ppn_to_addr>
    800056ec:	02aaf163          	bleu	a0,s5,8000570e <copy_page_tables+0x16a>
    800056f0:	4098                	lw	a4,0(s1)
    800056f2:	41550533          	sub	a0,a0,s5
    800056f6:	8131                	srli	a0,a0,0xc
    800056f8:	00ed2023          	sw	a4,0(s10)
    800056fc:	40d8                	lw	a4,4(s1)
    800056fe:	9562                	add	a0,a0,s8
    80005700:	00ed2223          	sw	a4,4(s10)
    80005704:	00054703          	lbu	a4,0(a0)
    80005708:	2705                	addiw	a4,a4,1
    8000570a:	00e50023          	sb	a4,0(a0)
    8000570e:	0d85                	addi	s11,s11,1
    80005710:	b755                	j	800056b4 <copy_page_tables+0x110>
    80005712:	557d                	li	a0,-1
    80005714:	b715                	j	80005638 <copy_page_tables+0x94>

0000000080005716 <un_wp_page>:
    80005716:	1101                	addi	sp,sp,-32
    80005718:	e822                	sd	s0,16(sp)
    8000571a:	e426                	sd	s1,8(sp)
    8000571c:	ec06                	sd	ra,24(sp)
    8000571e:	e04a                	sd	s2,0(sp)
    80005720:	84aa                	mv	s1,a0
    80005722:	ffffd097          	auipc	ra,0xffffd
    80005726:	d0a080e7          	jalr	-758(ra) # 8000242c <pte_common_ppn_to_addr>
    8000572a:	008017b7          	lui	a5,0x801
    8000572e:	07a2                	slli	a5,a5,0x8
    80005730:	842a                	mv	s0,a0
    80005732:	02f56d63          	bltu	a0,a5,8000576c <un_wp_page+0x56>
    80005736:	40f507b3          	sub	a5,a0,a5
    8000573a:	0000a717          	auipc	a4,0xa
    8000573e:	2ee70713          	addi	a4,a4,750 # 8000fa28 <mem_map>
    80005742:	83b1                	srli	a5,a5,0xc
    80005744:	97ba                	add	a5,a5,a4
    80005746:	0007c703          	lbu	a4,0(a5) # 801000 <_stack_size+0x7f9000>
    8000574a:	4785                	li	a5,1
    8000574c:	02f71063          	bne	a4,a5,8000576c <un_wp_page+0x56>
    80005750:	8526                	mv	a0,s1
    80005752:	ffffd097          	auipc	ra,0xffffd
    80005756:	d2e080e7          	jalr	-722(ra) # 80002480 <pte_common_set_writeable>
    8000575a:	6442                	ld	s0,16(sp)
    8000575c:	60e2                	ld	ra,24(sp)
    8000575e:	64a2                	ld	s1,8(sp)
    80005760:	6902                	ld	s2,0(sp)
    80005762:	6105                	addi	sp,sp,32
    80005764:	ffffd317          	auipc	t1,0xffffd
    80005768:	d5e30067          	jr	-674(t1) # 800024c2 <pte_refresh_tlb>
    8000576c:	00000097          	auipc	ra,0x0
    80005770:	bfe080e7          	jalr	-1026(ra) # 8000536a <get_free_page>
    80005774:	892a                	mv	s2,a0
    80005776:	e509                	bnez	a0,80005780 <un_wp_page+0x6a>
    80005778:	00000097          	auipc	ra,0x0
    8000577c:	bc2080e7          	jalr	-1086(ra) # 8000533a <oom>
    80005780:	008017b7          	lui	a5,0x801
    80005784:	07a2                	slli	a5,a5,0x8
    80005786:	00f46f63          	bltu	s0,a5,800057a4 <un_wp_page+0x8e>
    8000578a:	40f407b3          	sub	a5,s0,a5
    8000578e:	0000a717          	auipc	a4,0xa
    80005792:	29a70713          	addi	a4,a4,666 # 8000fa28 <mem_map>
    80005796:	83b1                	srli	a5,a5,0xc
    80005798:	97ba                	add	a5,a5,a4
    8000579a:	0007c703          	lbu	a4,0(a5) # 801000 <_stack_size+0x7f9000>
    8000579e:	377d                	addiw	a4,a4,-1
    800057a0:	00e78023          	sb	a4,0(a5)
    800057a4:	85ca                	mv	a1,s2
    800057a6:	8526                	mv	a0,s1
    800057a8:	ffffd097          	auipc	ra,0xffffd
    800057ac:	c64080e7          	jalr	-924(ra) # 8000240c <pte_common_addr_to_ppn>
    800057b0:	459d                	li	a1,7
    800057b2:	8526                	mv	a0,s1
    800057b4:	ffffd097          	auipc	ra,0xffffd
    800057b8:	c22080e7          	jalr	-990(ra) # 800023d6 <pte_common_set_accessibility>
    800057bc:	8526                	mv	a0,s1
    800057be:	ffffd097          	auipc	ra,0xffffd
    800057c2:	cb8080e7          	jalr	-840(ra) # 80002476 <pte_common_enable_user>
    800057c6:	8526                	mv	a0,s1
    800057c8:	ffffd097          	auipc	ra,0xffffd
    800057cc:	c7c080e7          	jalr	-900(ra) # 80002444 <pte_common_enable_entry>
    800057d0:	ffffd097          	auipc	ra,0xffffd
    800057d4:	cf2080e7          	jalr	-782(ra) # 800024c2 <pte_refresh_tlb>
    800057d8:	8522                	mv	a0,s0
    800057da:	6442                	ld	s0,16(sp)
    800057dc:	60e2                	ld	ra,24(sp)
    800057de:	64a2                	ld	s1,8(sp)
    800057e0:	85ca                	mv	a1,s2
    800057e2:	6902                	ld	s2,0(sp)
    800057e4:	6105                	addi	sp,sp,32
    800057e6:	00000317          	auipc	t1,0x0
    800057ea:	b7630067          	jr	-1162(t1) # 8000535c <copy_page>

00000000800057ee <write_verify>:
    800057ee:	1141                	addi	sp,sp,-16
    800057f0:	0000d717          	auipc	a4,0xd
    800057f4:	81070713          	addi	a4,a4,-2032 # 80012000 <page_dir_table>
    800057f8:	6318                	ld	a4,0(a4)
    800057fa:	e022                	sd	s0,0(sp)
    800057fc:	842a                	mv	s0,a0
    800057fe:	8155                	srli	a0,a0,0x15
    80005800:	1ff57513          	andi	a0,a0,511
    80005804:	050e                	slli	a0,a0,0x3
    80005806:	953a                	add	a0,a0,a4
    80005808:	4118                	lw	a4,0(a0)
    8000580a:	e406                	sd	ra,8(sp)
    8000580c:	8b05                	andi	a4,a4,1
    8000580e:	cb15                	beqz	a4,80005842 <write_verify+0x54>
    80005810:	ffffd097          	auipc	ra,0xffffd
    80005814:	c1c080e7          	jalr	-996(ra) # 8000242c <pte_common_ppn_to_addr>
    80005818:	00c45793          	srli	a5,s0,0xc
    8000581c:	1ff7f793          	andi	a5,a5,511
    80005820:	078e                	slli	a5,a5,0x3
    80005822:	953e                	add	a0,a0,a5
    80005824:	411c                	lw	a5,0(a0)
    80005826:	8b85                	andi	a5,a5,1
    80005828:	cf89                	beqz	a5,80005842 <write_verify+0x54>
    8000582a:	411c                	lw	a5,0(a0)
    8000582c:	0027d79b          	srliw	a5,a5,0x2
    80005830:	8b85                	andi	a5,a5,1
    80005832:	eb81                	bnez	a5,80005842 <write_verify+0x54>
    80005834:	6402                	ld	s0,0(sp)
    80005836:	60a2                	ld	ra,8(sp)
    80005838:	0141                	addi	sp,sp,16
    8000583a:	00000317          	auipc	t1,0x0
    8000583e:	edc30067          	jr	-292(t1) # 80005716 <un_wp_page>
    80005842:	60a2                	ld	ra,8(sp)
    80005844:	6402                	ld	s0,0(sp)
    80005846:	0141                	addi	sp,sp,16
    80005848:	8082                	ret

000000008000584a <user_addr_to_kernel>:
    8000584a:	611c                	ld	a5,0(a0)
    8000584c:	470d                	li	a4,3
    8000584e:	077a                	slli	a4,a4,0x1e
    80005850:	06e7e163          	bltu	a5,a4,800058b2 <user_addr_to_kernel+0x68>
    80005854:	1141                	addi	sp,sp,-16
    80005856:	0000c717          	auipc	a4,0xc
    8000585a:	7aa70713          	addi	a4,a4,1962 # 80012000 <page_dir_table>
    8000585e:	e022                	sd	s0,0(sp)
    80005860:	842a                	mv	s0,a0
    80005862:	6308                	ld	a0,0(a4)
    80005864:	e406                	sd	ra,8(sp)
    80005866:	e511                	bnez	a0,80005872 <user_addr_to_kernel+0x28>
    80005868:	4501                	li	a0,0
    8000586a:	60a2                	ld	ra,8(sp)
    8000586c:	6402                	ld	s0,0(sp)
    8000586e:	0141                	addi	sp,sp,16
    80005870:	8082                	ret
    80005872:	471d                	li	a4,7
    80005874:	077a                	slli	a4,a4,0x1e
    80005876:	fee7f9e3          	bleu	a4,a5,80005868 <user_addr_to_kernel+0x1e>
    8000587a:	83d5                	srli	a5,a5,0x15
    8000587c:	1ff7f793          	andi	a5,a5,511
    80005880:	078e                	slli	a5,a5,0x3
    80005882:	953e                	add	a0,a0,a5
    80005884:	411c                	lw	a5,0(a0)
    80005886:	8b85                	andi	a5,a5,1
    80005888:	d3e5                	beqz	a5,80005868 <user_addr_to_kernel+0x1e>
    8000588a:	ffffd097          	auipc	ra,0xffffd
    8000588e:	ba2080e7          	jalr	-1118(ra) # 8000242c <pte_common_ppn_to_addr>
    80005892:	601c                	ld	a5,0(s0)
    80005894:	83b1                	srli	a5,a5,0xc
    80005896:	1ff7f793          	andi	a5,a5,511
    8000589a:	078e                	slli	a5,a5,0x3
    8000589c:	953e                	add	a0,a0,a5
    8000589e:	411c                	lw	a5,0(a0)
    800058a0:	8b85                	andi	a5,a5,1
    800058a2:	d3f9                	beqz	a5,80005868 <user_addr_to_kernel+0x1e>
    800058a4:	ffffd097          	auipc	ra,0xffffd
    800058a8:	b88080e7          	jalr	-1144(ra) # 8000242c <pte_common_ppn_to_addr>
    800058ac:	e008                	sd	a0,0(s0)
    800058ae:	4505                	li	a0,1
    800058b0:	bf6d                	j	8000586a <user_addr_to_kernel+0x20>
    800058b2:	4505                	li	a0,1
    800058b4:	8082                	ret

00000000800058b6 <page_transform_addr>:
    800058b6:	0000c717          	auipc	a4,0xc
    800058ba:	1e270713          	addi	a4,a4,482 # 80011a98 <lastkerneladdr>
    800058be:	6310                	ld	a2,0(a4)
    800058c0:	0000c717          	auipc	a4,0xc
    800058c4:	1e870713          	addi	a4,a4,488 # 80011aa8 <traned>
    800058c8:	6318                	ld	a4,0(a4)
    800058ca:	1101                	addi	sp,sp,-32
    800058cc:	ec06                	sd	ra,24(sp)
    800058ce:	e42a                	sd	a0,8(sp)
    800058d0:	86aa                	mv	a3,a0
    800058d2:	611c                	ld	a5,0(a0)
    800058d4:	c719                	beqz	a4,800058e2 <page_transform_addr+0x2c>
    800058d6:	00f64733          	xor	a4,a2,a5
    800058da:	170a                	slli	a4,a4,0x22
    800058dc:	9339                	srli	a4,a4,0x2e
    800058de:	4505                	li	a0,1
    800058e0:	cf0d                	beqz	a4,8000591a <page_transform_addr+0x64>
    800058e2:	4705                	li	a4,1
    800058e4:	0000c597          	auipc	a1,0xc
    800058e8:	1ce5b223          	sd	a4,452(a1) # 80011aa8 <traned>
    800058ec:	0000c717          	auipc	a4,0xc
    800058f0:	1b470713          	addi	a4,a4,436 # 80011aa0 <lastuseraddr>
    800058f4:	6318                	ld	a4,0(a4)
    800058f6:	8f91                	sub	a5,a5,a2
    800058f8:	0028                	addi	a0,sp,8
    800058fa:	97ba                	add	a5,a5,a4
    800058fc:	e29c                	sd	a5,0(a3)
    800058fe:	0000c717          	auipc	a4,0xc
    80005902:	1af73123          	sd	a5,418(a4) # 80011aa0 <lastuseraddr>
    80005906:	00000097          	auipc	ra,0x0
    8000590a:	f44080e7          	jalr	-188(ra) # 8000584a <user_addr_to_kernel>
    8000590e:	67a2                	ld	a5,8(sp)
    80005910:	639c                	ld	a5,0(a5)
    80005912:	0000c717          	auipc	a4,0xc
    80005916:	18f73323          	sd	a5,390(a4) # 80011a98 <lastkerneladdr>
    8000591a:	60e2                	ld	ra,24(sp)
    8000591c:	6105                	addi	sp,sp,32
    8000591e:	8082                	ret

0000000080005920 <page_transform_ptr>:
    80005920:	00000317          	auipc	t1,0x0
    80005924:	f9630067          	jr	-106(t1) # 800058b6 <page_transform_addr>

0000000080005928 <mem_copy_from_kernel>:
    80005928:	7139                	addi	sp,sp,-64
    8000592a:	f822                	sd	s0,48(sp)
    8000592c:	f426                	sd	s1,40(sp)
    8000592e:	fc06                	sd	ra,56(sp)
    80005930:	84aa                	mv	s1,a0
    80005932:	ec2e                	sd	a1,24(sp)
    80005934:	0000c797          	auipc	a5,0xc
    80005938:	1607ba23          	sd	zero,372(a5) # 80011aa8 <traned>
    8000593c:	547d                	li	s0,-1
    8000593e:	167d                	addi	a2,a2,-1
    80005940:	00861763          	bne	a2,s0,8000594e <mem_copy_from_kernel+0x26>
    80005944:	70e2                	ld	ra,56(sp)
    80005946:	7442                	ld	s0,48(sp)
    80005948:	74a2                	ld	s1,40(sp)
    8000594a:	6121                	addi	sp,sp,64
    8000594c:	8082                	ret
    8000594e:	0828                	addi	a0,sp,24
    80005950:	e432                	sd	a2,8(sp)
    80005952:	00000097          	auipc	ra,0x0
    80005956:	fce080e7          	jalr	-50(ra) # 80005920 <page_transform_ptr>
    8000595a:	0004c703          	lbu	a4,0(s1)
    8000595e:	67e2                	ld	a5,24(sp)
    80005960:	6622                	ld	a2,8(sp)
    80005962:	00e78023          	sb	a4,0(a5)
    80005966:	bfe1                	j	8000593e <mem_copy_from_kernel+0x16>

0000000080005968 <mem_copy_to_kernel>:
    80005968:	7179                	addi	sp,sp,-48
    8000596a:	f022                	sd	s0,32(sp)
    8000596c:	f406                	sd	ra,40(sp)
    8000596e:	ec2a                	sd	a0,24(sp)
    80005970:	0000c797          	auipc	a5,0xc
    80005974:	1207bc23          	sd	zero,312(a5) # 80011aa8 <traned>
    80005978:	547d                	li	s0,-1
    8000597a:	167d                	addi	a2,a2,-1
    8000597c:	00861663          	bne	a2,s0,80005988 <mem_copy_to_kernel+0x20>
    80005980:	70a2                	ld	ra,40(sp)
    80005982:	7402                	ld	s0,32(sp)
    80005984:	6145                	addi	sp,sp,48
    80005986:	8082                	ret
    80005988:	0828                	addi	a0,sp,24
    8000598a:	e432                	sd	a2,8(sp)
    8000598c:	e02e                	sd	a1,0(sp)
    8000598e:	00000097          	auipc	ra,0x0
    80005992:	f92080e7          	jalr	-110(ra) # 80005920 <page_transform_ptr>
    80005996:	67e2                	ld	a5,24(sp)
    80005998:	6582                	ld	a1,0(sp)
    8000599a:	6622                	ld	a2,8(sp)
    8000599c:	0007c783          	lbu	a5,0(a5)
    800059a0:	00f58023          	sb	a5,0(a1)
    800059a4:	bfd9                	j	8000597a <mem_copy_to_kernel+0x12>

00000000800059a6 <user_ptr_to_kernel>:
    800059a6:	00000317          	auipc	t1,0x0
    800059aa:	ea430067          	jr	-348(t1) # 8000584a <user_addr_to_kernel>

00000000800059ae <mem_init>:
    800059ae:	0000c797          	auipc	a5,0xc
    800059b2:	0eb7b123          	sd	a1,226(a5) # 80011a90 <HIGH_MEMORY>
    800059b6:	0000a697          	auipc	a3,0xa
    800059ba:	07268693          	addi	a3,a3,114 # 8000fa28 <mem_map>
    800059be:	6705                	lui	a4,0x1
    800059c0:	4781                	li	a5,0
    800059c2:	06400893          	li	a7,100
    800059c6:	f0070713          	addi	a4,a4,-256 # f00 <_stack_size-0x7100>
    800059ca:	8636                	mv	a2,a3
    800059cc:	00d78833          	add	a6,a5,a3
    800059d0:	01180023          	sb	a7,0(a6)
    800059d4:	0785                	addi	a5,a5,1
    800059d6:	fee79be3          	bne	a5,a4,800059cc <mem_init+0x1e>
    800059da:	ff7ff7b7          	lui	a5,0xff7ff
    800059de:	07a2                	slli	a5,a5,0x8
    800059e0:	8d89                	sub	a1,a1,a0
    800059e2:	953e                	add	a0,a0,a5
    800059e4:	8131                	srli	a0,a0,0xc
    800059e6:	81b1                	srli	a1,a1,0xc
    800059e8:	2501                	sext.w	a0,a0
    800059ea:	57fd                	li	a5,-1
    800059ec:	15fd                	addi	a1,a1,-1
    800059ee:	00f59363          	bne	a1,a5,800059f4 <mem_init+0x46>
    800059f2:	8082                	ret
    800059f4:	00a60733          	add	a4,a2,a0
    800059f8:	00070023          	sb	zero,0(a4)
    800059fc:	0505                	addi	a0,a0,1
    800059fe:	b7fd                	j	800059ec <mem_init+0x3e>

0000000080005a00 <ceil>:
    80005a00:	7139                	addi	sp,sp,-64
    80005a02:	42055793          	srai	a5,a0,0x20
    80005a06:	f822                	sd	s0,48(sp)
    80005a08:	0007841b          	sext.w	s0,a5
    80005a0c:	f04a                	sd	s2,32(sp)
    80005a0e:	4144591b          	sraiw	s2,s0,0x14
    80005a12:	7ff97913          	andi	s2,s2,2047
    80005a16:	f426                	sd	s1,40(sp)
    80005a18:	ec4e                	sd	s3,24(sp)
    80005a1a:	e852                	sd	s4,16(sp)
    80005a1c:	fc06                	sd	ra,56(sp)
    80005a1e:	00050a1b          	sext.w	s4,a0
    80005a22:	e456                	sd	s5,8(sp)
    80005a24:	c019099b          	addiw	s3,s2,-1023
    80005a28:	474d                	li	a4,19
    80005a2a:	85aa                	mv	a1,a0
    80005a2c:	000a049b          	sext.w	s1,s4
    80005a30:	09374c63          	blt	a4,s3,80005ac8 <ceil+0xc8>
    80005a34:	0409d063          	bgez	s3,80005a74 <ceil+0x74>
    80005a38:	00008797          	auipc	a5,0x8
    80005a3c:	52078793          	addi	a5,a5,1312 # 8000df58 <month+0x188>
    80005a40:	638c                	ld	a1,0(a5)
    80005a42:	00000097          	auipc	ra,0x0
    80005a46:	412080e7          	jalr	1042(ra) # 80005e54 <__adddf3>
    80005a4a:	00000593          	li	a1,0
    80005a4e:	00001097          	auipc	ra,0x1
    80005a52:	d42080e7          	jalr	-702(ra) # 80006790 <__gedf2>
    80005a56:	00a05963          	blez	a0,80005a68 <ceil+0x68>
    80005a5a:	0e044f63          	bltz	s0,80005b58 <ceil+0x158>
    80005a5e:	8c45                	or	s0,s0,s1
    80005a60:	4481                	li	s1,0
    80005a62:	c019                	beqz	s0,80005a68 <ceil+0x68>
    80005a64:	3ff00437          	lui	s0,0x3ff00
    80005a68:	1482                	slli	s1,s1,0x20
    80005a6a:	9081                	srli	s1,s1,0x20
    80005a6c:	1402                	slli	s0,s0,0x20
    80005a6e:	009465b3          	or	a1,s0,s1
    80005a72:	a885                	j	80005ae2 <ceil+0xe2>
    80005a74:	00100ab7          	lui	s5,0x100
    80005a78:	fffa891b          	addiw	s2,s5,-1
    80005a7c:	4139593b          	sraw	s2,s2,s3
    80005a80:	0127f7b3          	and	a5,a5,s2
    80005a84:	0147e7b3          	or	a5,a5,s4
    80005a88:	2781                	sext.w	a5,a5
    80005a8a:	cfa1                	beqz	a5,80005ae2 <ceil+0xe2>
    80005a8c:	00008797          	auipc	a5,0x8
    80005a90:	4cc78793          	addi	a5,a5,1228 # 8000df58 <month+0x188>
    80005a94:	638c                	ld	a1,0(a5)
    80005a96:	00000097          	auipc	ra,0x0
    80005a9a:	3be080e7          	jalr	958(ra) # 80005e54 <__adddf3>
    80005a9e:	00000593          	li	a1,0
    80005aa2:	00001097          	auipc	ra,0x1
    80005aa6:	cee080e7          	jalr	-786(ra) # 80006790 <__gedf2>
    80005aaa:	faa05fe3          	blez	a0,80005a68 <ceil+0x68>
    80005aae:	00805663          	blez	s0,80005aba <ceil+0xba>
    80005ab2:	413ad9bb          	sraw	s3,s5,s3
    80005ab6:	0089843b          	addw	s0,s3,s0
    80005aba:	fff94913          	not	s2,s2
    80005abe:	00897433          	and	s0,s2,s0
    80005ac2:	2401                	sext.w	s0,s0
    80005ac4:	4481                	li	s1,0
    80005ac6:	b74d                	j	80005a68 <ceil+0x68>
    80005ac8:	03300793          	li	a5,51
    80005acc:	0337d563          	ble	s3,a5,80005af6 <ceil+0xf6>
    80005ad0:	40000793          	li	a5,1024
    80005ad4:	00f99763          	bne	s3,a5,80005ae2 <ceil+0xe2>
    80005ad8:	00000097          	auipc	ra,0x0
    80005adc:	37c080e7          	jalr	892(ra) # 80005e54 <__adddf3>
    80005ae0:	85aa                	mv	a1,a0
    80005ae2:	70e2                	ld	ra,56(sp)
    80005ae4:	7442                	ld	s0,48(sp)
    80005ae6:	74a2                	ld	s1,40(sp)
    80005ae8:	7902                	ld	s2,32(sp)
    80005aea:	69e2                	ld	s3,24(sp)
    80005aec:	6a42                	ld	s4,16(sp)
    80005aee:	6aa2                	ld	s5,8(sp)
    80005af0:	852e                	mv	a0,a1
    80005af2:	6121                	addi	sp,sp,64
    80005af4:	8082                	ret
    80005af6:	bed9079b          	addiw	a5,s2,-1043
    80005afa:	597d                	li	s2,-1
    80005afc:	00f9593b          	srlw	s2,s2,a5
    80005b00:	012a76b3          	and	a3,s4,s2
    80005b04:	2681                	sext.w	a3,a3
    80005b06:	def1                	beqz	a3,80005ae2 <ceil+0xe2>
    80005b08:	00008797          	auipc	a5,0x8
    80005b0c:	45078793          	addi	a5,a5,1104 # 8000df58 <month+0x188>
    80005b10:	638c                	ld	a1,0(a5)
    80005b12:	00000097          	auipc	ra,0x0
    80005b16:	342080e7          	jalr	834(ra) # 80005e54 <__adddf3>
    80005b1a:	00000593          	li	a1,0
    80005b1e:	00001097          	auipc	ra,0x1
    80005b22:	c72080e7          	jalr	-910(ra) # 80006790 <__gedf2>
    80005b26:	f4a051e3          	blez	a0,80005a68 <ceil+0x68>
    80005b2a:	02805163          	blez	s0,80005b4c <ceil+0x14c>
    80005b2e:	47d1                	li	a5,20
    80005b30:	00f99463          	bne	s3,a5,80005b38 <ceil+0x138>
    80005b34:	2405                	addiw	s0,s0,1
    80005b36:	a819                	j	80005b4c <ceil+0x14c>
    80005b38:	03400793          	li	a5,52
    80005b3c:	4137873b          	subw	a4,a5,s3
    80005b40:	4785                	li	a5,1
    80005b42:	00e797bb          	sllw	a5,a5,a4
    80005b46:	9cbd                	addw	s1,s1,a5
    80005b48:	ff44e6e3          	bltu	s1,s4,80005b34 <ceil+0x134>
    80005b4c:	fff94913          	not	s2,s2
    80005b50:	009974b3          	and	s1,s2,s1
    80005b54:	2481                	sext.w	s1,s1
    80005b56:	bf09                	j	80005a68 <ceil+0x68>
    80005b58:	4481                	li	s1,0
    80005b5a:	80000437          	lui	s0,0x80000
    80005b5e:	b729                	j	80005a68 <ceil+0x68>

0000000080005b60 <floor>:
    80005b60:	7139                	addi	sp,sp,-64
    80005b62:	42055793          	srai	a5,a0,0x20
    80005b66:	f822                	sd	s0,48(sp)
    80005b68:	0007841b          	sext.w	s0,a5
    80005b6c:	f04a                	sd	s2,32(sp)
    80005b6e:	4144591b          	sraiw	s2,s0,0x14
    80005b72:	7ff97913          	andi	s2,s2,2047
    80005b76:	f426                	sd	s1,40(sp)
    80005b78:	ec4e                	sd	s3,24(sp)
    80005b7a:	e852                	sd	s4,16(sp)
    80005b7c:	fc06                	sd	ra,56(sp)
    80005b7e:	00050a1b          	sext.w	s4,a0
    80005b82:	e456                	sd	s5,8(sp)
    80005b84:	c019099b          	addiw	s3,s2,-1023
    80005b88:	474d                	li	a4,19
    80005b8a:	85aa                	mv	a1,a0
    80005b8c:	000a049b          	sext.w	s1,s4
    80005b90:	0b374163          	blt	a4,s3,80005c32 <floor+0xd2>
    80005b94:	0409d563          	bgez	s3,80005bde <floor+0x7e>
    80005b98:	00008797          	auipc	a5,0x8
    80005b9c:	3c078793          	addi	a5,a5,960 # 8000df58 <month+0x188>
    80005ba0:	638c                	ld	a1,0(a5)
    80005ba2:	00000097          	auipc	ra,0x0
    80005ba6:	2b2080e7          	jalr	690(ra) # 80005e54 <__adddf3>
    80005baa:	00000593          	li	a1,0
    80005bae:	00001097          	auipc	ra,0x1
    80005bb2:	be2080e7          	jalr	-1054(ra) # 80006790 <__gedf2>
    80005bb6:	00a05e63          	blez	a0,80005bd2 <floor+0x72>
    80005bba:	10045463          	bgez	s0,80005cc2 <floor+0x162>
    80005bbe:	800007b7          	lui	a5,0x80000
    80005bc2:	fff7c793          	not	a5,a5
    80005bc6:	8fe1                	and	a5,a5,s0
    80005bc8:	8cdd                	or	s1,s1,a5
    80005bca:	c481                	beqz	s1,80005bd2 <floor+0x72>
    80005bcc:	4481                	li	s1,0
    80005bce:	bff00437          	lui	s0,0xbff00
    80005bd2:	1482                	slli	s1,s1,0x20
    80005bd4:	9081                	srli	s1,s1,0x20
    80005bd6:	1402                	slli	s0,s0,0x20
    80005bd8:	009465b3          	or	a1,s0,s1
    80005bdc:	a885                	j	80005c4c <floor+0xec>
    80005bde:	00100ab7          	lui	s5,0x100
    80005be2:	fffa891b          	addiw	s2,s5,-1
    80005be6:	4139593b          	sraw	s2,s2,s3
    80005bea:	0127f7b3          	and	a5,a5,s2
    80005bee:	0147e7b3          	or	a5,a5,s4
    80005bf2:	2781                	sext.w	a5,a5
    80005bf4:	cfa1                	beqz	a5,80005c4c <floor+0xec>
    80005bf6:	00008797          	auipc	a5,0x8
    80005bfa:	36278793          	addi	a5,a5,866 # 8000df58 <month+0x188>
    80005bfe:	638c                	ld	a1,0(a5)
    80005c00:	00000097          	auipc	ra,0x0
    80005c04:	254080e7          	jalr	596(ra) # 80005e54 <__adddf3>
    80005c08:	00000593          	li	a1,0
    80005c0c:	00001097          	auipc	ra,0x1
    80005c10:	b84080e7          	jalr	-1148(ra) # 80006790 <__gedf2>
    80005c14:	faa05fe3          	blez	a0,80005bd2 <floor+0x72>
    80005c18:	00045663          	bgez	s0,80005c24 <floor+0xc4>
    80005c1c:	413ad9bb          	sraw	s3,s5,s3
    80005c20:	0089843b          	addw	s0,s3,s0
    80005c24:	fff94913          	not	s2,s2
    80005c28:	00897433          	and	s0,s2,s0
    80005c2c:	2401                	sext.w	s0,s0
    80005c2e:	4481                	li	s1,0
    80005c30:	b74d                	j	80005bd2 <floor+0x72>
    80005c32:	03300793          	li	a5,51
    80005c36:	0337d563          	ble	s3,a5,80005c60 <floor+0x100>
    80005c3a:	40000793          	li	a5,1024
    80005c3e:	00f99763          	bne	s3,a5,80005c4c <floor+0xec>
    80005c42:	00000097          	auipc	ra,0x0
    80005c46:	212080e7          	jalr	530(ra) # 80005e54 <__adddf3>
    80005c4a:	85aa                	mv	a1,a0
    80005c4c:	70e2                	ld	ra,56(sp)
    80005c4e:	7442                	ld	s0,48(sp)
    80005c50:	74a2                	ld	s1,40(sp)
    80005c52:	7902                	ld	s2,32(sp)
    80005c54:	69e2                	ld	s3,24(sp)
    80005c56:	6a42                	ld	s4,16(sp)
    80005c58:	6aa2                	ld	s5,8(sp)
    80005c5a:	852e                	mv	a0,a1
    80005c5c:	6121                	addi	sp,sp,64
    80005c5e:	8082                	ret
    80005c60:	bed9079b          	addiw	a5,s2,-1043
    80005c64:	597d                	li	s2,-1
    80005c66:	00f9593b          	srlw	s2,s2,a5
    80005c6a:	012a76b3          	and	a3,s4,s2
    80005c6e:	2681                	sext.w	a3,a3
    80005c70:	def1                	beqz	a3,80005c4c <floor+0xec>
    80005c72:	00008797          	auipc	a5,0x8
    80005c76:	2e678793          	addi	a5,a5,742 # 8000df58 <month+0x188>
    80005c7a:	638c                	ld	a1,0(a5)
    80005c7c:	00000097          	auipc	ra,0x0
    80005c80:	1d8080e7          	jalr	472(ra) # 80005e54 <__adddf3>
    80005c84:	00000593          	li	a1,0
    80005c88:	00001097          	auipc	ra,0x1
    80005c8c:	b08080e7          	jalr	-1272(ra) # 80006790 <__gedf2>
    80005c90:	f4a051e3          	blez	a0,80005bd2 <floor+0x72>
    80005c94:	02045163          	bgez	s0,80005cb6 <floor+0x156>
    80005c98:	47d1                	li	a5,20
    80005c9a:	00f99463          	bne	s3,a5,80005ca2 <floor+0x142>
    80005c9e:	2405                	addiw	s0,s0,1
    80005ca0:	a819                	j	80005cb6 <floor+0x156>
    80005ca2:	03400793          	li	a5,52
    80005ca6:	4137873b          	subw	a4,a5,s3
    80005caa:	4785                	li	a5,1
    80005cac:	00e797bb          	sllw	a5,a5,a4
    80005cb0:	9cbd                	addw	s1,s1,a5
    80005cb2:	ff44e6e3          	bltu	s1,s4,80005c9e <floor+0x13e>
    80005cb6:	fff94913          	not	s2,s2
    80005cba:	009974b3          	and	s1,s2,s1
    80005cbe:	2481                	sext.w	s1,s1
    80005cc0:	bf09                	j	80005bd2 <floor+0x72>
    80005cc2:	4481                	li	s1,0
    80005cc4:	4401                	li	s0,0
    80005cc6:	b731                	j	80005bd2 <floor+0x72>

0000000080005cc8 <rint>:
    80005cc8:	42055613          	srai	a2,a0,0x20
    80005ccc:	00060e1b          	sext.w	t3,a2
    80005cd0:	414e581b          	sraiw	a6,t3,0x14
    80005cd4:	7139                	addi	sp,sp,-64
    80005cd6:	7ff87813          	andi	a6,a6,2047
    80005cda:	fc06                	sd	ra,56(sp)
    80005cdc:	f822                	sd	s0,48(sp)
    80005cde:	f426                	sd	s1,40(sp)
    80005ce0:	f04a                	sd	s2,32(sp)
    80005ce2:	ec4e                	sd	s3,24(sp)
    80005ce4:	c018031b          	addiw	t1,a6,-1023
    80005ce8:	4f4d                	li	t5,19
    80005cea:	85aa                	mv	a1,a0
    80005cec:	0005069b          	sext.w	a3,a0
    80005cf0:	01f6589b          	srliw	a7,a2,0x1f
    80005cf4:	106f4663          	blt	t5,t1,80005e00 <rint+0x138>
    80005cf8:	08035863          	bgez	t1,80005d88 <rint+0xc0>
    80005cfc:	80000937          	lui	s2,0x80000
    80005d00:	fff94913          	not	s2,s2
    80005d04:	012677b3          	and	a5,a2,s2
    80005d08:	8fd5                	or	a5,a5,a3
    80005d0a:	c7bd                	beqz	a5,80005d78 <rint+0xb0>
    80005d0c:	001007b7          	lui	a5,0x100
    80005d10:	17fd                	addi	a5,a5,-1
    80005d12:	8ff1                	and	a5,a5,a2
    80005d14:	8fd5                	or	a5,a5,a3
    80005d16:	40f005bb          	negw	a1,a5
    80005d1a:	8fcd                	or	a5,a5,a1
    80005d1c:	00008717          	auipc	a4,0x8
    80005d20:	24470713          	addi	a4,a4,580 # 8000df60 <TWO52>
    80005d24:	84c6                	mv	s1,a7
    80005d26:	000805b7          	lui	a1,0x80
    80005d2a:	00c7d79b          	srliw	a5,a5,0xc
    80005d2e:	088e                	slli	a7,a7,0x3
    80005d30:	98ba                	add	a7,a7,a4
    80005d32:	8fed                	and	a5,a5,a1
    80005d34:	7581                	lui	a1,0xfffe0
    80005d36:	00be75b3          	and	a1,t3,a1
    80005d3a:	0008b983          	ld	s3,0(a7)
    80005d3e:	547d                	li	s0,-1
    80005d40:	8fcd                	or	a5,a5,a1
    80005d42:	9001                	srli	s0,s0,0x20
    80005d44:	1782                	slli	a5,a5,0x20
    80005d46:	008575b3          	and	a1,a0,s0
    80005d4a:	8ddd                	or	a1,a1,a5
    80005d4c:	854e                	mv	a0,s3
    80005d4e:	00000097          	auipc	ra,0x0
    80005d52:	106080e7          	jalr	262(ra) # 80005e54 <__adddf3>
    80005d56:	e42a                	sd	a0,8(sp)
    80005d58:	6522                	ld	a0,8(sp)
    80005d5a:	85ce                	mv	a1,s3
    80005d5c:	01f4949b          	slliw	s1,s1,0x1f
    80005d60:	00001097          	auipc	ra,0x1
    80005d64:	ebc080e7          	jalr	-324(ra) # 80006c1c <__subdf3>
    80005d68:	02055593          	srli	a1,a0,0x20
    80005d6c:	0125f5b3          	and	a1,a1,s2
    80005d70:	8dc5                	or	a1,a1,s1
    80005d72:	1582                	slli	a1,a1,0x20
    80005d74:	8c69                	and	s0,s0,a0
    80005d76:	8dc1                	or	a1,a1,s0
    80005d78:	70e2                	ld	ra,56(sp)
    80005d7a:	7442                	ld	s0,48(sp)
    80005d7c:	74a2                	ld	s1,40(sp)
    80005d7e:	7902                	ld	s2,32(sp)
    80005d80:	69e2                	ld	s3,24(sp)
    80005d82:	852e                	mv	a0,a1
    80005d84:	6121                	addi	sp,sp,64
    80005d86:	8082                	ret
    80005d88:	00100737          	lui	a4,0x100
    80005d8c:	377d                	addiw	a4,a4,-1
    80005d8e:	4067573b          	sraw	a4,a4,t1
    80005d92:	00e677b3          	and	a5,a2,a4
    80005d96:	8fd5                	or	a5,a5,a3
    80005d98:	2781                	sext.w	a5,a5
    80005d9a:	dff9                	beqz	a5,80005d78 <rint+0xb0>
    80005d9c:	0017571b          	srliw	a4,a4,0x1
    80005da0:	00e677b3          	and	a5,a2,a4
    80005da4:	8edd                	or	a3,a3,a5
    80005da6:	0006879b          	sext.w	a5,a3
    80005daa:	4681                	li	a3,0
    80005dac:	c385                	beqz	a5,80005dcc <rint+0x104>
    80005dae:	01e31463          	bne	t1,t5,80005db6 <rint+0xee>
    80005db2:	800006b7          	lui	a3,0x80000
    80005db6:	fff74713          	not	a4,a4
    80005dba:	000407b7          	lui	a5,0x40
    80005dbe:	8f71                	and	a4,a4,a2
    80005dc0:	4067d33b          	sraw	t1,a5,t1
    80005dc4:	00676733          	or	a4,a4,t1
    80005dc8:	00070e1b          	sext.w	t3,a4
    80005dcc:	00008797          	auipc	a5,0x8
    80005dd0:	19478793          	addi	a5,a5,404 # 8000df60 <TWO52>
    80005dd4:	088e                	slli	a7,a7,0x3
    80005dd6:	98be                	add	a7,a7,a5
    80005dd8:	0008b403          	ld	s0,0(a7)
    80005ddc:	1682                	slli	a3,a3,0x20
    80005dde:	9281                	srli	a3,a3,0x20
    80005de0:	020e1593          	slli	a1,t3,0x20
    80005de4:	8dd5                	or	a1,a1,a3
    80005de6:	8522                	mv	a0,s0
    80005de8:	00000097          	auipc	ra,0x0
    80005dec:	06c080e7          	jalr	108(ra) # 80005e54 <__adddf3>
    80005df0:	e42a                	sd	a0,8(sp)
    80005df2:	6522                	ld	a0,8(sp)
    80005df4:	85a2                	mv	a1,s0
    80005df6:	00001097          	auipc	ra,0x1
    80005dfa:	e26080e7          	jalr	-474(ra) # 80006c1c <__subdf3>
    80005dfe:	a829                	j	80005e18 <rint+0x150>
    80005e00:	03300793          	li	a5,51
    80005e04:	0067dc63          	ble	t1,a5,80005e1c <rint+0x154>
    80005e08:	40000793          	li	a5,1024
    80005e0c:	f6f316e3          	bne	t1,a5,80005d78 <rint+0xb0>
    80005e10:	00000097          	auipc	ra,0x0
    80005e14:	044080e7          	jalr	68(ra) # 80005e54 <__adddf3>
    80005e18:	85aa                	mv	a1,a0
    80005e1a:	bfb9                	j	80005d78 <rint+0xb0>
    80005e1c:	bed8081b          	addiw	a6,a6,-1043
    80005e20:	567d                	li	a2,-1
    80005e22:	0106563b          	srlw	a2,a2,a6
    80005e26:	00c6f733          	and	a4,a3,a2
    80005e2a:	2701                	sext.w	a4,a4
    80005e2c:	87b6                	mv	a5,a3
    80005e2e:	d729                	beqz	a4,80005d78 <rint+0xb0>
    80005e30:	0016561b          	srliw	a2,a2,0x1
    80005e34:	00c6f733          	and	a4,a3,a2
    80005e38:	2701                	sext.w	a4,a4
    80005e3a:	db49                	beqz	a4,80005dcc <rint+0x104>
    80005e3c:	fff64613          	not	a2,a2
    80005e40:	00f676b3          	and	a3,a2,a5
    80005e44:	400007b7          	lui	a5,0x40000
    80005e48:	4107d83b          	sraw	a6,a5,a6
    80005e4c:	0106e6b3          	or	a3,a3,a6
    80005e50:	2681                	sext.w	a3,a3
    80005e52:	bfad                	j	80005dcc <rint+0x104>

0000000080005e54 <__adddf3>:
    80005e54:	7179                	addi	sp,sp,-48
    80005e56:	f406                	sd	ra,40(sp)
    80005e58:	f022                	sd	s0,32(sp)
    80005e5a:	ec26                	sd	s1,24(sp)
    80005e5c:	e84a                	sd	s2,16(sp)
    80005e5e:	e44e                	sd	s3,8(sp)
    80005e60:	002029f3          	frrm	s3
    80005e64:	58fd                	li	a7,-1
    80005e66:	00c8d693          	srli	a3,a7,0xc
    80005e6a:	00b6f7b3          	and	a5,a3,a1
    80005e6e:	00a6f433          	and	s0,a3,a0
    80005e72:	03455493          	srli	s1,a0,0x34
    80005e76:	0345d693          	srli	a3,a1,0x34
    80005e7a:	7ff4f493          	andi	s1,s1,2047
    80005e7e:	7ff6f693          	andi	a3,a3,2047
    80005e82:	40d4873b          	subw	a4,s1,a3
    80005e86:	03f55913          	srli	s2,a0,0x3f
    80005e8a:	91fd                	srli	a1,a1,0x3f
    80005e8c:	2981                	sext.w	s3,s3
    80005e8e:	00341813          	slli	a6,s0,0x3
    80005e92:	078e                	slli	a5,a5,0x3
    80005e94:	0007061b          	sext.w	a2,a4
    80005e98:	22b91c63          	bne	s2,a1,800060d0 <__adddf3+0x27c>
    80005e9c:	0ac05463          	blez	a2,80005f44 <__adddf3+0xf0>
    80005ea0:	eaad                	bnez	a3,80005f12 <__adddf3+0xbe>
    80005ea2:	ef99                	bnez	a5,80005ec0 <__adddf3+0x6c>
    80005ea4:	7ff00793          	li	a5,2047
    80005ea8:	22f49c63          	bne	s1,a5,800060e0 <__adddf3+0x28c>
    80005eac:	4a080563          	beqz	a6,80006356 <__adddf3+0x502>
    80005eb0:	03685793          	srli	a5,a6,0x36
    80005eb4:	ebb9                	bnez	a5,80005f0a <__adddf3+0xb6>
    80005eb6:	87c2                	mv	a5,a6
    80005eb8:	7ff00693          	li	a3,2047
    80005ebc:	4601                	li	a2,0
    80005ebe:	a05d                	j	80005f64 <__adddf3+0x110>
    80005ec0:	fff7061b          	addiw	a2,a4,-1
    80005ec4:	ea0d                	bnez	a2,80005ef6 <__adddf3+0xa2>
    80005ec6:	983e                	add	a6,a6,a5
    80005ec8:	00881793          	slli	a5,a6,0x8
    80005ecc:	2007da63          	bgez	a5,800060e0 <__adddf3+0x28c>
    80005ed0:	00148693          	addi	a3,s1,1
    80005ed4:	7ff00793          	li	a5,2047
    80005ed8:	1cf68863          	beq	a3,a5,800060a8 <__adddf3+0x254>
    80005edc:	1ff00613          	li	a2,511
    80005ee0:	165a                	slli	a2,a2,0x36
    80005ee2:	00185413          	srli	s0,a6,0x1
    80005ee6:	167d                	addi	a2,a2,-1
    80005ee8:	00187713          	andi	a4,a6,1
    80005eec:	00c477b3          	and	a5,s0,a2
    80005ef0:	8fd9                	or	a5,a5,a4
    80005ef2:	4601                	li	a2,0
    80005ef4:	a285                	j	80006054 <__adddf3+0x200>
    80005ef6:	7ff00713          	li	a4,2047
    80005efa:	02e49363          	bne	s1,a4,80005f20 <__adddf3+0xcc>
    80005efe:	44080c63          	beqz	a6,80006356 <__adddf3+0x502>
    80005f02:	00981793          	slli	a5,a6,0x9
    80005f06:	fa07d8e3          	bgez	a5,80005eb6 <__adddf3+0x62>
    80005f0a:	87c2                	mv	a5,a6
    80005f0c:	7ff00693          	li	a3,2047
    80005f10:	b7cd                	j	80005ef2 <__adddf3+0x9e>
    80005f12:	7ff00713          	li	a4,2047
    80005f16:	fee484e3          	beq	s1,a4,80005efe <__adddf3+0xaa>
    80005f1a:	4705                	li	a4,1
    80005f1c:	175e                	slli	a4,a4,0x37
    80005f1e:	8fd9                	or	a5,a5,a4
    80005f20:	03800713          	li	a4,56
    80005f24:	00c75463          	ble	a2,a4,80005f2c <__adddf3+0xd8>
    80005f28:	4785                	li	a5,1
    80005f2a:	bf71                	j	80005ec6 <__adddf3+0x72>
    80005f2c:	04000713          	li	a4,64
    80005f30:	00c7d6b3          	srl	a3,a5,a2
    80005f34:	40c7063b          	subw	a2,a4,a2
    80005f38:	00c797b3          	sll	a5,a5,a2
    80005f3c:	00f037b3          	snez	a5,a5
    80005f40:	8fd5                	or	a5,a5,a3
    80005f42:	b751                	j	80005ec6 <__adddf3+0x72>
    80005f44:	ca3d                	beqz	a2,80005fba <__adddf3+0x166>
    80005f46:	ec95                	bnez	s1,80005f82 <__adddf3+0x12e>
    80005f48:	02081063          	bnez	a6,80005f68 <__adddf3+0x114>
    80005f4c:	7ff00713          	li	a4,2047
    80005f50:	3ee69263          	bne	a3,a4,80006334 <__adddf3+0x4e0>
    80005f54:	4701                	li	a4,0
    80005f56:	28078463          	beqz	a5,800061de <__adddf3+0x38a>
    80005f5a:	00979593          	slli	a1,a5,0x9
    80005f5e:	4601                	li	a2,0
    80005f60:	0805c263          	bltz	a1,80005fe4 <__adddf3+0x190>
    80005f64:	4741                	li	a4,16
    80005f66:	a8bd                	j	80005fe4 <__adddf3+0x190>
    80005f68:	01161563          	bne	a2,a7,80005f72 <__adddf3+0x11e>
    80005f6c:	983e                	add	a6,a6,a5
    80005f6e:	84b6                	mv	s1,a3
    80005f70:	bfa1                	j	80005ec8 <__adddf3+0x74>
    80005f72:	7ff00613          	li	a2,2047
    80005f76:	fcc68fe3          	beq	a3,a2,80005f54 <__adddf3+0x100>
    80005f7a:	fff74713          	not	a4,a4
    80005f7e:	2701                	sext.w	a4,a4
    80005f80:	a819                	j	80005f96 <__adddf3+0x142>
    80005f82:	7ff00613          	li	a2,2047
    80005f86:	fcc687e3          	beq	a3,a2,80005f54 <__adddf3+0x100>
    80005f8a:	4605                	li	a2,1
    80005f8c:	165e                	slli	a2,a2,0x37
    80005f8e:	40e0073b          	negw	a4,a4
    80005f92:	00c86833          	or	a6,a6,a2
    80005f96:	03800613          	li	a2,56
    80005f9a:	4405                	li	s0,1
    80005f9c:	00e64c63          	blt	a2,a4,80005fb4 <__adddf3+0x160>
    80005fa0:	04000413          	li	s0,64
    80005fa4:	9c19                	subw	s0,s0,a4
    80005fa6:	00881433          	sll	s0,a6,s0
    80005faa:	00e85633          	srl	a2,a6,a4
    80005fae:	00803433          	snez	s0,s0
    80005fb2:	8c51                	or	s0,s0,a2
    80005fb4:	00f40833          	add	a6,s0,a5
    80005fb8:	bf5d                	j	80005f6e <__adddf3+0x11a>
    80005fba:	00148593          	addi	a1,s1,1
    80005fbe:	7fe5f713          	andi	a4,a1,2046
    80005fc2:	e341                	bnez	a4,80006042 <__adddf3+0x1ee>
    80005fc4:	e885                	bnez	s1,80005ff4 <__adddf3+0x1a0>
    80005fc6:	36080e63          	beqz	a6,80006342 <__adddf3+0x4ee>
    80005fca:	28078063          	beqz	a5,8000624a <__adddf3+0x3f6>
    80005fce:	983e                	add	a6,a6,a5
    80005fd0:	00881793          	slli	a5,a6,0x8
    80005fd4:	2607db63          	bgez	a5,8000624a <__adddf3+0x3f6>
    80005fd8:	03789793          	slli	a5,a7,0x37
    80005fdc:	17fd                	addi	a5,a5,-1
    80005fde:	00f877b3          	and	a5,a6,a5
    80005fe2:	4685                	li	a3,1
    80005fe4:	0077f593          	andi	a1,a5,7
    80005fe8:	e9d9                	bnez	a1,8000607e <__adddf3+0x22a>
    80005fea:	1e060a63          	beqz	a2,800061de <__adddf3+0x38a>
    80005fee:	00177613          	andi	a2,a4,1
    80005ff2:	a075                	j	8000609e <__adddf3+0x24a>
    80005ff4:	7ff00713          	li	a4,2047
    80005ff8:	00e49e63          	bne	s1,a4,80006014 <__adddf3+0x1c0>
    80005ffc:	3c080e63          	beqz	a6,800063d8 <__adddf3+0x584>
    80006000:	03685713          	srli	a4,a6,0x36
    80006004:	8b05                	andi	a4,a4,1
    80006006:	00173713          	seqz	a4,a4
    8000600a:	0712                	slli	a4,a4,0x4
    8000600c:	02969363          	bne	a3,s1,80006032 <__adddf3+0x1de>
    80006010:	e799                	bnez	a5,8000601e <__adddf3+0x1ca>
    80006012:	ae71                	j	800063ae <__adddf3+0x55a>
    80006014:	00e69c63          	bne	a3,a4,8000602c <__adddf3+0x1d8>
    80006018:	4701                	li	a4,0
    8000601a:	38078863          	beqz	a5,800063aa <__adddf3+0x556>
    8000601e:	00979693          	slli	a3,a5,0x9
    80006022:	3806d863          	bgez	a3,800063b2 <__adddf3+0x55e>
    80006026:	34080163          	beqz	a6,80006368 <__adddf3+0x514>
    8000602a:	a031                	j	80006036 <__adddf3+0x1e2>
    8000602c:	4701                	li	a4,0
    8000602e:	32080d63          	beqz	a6,80006368 <__adddf3+0x514>
    80006032:	36078e63          	beqz	a5,800063ae <__adddf3+0x55a>
    80006036:	4785                	li	a5,1
    80006038:	4901                	li	s2,0
    8000603a:	17da                	slli	a5,a5,0x36
    8000603c:	7ff00693          	li	a3,2047
    80006040:	aa79                	j	800061de <__adddf3+0x38a>
    80006042:	7ff00713          	li	a4,2047
    80006046:	00e58963          	beq	a1,a4,80006058 <__adddf3+0x204>
    8000604a:	00f80433          	add	s0,a6,a5
    8000604e:	00145793          	srli	a5,s0,0x1
    80006052:	86ae                	mv	a3,a1
    80006054:	4701                	li	a4,0
    80006056:	b779                	j	80005fe4 <__adddf3+0x190>
    80006058:	00098763          	beqz	s3,80006066 <__adddf3+0x212>
    8000605c:	478d                	li	a5,3
    8000605e:	00f99763          	bne	s3,a5,8000606c <__adddf3+0x218>
    80006062:	00091a63          	bnez	s2,80006076 <__adddf3+0x222>
    80006066:	7ff00693          	li	a3,2047
    8000606a:	a0b1                	j	800060b6 <__adddf3+0x262>
    8000606c:	4789                	li	a5,2
    8000606e:	00f99463          	bne	s3,a5,80006076 <__adddf3+0x222>
    80006072:	fe091ae3          	bnez	s2,80006066 <__adddf3+0x212>
    80006076:	57fd                	li	a5,-1
    80006078:	7fe00693          	li	a3,2046
    8000607c:	4715                	li	a4,5
    8000607e:	4589                	li	a1,2
    80006080:	00176713          	ori	a4,a4,1
    80006084:	2eb98c63          	beq	s3,a1,8000637c <__adddf3+0x528>
    80006088:	458d                	li	a1,3
    8000608a:	2eb98563          	beq	s3,a1,80006374 <__adddf3+0x520>
    8000608e:	00099863          	bnez	s3,8000609e <__adddf3+0x24a>
    80006092:	00f7f593          	andi	a1,a5,15
    80006096:	4511                	li	a0,4
    80006098:	00a58363          	beq	a1,a0,8000609e <__adddf3+0x24a>
    8000609c:	0791                	addi	a5,a5,4
    8000609e:	14060063          	beqz	a2,800061de <__adddf3+0x38a>
    800060a2:	00276713          	ori	a4,a4,2
    800060a6:	aa25                	j	800061de <__adddf3+0x38a>
    800060a8:	00098763          	beqz	s3,800060b6 <__adddf3+0x262>
    800060ac:	478d                	li	a5,3
    800060ae:	00f99763          	bne	s3,a5,800060bc <__adddf3+0x268>
    800060b2:	00091a63          	bnez	s2,800060c6 <__adddf3+0x272>
    800060b6:	4781                	li	a5,0
    800060b8:	4715                	li	a4,5
    800060ba:	a215                	j	800061de <__adddf3+0x38a>
    800060bc:	4789                	li	a5,2
    800060be:	00f99463          	bne	s3,a5,800060c6 <__adddf3+0x272>
    800060c2:	fe091ae3          	bnez	s2,800060b6 <__adddf3+0x262>
    800060c6:	57fd                	li	a5,-1
    800060c8:	7fe00693          	li	a3,2046
    800060cc:	4601                	li	a2,0
    800060ce:	b77d                	j	8000607c <__adddf3+0x228>
    800060d0:	06c05963          	blez	a2,80006142 <__adddf3+0x2ee>
    800060d4:	e2b9                	bnez	a3,8000611a <__adddf3+0x2c6>
    800060d6:	eb91                	bnez	a5,800060ea <__adddf3+0x296>
    800060d8:	7ff00793          	li	a5,2047
    800060dc:	e2f481e3          	beq	s1,a5,80005efe <__adddf3+0xaa>
    800060e0:	16048363          	beqz	s1,80006246 <__adddf3+0x3f2>
    800060e4:	87c2                	mv	a5,a6
    800060e6:	86a6                	mv	a3,s1
    800060e8:	b529                	j	80005ef2 <__adddf3+0x9e>
    800060ea:	fff7061b          	addiw	a2,a4,-1
    800060ee:	ee01                	bnez	a2,80006106 <__adddf3+0x2b2>
    800060f0:	40f80833          	sub	a6,a6,a5
    800060f4:	00881793          	slli	a5,a6,0x8
    800060f8:	fe07d4e3          	bgez	a5,800060e0 <__adddf3+0x28c>
    800060fc:	56fd                	li	a3,-1
    800060fe:	82a5                	srli	a3,a3,0x9
    80006100:	00d87433          	and	s0,a6,a3
    80006104:	a2e5                	j	800062ec <__adddf3+0x498>
    80006106:	7ff00713          	li	a4,2047
    8000610a:	dee48ae3          	beq	s1,a4,80005efe <__adddf3+0xaa>
    8000610e:	03800713          	li	a4,56
    80006112:	00c75c63          	ble	a2,a4,8000612a <__adddf3+0x2d6>
    80006116:	4785                	li	a5,1
    80006118:	bfe1                	j	800060f0 <__adddf3+0x29c>
    8000611a:	7ff00713          	li	a4,2047
    8000611e:	dee480e3          	beq	s1,a4,80005efe <__adddf3+0xaa>
    80006122:	4705                	li	a4,1
    80006124:	175e                	slli	a4,a4,0x37
    80006126:	8fd9                	or	a5,a5,a4
    80006128:	b7dd                	j	8000610e <__adddf3+0x2ba>
    8000612a:	04000713          	li	a4,64
    8000612e:	00c7d6b3          	srl	a3,a5,a2
    80006132:	40c7063b          	subw	a2,a4,a2
    80006136:	00c797b3          	sll	a5,a5,a2
    8000613a:	00f037b3          	snez	a5,a5
    8000613e:	8fd5                	or	a5,a5,a3
    80006140:	bf45                	j	800060f0 <__adddf3+0x29c>
    80006142:	ce25                	beqz	a2,800061ba <__adddf3+0x366>
    80006144:	ec9d                	bnez	s1,80006182 <__adddf3+0x32e>
    80006146:	00081f63          	bnez	a6,80006164 <__adddf3+0x310>
    8000614a:	7ff00713          	li	a4,2047
    8000614e:	1ee69663          	bne	a3,a4,8000633a <__adddf3+0x4e6>
    80006152:	20078763          	beqz	a5,80006360 <__adddf3+0x50c>
    80006156:	00979713          	slli	a4,a5,0x9
    8000615a:	892e                	mv	s2,a1
    8000615c:	4601                	li	a2,0
    8000615e:	ee074be3          	bltz	a4,80006054 <__adddf3+0x200>
    80006162:	b509                	j	80005f64 <__adddf3+0x110>
    80006164:	01161763          	bne	a2,a7,80006172 <__adddf3+0x31e>
    80006168:	41078833          	sub	a6,a5,a6
    8000616c:	84b6                	mv	s1,a3
    8000616e:	892e                	mv	s2,a1
    80006170:	b751                	j	800060f4 <__adddf3+0x2a0>
    80006172:	7ff00613          	li	a2,2047
    80006176:	fcc68ee3          	beq	a3,a2,80006152 <__adddf3+0x2fe>
    8000617a:	fff74713          	not	a4,a4
    8000617e:	2701                	sext.w	a4,a4
    80006180:	a819                	j	80006196 <__adddf3+0x342>
    80006182:	7ff00613          	li	a2,2047
    80006186:	fcc686e3          	beq	a3,a2,80006152 <__adddf3+0x2fe>
    8000618a:	4605                	li	a2,1
    8000618c:	165e                	slli	a2,a2,0x37
    8000618e:	40e0073b          	negw	a4,a4
    80006192:	00c86833          	or	a6,a6,a2
    80006196:	03800613          	li	a2,56
    8000619a:	4405                	li	s0,1
    8000619c:	00e64c63          	blt	a2,a4,800061b4 <__adddf3+0x360>
    800061a0:	04000413          	li	s0,64
    800061a4:	9c19                	subw	s0,s0,a4
    800061a6:	00881433          	sll	s0,a6,s0
    800061aa:	00e85633          	srl	a2,a6,a4
    800061ae:	00803433          	snez	s0,s0
    800061b2:	8c51                	or	s0,s0,a2
    800061b4:	40878833          	sub	a6,a5,s0
    800061b8:	bf55                	j	8000616c <__adddf3+0x318>
    800061ba:	00148713          	addi	a4,s1,1
    800061be:	7fe77713          	andi	a4,a4,2046
    800061c2:	10071c63          	bnez	a4,800062da <__adddf3+0x486>
    800061c6:	e0e9                	bnez	s1,80006288 <__adddf3+0x434>
    800061c8:	06081563          	bnez	a6,80006232 <__adddf3+0x3de>
    800061cc:	1e079b63          	bnez	a5,800063c2 <__adddf3+0x56e>
    800061d0:	ffe98913          	addi	s2,s3,-2 # ffe <_stack_size-0x7002>
    800061d4:	00193913          	seqz	s2,s2
    800061d8:	4701                	li	a4,0
    800061da:	4781                	li	a5,0
    800061dc:	4681                	li	a3,0
    800061de:	00879613          	slli	a2,a5,0x8
    800061e2:	00065b63          	bgez	a2,800061f8 <__adddf3+0x3a4>
    800061e6:	0685                	addi	a3,a3,1
    800061e8:	7ff00613          	li	a2,2047
    800061ec:	18c68b63          	beq	a3,a2,80006382 <__adddf3+0x52e>
    800061f0:	567d                	li	a2,-1
    800061f2:	165e                	slli	a2,a2,0x37
    800061f4:	167d                	addi	a2,a2,-1
    800061f6:	8ff1                	and	a5,a5,a2
    800061f8:	7ff00613          	li	a2,2047
    800061fc:	838d                	srli	a5,a5,0x3
    800061fe:	00c69663          	bne	a3,a2,8000620a <__adddf3+0x3b6>
    80006202:	c781                	beqz	a5,8000620a <__adddf3+0x3b6>
    80006204:	4785                	li	a5,1
    80006206:	17ce                	slli	a5,a5,0x33
    80006208:	4901                	li	s2,0
    8000620a:	7ff6f513          	andi	a0,a3,2047
    8000620e:	56fd                	li	a3,-1
    80006210:	82b1                	srli	a3,a3,0xc
    80006212:	1552                	slli	a0,a0,0x34
    80006214:	8ff5                	and	a5,a5,a3
    80006216:	197e                	slli	s2,s2,0x3f
    80006218:	8d5d                	or	a0,a0,a5
    8000621a:	01256533          	or	a0,a0,s2
    8000621e:	c319                	beqz	a4,80006224 <__adddf3+0x3d0>
    80006220:	00172073          	csrs	fflags,a4
    80006224:	70a2                	ld	ra,40(sp)
    80006226:	7402                	ld	s0,32(sp)
    80006228:	64e2                	ld	s1,24(sp)
    8000622a:	6942                	ld	s2,16(sp)
    8000622c:	69a2                	ld	s3,8(sp)
    8000622e:	6145                	addi	sp,sp,48
    80006230:	8082                	ret
    80006232:	cf81                	beqz	a5,8000624a <__adddf3+0x3f6>
    80006234:	40f80733          	sub	a4,a6,a5
    80006238:	00871693          	slli	a3,a4,0x8
    8000623c:	0406d363          	bgez	a3,80006282 <__adddf3+0x42e>
    80006240:	41078833          	sub	a6,a5,a6
    80006244:	892e                	mv	s2,a1
    80006246:	12080463          	beqz	a6,8000636e <__adddf3+0x51a>
    8000624a:	00181613          	slli	a2,a6,0x1
    8000624e:	00767793          	andi	a5,a2,7
    80006252:	4701                	li	a4,0
    80006254:	c385                	beqz	a5,80006274 <__adddf3+0x420>
    80006256:	4789                	li	a5,2
    80006258:	0ef98b63          	beq	s3,a5,8000634e <__adddf3+0x4fa>
    8000625c:	478d                	li	a5,3
    8000625e:	4705                	li	a4,1
    80006260:	0ef98363          	beq	s3,a5,80006346 <__adddf3+0x4f2>
    80006264:	00099863          	bnez	s3,80006274 <__adddf3+0x420>
    80006268:	00f67793          	andi	a5,a2,15
    8000626c:	4691                	li	a3,4
    8000626e:	00d78363          	beq	a5,a3,80006274 <__adddf3+0x420>
    80006272:	0611                	addi	a2,a2,4
    80006274:	9261                	srli	a2,a2,0x38
    80006276:	00164613          	xori	a2,a2,1
    8000627a:	8a05                	andi	a2,a2,1
    8000627c:	87c2                	mv	a5,a6
    8000627e:	4681                	li	a3,0
    80006280:	b395                	j	80005fe4 <__adddf3+0x190>
    80006282:	d739                	beqz	a4,800061d0 <__adddf3+0x37c>
    80006284:	883a                	mv	a6,a4
    80006286:	b7d1                	j	8000624a <__adddf3+0x3f6>
    80006288:	7ff00713          	li	a4,2047
    8000628c:	00e49e63          	bne	s1,a4,800062a8 <__adddf3+0x454>
    80006290:	12080c63          	beqz	a6,800063c8 <__adddf3+0x574>
    80006294:	03685713          	srli	a4,a6,0x36
    80006298:	8b05                	andi	a4,a4,1
    8000629a:	00173713          	seqz	a4,a4
    8000629e:	0712                	slli	a4,a4,0x4
    800062a0:	d89699e3          	bne	a3,s1,80006032 <__adddf3+0x1de>
    800062a4:	e799                	bnez	a5,800062b2 <__adddf3+0x45e>
    800062a6:	a221                	j	800063ae <__adddf3+0x55a>
    800062a8:	00e69d63          	bne	a3,a4,800062c2 <__adddf3+0x46e>
    800062ac:	10078763          	beqz	a5,800063ba <__adddf3+0x566>
    800062b0:	4701                	li	a4,0
    800062b2:	00979693          	slli	a3,a5,0x9
    800062b6:	1006d063          	bgez	a3,800063b6 <__adddf3+0x562>
    800062ba:	d6081ee3          	bnez	a6,80006036 <__adddf3+0x1e2>
    800062be:	892e                	mv	s2,a1
    800062c0:	a065                	j	80006368 <__adddf3+0x514>
    800062c2:	00081a63          	bnez	a6,800062d6 <__adddf3+0x482>
    800062c6:	efd9                	bnez	a5,80006364 <__adddf3+0x510>
    800062c8:	4785                	li	a5,1
    800062ca:	4901                	li	s2,0
    800062cc:	17da                	slli	a5,a5,0x36
    800062ce:	7ff00693          	li	a3,2047
    800062d2:	4741                	li	a4,16
    800062d4:	b729                	j	800061de <__adddf3+0x38a>
    800062d6:	4701                	li	a4,0
    800062d8:	bba9                	j	80006032 <__adddf3+0x1de>
    800062da:	40f80433          	sub	s0,a6,a5
    800062de:	00841713          	slli	a4,s0,0x8
    800062e2:	04075063          	bgez	a4,80006322 <__adddf3+0x4ce>
    800062e6:	41078433          	sub	s0,a5,a6
    800062ea:	892e                	mv	s2,a1
    800062ec:	8522                	mv	a0,s0
    800062ee:	00001097          	auipc	ra,0x1
    800062f2:	330080e7          	jalr	816(ra) # 8000761e <__clzdi2>
    800062f6:	ff85079b          	addiw	a5,a0,-8
    800062fa:	00f41433          	sll	s0,s0,a5
    800062fe:	0297c463          	blt	a5,s1,80006326 <__adddf3+0x4d2>
    80006302:	409784bb          	subw	s1,a5,s1
    80006306:	2485                	addiw	s1,s1,1
    80006308:	04000513          	li	a0,64
    8000630c:	00945833          	srl	a6,s0,s1
    80006310:	409504bb          	subw	s1,a0,s1
    80006314:	00941433          	sll	s0,s0,s1
    80006318:	00803433          	snez	s0,s0
    8000631c:	00886833          	or	a6,a6,s0
    80006320:	b71d                	j	80006246 <__adddf3+0x3f2>
    80006322:	f469                	bnez	s0,800062ec <__adddf3+0x498>
    80006324:	b575                	j	800061d0 <__adddf3+0x37c>
    80006326:	587d                	li	a6,-1
    80006328:	185e                	slli	a6,a6,0x37
    8000632a:	187d                	addi	a6,a6,-1
    8000632c:	8c9d                	sub	s1,s1,a5
    8000632e:	01047833          	and	a6,s0,a6
    80006332:	b37d                	j	800060e0 <__adddf3+0x28c>
    80006334:	883e                	mv	a6,a5
    80006336:	84b6                	mv	s1,a3
    80006338:	b365                	j	800060e0 <__adddf3+0x28c>
    8000633a:	883e                	mv	a6,a5
    8000633c:	84b6                	mv	s1,a3
    8000633e:	892e                	mv	s2,a1
    80006340:	b345                	j	800060e0 <__adddf3+0x28c>
    80006342:	883e                	mv	a6,a5
    80006344:	b709                	j	80006246 <__adddf3+0x3f2>
    80006346:	f20917e3          	bnez	s2,80006274 <__adddf3+0x420>
    8000634a:	0621                	addi	a2,a2,8
    8000634c:	b725                	j	80006274 <__adddf3+0x420>
    8000634e:	4705                	li	a4,1
    80006350:	f20902e3          	beqz	s2,80006274 <__adddf3+0x420>
    80006354:	bfdd                	j	8000634a <__adddf3+0x4f6>
    80006356:	4781                	li	a5,0
    80006358:	7ff00693          	li	a3,2047
    8000635c:	4701                	li	a4,0
    8000635e:	b541                	j	800061de <__adddf3+0x38a>
    80006360:	892e                	mv	s2,a1
    80006362:	bfed                	j	8000635c <__adddf3+0x508>
    80006364:	892e                	mv	s2,a1
    80006366:	4701                	li	a4,0
    80006368:	7ff00693          	li	a3,2047
    8000636c:	b9a5                	j	80005fe4 <__adddf3+0x190>
    8000636e:	4781                	li	a5,0
    80006370:	4681                	li	a3,0
    80006372:	b7ed                	j	8000635c <__adddf3+0x508>
    80006374:	d20915e3          	bnez	s2,8000609e <__adddf3+0x24a>
    80006378:	07a1                	addi	a5,a5,8
    8000637a:	b315                	j	8000609e <__adddf3+0x24a>
    8000637c:	d20901e3          	beqz	s2,8000609e <__adddf3+0x24a>
    80006380:	bfe5                	j	80006378 <__adddf3+0x524>
    80006382:	4781                	li	a5,0
    80006384:	02098063          	beqz	s3,800063a4 <__adddf3+0x550>
    80006388:	460d                	li	a2,3
    8000638a:	00c99863          	bne	s3,a2,8000639a <__adddf3+0x546>
    8000638e:	00090b63          	beqz	s2,800063a4 <__adddf3+0x550>
    80006392:	57fd                	li	a5,-1
    80006394:	7fe00693          	li	a3,2046
    80006398:	a031                	j	800063a4 <__adddf3+0x550>
    8000639a:	4609                	li	a2,2
    8000639c:	fec99be3          	bne	s3,a2,80006392 <__adddf3+0x53e>
    800063a0:	fe0909e3          	beqz	s2,80006392 <__adddf3+0x53e>
    800063a4:	00576713          	ori	a4,a4,5
    800063a8:	bd81                	j	800061f8 <__adddf3+0x3a4>
    800063aa:	c80809e3          	beqz	a6,8000603c <__adddf3+0x1e8>
    800063ae:	87c2                	mv	a5,a6
    800063b0:	bf65                	j	80006368 <__adddf3+0x514>
    800063b2:	4741                	li	a4,16
    800063b4:	b98d                	j	80006026 <__adddf3+0x1d2>
    800063b6:	4741                	li	a4,16
    800063b8:	b709                	j	800062ba <__adddf3+0x466>
    800063ba:	00080b63          	beqz	a6,800063d0 <__adddf3+0x57c>
    800063be:	4701                	li	a4,0
    800063c0:	b7fd                	j	800063ae <__adddf3+0x55a>
    800063c2:	883e                	mv	a6,a5
    800063c4:	892e                	mv	s2,a1
    800063c6:	b551                	j	8000624a <__adddf3+0x3f6>
    800063c8:	ee969fe3          	bne	a3,s1,800062c6 <__adddf3+0x472>
    800063cc:	ee0792e3          	bnez	a5,800062b0 <__adddf3+0x45c>
    800063d0:	4785                	li	a5,1
    800063d2:	4901                	li	s2,0
    800063d4:	17da                	slli	a5,a5,0x36
    800063d6:	bdf5                	j	800062d2 <__adddf3+0x47e>
    800063d8:	c49680e3          	beq	a3,s1,80006018 <__adddf3+0x1c4>
    800063dc:	7ff00693          	li	a3,2047
    800063e0:	b995                	j	80006054 <__adddf3+0x200>

00000000800063e2 <__divdf3>:
    800063e2:	715d                	addi	sp,sp,-80
    800063e4:	e45e                	sd	s7,8(sp)
    800063e6:	e486                	sd	ra,72(sp)
    800063e8:	e0a2                	sd	s0,64(sp)
    800063ea:	fc26                	sd	s1,56(sp)
    800063ec:	f84a                	sd	s2,48(sp)
    800063ee:	f44e                	sd	s3,40(sp)
    800063f0:	f052                	sd	s4,32(sp)
    800063f2:	ec56                	sd	s5,24(sp)
    800063f4:	e85a                	sd	s6,16(sp)
    800063f6:	8bae                	mv	s7,a1
    800063f8:	00202a73          	frrm	s4
    800063fc:	597d                	li	s2,-1
    800063fe:	03455993          	srli	s3,a0,0x34
    80006402:	00c95913          	srli	s2,s2,0xc
    80006406:	7ff9f993          	andi	s3,s3,2047
    8000640a:	2a01                	sext.w	s4,s4
    8000640c:	00a97933          	and	s2,s2,a0
    80006410:	03f55a93          	srli	s5,a0,0x3f
    80006414:	02098063          	beqz	s3,80006434 <__divdf3+0x52>
    80006418:	7ff00793          	li	a5,2047
    8000641c:	02f98d63          	beq	s3,a5,80006456 <__divdf3+0x74>
    80006420:	4785                	li	a5,1
    80006422:	090e                	slli	s2,s2,0x3
    80006424:	17de                	slli	a5,a5,0x37
    80006426:	00f96933          	or	s2,s2,a5
    8000642a:	c0198993          	addi	s3,s3,-1023
    8000642e:	4b01                	li	s6,0
    80006430:	4481                	li	s1,0
    80006432:	a825                	j	8000646a <__divdf3+0x88>
    80006434:	08090563          	beqz	s2,800064be <__divdf3+0xdc>
    80006438:	854a                	mv	a0,s2
    8000643a:	00001097          	auipc	ra,0x1
    8000643e:	1e4080e7          	jalr	484(ra) # 8000761e <__clzdi2>
    80006442:	2501                	sext.w	a0,a0
    80006444:	ff85079b          	addiw	a5,a0,-8
    80006448:	c0d00993          	li	s3,-1011
    8000644c:	00f91933          	sll	s2,s2,a5
    80006450:	40a989b3          	sub	s3,s3,a0
    80006454:	bfe9                	j	8000642e <__divdf3+0x4c>
    80006456:	06090763          	beqz	s2,800064c4 <__divdf3+0xe2>
    8000645a:	00c91793          	slli	a5,s2,0xc
    8000645e:	7ff00993          	li	s3,2047
    80006462:	4b0d                	li	s6,3
    80006464:	44c1                	li	s1,16
    80006466:	fc07c5e3          	bltz	a5,80006430 <__divdf3+0x4e>
    8000646a:	034bd793          	srli	a5,s7,0x34
    8000646e:	547d                	li	s0,-1
    80006470:	8031                	srli	s0,s0,0xc
    80006472:	7ff7f793          	andi	a5,a5,2047
    80006476:	01747433          	and	s0,s0,s7
    8000647a:	03fbdb93          	srli	s7,s7,0x3f
    8000647e:	c7b9                	beqz	a5,800064cc <__divdf3+0xea>
    80006480:	7ff00713          	li	a4,2047
    80006484:	06e78363          	beq	a5,a4,800064ea <__divdf3+0x108>
    80006488:	4705                	li	a4,1
    8000648a:	040e                	slli	s0,s0,0x3
    8000648c:	175e                	slli	a4,a4,0x37
    8000648e:	8c59                	or	s0,s0,a4
    80006490:	c0178793          	addi	a5,a5,-1023 # 3ffffc01 <_stack_size+0x3fff7c01>
    80006494:	4701                	li	a4,0
    80006496:	002b1693          	slli	a3,s6,0x2
    8000649a:	8ed9                	or	a3,a3,a4
    8000649c:	40f989b3          	sub	s3,s3,a5
    800064a0:	16fd                	addi	a3,a3,-1
    800064a2:	47b9                	li	a5,14
    800064a4:	017ac633          	xor	a2,s5,s7
    800064a8:	06d7e663          	bltu	a5,a3,80006514 <__divdf3+0x132>
    800064ac:	00008597          	auipc	a1,0x8
    800064b0:	ac458593          	addi	a1,a1,-1340 # 8000df70 <TWO52+0x10>
    800064b4:	068a                	slli	a3,a3,0x2
    800064b6:	96ae                	add	a3,a3,a1
    800064b8:	429c                	lw	a5,0(a3)
    800064ba:	97ae                	add	a5,a5,a1
    800064bc:	8782                	jr	a5
    800064be:	4981                	li	s3,0
    800064c0:	4b05                	li	s6,1
    800064c2:	b7bd                	j	80006430 <__divdf3+0x4e>
    800064c4:	7ff00993          	li	s3,2047
    800064c8:	4b09                	li	s6,2
    800064ca:	b79d                	j	80006430 <__divdf3+0x4e>
    800064cc:	c80d                	beqz	s0,800064fe <__divdf3+0x11c>
    800064ce:	8522                	mv	a0,s0
    800064d0:	00001097          	auipc	ra,0x1
    800064d4:	14e080e7          	jalr	334(ra) # 8000761e <__clzdi2>
    800064d8:	2501                	sext.w	a0,a0
    800064da:	ff85079b          	addiw	a5,a0,-8
    800064de:	00f41433          	sll	s0,s0,a5
    800064e2:	c0d00793          	li	a5,-1011
    800064e6:	8f89                	sub	a5,a5,a0
    800064e8:	b775                	j	80006494 <__divdf3+0xb2>
    800064ea:	cc09                	beqz	s0,80006504 <__divdf3+0x122>
    800064ec:	00c41793          	slli	a5,s0,0xc
    800064f0:	0007ce63          	bltz	a5,8000650c <__divdf3+0x12a>
    800064f4:	7ff00793          	li	a5,2047
    800064f8:	470d                	li	a4,3
    800064fa:	44c1                	li	s1,16
    800064fc:	bf69                	j	80006496 <__divdf3+0xb4>
    800064fe:	4781                	li	a5,0
    80006500:	4705                	li	a4,1
    80006502:	bf51                	j	80006496 <__divdf3+0xb4>
    80006504:	7ff00793          	li	a5,2047
    80006508:	4709                	li	a4,2
    8000650a:	b771                	j	80006496 <__divdf3+0xb4>
    8000650c:	7ff00793          	li	a5,2047
    80006510:	470d                	li	a4,3
    80006512:	b751                	j	80006496 <__divdf3+0xb4>
    80006514:	00841513          	slli	a0,s0,0x8
    80006518:	10897863          	bleu	s0,s2,80006628 <__divdf3+0x246>
    8000651c:	19fd                	addi	s3,s3,-1
    8000651e:	4681                	li	a3,0
    80006520:	02055413          	srli	s0,a0,0x20
    80006524:	028958b3          	divu	a7,s2,s0
    80006528:	57fd                	li	a5,-1
    8000652a:	9381                	srli	a5,a5,0x20
    8000652c:	8fe9                	and	a5,a5,a0
    8000652e:	9281                	srli	a3,a3,0x20
    80006530:	02897733          	remu	a4,s2,s0
    80006534:	85c6                	mv	a1,a7
    80006536:	03178833          	mul	a6,a5,a7
    8000653a:	1702                	slli	a4,a4,0x20
    8000653c:	8f55                	or	a4,a4,a3
    8000653e:	01077c63          	bleu	a6,a4,80006556 <__divdf3+0x174>
    80006542:	972a                	add	a4,a4,a0
    80006544:	fff88593          	addi	a1,a7,-1
    80006548:	00a76763          	bltu	a4,a0,80006556 <__divdf3+0x174>
    8000654c:	01077563          	bleu	a6,a4,80006556 <__divdf3+0x174>
    80006550:	ffe88593          	addi	a1,a7,-2
    80006554:	972a                	add	a4,a4,a0
    80006556:	41070733          	sub	a4,a4,a6
    8000655a:	02875833          	divu	a6,a4,s0
    8000655e:	02877733          	remu	a4,a4,s0
    80006562:	030786b3          	mul	a3,a5,a6
    80006566:	02071793          	slli	a5,a4,0x20
    8000656a:	8742                	mv	a4,a6
    8000656c:	00d7fc63          	bleu	a3,a5,80006584 <__divdf3+0x1a2>
    80006570:	97aa                	add	a5,a5,a0
    80006572:	fff80713          	addi	a4,a6,-1
    80006576:	00a7e763          	bltu	a5,a0,80006584 <__divdf3+0x1a2>
    8000657a:	00d7f563          	bleu	a3,a5,80006584 <__divdf3+0x1a2>
    8000657e:	ffe80713          	addi	a4,a6,-2
    80006582:	97aa                	add	a5,a5,a0
    80006584:	02059413          	slli	s0,a1,0x20
    80006588:	8f95                	sub	a5,a5,a3
    8000658a:	8c59                	or	s0,s0,a4
    8000658c:	00f037b3          	snez	a5,a5
    80006590:	8c5d                	or	s0,s0,a5
    80006592:	3ff98793          	addi	a5,s3,1023
    80006596:	0ef05563          	blez	a5,80006680 <__divdf3+0x29e>
    8000659a:	00747713          	andi	a4,s0,7
    8000659e:	c30d                	beqz	a4,800065c0 <__divdf3+0x1de>
    800065a0:	4709                	li	a4,2
    800065a2:	0014e493          	ori	s1,s1,1
    800065a6:	0cea0463          	beq	s4,a4,8000666e <__divdf3+0x28c>
    800065aa:	470d                	li	a4,3
    800065ac:	0aea0e63          	beq	s4,a4,80006668 <__divdf3+0x286>
    800065b0:	000a1863          	bnez	s4,800065c0 <__divdf3+0x1de>
    800065b4:	00f47713          	andi	a4,s0,15
    800065b8:	4691                	li	a3,4
    800065ba:	00d70363          	beq	a4,a3,800065c0 <__divdf3+0x1de>
    800065be:	0411                	addi	s0,s0,4
    800065c0:	00741713          	slli	a4,s0,0x7
    800065c4:	00075863          	bgez	a4,800065d4 <__divdf3+0x1f2>
    800065c8:	57fd                	li	a5,-1
    800065ca:	17e2                	slli	a5,a5,0x38
    800065cc:	17fd                	addi	a5,a5,-1
    800065ce:	8c7d                	and	s0,s0,a5
    800065d0:	40098793          	addi	a5,s3,1024
    800065d4:	7fe00713          	li	a4,2046
    800065d8:	800d                	srli	s0,s0,0x3
    800065da:	00f75f63          	ble	a5,a4,800065f8 <__divdf3+0x216>
    800065de:	4789                	li	a5,2
    800065e0:	08fa0e63          	beq	s4,a5,8000667c <__divdf3+0x29a>
    800065e4:	478d                	li	a5,3
    800065e6:	08fa0663          	beq	s4,a5,80006672 <__divdf3+0x290>
    800065ea:	080a0563          	beqz	s4,80006674 <__divdf3+0x292>
    800065ee:	547d                	li	s0,-1
    800065f0:	7fe00793          	li	a5,2046
    800065f4:	0054e493          	ori	s1,s1,5
    800065f8:	557d                	li	a0,-1
    800065fa:	7ff7f793          	andi	a5,a5,2047
    800065fe:	8131                	srli	a0,a0,0xc
    80006600:	8d61                	and	a0,a0,s0
    80006602:	17d2                	slli	a5,a5,0x34
    80006604:	03f61413          	slli	s0,a2,0x3f
    80006608:	8d5d                	or	a0,a0,a5
    8000660a:	8d41                	or	a0,a0,s0
    8000660c:	c099                	beqz	s1,80006612 <__divdf3+0x230>
    8000660e:	0014a073          	csrs	fflags,s1
    80006612:	60a6                	ld	ra,72(sp)
    80006614:	6406                	ld	s0,64(sp)
    80006616:	74e2                	ld	s1,56(sp)
    80006618:	7942                	ld	s2,48(sp)
    8000661a:	79a2                	ld	s3,40(sp)
    8000661c:	7a02                	ld	s4,32(sp)
    8000661e:	6ae2                	ld	s5,24(sp)
    80006620:	6b42                	ld	s6,16(sp)
    80006622:	6ba2                	ld	s7,8(sp)
    80006624:	6161                	addi	sp,sp,80
    80006626:	8082                	ret
    80006628:	03f91693          	slli	a3,s2,0x3f
    8000662c:	00195913          	srli	s2,s2,0x1
    80006630:	bdc5                	j	80006520 <__divdf3+0x13e>
    80006632:	8656                	mv	a2,s5
    80006634:	844a                	mv	s0,s2
    80006636:	875a                	mv	a4,s6
    80006638:	4789                	li	a5,2
    8000663a:	00f70e63          	beq	a4,a5,80006656 <__divdf3+0x274>
    8000663e:	478d                	li	a5,3
    80006640:	14f70263          	beq	a4,a5,80006784 <__divdf3+0x3a2>
    80006644:	4785                	li	a5,1
    80006646:	f4f716e3          	bne	a4,a5,80006592 <__divdf3+0x1b0>
    8000664a:	4401                	li	s0,0
    8000664c:	a205                	j	8000676c <__divdf3+0x38a>
    8000664e:	865e                	mv	a2,s7
    80006650:	b7e5                	j	80006638 <__divdf3+0x256>
    80006652:	0084e493          	ori	s1,s1,8
    80006656:	4401                	li	s0,0
    80006658:	7ff00793          	li	a5,2047
    8000665c:	bf71                	j	800065f8 <__divdf3+0x216>
    8000665e:	4405                	li	s0,1
    80006660:	144e                	slli	s0,s0,0x33
    80006662:	4601                	li	a2,0
    80006664:	470d                	li	a4,3
    80006666:	bfc9                	j	80006638 <__divdf3+0x256>
    80006668:	fe21                	bnez	a2,800065c0 <__divdf3+0x1de>
    8000666a:	0421                	addi	s0,s0,8
    8000666c:	bf91                	j	800065c0 <__divdf3+0x1de>
    8000666e:	da29                	beqz	a2,800065c0 <__divdf3+0x1de>
    80006670:	bfed                	j	8000666a <__divdf3+0x288>
    80006672:	fe35                	bnez	a2,800065ee <__divdf3+0x20c>
    80006674:	4401                	li	s0,0
    80006676:	7ff00793          	li	a5,2047
    8000667a:	bfad                	j	800065f4 <__divdf3+0x212>
    8000667c:	fe65                	bnez	a2,80006674 <__divdf3+0x292>
    8000667e:	bf85                	j	800065ee <__divdf3+0x20c>
    80006680:	4705                	li	a4,1
    80006682:	eb9d                	bnez	a5,800066b8 <__divdf3+0x2d6>
    80006684:	00747693          	andi	a3,s0,7
    80006688:	8722                	mv	a4,s0
    8000668a:	c29d                	beqz	a3,800066b0 <__divdf3+0x2ce>
    8000668c:	4709                	li	a4,2
    8000668e:	0014e493          	ori	s1,s1,1
    80006692:	08ea0b63          	beq	s4,a4,80006728 <__divdf3+0x346>
    80006696:	470d                	li	a4,3
    80006698:	08ea0363          	beq	s4,a4,8000671e <__divdf3+0x33c>
    8000669c:	8722                	mv	a4,s0
    8000669e:	000a1963          	bnez	s4,800066b0 <__divdf3+0x2ce>
    800066a2:	00f47693          	andi	a3,s0,15
    800066a6:	4591                	li	a1,4
    800066a8:	00b68463          	beq	a3,a1,800066b0 <__divdf3+0x2ce>
    800066ac:	00440713          	addi	a4,s0,4 # ffffffffbff00004 <_buffer_start+0xffffffff3feb87c4>
    800066b0:	9361                	srli	a4,a4,0x38
    800066b2:	00174713          	xori	a4,a4,1
    800066b6:	8b05                	andi	a4,a4,1
    800066b8:	4505                	li	a0,1
    800066ba:	40f507b3          	sub	a5,a0,a5
    800066be:	03800693          	li	a3,56
    800066c2:	08f6c263          	blt	a3,a5,80006746 <__divdf3+0x364>
    800066c6:	0007851b          	sext.w	a0,a5
    800066ca:	04000793          	li	a5,64
    800066ce:	9f89                	subw	a5,a5,a0
    800066d0:	00a456b3          	srl	a3,s0,a0
    800066d4:	00f41433          	sll	s0,s0,a5
    800066d8:	00803433          	snez	s0,s0
    800066dc:	8c55                	or	s0,s0,a3
    800066de:	00747793          	andi	a5,s0,7
    800066e2:	c38d                	beqz	a5,80006704 <__divdf3+0x322>
    800066e4:	4789                	li	a5,2
    800066e6:	0014e493          	ori	s1,s1,1
    800066ea:	04fa0563          	beq	s4,a5,80006734 <__divdf3+0x352>
    800066ee:	478d                	li	a5,3
    800066f0:	02fa0f63          	beq	s4,a5,8000672e <__divdf3+0x34c>
    800066f4:	000a1863          	bnez	s4,80006704 <__divdf3+0x322>
    800066f8:	00f47793          	andi	a5,s0,15
    800066fc:	4691                	li	a3,4
    800066fe:	00d78363          	beq	a5,a3,80006704 <__divdf3+0x322>
    80006702:	0411                	addi	s0,s0,4
    80006704:	00841793          	slli	a5,s0,0x8
    80006708:	0207d863          	bgez	a5,80006738 <__divdf3+0x356>
    8000670c:	0014e493          	ori	s1,s1,1
    80006710:	4401                	li	s0,0
    80006712:	4785                	li	a5,1
    80006714:	ee0702e3          	beqz	a4,800065f8 <__divdf3+0x216>
    80006718:	0024e493          	ori	s1,s1,2
    8000671c:	bdf1                	j	800065f8 <__divdf3+0x216>
    8000671e:	8722                	mv	a4,s0
    80006720:	fa41                	bnez	a2,800066b0 <__divdf3+0x2ce>
    80006722:	00840713          	addi	a4,s0,8
    80006726:	b769                	j	800066b0 <__divdf3+0x2ce>
    80006728:	8722                	mv	a4,s0
    8000672a:	d259                	beqz	a2,800066b0 <__divdf3+0x2ce>
    8000672c:	bfdd                	j	80006722 <__divdf3+0x340>
    8000672e:	fa79                	bnez	a2,80006704 <__divdf3+0x322>
    80006730:	0421                	addi	s0,s0,8
    80006732:	bfc9                	j	80006704 <__divdf3+0x322>
    80006734:	da61                	beqz	a2,80006704 <__divdf3+0x322>
    80006736:	bfed                	j	80006730 <__divdf3+0x34e>
    80006738:	800d                	srli	s0,s0,0x3
    8000673a:	4781                	li	a5,0
    8000673c:	ea070ee3          	beqz	a4,800065f8 <__divdf3+0x216>
    80006740:	0014f713          	andi	a4,s1,1
    80006744:	bfc1                	j	80006714 <__divdf3+0x332>
    80006746:	c00d                	beqz	s0,80006768 <__divdf3+0x386>
    80006748:	4789                	li	a5,2
    8000674a:	0014e493          	ori	s1,s1,1
    8000674e:	02fa0163          	beq	s4,a5,80006770 <__divdf3+0x38e>
    80006752:	478d                	li	a5,3
    80006754:	00fa0763          	beq	s4,a5,80006762 <__divdf3+0x380>
    80006758:	4415                	li	s0,5
    8000675a:	000a0663          	beqz	s4,80006766 <__divdf3+0x384>
    8000675e:	4405                	li	s0,1
    80006760:	a019                	j	80006766 <__divdf3+0x384>
    80006762:	4425                	li	s0,9
    80006764:	fe6d                	bnez	a2,8000675e <__divdf3+0x37c>
    80006766:	800d                	srli	s0,s0,0x3
    80006768:	0024e493          	ori	s1,s1,2
    8000676c:	4781                	li	a5,0
    8000676e:	b569                	j	800065f8 <__divdf3+0x216>
    80006770:	4425                	li	s0,9
    80006772:	fa75                	bnez	a2,80006766 <__divdf3+0x384>
    80006774:	b7ed                	j	8000675e <__divdf3+0x37c>
    80006776:	4405                	li	s0,1
    80006778:	144e                	slli	s0,s0,0x33
    8000677a:	7ff00793          	li	a5,2047
    8000677e:	4601                	li	a2,0
    80006780:	44c1                	li	s1,16
    80006782:	bd9d                	j	800065f8 <__divdf3+0x216>
    80006784:	4405                	li	s0,1
    80006786:	144e                	slli	s0,s0,0x33
    80006788:	7ff00793          	li	a5,2047
    8000678c:	4601                	li	a2,0
    8000678e:	b5ad                	j	800065f8 <__divdf3+0x216>

0000000080006790 <__gedf2>:
    80006790:	002027f3          	frrm	a5
    80006794:	577d                	li	a4,-1
    80006796:	8331                	srli	a4,a4,0xc
    80006798:	03455613          	srli	a2,a0,0x34
    8000679c:	00a77833          	and	a6,a4,a0
    800067a0:	0345d693          	srli	a3,a1,0x34
    800067a4:	03f55793          	srli	a5,a0,0x3f
    800067a8:	7ff67613          	andi	a2,a2,2047
    800067ac:	7ff00513          	li	a0,2047
    800067b0:	8f6d                	and	a4,a4,a1
    800067b2:	7ff6f693          	andi	a3,a3,2047
    800067b6:	91fd                	srli	a1,a1,0x3f
    800067b8:	00a61863          	bne	a2,a0,800067c8 <__gedf2+0x38>
    800067bc:	04080963          	beqz	a6,8000680e <__gedf2+0x7e>
    800067c0:	00186073          	csrsi	fflags,16
    800067c4:	5579                	li	a0,-2
    800067c6:	8082                	ret
    800067c8:	00a69363          	bne	a3,a0,800067ce <__gedf2+0x3e>
    800067cc:	fb75                	bnez	a4,800067c0 <__gedf2+0x30>
    800067ce:	e231                	bnez	a2,80006812 <__gedf2+0x82>
    800067d0:	e291                	bnez	a3,800067d4 <__gedf2+0x44>
    800067d2:	cb15                	beqz	a4,80006806 <__gedf2+0x76>
    800067d4:	00080863          	beqz	a6,800067e4 <__gedf2+0x54>
    800067d8:	00b78a63          	beq	a5,a1,800067ec <__gedf2+0x5c>
    800067dc:	4505                	li	a0,1
    800067de:	c39d                	beqz	a5,80006804 <__gedf2+0x74>
    800067e0:	557d                	li	a0,-1
    800067e2:	8082                	ret
    800067e4:	557d                	li	a0,-1
    800067e6:	cd99                	beqz	a1,80006804 <__gedf2+0x74>
    800067e8:	4505                	li	a0,1
    800067ea:	8082                	ret
    800067ec:	fec6c8e3          	blt	a3,a2,800067dc <__gedf2+0x4c>
    800067f0:	00d65563          	ble	a3,a2,800067fa <__gedf2+0x6a>
    800067f4:	557d                	li	a0,-1
    800067f6:	fbed                	bnez	a5,800067e8 <__gedf2+0x58>
    800067f8:	a031                	j	80006804 <__gedf2+0x74>
    800067fa:	ff0761e3          	bltu	a4,a6,800067dc <__gedf2+0x4c>
    800067fe:	4501                	li	a0,0
    80006800:	fee86ae3          	bltu	a6,a4,800067f4 <__gedf2+0x64>
    80006804:	8082                	ret
    80006806:	4501                	li	a0,0
    80006808:	fe080ee3          	beqz	a6,80006804 <__gedf2+0x74>
    8000680c:	bfc1                	j	800067dc <__gedf2+0x4c>
    8000680e:	fac68fe3          	beq	a3,a2,800067cc <__gedf2+0x3c>
    80006812:	f2f9                	bnez	a3,800067d8 <__gedf2+0x48>
    80006814:	d761                	beqz	a4,800067dc <__gedf2+0x4c>
    80006816:	b7c9                	j	800067d8 <__gedf2+0x48>

0000000080006818 <__ledf2>:
    80006818:	002027f3          	frrm	a5
    8000681c:	577d                	li	a4,-1
    8000681e:	8331                	srli	a4,a4,0xc
    80006820:	03455613          	srli	a2,a0,0x34
    80006824:	00a77833          	and	a6,a4,a0
    80006828:	0345d693          	srli	a3,a1,0x34
    8000682c:	03f55793          	srli	a5,a0,0x3f
    80006830:	7ff67613          	andi	a2,a2,2047
    80006834:	7ff00513          	li	a0,2047
    80006838:	8f6d                	and	a4,a4,a1
    8000683a:	7ff6f693          	andi	a3,a3,2047
    8000683e:	91fd                	srli	a1,a1,0x3f
    80006840:	00a61863          	bne	a2,a0,80006850 <__ledf2+0x38>
    80006844:	04080963          	beqz	a6,80006896 <__ledf2+0x7e>
    80006848:	00186073          	csrsi	fflags,16
    8000684c:	4509                	li	a0,2
    8000684e:	8082                	ret
    80006850:	00a69363          	bne	a3,a0,80006856 <__ledf2+0x3e>
    80006854:	fb75                	bnez	a4,80006848 <__ledf2+0x30>
    80006856:	e231                	bnez	a2,8000689a <__ledf2+0x82>
    80006858:	e291                	bnez	a3,8000685c <__ledf2+0x44>
    8000685a:	cb15                	beqz	a4,8000688e <__ledf2+0x76>
    8000685c:	00080863          	beqz	a6,8000686c <__ledf2+0x54>
    80006860:	00b78a63          	beq	a5,a1,80006874 <__ledf2+0x5c>
    80006864:	4505                	li	a0,1
    80006866:	c39d                	beqz	a5,8000688c <__ledf2+0x74>
    80006868:	557d                	li	a0,-1
    8000686a:	8082                	ret
    8000686c:	557d                	li	a0,-1
    8000686e:	cd99                	beqz	a1,8000688c <__ledf2+0x74>
    80006870:	4505                	li	a0,1
    80006872:	8082                	ret
    80006874:	fec6c8e3          	blt	a3,a2,80006864 <__ledf2+0x4c>
    80006878:	00d65563          	ble	a3,a2,80006882 <__ledf2+0x6a>
    8000687c:	557d                	li	a0,-1
    8000687e:	fbed                	bnez	a5,80006870 <__ledf2+0x58>
    80006880:	a031                	j	8000688c <__ledf2+0x74>
    80006882:	ff0761e3          	bltu	a4,a6,80006864 <__ledf2+0x4c>
    80006886:	4501                	li	a0,0
    80006888:	fee86ae3          	bltu	a6,a4,8000687c <__ledf2+0x64>
    8000688c:	8082                	ret
    8000688e:	4501                	li	a0,0
    80006890:	fe080ee3          	beqz	a6,8000688c <__ledf2+0x74>
    80006894:	bfc1                	j	80006864 <__ledf2+0x4c>
    80006896:	fac68fe3          	beq	a3,a2,80006854 <__ledf2+0x3c>
    8000689a:	f2f9                	bnez	a3,80006860 <__ledf2+0x48>
    8000689c:	d761                	beqz	a4,80006864 <__ledf2+0x4c>
    8000689e:	b7c9                	j	80006860 <__ledf2+0x48>

00000000800068a0 <__muldf3>:
    800068a0:	715d                	addi	sp,sp,-80
    800068a2:	e45e                	sd	s7,8(sp)
    800068a4:	e486                	sd	ra,72(sp)
    800068a6:	e0a2                	sd	s0,64(sp)
    800068a8:	fc26                	sd	s1,56(sp)
    800068aa:	f84a                	sd	s2,48(sp)
    800068ac:	f44e                	sd	s3,40(sp)
    800068ae:	f052                	sd	s4,32(sp)
    800068b0:	ec56                	sd	s5,24(sp)
    800068b2:	e85a                	sd	s6,16(sp)
    800068b4:	8bae                	mv	s7,a1
    800068b6:	00202af3          	frrm	s5
    800068ba:	54fd                	li	s1,-1
    800068bc:	03455913          	srli	s2,a0,0x34
    800068c0:	80b1                	srli	s1,s1,0xc
    800068c2:	7ff97913          	andi	s2,s2,2047
    800068c6:	2a81                	sext.w	s5,s5
    800068c8:	8ce9                	and	s1,s1,a0
    800068ca:	03f55993          	srli	s3,a0,0x3f
    800068ce:	00090f63          	beqz	s2,800068ec <__muldf3+0x4c>
    800068d2:	7ff00793          	li	a5,2047
    800068d6:	02f90b63          	beq	s2,a5,8000690c <__muldf3+0x6c>
    800068da:	4785                	li	a5,1
    800068dc:	048e                	slli	s1,s1,0x3
    800068de:	17de                	slli	a5,a5,0x37
    800068e0:	8cdd                	or	s1,s1,a5
    800068e2:	c0190913          	addi	s2,s2,-1023 # ffffffff7ffffc01 <_buffer_start+0xfffffffefffb83c1>
    800068e6:	4b01                	li	s6,0
    800068e8:	4a01                	li	s4,0
    800068ea:	a815                	j	8000691e <__muldf3+0x7e>
    800068ec:	c4c1                	beqz	s1,80006974 <__muldf3+0xd4>
    800068ee:	8526                	mv	a0,s1
    800068f0:	00001097          	auipc	ra,0x1
    800068f4:	d2e080e7          	jalr	-722(ra) # 8000761e <__clzdi2>
    800068f8:	2501                	sext.w	a0,a0
    800068fa:	ff85079b          	addiw	a5,a0,-8
    800068fe:	c0d00913          	li	s2,-1011
    80006902:	00f494b3          	sll	s1,s1,a5
    80006906:	40a90933          	sub	s2,s2,a0
    8000690a:	bff1                	j	800068e6 <__muldf3+0x46>
    8000690c:	c4bd                	beqz	s1,8000697a <__muldf3+0xda>
    8000690e:	00c49793          	slli	a5,s1,0xc
    80006912:	7ff00913          	li	s2,2047
    80006916:	4b0d                	li	s6,3
    80006918:	4a41                	li	s4,16
    8000691a:	fc07c7e3          	bltz	a5,800068e8 <__muldf3+0x48>
    8000691e:	034bd793          	srli	a5,s7,0x34
    80006922:	547d                	li	s0,-1
    80006924:	8031                	srli	s0,s0,0xc
    80006926:	7ff7f793          	andi	a5,a5,2047
    8000692a:	01747433          	and	s0,s0,s7
    8000692e:	03fbdb93          	srli	s7,s7,0x3f
    80006932:	cba1                	beqz	a5,80006982 <__muldf3+0xe2>
    80006934:	7ff00713          	li	a4,2047
    80006938:	06e78463          	beq	a5,a4,800069a0 <__muldf3+0x100>
    8000693c:	4705                	li	a4,1
    8000693e:	040e                	slli	s0,s0,0x3
    80006940:	175e                	slli	a4,a4,0x37
    80006942:	8c59                	or	s0,s0,a4
    80006944:	c0178793          	addi	a5,a5,-1023
    80006948:	4701                	li	a4,0
    8000694a:	002b1693          	slli	a3,s6,0x2
    8000694e:	8ed9                	or	a3,a3,a4
    80006950:	97ca                	add	a5,a5,s2
    80006952:	16fd                	addi	a3,a3,-1
    80006954:	45b9                	li	a1,14
    80006956:	0179c633          	xor	a2,s3,s7
    8000695a:	00178813          	addi	a6,a5,1
    8000695e:	0ad5e563          	bltu	a1,a3,80006a08 <__muldf3+0x168>
    80006962:	00007597          	auipc	a1,0x7
    80006966:	64a58593          	addi	a1,a1,1610 # 8000dfac <TWO52+0x4c>
    8000696a:	068a                	slli	a3,a3,0x2
    8000696c:	96ae                	add	a3,a3,a1
    8000696e:	429c                	lw	a5,0(a3)
    80006970:	97ae                	add	a5,a5,a1
    80006972:	8782                	jr	a5
    80006974:	4901                	li	s2,0
    80006976:	4b05                	li	s6,1
    80006978:	bf85                	j	800068e8 <__muldf3+0x48>
    8000697a:	7ff00913          	li	s2,2047
    8000697e:	4b09                	li	s6,2
    80006980:	b7a5                	j	800068e8 <__muldf3+0x48>
    80006982:	c80d                	beqz	s0,800069b4 <__muldf3+0x114>
    80006984:	8522                	mv	a0,s0
    80006986:	00001097          	auipc	ra,0x1
    8000698a:	c98080e7          	jalr	-872(ra) # 8000761e <__clzdi2>
    8000698e:	2501                	sext.w	a0,a0
    80006990:	ff85079b          	addiw	a5,a0,-8
    80006994:	00f41433          	sll	s0,s0,a5
    80006998:	c0d00793          	li	a5,-1011
    8000699c:	8f89                	sub	a5,a5,a0
    8000699e:	b76d                	j	80006948 <__muldf3+0xa8>
    800069a0:	cc09                	beqz	s0,800069ba <__muldf3+0x11a>
    800069a2:	00c41793          	slli	a5,s0,0xc
    800069a6:	0007ce63          	bltz	a5,800069c2 <__muldf3+0x122>
    800069aa:	7ff00793          	li	a5,2047
    800069ae:	470d                	li	a4,3
    800069b0:	4a41                	li	s4,16
    800069b2:	bf61                	j	8000694a <__muldf3+0xaa>
    800069b4:	4781                	li	a5,0
    800069b6:	4705                	li	a4,1
    800069b8:	bf49                	j	8000694a <__muldf3+0xaa>
    800069ba:	7ff00793          	li	a5,2047
    800069be:	4709                	li	a4,2
    800069c0:	b769                	j	8000694a <__muldf3+0xaa>
    800069c2:	7ff00793          	li	a5,2047
    800069c6:	470d                	li	a4,3
    800069c8:	b749                	j	8000694a <__muldf3+0xaa>
    800069ca:	4405                	li	s0,1
    800069cc:	144e                	slli	s0,s0,0x33
    800069ce:	7ff00793          	li	a5,2047
    800069d2:	4601                	li	a2,0
    800069d4:	4a41                	li	s4,16
    800069d6:	557d                	li	a0,-1
    800069d8:	7ff7f793          	andi	a5,a5,2047
    800069dc:	8131                	srli	a0,a0,0xc
    800069de:	8d61                	and	a0,a0,s0
    800069e0:	17d2                	slli	a5,a5,0x34
    800069e2:	03f61413          	slli	s0,a2,0x3f
    800069e6:	8d5d                	or	a0,a0,a5
    800069e8:	8d41                	or	a0,a0,s0
    800069ea:	000a0463          	beqz	s4,800069f2 <__muldf3+0x152>
    800069ee:	001a2073          	csrs	fflags,s4
    800069f2:	60a6                	ld	ra,72(sp)
    800069f4:	6406                	ld	s0,64(sp)
    800069f6:	74e2                	ld	s1,56(sp)
    800069f8:	7942                	ld	s2,48(sp)
    800069fa:	79a2                	ld	s3,40(sp)
    800069fc:	7a02                	ld	s4,32(sp)
    800069fe:	6ae2                	ld	s5,24(sp)
    80006a00:	6b42                	ld	s6,16(sp)
    80006a02:	6ba2                	ld	s7,8(sp)
    80006a04:	6161                	addi	sp,sp,80
    80006a06:	8082                	ret
    80006a08:	577d                	li	a4,-1
    80006a0a:	9301                	srli	a4,a4,0x20
    80006a0c:	0204d693          	srli	a3,s1,0x20
    80006a10:	02045593          	srli	a1,s0,0x20
    80006a14:	8cf9                	and	s1,s1,a4
    80006a16:	8c79                	and	s0,s0,a4
    80006a18:	02940533          	mul	a0,s0,s1
    80006a1c:	02868433          	mul	s0,a3,s0
    80006a20:	02b686b3          	mul	a3,a3,a1
    80006a24:	029585b3          	mul	a1,a1,s1
    80006a28:	02055493          	srli	s1,a0,0x20
    80006a2c:	95a2                	add	a1,a1,s0
    80006a2e:	94ae                	add	s1,s1,a1
    80006a30:	0084f563          	bleu	s0,s1,80006a3a <__muldf3+0x19a>
    80006a34:	4705                	li	a4,1
    80006a36:	1702                	slli	a4,a4,0x20
    80006a38:	96ba                	add	a3,a3,a4
    80006a3a:	547d                	li	s0,-1
    80006a3c:	9001                	srli	s0,s0,0x20
    80006a3e:	0084f733          	and	a4,s1,s0
    80006a42:	8d61                	and	a0,a0,s0
    80006a44:	1702                	slli	a4,a4,0x20
    80006a46:	972a                	add	a4,a4,a0
    80006a48:	00971413          	slli	s0,a4,0x9
    80006a4c:	9081                	srli	s1,s1,0x20
    80006a4e:	00803433          	snez	s0,s0
    80006a52:	935d                	srli	a4,a4,0x37
    80006a54:	94b6                	add	s1,s1,a3
    80006a56:	8f41                	or	a4,a4,s0
    80006a58:	04a6                	slli	s1,s1,0x9
    80006a5a:	00e4e433          	or	s0,s1,a4
    80006a5e:	00741713          	slli	a4,s0,0x7
    80006a62:	08075a63          	bgez	a4,80006af6 <__muldf3+0x256>
    80006a66:	00145793          	srli	a5,s0,0x1
    80006a6a:	8805                	andi	s0,s0,1
    80006a6c:	8c5d                	or	s0,s0,a5
    80006a6e:	3ff80793          	addi	a5,a6,1023
    80006a72:	0af05063          	blez	a5,80006b12 <__muldf3+0x272>
    80006a76:	00747713          	andi	a4,s0,7
    80006a7a:	c30d                	beqz	a4,80006a9c <__muldf3+0x1fc>
    80006a7c:	4709                	li	a4,2
    80006a7e:	001a6a13          	ori	s4,s4,1
    80006a82:	06ea8f63          	beq	s5,a4,80006b00 <__muldf3+0x260>
    80006a86:	470d                	li	a4,3
    80006a88:	06ea8963          	beq	s5,a4,80006afa <__muldf3+0x25a>
    80006a8c:	000a9863          	bnez	s5,80006a9c <__muldf3+0x1fc>
    80006a90:	00f47713          	andi	a4,s0,15
    80006a94:	4691                	li	a3,4
    80006a96:	00d70363          	beq	a4,a3,80006a9c <__muldf3+0x1fc>
    80006a9a:	0411                	addi	s0,s0,4
    80006a9c:	00741713          	slli	a4,s0,0x7
    80006aa0:	00075863          	bgez	a4,80006ab0 <__muldf3+0x210>
    80006aa4:	57fd                	li	a5,-1
    80006aa6:	17e2                	slli	a5,a5,0x38
    80006aa8:	17fd                	addi	a5,a5,-1
    80006aaa:	8c7d                	and	s0,s0,a5
    80006aac:	40080793          	addi	a5,a6,1024
    80006ab0:	7fe00713          	li	a4,2046
    80006ab4:	800d                	srli	s0,s0,0x3
    80006ab6:	f2f750e3          	ble	a5,a4,800069d6 <__muldf3+0x136>
    80006aba:	4789                	li	a5,2
    80006abc:	04fa8963          	beq	s5,a5,80006b0e <__muldf3+0x26e>
    80006ac0:	478d                	li	a5,3
    80006ac2:	04fa8163          	beq	s5,a5,80006b04 <__muldf3+0x264>
    80006ac6:	040a8063          	beqz	s5,80006b06 <__muldf3+0x266>
    80006aca:	547d                	li	s0,-1
    80006acc:	7fe00793          	li	a5,2046
    80006ad0:	005a6a13          	ori	s4,s4,5
    80006ad4:	b709                	j	800069d6 <__muldf3+0x136>
    80006ad6:	864e                	mv	a2,s3
    80006ad8:	8426                	mv	s0,s1
    80006ada:	875a                	mv	a4,s6
    80006adc:	4789                	li	a5,2
    80006ade:	12f70563          	beq	a4,a5,80006c08 <__muldf3+0x368>
    80006ae2:	478d                	li	a5,3
    80006ae4:	12f70663          	beq	a4,a5,80006c10 <__muldf3+0x370>
    80006ae8:	4785                	li	a5,1
    80006aea:	f8f712e3          	bne	a4,a5,80006a6e <__muldf3+0x1ce>
    80006aee:	4401                	li	s0,0
    80006af0:	a239                	j	80006bfe <__muldf3+0x35e>
    80006af2:	865e                	mv	a2,s7
    80006af4:	b7e5                	j	80006adc <__muldf3+0x23c>
    80006af6:	883e                	mv	a6,a5
    80006af8:	bf9d                	j	80006a6e <__muldf3+0x1ce>
    80006afa:	f24d                	bnez	a2,80006a9c <__muldf3+0x1fc>
    80006afc:	0421                	addi	s0,s0,8
    80006afe:	bf79                	j	80006a9c <__muldf3+0x1fc>
    80006b00:	de51                	beqz	a2,80006a9c <__muldf3+0x1fc>
    80006b02:	bfed                	j	80006afc <__muldf3+0x25c>
    80006b04:	f279                	bnez	a2,80006aca <__muldf3+0x22a>
    80006b06:	4401                	li	s0,0
    80006b08:	7ff00793          	li	a5,2047
    80006b0c:	b7d1                	j	80006ad0 <__muldf3+0x230>
    80006b0e:	fe65                	bnez	a2,80006b06 <__muldf3+0x266>
    80006b10:	bf6d                	j	80006aca <__muldf3+0x22a>
    80006b12:	4705                	li	a4,1
    80006b14:	eb9d                	bnez	a5,80006b4a <__muldf3+0x2aa>
    80006b16:	00747693          	andi	a3,s0,7
    80006b1a:	8722                	mv	a4,s0
    80006b1c:	c29d                	beqz	a3,80006b42 <__muldf3+0x2a2>
    80006b1e:	4709                	li	a4,2
    80006b20:	001a6a13          	ori	s4,s4,1
    80006b24:	08ea8b63          	beq	s5,a4,80006bba <__muldf3+0x31a>
    80006b28:	470d                	li	a4,3
    80006b2a:	08ea8363          	beq	s5,a4,80006bb0 <__muldf3+0x310>
    80006b2e:	8722                	mv	a4,s0
    80006b30:	000a9963          	bnez	s5,80006b42 <__muldf3+0x2a2>
    80006b34:	00f47693          	andi	a3,s0,15
    80006b38:	4591                	li	a1,4
    80006b3a:	00b68463          	beq	a3,a1,80006b42 <__muldf3+0x2a2>
    80006b3e:	00440713          	addi	a4,s0,4
    80006b42:	9361                	srli	a4,a4,0x38
    80006b44:	00174713          	xori	a4,a4,1
    80006b48:	8b05                	andi	a4,a4,1
    80006b4a:	4505                	li	a0,1
    80006b4c:	40f507b3          	sub	a5,a0,a5
    80006b50:	03800693          	li	a3,56
    80006b54:	08f6c263          	blt	a3,a5,80006bd8 <__muldf3+0x338>
    80006b58:	0007851b          	sext.w	a0,a5
    80006b5c:	04000793          	li	a5,64
    80006b60:	9f89                	subw	a5,a5,a0
    80006b62:	00a456b3          	srl	a3,s0,a0
    80006b66:	00f41433          	sll	s0,s0,a5
    80006b6a:	00803433          	snez	s0,s0
    80006b6e:	8c55                	or	s0,s0,a3
    80006b70:	00747793          	andi	a5,s0,7
    80006b74:	c38d                	beqz	a5,80006b96 <__muldf3+0x2f6>
    80006b76:	4789                	li	a5,2
    80006b78:	001a6a13          	ori	s4,s4,1
    80006b7c:	04fa8563          	beq	s5,a5,80006bc6 <__muldf3+0x326>
    80006b80:	478d                	li	a5,3
    80006b82:	02fa8f63          	beq	s5,a5,80006bc0 <__muldf3+0x320>
    80006b86:	000a9863          	bnez	s5,80006b96 <__muldf3+0x2f6>
    80006b8a:	00f47793          	andi	a5,s0,15
    80006b8e:	4691                	li	a3,4
    80006b90:	00d78363          	beq	a5,a3,80006b96 <__muldf3+0x2f6>
    80006b94:	0411                	addi	s0,s0,4
    80006b96:	00841793          	slli	a5,s0,0x8
    80006b9a:	0207d863          	bgez	a5,80006bca <__muldf3+0x32a>
    80006b9e:	001a6a13          	ori	s4,s4,1
    80006ba2:	4401                	li	s0,0
    80006ba4:	4785                	li	a5,1
    80006ba6:	e20708e3          	beqz	a4,800069d6 <__muldf3+0x136>
    80006baa:	002a6a13          	ori	s4,s4,2
    80006bae:	b525                	j	800069d6 <__muldf3+0x136>
    80006bb0:	8722                	mv	a4,s0
    80006bb2:	fa41                	bnez	a2,80006b42 <__muldf3+0x2a2>
    80006bb4:	00840713          	addi	a4,s0,8
    80006bb8:	b769                	j	80006b42 <__muldf3+0x2a2>
    80006bba:	8722                	mv	a4,s0
    80006bbc:	d259                	beqz	a2,80006b42 <__muldf3+0x2a2>
    80006bbe:	bfdd                	j	80006bb4 <__muldf3+0x314>
    80006bc0:	fa79                	bnez	a2,80006b96 <__muldf3+0x2f6>
    80006bc2:	0421                	addi	s0,s0,8
    80006bc4:	bfc9                	j	80006b96 <__muldf3+0x2f6>
    80006bc6:	da61                	beqz	a2,80006b96 <__muldf3+0x2f6>
    80006bc8:	bfed                	j	80006bc2 <__muldf3+0x322>
    80006bca:	800d                	srli	s0,s0,0x3
    80006bcc:	4781                	li	a5,0
    80006bce:	e00704e3          	beqz	a4,800069d6 <__muldf3+0x136>
    80006bd2:	001a7713          	andi	a4,s4,1
    80006bd6:	bfc1                	j	80006ba6 <__muldf3+0x306>
    80006bd8:	c00d                	beqz	s0,80006bfa <__muldf3+0x35a>
    80006bda:	4789                	li	a5,2
    80006bdc:	001a6a13          	ori	s4,s4,1
    80006be0:	02fa8163          	beq	s5,a5,80006c02 <__muldf3+0x362>
    80006be4:	478d                	li	a5,3
    80006be6:	00fa8763          	beq	s5,a5,80006bf4 <__muldf3+0x354>
    80006bea:	4415                	li	s0,5
    80006bec:	000a8663          	beqz	s5,80006bf8 <__muldf3+0x358>
    80006bf0:	4405                	li	s0,1
    80006bf2:	a019                	j	80006bf8 <__muldf3+0x358>
    80006bf4:	4425                	li	s0,9
    80006bf6:	fe6d                	bnez	a2,80006bf0 <__muldf3+0x350>
    80006bf8:	800d                	srli	s0,s0,0x3
    80006bfa:	002a6a13          	ori	s4,s4,2
    80006bfe:	4781                	li	a5,0
    80006c00:	bbd9                	j	800069d6 <__muldf3+0x136>
    80006c02:	4425                	li	s0,9
    80006c04:	fa75                	bnez	a2,80006bf8 <__muldf3+0x358>
    80006c06:	b7ed                	j	80006bf0 <__muldf3+0x350>
    80006c08:	4401                	li	s0,0
    80006c0a:	7ff00793          	li	a5,2047
    80006c0e:	b3e1                	j	800069d6 <__muldf3+0x136>
    80006c10:	4405                	li	s0,1
    80006c12:	144e                	slli	s0,s0,0x33
    80006c14:	7ff00793          	li	a5,2047
    80006c18:	4601                	li	a2,0
    80006c1a:	bb75                	j	800069d6 <__muldf3+0x136>

0000000080006c1c <__subdf3>:
    80006c1c:	7179                	addi	sp,sp,-48
    80006c1e:	f406                	sd	ra,40(sp)
    80006c20:	f022                	sd	s0,32(sp)
    80006c22:	ec26                	sd	s1,24(sp)
    80006c24:	e84a                	sd	s2,16(sp)
    80006c26:	e44e                	sd	s3,8(sp)
    80006c28:	00202973          	frrm	s2
    80006c2c:	56fd                	li	a3,-1
    80006c2e:	82b1                	srli	a3,a3,0xc
    80006c30:	00a6f7b3          	and	a5,a3,a0
    80006c34:	03455893          	srli	a7,a0,0x34
    80006c38:	03f55493          	srli	s1,a0,0x3f
    80006c3c:	0345d513          	srli	a0,a1,0x34
    80006c40:	8eed                	and	a3,a3,a1
    80006c42:	7ff8f893          	andi	a7,a7,2047
    80006c46:	7ff57513          	andi	a0,a0,2047
    80006c4a:	7ff00713          	li	a4,2047
    80006c4e:	2901                	sext.w	s2,s2
    80006c50:	89c6                	mv	s3,a7
    80006c52:	078e                	slli	a5,a5,0x3
    80006c54:	862a                	mv	a2,a0
    80006c56:	91fd                	srli	a1,a1,0x3f
    80006c58:	068e                	slli	a3,a3,0x3
    80006c5a:	00e51363          	bne	a0,a4,80006c60 <__subdf3+0x44>
    80006c5e:	e299                	bnez	a3,80006c64 <__subdf3+0x48>
    80006c60:	0015c593          	xori	a1,a1,1
    80006c64:	40a8873b          	subw	a4,a7,a0
    80006c68:	0007081b          	sext.w	a6,a4
    80006c6c:	22959363          	bne	a1,s1,80006e92 <__subdf3+0x276>
    80006c70:	09005e63          	blez	a6,80006d0c <__subdf3+0xf0>
    80006c74:	e13d                	bnez	a0,80006cda <__subdf3+0xbe>
    80006c76:	ea89                	bnez	a3,80006c88 <__subdf3+0x6c>
    80006c78:	7ff00713          	li	a4,2047
    80006c7c:	04e88463          	beq	a7,a4,80006cc4 <__subdf3+0xa8>
    80006c80:	36098b63          	beqz	s3,80006ff6 <__subdf3+0x3da>
    80006c84:	864e                	mv	a2,s3
    80006c86:	a80d                	j	80006cb8 <__subdf3+0x9c>
    80006c88:	fff7081b          	addiw	a6,a4,-1
    80006c8c:	02081863          	bnez	a6,80006cbc <__subdf3+0xa0>
    80006c90:	97b6                	add	a5,a5,a3
    80006c92:	00879713          	slli	a4,a5,0x8
    80006c96:	fe0755e3          	bgez	a4,80006c80 <__subdf3+0x64>
    80006c9a:	00198613          	addi	a2,s3,1
    80006c9e:	7ff00713          	li	a4,2047
    80006ca2:	1ce60663          	beq	a2,a4,80006e6e <__subdf3+0x252>
    80006ca6:	1ff00713          	li	a4,511
    80006caa:	175a                	slli	a4,a4,0x36
    80006cac:	0017f693          	andi	a3,a5,1
    80006cb0:	177d                	addi	a4,a4,-1
    80006cb2:	8385                	srli	a5,a5,0x1
    80006cb4:	8ff9                	and	a5,a5,a4
    80006cb6:	8fd5                	or	a5,a5,a3
    80006cb8:	4801                	li	a6,0
    80006cba:	a2a5                	j	80006e22 <__subdf3+0x206>
    80006cbc:	7ff00713          	li	a4,2047
    80006cc0:	02e89463          	bne	a7,a4,80006ce8 <__subdf3+0xcc>
    80006cc4:	44078363          	beqz	a5,8000710a <__subdf3+0x4ee>
    80006cc8:	00979713          	slli	a4,a5,0x9
    80006ccc:	7ff00613          	li	a2,2047
    80006cd0:	4801                	li	a6,0
    80006cd2:	14074863          	bltz	a4,80006e22 <__subdf3+0x206>
    80006cd6:	4741                	li	a4,16
    80006cd8:	a8e1                	j	80006db0 <__subdf3+0x194>
    80006cda:	7ff00713          	li	a4,2047
    80006cde:	fee883e3          	beq	a7,a4,80006cc4 <__subdf3+0xa8>
    80006ce2:	4705                	li	a4,1
    80006ce4:	175e                	slli	a4,a4,0x37
    80006ce6:	8ed9                	or	a3,a3,a4
    80006ce8:	03800713          	li	a4,56
    80006cec:	01075463          	ble	a6,a4,80006cf4 <__subdf3+0xd8>
    80006cf0:	4685                	li	a3,1
    80006cf2:	bf79                	j	80006c90 <__subdf3+0x74>
    80006cf4:	04000713          	li	a4,64
    80006cf8:	0106d633          	srl	a2,a3,a6
    80006cfc:	4107083b          	subw	a6,a4,a6
    80006d00:	010696b3          	sll	a3,a3,a6
    80006d04:	00d036b3          	snez	a3,a3
    80006d08:	8ed1                	or	a3,a3,a2
    80006d0a:	b759                	j	80006c90 <__subdf3+0x74>
    80006d0c:	06080c63          	beqz	a6,80006d84 <__subdf3+0x168>
    80006d10:	02089f63          	bnez	a7,80006d4e <__subdf3+0x132>
    80006d14:	ef99                	bnez	a5,80006d32 <__subdf3+0x116>
    80006d16:	7ff00713          	li	a4,2047
    80006d1a:	3ce51463          	bne	a0,a4,800070e2 <__subdf3+0x4c6>
    80006d1e:	4701                	li	a4,0
    80006d20:	26068863          	beqz	a3,80006f90 <__subdf3+0x374>
    80006d24:	00969793          	slli	a5,a3,0x9
    80006d28:	3c07cd63          	bltz	a5,80007102 <__subdf3+0x4e6>
    80006d2c:	87b6                	mv	a5,a3
    80006d2e:	4801                	li	a6,0
    80006d30:	b75d                	j	80006cd6 <__subdf3+0xba>
    80006d32:	55fd                	li	a1,-1
    80006d34:	00b81563          	bne	a6,a1,80006d3e <__subdf3+0x122>
    80006d38:	97b6                	add	a5,a5,a3
    80006d3a:	89aa                	mv	s3,a0
    80006d3c:	bf99                	j	80006c92 <__subdf3+0x76>
    80006d3e:	7ff00593          	li	a1,2047
    80006d42:	40b51363          	bne	a0,a1,80007148 <__subdf3+0x52c>
    80006d46:	fef9                	bnez	a3,80006d24 <__subdf3+0x108>
    80006d48:	4781                	li	a5,0
    80006d4a:	4701                	li	a4,0
    80006d4c:	a491                	j	80006f90 <__subdf3+0x374>
    80006d4e:	7ff00593          	li	a1,2047
    80006d52:	feb50ae3          	beq	a0,a1,80006d46 <__subdf3+0x12a>
    80006d56:	4605                	li	a2,1
    80006d58:	165e                	slli	a2,a2,0x37
    80006d5a:	40e0073b          	negw	a4,a4
    80006d5e:	8fd1                	or	a5,a5,a2
    80006d60:	03800613          	li	a2,56
    80006d64:	00e65463          	ble	a4,a2,80006d6c <__subdf3+0x150>
    80006d68:	4785                	li	a5,1
    80006d6a:	b7f9                	j	80006d38 <__subdf3+0x11c>
    80006d6c:	04000613          	li	a2,64
    80006d70:	00e7d5b3          	srl	a1,a5,a4
    80006d74:	40e6073b          	subw	a4,a2,a4
    80006d78:	00e797b3          	sll	a5,a5,a4
    80006d7c:	00f037b3          	snez	a5,a5
    80006d80:	8fcd                	or	a5,a5,a1
    80006d82:	bf5d                	j	80006d38 <__subdf3+0x11c>
    80006d84:	00188613          	addi	a2,a7,1
    80006d88:	7fe67713          	andi	a4,a2,2046
    80006d8c:	e749                	bnez	a4,80006e16 <__subdf3+0x1fa>
    80006d8e:	02089d63          	bnez	a7,80006dc8 <__subdf3+0x1ac>
    80006d92:	34078f63          	beqz	a5,800070f0 <__subdf3+0x4d4>
    80006d96:	26068363          	beqz	a3,80006ffc <__subdf3+0x3e0>
    80006d9a:	97b6                	add	a5,a5,a3
    80006d9c:	00879713          	slli	a4,a5,0x8
    80006da0:	24075e63          	bgez	a4,80006ffc <__subdf3+0x3e0>
    80006da4:	577d                	li	a4,-1
    80006da6:	175e                	slli	a4,a4,0x37
    80006da8:	177d                	addi	a4,a4,-1
    80006daa:	8ff9                	and	a5,a5,a4
    80006dac:	4605                	li	a2,1
    80006dae:	4701                	li	a4,0
    80006db0:	0077f693          	andi	a3,a5,7
    80006db4:	ead1                	bnez	a3,80006e48 <__subdf3+0x22c>
    80006db6:	1c080d63          	beqz	a6,80006f90 <__subdf3+0x374>
    80006dba:	00177693          	andi	a3,a4,1
    80006dbe:	1c068963          	beqz	a3,80006f90 <__subdf3+0x374>
    80006dc2:	00276713          	ori	a4,a4,2
    80006dc6:	a2e9                	j	80006f90 <__subdf3+0x374>
    80006dc8:	7ff00713          	li	a4,2047
    80006dcc:	00e89e63          	bne	a7,a4,80006de8 <__subdf3+0x1cc>
    80006dd0:	3a078d63          	beqz	a5,8000718a <__subdf3+0x56e>
    80006dd4:	0367d713          	srli	a4,a5,0x36
    80006dd8:	8b05                	andi	a4,a4,1
    80006dda:	00173713          	seqz	a4,a4
    80006dde:	0712                	slli	a4,a4,0x4
    80006de0:	03151363          	bne	a0,a7,80006e06 <__subdf3+0x1ea>
    80006de4:	e699                	bnez	a3,80006df2 <__subdf3+0x1d6>
    80006de6:	ac79                	j	80007084 <__subdf3+0x468>
    80006de8:	00e51c63          	bne	a0,a4,80006e00 <__subdf3+0x1e4>
    80006dec:	36068463          	beqz	a3,80007154 <__subdf3+0x538>
    80006df0:	4701                	li	a4,0
    80006df2:	00969613          	slli	a2,a3,0x9
    80006df6:	34065d63          	bgez	a2,80007150 <__subdf3+0x534>
    80006dfa:	eb81                	bnez	a5,80006e0a <__subdf3+0x1ee>
    80006dfc:	87b6                	mv	a5,a3
    80006dfe:	a459                	j	80007084 <__subdf3+0x468>
    80006e00:	30078363          	beqz	a5,80007106 <__subdf3+0x4ea>
    80006e04:	4701                	li	a4,0
    80006e06:	26068f63          	beqz	a3,80007084 <__subdf3+0x468>
    80006e0a:	4785                	li	a5,1
    80006e0c:	4481                	li	s1,0
    80006e0e:	17da                	slli	a5,a5,0x36
    80006e10:	7ff00613          	li	a2,2047
    80006e14:	aab5                	j	80006f90 <__subdf3+0x374>
    80006e16:	7ff00713          	li	a4,2047
    80006e1a:	00e60663          	beq	a2,a4,80006e26 <__subdf3+0x20a>
    80006e1e:	97b6                	add	a5,a5,a3
    80006e20:	8385                	srli	a5,a5,0x1
    80006e22:	4701                	li	a4,0
    80006e24:	b771                	j	80006db0 <__subdf3+0x194>
    80006e26:	00090663          	beqz	s2,80006e32 <__subdf3+0x216>
    80006e2a:	478d                	li	a5,3
    80006e2c:	00f91663          	bne	s2,a5,80006e38 <__subdf3+0x21c>
    80006e30:	e881                	bnez	s1,80006e40 <__subdf3+0x224>
    80006e32:	7ff00613          	li	a2,2047
    80006e36:	a091                	j	80006e7a <__subdf3+0x25e>
    80006e38:	4789                	li	a5,2
    80006e3a:	00f91363          	bne	s2,a5,80006e40 <__subdf3+0x224>
    80006e3e:	f8f5                	bnez	s1,80006e32 <__subdf3+0x216>
    80006e40:	57fd                	li	a5,-1
    80006e42:	7fe00613          	li	a2,2046
    80006e46:	4715                	li	a4,5
    80006e48:	4689                	li	a3,2
    80006e4a:	00176713          	ori	a4,a4,1
    80006e4e:	2cd90863          	beq	s2,a3,8000711e <__subdf3+0x502>
    80006e52:	468d                	li	a3,3
    80006e54:	2cd90163          	beq	s2,a3,80007116 <__subdf3+0x4fa>
    80006e58:	00091863          	bnez	s2,80006e68 <__subdf3+0x24c>
    80006e5c:	00f7f693          	andi	a3,a5,15
    80006e60:	4591                	li	a1,4
    80006e62:	00b68363          	beq	a3,a1,80006e68 <__subdf3+0x24c>
    80006e66:	0791                	addi	a5,a5,4
    80006e68:	f4081de3          	bnez	a6,80006dc2 <__subdf3+0x1a6>
    80006e6c:	a215                	j	80006f90 <__subdf3+0x374>
    80006e6e:	00090663          	beqz	s2,80006e7a <__subdf3+0x25e>
    80006e72:	478d                	li	a5,3
    80006e74:	00f91663          	bne	s2,a5,80006e80 <__subdf3+0x264>
    80006e78:	e881                	bnez	s1,80006e88 <__subdf3+0x26c>
    80006e7a:	4781                	li	a5,0
    80006e7c:	4715                	li	a4,5
    80006e7e:	aa09                	j	80006f90 <__subdf3+0x374>
    80006e80:	4789                	li	a5,2
    80006e82:	00f91363          	bne	s2,a5,80006e88 <__subdf3+0x26c>
    80006e86:	f8f5                	bnez	s1,80006e7a <__subdf3+0x25e>
    80006e88:	57fd                	li	a5,-1
    80006e8a:	7fe00613          	li	a2,2046
    80006e8e:	4801                	li	a6,0
    80006e90:	bf5d                	j	80006e46 <__subdf3+0x22a>
    80006e92:	07005063          	blez	a6,80006ef2 <__subdf3+0x2d6>
    80006e96:	e915                	bnez	a0,80006eca <__subdf3+0x2ae>
    80006e98:	de0680e3          	beqz	a3,80006c78 <__subdf3+0x5c>
    80006e9c:	fff7081b          	addiw	a6,a4,-1
    80006ea0:	00081b63          	bnez	a6,80006eb6 <__subdf3+0x29a>
    80006ea4:	8f95                	sub	a5,a5,a3
    80006ea6:	00879713          	slli	a4,a5,0x8
    80006eaa:	dc075be3          	bgez	a4,80006c80 <__subdf3+0x64>
    80006eae:	547d                	li	s0,-1
    80006eb0:	8025                	srli	s0,s0,0x9
    80006eb2:	8c7d                	and	s0,s0,a5
    80006eb4:	a2e5                	j	8000709c <__subdf3+0x480>
    80006eb6:	7ff00713          	li	a4,2047
    80006eba:	e0e885e3          	beq	a7,a4,80006cc4 <__subdf3+0xa8>
    80006ebe:	03800713          	li	a4,56
    80006ec2:	01075c63          	ble	a6,a4,80006eda <__subdf3+0x2be>
    80006ec6:	4685                	li	a3,1
    80006ec8:	bff1                	j	80006ea4 <__subdf3+0x288>
    80006eca:	7ff00713          	li	a4,2047
    80006ece:	dee88be3          	beq	a7,a4,80006cc4 <__subdf3+0xa8>
    80006ed2:	4705                	li	a4,1
    80006ed4:	175e                	slli	a4,a4,0x37
    80006ed6:	8ed9                	or	a3,a3,a4
    80006ed8:	b7dd                	j	80006ebe <__subdf3+0x2a2>
    80006eda:	04000713          	li	a4,64
    80006ede:	0106d633          	srl	a2,a3,a6
    80006ee2:	4107083b          	subw	a6,a4,a6
    80006ee6:	010696b3          	sll	a3,a3,a6
    80006eea:	00d036b3          	snez	a3,a3
    80006eee:	8ed1                	or	a3,a3,a2
    80006ef0:	bf55                	j	80006ea4 <__subdf3+0x288>
    80006ef2:	06080d63          	beqz	a6,80006f6c <__subdf3+0x350>
    80006ef6:	02089f63          	bnez	a7,80006f34 <__subdf3+0x318>
    80006efa:	ef89                	bnez	a5,80006f14 <__subdf3+0x2f8>
    80006efc:	7ff00713          	li	a4,2047
    80006f00:	1ee51463          	bne	a0,a4,800070e8 <__subdf3+0x4cc>
    80006f04:	c695                	beqz	a3,80006f30 <__subdf3+0x314>
    80006f06:	00969793          	slli	a5,a3,0x9
    80006f0a:	2007c363          	bltz	a5,80007110 <__subdf3+0x4f4>
    80006f0e:	87b6                	mv	a5,a3
    80006f10:	84ae                	mv	s1,a1
    80006f12:	bd31                	j	80006d2e <__subdf3+0x112>
    80006f14:	58fd                	li	a7,-1
    80006f16:	01181763          	bne	a6,a7,80006f24 <__subdf3+0x308>
    80006f1a:	40f687b3          	sub	a5,a3,a5
    80006f1e:	89aa                	mv	s3,a0
    80006f20:	84ae                	mv	s1,a1
    80006f22:	b751                	j	80006ea6 <__subdf3+0x28a>
    80006f24:	7ff00813          	li	a6,2047
    80006f28:	23051a63          	bne	a0,a6,8000715c <__subdf3+0x540>
    80006f2c:	fee9                	bnez	a3,80006f06 <__subdf3+0x2ea>
    80006f2e:	4781                	li	a5,0
    80006f30:	84ae                	mv	s1,a1
    80006f32:	bd21                	j	80006d4a <__subdf3+0x12e>
    80006f34:	7ff00813          	li	a6,2047
    80006f38:	ff050ae3          	beq	a0,a6,80006f2c <__subdf3+0x310>
    80006f3c:	4605                	li	a2,1
    80006f3e:	165e                	slli	a2,a2,0x37
    80006f40:	40e0073b          	negw	a4,a4
    80006f44:	8fd1                	or	a5,a5,a2
    80006f46:	03800613          	li	a2,56
    80006f4a:	00e65463          	ble	a4,a2,80006f52 <__subdf3+0x336>
    80006f4e:	4785                	li	a5,1
    80006f50:	b7e9                	j	80006f1a <__subdf3+0x2fe>
    80006f52:	04000613          	li	a2,64
    80006f56:	00e7d833          	srl	a6,a5,a4
    80006f5a:	40e6073b          	subw	a4,a2,a4
    80006f5e:	00e797b3          	sll	a5,a5,a4
    80006f62:	00f037b3          	snez	a5,a5
    80006f66:	00f867b3          	or	a5,a6,a5
    80006f6a:	bf45                	j	80006f1a <__subdf3+0x2fe>
    80006f6c:	00188713          	addi	a4,a7,1
    80006f70:	7fe77713          	andi	a4,a4,2046
    80006f74:	10071b63          	bnez	a4,8000708a <__subdf3+0x46e>
    80006f78:	0c089263          	bnez	a7,8000703c <__subdf3+0x420>
    80006f7c:	e3bd                	bnez	a5,80006fe2 <__subdf3+0x3c6>
    80006f7e:	1e069e63          	bnez	a3,8000717a <__subdf3+0x55e>
    80006f82:	ffe90493          	addi	s1,s2,-2
    80006f86:	0014b493          	seqz	s1,s1
    80006f8a:	4701                	li	a4,0
    80006f8c:	4781                	li	a5,0
    80006f8e:	4601                	li	a2,0
    80006f90:	00879693          	slli	a3,a5,0x8
    80006f94:	0006db63          	bgez	a3,80006faa <__subdf3+0x38e>
    80006f98:	0605                	addi	a2,a2,1
    80006f9a:	7ff00693          	li	a3,2047
    80006f9e:	18d60363          	beq	a2,a3,80007124 <__subdf3+0x508>
    80006fa2:	56fd                	li	a3,-1
    80006fa4:	16de                	slli	a3,a3,0x37
    80006fa6:	16fd                	addi	a3,a3,-1
    80006fa8:	8ff5                	and	a5,a5,a3
    80006faa:	7ff00693          	li	a3,2047
    80006fae:	838d                	srli	a5,a5,0x3
    80006fb0:	00d61663          	bne	a2,a3,80006fbc <__subdf3+0x3a0>
    80006fb4:	c781                	beqz	a5,80006fbc <__subdf3+0x3a0>
    80006fb6:	4785                	li	a5,1
    80006fb8:	17ce                	slli	a5,a5,0x33
    80006fba:	4481                	li	s1,0
    80006fbc:	7ff67513          	andi	a0,a2,2047
    80006fc0:	567d                	li	a2,-1
    80006fc2:	8231                	srli	a2,a2,0xc
    80006fc4:	1552                	slli	a0,a0,0x34
    80006fc6:	8ff1                	and	a5,a5,a2
    80006fc8:	14fe                	slli	s1,s1,0x3f
    80006fca:	8d5d                	or	a0,a0,a5
    80006fcc:	8d45                	or	a0,a0,s1
    80006fce:	c319                	beqz	a4,80006fd4 <__subdf3+0x3b8>
    80006fd0:	00172073          	csrs	fflags,a4
    80006fd4:	70a2                	ld	ra,40(sp)
    80006fd6:	7402                	ld	s0,32(sp)
    80006fd8:	64e2                	ld	s1,24(sp)
    80006fda:	6942                	ld	s2,16(sp)
    80006fdc:	69a2                	ld	s3,8(sp)
    80006fde:	6145                	addi	sp,sp,48
    80006fe0:	8082                	ret
    80006fe2:	ce89                	beqz	a3,80006ffc <__subdf3+0x3e0>
    80006fe4:	40d78733          	sub	a4,a5,a3
    80006fe8:	00871613          	slli	a2,a4,0x8
    80006fec:	04065563          	bgez	a2,80007036 <__subdf3+0x41a>
    80006ff0:	40f687b3          	sub	a5,a3,a5
    80006ff4:	84ae                	mv	s1,a1
    80006ff6:	4601                	li	a2,0
    80006ff8:	d40789e3          	beqz	a5,80006d4a <__subdf3+0x12e>
    80006ffc:	00179813          	slli	a6,a5,0x1
    80007000:	00787693          	andi	a3,a6,7
    80007004:	4701                	li	a4,0
    80007006:	c285                	beqz	a3,80007026 <__subdf3+0x40a>
    80007008:	4709                	li	a4,2
    8000700a:	0ee90963          	beq	s2,a4,800070fc <__subdf3+0x4e0>
    8000700e:	470d                	li	a4,3
    80007010:	0ee90263          	beq	s2,a4,800070f4 <__subdf3+0x4d8>
    80007014:	4705                	li	a4,1
    80007016:	00091863          	bnez	s2,80007026 <__subdf3+0x40a>
    8000701a:	00f87693          	andi	a3,a6,15
    8000701e:	4611                	li	a2,4
    80007020:	00c68363          	beq	a3,a2,80007026 <__subdf3+0x40a>
    80007024:	0811                	addi	a6,a6,4
    80007026:	03885813          	srli	a6,a6,0x38
    8000702a:	00184813          	xori	a6,a6,1
    8000702e:	00187813          	andi	a6,a6,1
    80007032:	4601                	li	a2,0
    80007034:	bbb5                	j	80006db0 <__subdf3+0x194>
    80007036:	d731                	beqz	a4,80006f82 <__subdf3+0x366>
    80007038:	87ba                	mv	a5,a4
    8000703a:	b7c9                	j	80006ffc <__subdf3+0x3e0>
    8000703c:	7ff00713          	li	a4,2047
    80007040:	00e89e63          	bne	a7,a4,8000705c <__subdf3+0x440>
    80007044:	12078e63          	beqz	a5,80007180 <__subdf3+0x564>
    80007048:	0367d713          	srli	a4,a5,0x36
    8000704c:	8b05                	andi	a4,a4,1
    8000704e:	00173713          	seqz	a4,a4
    80007052:	0712                	slli	a4,a4,0x4
    80007054:	db1519e3          	bne	a0,a7,80006e06 <__subdf3+0x1ea>
    80007058:	e699                	bnez	a3,80007066 <__subdf3+0x44a>
    8000705a:	bb99                	j	80006db0 <__subdf3+0x194>
    8000705c:	00e51e63          	bne	a0,a4,80007078 <__subdf3+0x45c>
    80007060:	10068263          	beqz	a3,80007164 <__subdf3+0x548>
    80007064:	4701                	li	a4,0
    80007066:	00969613          	slli	a2,a3,0x9
    8000706a:	10065663          	bgez	a2,80007176 <__subdf3+0x55a>
    8000706e:	d8079ee3          	bnez	a5,80006e0a <__subdf3+0x1ee>
    80007072:	87b6                	mv	a5,a3
    80007074:	84ae                	mv	s1,a1
    80007076:	a039                	j	80007084 <__subdf3+0x468>
    80007078:	d80796e3          	bnez	a5,80006e04 <__subdf3+0x1e8>
    8000707c:	c6f5                	beqz	a3,80007168 <__subdf3+0x54c>
    8000707e:	87b6                	mv	a5,a3
    80007080:	84ae                	mv	s1,a1
    80007082:	4701                	li	a4,0
    80007084:	7ff00613          	li	a2,2047
    80007088:	b325                	j	80006db0 <__subdf3+0x194>
    8000708a:	40d78433          	sub	s0,a5,a3
    8000708e:	00841713          	slli	a4,s0,0x8
    80007092:	02075f63          	bgez	a4,800070d0 <__subdf3+0x4b4>
    80007096:	40f68433          	sub	s0,a3,a5
    8000709a:	84ae                	mv	s1,a1
    8000709c:	8522                	mv	a0,s0
    8000709e:	00000097          	auipc	ra,0x0
    800070a2:	580080e7          	jalr	1408(ra) # 8000761e <__clzdi2>
    800070a6:	ff85079b          	addiw	a5,a0,-8
    800070aa:	00f41433          	sll	s0,s0,a5
    800070ae:	0337c363          	blt	a5,s3,800070d4 <__subdf3+0x4b8>
    800070b2:	4137853b          	subw	a0,a5,s3
    800070b6:	2505                	addiw	a0,a0,1
    800070b8:	04000713          	li	a4,64
    800070bc:	00a457b3          	srl	a5,s0,a0
    800070c0:	40a7053b          	subw	a0,a4,a0
    800070c4:	00a41433          	sll	s0,s0,a0
    800070c8:	00803433          	snez	s0,s0
    800070cc:	8fc1                	or	a5,a5,s0
    800070ce:	b725                	j	80006ff6 <__subdf3+0x3da>
    800070d0:	f471                	bnez	s0,8000709c <__subdf3+0x480>
    800070d2:	bd45                	j	80006f82 <__subdf3+0x366>
    800070d4:	40f989b3          	sub	s3,s3,a5
    800070d8:	57fd                	li	a5,-1
    800070da:	17de                	slli	a5,a5,0x37
    800070dc:	17fd                	addi	a5,a5,-1
    800070de:	8fe1                	and	a5,a5,s0
    800070e0:	b645                	j	80006c80 <__subdf3+0x64>
    800070e2:	87b6                	mv	a5,a3
    800070e4:	89aa                	mv	s3,a0
    800070e6:	be69                	j	80006c80 <__subdf3+0x64>
    800070e8:	87b6                	mv	a5,a3
    800070ea:	89aa                	mv	s3,a0
    800070ec:	84ae                	mv	s1,a1
    800070ee:	be49                	j	80006c80 <__subdf3+0x64>
    800070f0:	87b6                	mv	a5,a3
    800070f2:	b711                	j	80006ff6 <__subdf3+0x3da>
    800070f4:	4705                	li	a4,1
    800070f6:	f885                	bnez	s1,80007026 <__subdf3+0x40a>
    800070f8:	0821                	addi	a6,a6,8
    800070fa:	b735                	j	80007026 <__subdf3+0x40a>
    800070fc:	4705                	li	a4,1
    800070fe:	d485                	beqz	s1,80007026 <__subdf3+0x40a>
    80007100:	bfe5                	j	800070f8 <__subdf3+0x4dc>
    80007102:	87b6                	mv	a5,a3
    80007104:	be55                	j	80006cb8 <__subdf3+0x9c>
    80007106:	87b6                	mv	a5,a3
    80007108:	bfad                	j	80007082 <__subdf3+0x466>
    8000710a:	7ff00613          	li	a2,2047
    8000710e:	b935                	j	80006d4a <__subdf3+0x12e>
    80007110:	87b6                	mv	a5,a3
    80007112:	84ae                	mv	s1,a1
    80007114:	b655                	j	80006cb8 <__subdf3+0x9c>
    80007116:	d40499e3          	bnez	s1,80006e68 <__subdf3+0x24c>
    8000711a:	07a1                	addi	a5,a5,8
    8000711c:	b3b1                	j	80006e68 <__subdf3+0x24c>
    8000711e:	d40485e3          	beqz	s1,80006e68 <__subdf3+0x24c>
    80007122:	bfe5                	j	8000711a <__subdf3+0x4fe>
    80007124:	4781                	li	a5,0
    80007126:	00090e63          	beqz	s2,80007142 <__subdf3+0x526>
    8000712a:	468d                	li	a3,3
    8000712c:	00d91763          	bne	s2,a3,8000713a <__subdf3+0x51e>
    80007130:	c889                	beqz	s1,80007142 <__subdf3+0x526>
    80007132:	57fd                	li	a5,-1
    80007134:	7fe00613          	li	a2,2046
    80007138:	a029                	j	80007142 <__subdf3+0x526>
    8000713a:	4689                	li	a3,2
    8000713c:	fed91be3          	bne	s2,a3,80007132 <__subdf3+0x516>
    80007140:	d8ed                	beqz	s1,80007132 <__subdf3+0x516>
    80007142:	00576713          	ori	a4,a4,5
    80007146:	b595                	j	80006faa <__subdf3+0x38e>
    80007148:	fff74713          	not	a4,a4
    8000714c:	2701                	sext.w	a4,a4
    8000714e:	b909                	j	80006d60 <__subdf3+0x144>
    80007150:	4741                	li	a4,16
    80007152:	b165                	j	80006dfa <__subdf3+0x1de>
    80007154:	4701                	li	a4,0
    80007156:	ca078de3          	beqz	a5,80006e10 <__subdf3+0x1f4>
    8000715a:	b725                	j	80007082 <__subdf3+0x466>
    8000715c:	fff74713          	not	a4,a4
    80007160:	2701                	sext.w	a4,a4
    80007162:	b3d5                	j	80006f46 <__subdf3+0x32a>
    80007164:	ca079fe3          	bnez	a5,80006e22 <__subdf3+0x206>
    80007168:	4785                	li	a5,1
    8000716a:	4481                	li	s1,0
    8000716c:	17da                	slli	a5,a5,0x36
    8000716e:	7ff00613          	li	a2,2047
    80007172:	4741                	li	a4,16
    80007174:	bd31                	j	80006f90 <__subdf3+0x374>
    80007176:	4741                	li	a4,16
    80007178:	bddd                	j	8000706e <__subdf3+0x452>
    8000717a:	87b6                	mv	a5,a3
    8000717c:	84ae                	mv	s1,a1
    8000717e:	bdbd                	j	80006ffc <__subdf3+0x3e0>
    80007180:	ef151ee3          	bne	a0,a7,8000707c <__subdf3+0x460>
    80007184:	ee0690e3          	bnez	a3,80007064 <__subdf3+0x448>
    80007188:	b7c5                	j	80007168 <__subdf3+0x54c>
    8000718a:	c71501e3          	beq	a0,a7,80006dec <__subdf3+0x1d0>
    8000718e:	87b6                	mv	a5,a3
    80007190:	7ff00613          	li	a2,2047
    80007194:	b179                	j	80006e22 <__subdf3+0x206>

0000000080007196 <__fixdfsi>:
    80007196:	002027f3          	frrm	a5
    8000719a:	57fd                	li	a5,-1
    8000719c:	03455713          	srli	a4,a0,0x34
    800071a0:	83b1                	srli	a5,a5,0xc
    800071a2:	7ff77713          	andi	a4,a4,2047
    800071a6:	3fe00613          	li	a2,1022
    800071aa:	8fe9                	and	a5,a5,a0
    800071ac:	03f55693          	srli	a3,a0,0x3f
    800071b0:	00e64663          	blt	a2,a4,800071bc <__fixdfsi+0x26>
    800071b4:	4501                	li	a0,0
    800071b6:	ef21                	bnez	a4,8000720e <__fixdfsi+0x78>
    800071b8:	ebb9                	bnez	a5,8000720e <__fixdfsi+0x78>
    800071ba:	8082                	ret
    800071bc:	41d00613          	li	a2,1053
    800071c0:	02e65363          	ble	a4,a2,800071e6 <__fixdfsi+0x50>
    800071c4:	80000537          	lui	a0,0x80000
    800071c8:	fff54513          	not	a0,a0
    800071cc:	9d35                	addw	a0,a0,a3
    800071ce:	c2b1                	beqz	a3,80007212 <__fixdfsi+0x7c>
    800071d0:	41e00613          	li	a2,1054
    800071d4:	46c1                	li	a3,16
    800071d6:	02c71f63          	bne	a4,a2,80007214 <__fixdfsi+0x7e>
    800071da:	0157d713          	srli	a4,a5,0x15
    800071de:	eb1d                	bnez	a4,80007214 <__fixdfsi+0x7e>
    800071e0:	17ae                	slli	a5,a5,0x2b
    800071e2:	e795                	bnez	a5,8000720e <__fixdfsi+0x78>
    800071e4:	8082                	ret
    800071e6:	4505                	li	a0,1
    800071e8:	1552                	slli	a0,a0,0x34
    800071ea:	8fc9                	or	a5,a5,a0
    800071ec:	2701                	sext.w	a4,a4
    800071ee:	43300513          	li	a0,1075
    800071f2:	c0d7061b          	addiw	a2,a4,-1011
    800071f6:	40e5073b          	subw	a4,a0,a4
    800071fa:	00c79633          	sll	a2,a5,a2
    800071fe:	00e7d7b3          	srl	a5,a5,a4
    80007202:	0007851b          	sext.w	a0,a5
    80007206:	c299                	beqz	a3,8000720c <__fixdfsi+0x76>
    80007208:	40a0053b          	negw	a0,a0
    8000720c:	c611                	beqz	a2,80007218 <__fixdfsi+0x82>
    8000720e:	4685                	li	a3,1
    80007210:	a011                	j	80007214 <__fixdfsi+0x7e>
    80007212:	46c1                	li	a3,16
    80007214:	0016a073          	csrs	fflags,a3
    80007218:	8082                	ret

000000008000721a <__fixunsdfsi>:
    8000721a:	002027f3          	frrm	a5
    8000721e:	57fd                	li	a5,-1
    80007220:	03455713          	srli	a4,a0,0x34
    80007224:	83b1                	srli	a5,a5,0xc
    80007226:	7ff77713          	andi	a4,a4,2047
    8000722a:	3fe00693          	li	a3,1022
    8000722e:	8fe9                	and	a5,a5,a0
    80007230:	917d                	srli	a0,a0,0x3f
    80007232:	00e6c663          	blt	a3,a4,8000723e <__fixunsdfsi+0x24>
    80007236:	ef05                	bnez	a4,8000726e <__fixunsdfsi+0x54>
    80007238:	eb9d                	bnez	a5,8000726e <__fixunsdfsi+0x54>
    8000723a:	4501                	li	a0,0
    8000723c:	8082                	ret
    8000723e:	e91d                	bnez	a0,80007274 <__fixunsdfsi+0x5a>
    80007240:	41e00693          	li	a3,1054
    80007244:	02e6ca63          	blt	a3,a4,80007278 <__fixunsdfsi+0x5e>
    80007248:	4685                	li	a3,1
    8000724a:	2701                	sext.w	a4,a4
    8000724c:	16d2                	slli	a3,a3,0x34
    8000724e:	43300513          	li	a0,1075
    80007252:	8fd5                	or	a5,a5,a3
    80007254:	9d19                	subw	a0,a0,a4
    80007256:	c0d7071b          	addiw	a4,a4,-1011
    8000725a:	00a7d533          	srl	a0,a5,a0
    8000725e:	00e797b3          	sll	a5,a5,a4
    80007262:	2501                	sext.w	a0,a0
    80007264:	cf89                	beqz	a5,8000727e <__fixunsdfsi+0x64>
    80007266:	4785                	li	a5,1
    80007268:	0017a073          	csrs	fflags,a5
    8000726c:	8082                	ret
    8000726e:	4785                	li	a5,1
    80007270:	4501                	li	a0,0
    80007272:	bfdd                	j	80007268 <__fixunsdfsi+0x4e>
    80007274:	47c1                	li	a5,16
    80007276:	bfed                	j	80007270 <__fixunsdfsi+0x56>
    80007278:	47c1                	li	a5,16
    8000727a:	557d                	li	a0,-1
    8000727c:	b7f5                	j	80007268 <__fixunsdfsi+0x4e>
    8000727e:	8082                	ret

0000000080007280 <__floatsidf>:
    80007280:	1101                	addi	sp,sp,-32
    80007282:	ec06                	sd	ra,24(sp)
    80007284:	e822                	sd	s0,16(sp)
    80007286:	e426                	sd	s1,8(sp)
    80007288:	c929                	beqz	a0,800072da <__floatsidf+0x5a>
    8000728a:	0005079b          	sext.w	a5,a0
    8000728e:	03f55493          	srli	s1,a0,0x3f
    80007292:	00055463          	bgez	a0,8000729a <__floatsidf+0x1a>
    80007296:	40f007bb          	negw	a5,a5
    8000729a:	02079413          	slli	s0,a5,0x20
    8000729e:	9001                	srli	s0,s0,0x20
    800072a0:	8522                	mv	a0,s0
    800072a2:	00000097          	auipc	ra,0x0
    800072a6:	37c080e7          	jalr	892(ra) # 8000761e <__clzdi2>
    800072aa:	43e00793          	li	a5,1086
    800072ae:	40a7873b          	subw	a4,a5,a0
    800072b2:	43300793          	li	a5,1075
    800072b6:	9f99                	subw	a5,a5,a4
    800072b8:	00f417b3          	sll	a5,s0,a5
    800072bc:	547d                	li	s0,-1
    800072be:	8031                	srli	s0,s0,0xc
    800072c0:	8fe1                	and	a5,a5,s0
    800072c2:	60e2                	ld	ra,24(sp)
    800072c4:	6442                	ld	s0,16(sp)
    800072c6:	7ff77713          	andi	a4,a4,2047
    800072ca:	1752                	slli	a4,a4,0x34
    800072cc:	03f49513          	slli	a0,s1,0x3f
    800072d0:	8fd9                	or	a5,a5,a4
    800072d2:	64a2                	ld	s1,8(sp)
    800072d4:	8d5d                	or	a0,a0,a5
    800072d6:	6105                	addi	sp,sp,32
    800072d8:	8082                	ret
    800072da:	4781                	li	a5,0
    800072dc:	4701                	li	a4,0
    800072de:	4481                	li	s1,0
    800072e0:	bff1                	j	800072bc <__floatsidf+0x3c>

00000000800072e2 <__floatunsidf>:
    800072e2:	1141                	addi	sp,sp,-16
    800072e4:	e406                	sd	ra,8(sp)
    800072e6:	e022                	sd	s0,0(sp)
    800072e8:	cd0d                	beqz	a0,80007322 <__floatunsidf+0x40>
    800072ea:	02051413          	slli	s0,a0,0x20
    800072ee:	9001                	srli	s0,s0,0x20
    800072f0:	8522                	mv	a0,s0
    800072f2:	00000097          	auipc	ra,0x0
    800072f6:	32c080e7          	jalr	812(ra) # 8000761e <__clzdi2>
    800072fa:	43e00793          	li	a5,1086
    800072fe:	9f89                	subw	a5,a5,a0
    80007300:	43300713          	li	a4,1075
    80007304:	40f7053b          	subw	a0,a4,a5
    80007308:	00a41433          	sll	s0,s0,a0
    8000730c:	7ff7f513          	andi	a0,a5,2047
    80007310:	57fd                	li	a5,-1
    80007312:	83b1                	srli	a5,a5,0xc
    80007314:	8c7d                	and	s0,s0,a5
    80007316:	1552                	slli	a0,a0,0x34
    80007318:	8d41                	or	a0,a0,s0
    8000731a:	60a2                	ld	ra,8(sp)
    8000731c:	6402                	ld	s0,0(sp)
    8000731e:	0141                	addi	sp,sp,16
    80007320:	8082                	ret
    80007322:	4401                	li	s0,0
    80007324:	4781                	li	a5,0
    80007326:	b7dd                	j	8000730c <__floatunsidf+0x2a>

0000000080007328 <__fixunsdfdi>:
    80007328:	002027f3          	frrm	a5
    8000732c:	57fd                	li	a5,-1
    8000732e:	03455713          	srli	a4,a0,0x34
    80007332:	83b1                	srli	a5,a5,0xc
    80007334:	7ff77713          	andi	a4,a4,2047
    80007338:	3fe00693          	li	a3,1022
    8000733c:	8fe9                	and	a5,a5,a0
    8000733e:	917d                	srli	a0,a0,0x3f
    80007340:	00e6c663          	blt	a3,a4,8000734c <__fixunsdfdi+0x24>
    80007344:	4501                	li	a0,0
    80007346:	e329                	bnez	a4,80007388 <__fixunsdfdi+0x60>
    80007348:	e3a1                	bnez	a5,80007388 <__fixunsdfdi+0x60>
    8000734a:	8082                	ret
    8000734c:	e131                	bnez	a0,80007390 <__fixunsdfdi+0x68>
    8000734e:	43e00693          	li	a3,1086
    80007352:	557d                	li	a0,-1
    80007354:	02e6cf63          	blt	a3,a4,80007392 <__fixunsdfdi+0x6a>
    80007358:	4685                	li	a3,1
    8000735a:	16d2                	slli	a3,a3,0x34
    8000735c:	43200613          	li	a2,1074
    80007360:	8fd5                	or	a5,a5,a3
    80007362:	0007069b          	sext.w	a3,a4
    80007366:	00e65763          	ble	a4,a2,80007374 <__fixunsdfdi+0x4c>
    8000736a:	bcd6851b          	addiw	a0,a3,-1075
    8000736e:	00a79533          	sll	a0,a5,a0
    80007372:	8082                	ret
    80007374:	43300513          	li	a0,1075
    80007378:	9d15                	subw	a0,a0,a3
    8000737a:	c0d6869b          	addiw	a3,a3,-1011
    8000737e:	00a7d533          	srl	a0,a5,a0
    80007382:	00d797b3          	sll	a5,a5,a3
    80007386:	cb81                	beqz	a5,80007396 <__fixunsdfdi+0x6e>
    80007388:	4785                	li	a5,1
    8000738a:	0017a073          	csrs	fflags,a5
    8000738e:	8082                	ret
    80007390:	4501                	li	a0,0
    80007392:	47c1                	li	a5,16
    80007394:	bfdd                	j	8000738a <__fixunsdfdi+0x62>
    80007396:	8082                	ret

0000000080007398 <__floatdidf>:
    80007398:	7179                	addi	sp,sp,-48
    8000739a:	f406                	sd	ra,40(sp)
    8000739c:	f022                	sd	s0,32(sp)
    8000739e:	ec26                	sd	s1,24(sp)
    800073a0:	e84a                	sd	s2,16(sp)
    800073a2:	e44e                	sd	s3,8(sp)
    800073a4:	00202973          	frrm	s2
    800073a8:	c57d                	beqz	a0,80007496 <__floatdidf+0xfe>
    800073aa:	2901                	sext.w	s2,s2
    800073ac:	842a                	mv	s0,a0
    800073ae:	03f55993          	srli	s3,a0,0x3f
    800073b2:	00055463          	bgez	a0,800073ba <__floatdidf+0x22>
    800073b6:	40a00433          	neg	s0,a0
    800073ba:	84aa                	mv	s1,a0
    800073bc:	8522                	mv	a0,s0
    800073be:	00000097          	auipc	ra,0x0
    800073c2:	260080e7          	jalr	608(ra) # 8000761e <__clzdi2>
    800073c6:	43e00793          	li	a5,1086
    800073ca:	40a7873b          	subw	a4,a5,a0
    800073ce:	43300793          	li	a5,1075
    800073d2:	02e7cd63          	blt	a5,a4,8000740c <__floatdidf+0x74>
    800073d6:	4681                	li	a3,0
    800073d8:	00f70663          	beq	a4,a5,800073e4 <__floatdidf+0x4c>
    800073dc:	40e7853b          	subw	a0,a5,a4
    800073e0:	00a41433          	sll	s0,s0,a0
    800073e4:	557d                	li	a0,-1
    800073e6:	7ff77713          	andi	a4,a4,2047
    800073ea:	8131                	srli	a0,a0,0xc
    800073ec:	1752                	slli	a4,a4,0x34
    800073ee:	8d61                	and	a0,a0,s0
    800073f0:	19fe                	slli	s3,s3,0x3f
    800073f2:	8d59                	or	a0,a0,a4
    800073f4:	01356533          	or	a0,a0,s3
    800073f8:	c299                	beqz	a3,800073fe <__floatdidf+0x66>
    800073fa:	0010e073          	csrsi	fflags,1
    800073fe:	70a2                	ld	ra,40(sp)
    80007400:	7402                	ld	s0,32(sp)
    80007402:	64e2                	ld	s1,24(sp)
    80007404:	6942                	ld	s2,16(sp)
    80007406:	69a2                	ld	s3,8(sp)
    80007408:	6145                	addi	sp,sp,48
    8000740a:	8082                	ret
    8000740c:	43600793          	li	a5,1078
    80007410:	06e7d163          	ble	a4,a5,80007472 <__floatdidf+0xda>
    80007414:	47600793          	li	a5,1142
    80007418:	bca7069b          	addiw	a3,a4,-1078
    8000741c:	40e7853b          	subw	a0,a5,a4
    80007420:	00d456b3          	srl	a3,s0,a3
    80007424:	00a41433          	sll	s0,s0,a0
    80007428:	00803433          	snez	s0,s0
    8000742c:	8c55                	or	s0,s0,a3
    8000742e:	57fd                	li	a5,-1
    80007430:	17de                	slli	a5,a5,0x37
    80007432:	17fd                	addi	a5,a5,-1
    80007434:	00747613          	andi	a2,s0,7
    80007438:	8fe1                	and	a5,a5,s0
    8000743a:	4681                	li	a3,0
    8000743c:	ce19                	beqz	a2,8000745a <__floatdidf+0xc2>
    8000743e:	4689                	li	a3,2
    80007440:	04d90763          	beq	s2,a3,8000748e <__floatdidf+0xf6>
    80007444:	468d                	li	a3,3
    80007446:	02d90f63          	beq	s2,a3,80007484 <__floatdidf+0xec>
    8000744a:	4685                	li	a3,1
    8000744c:	00091763          	bnez	s2,8000745a <__floatdidf+0xc2>
    80007450:	883d                	andi	s0,s0,15
    80007452:	4611                	li	a2,4
    80007454:	00c40363          	beq	s0,a2,8000745a <__floatdidf+0xc2>
    80007458:	0791                	addi	a5,a5,4
    8000745a:	00879613          	slli	a2,a5,0x8
    8000745e:	00065763          	bgez	a2,8000746c <__floatdidf+0xd4>
    80007462:	567d                	li	a2,-1
    80007464:	165e                	slli	a2,a2,0x37
    80007466:	167d                	addi	a2,a2,-1
    80007468:	8ff1                	and	a5,a5,a2
    8000746a:	0705                	addi	a4,a4,1
    8000746c:	0037d413          	srli	s0,a5,0x3
    80007470:	bf95                	j	800073e4 <__floatdidf+0x4c>
    80007472:	faf70ee3          	beq	a4,a5,8000742e <__floatdidf+0x96>
    80007476:	43600793          	li	a5,1078
    8000747a:	40e7853b          	subw	a0,a5,a4
    8000747e:	00a41433          	sll	s0,s0,a0
    80007482:	b775                	j	8000742e <__floatdidf+0x96>
    80007484:	4685                	li	a3,1
    80007486:	fc04cae3          	bltz	s1,8000745a <__floatdidf+0xc2>
    8000748a:	07a1                	addi	a5,a5,8
    8000748c:	b7f9                	j	8000745a <__floatdidf+0xc2>
    8000748e:	4685                	li	a3,1
    80007490:	fc04d5e3          	bgez	s1,8000745a <__floatdidf+0xc2>
    80007494:	bfdd                	j	8000748a <__floatdidf+0xf2>
    80007496:	4401                	li	s0,0
    80007498:	4701                	li	a4,0
    8000749a:	4981                	li	s3,0
    8000749c:	4681                	li	a3,0
    8000749e:	b799                	j	800073e4 <__floatdidf+0x4c>

00000000800074a0 <__floatundidf>:
    800074a0:	1101                	addi	sp,sp,-32
    800074a2:	e822                	sd	s0,16(sp)
    800074a4:	ec06                	sd	ra,24(sp)
    800074a6:	e426                	sd	s1,8(sp)
    800074a8:	842a                	mv	s0,a0
    800074aa:	002024f3          	frrm	s1
    800074ae:	cd5d                	beqz	a0,8000756c <__floatundidf+0xcc>
    800074b0:	00000097          	auipc	ra,0x0
    800074b4:	16e080e7          	jalr	366(ra) # 8000761e <__clzdi2>
    800074b8:	43e00793          	li	a5,1086
    800074bc:	40a7873b          	subw	a4,a5,a0
    800074c0:	43300793          	li	a5,1075
    800074c4:	02e7c863          	blt	a5,a4,800074f4 <__floatundidf+0x54>
    800074c8:	4681                	li	a3,0
    800074ca:	00f70663          	beq	a4,a5,800074d6 <__floatundidf+0x36>
    800074ce:	40e7853b          	subw	a0,a5,a4
    800074d2:	00a41433          	sll	s0,s0,a0
    800074d6:	57fd                	li	a5,-1
    800074d8:	7ff77513          	andi	a0,a4,2047
    800074dc:	83b1                	srli	a5,a5,0xc
    800074de:	1552                	slli	a0,a0,0x34
    800074e0:	8c7d                	and	s0,s0,a5
    800074e2:	8d41                	or	a0,a0,s0
    800074e4:	c299                	beqz	a3,800074ea <__floatundidf+0x4a>
    800074e6:	0010e073          	csrsi	fflags,1
    800074ea:	60e2                	ld	ra,24(sp)
    800074ec:	6442                	ld	s0,16(sp)
    800074ee:	64a2                	ld	s1,8(sp)
    800074f0:	6105                	addi	sp,sp,32
    800074f2:	8082                	ret
    800074f4:	43600793          	li	a5,1078
    800074f8:	2481                	sext.w	s1,s1
    800074fa:	02e7dc63          	ble	a4,a5,80007532 <__floatundidf+0x92>
    800074fe:	47600793          	li	a5,1142
    80007502:	9f99                	subw	a5,a5,a4
    80007504:	00f417b3          	sll	a5,s0,a5
    80007508:	bca7051b          	addiw	a0,a4,-1078
    8000750c:	00f037b3          	snez	a5,a5
    80007510:	00a45433          	srl	s0,s0,a0
    80007514:	8c5d                	or	s0,s0,a5
    80007516:	57fd                	li	a5,-1
    80007518:	17de                	slli	a5,a5,0x37
    8000751a:	17fd                	addi	a5,a5,-1
    8000751c:	00747613          	andi	a2,s0,7
    80007520:	8fe1                	and	a5,a5,s0
    80007522:	4681                	li	a3,0
    80007524:	c615                	beqz	a2,80007550 <__floatundidf+0xb0>
    80007526:	cc99                	beqz	s1,80007544 <__floatundidf+0xa4>
    80007528:	468d                	li	a3,3
    8000752a:	02d48f63          	beq	s1,a3,80007568 <__floatundidf+0xc8>
    8000752e:	4685                	li	a3,1
    80007530:	a005                	j	80007550 <__floatundidf+0xb0>
    80007532:	fef702e3          	beq	a4,a5,80007516 <__floatundidf+0x76>
    80007536:	43600793          	li	a5,1078
    8000753a:	40e7853b          	subw	a0,a5,a4
    8000753e:	00a41433          	sll	s0,s0,a0
    80007542:	bfd1                	j	80007516 <__floatundidf+0x76>
    80007544:	883d                	andi	s0,s0,15
    80007546:	4611                	li	a2,4
    80007548:	4685                	li	a3,1
    8000754a:	00c40363          	beq	s0,a2,80007550 <__floatundidf+0xb0>
    8000754e:	0791                	addi	a5,a5,4
    80007550:	00879613          	slli	a2,a5,0x8
    80007554:	00065763          	bgez	a2,80007562 <__floatundidf+0xc2>
    80007558:	567d                	li	a2,-1
    8000755a:	165e                	slli	a2,a2,0x37
    8000755c:	167d                	addi	a2,a2,-1
    8000755e:	8ff1                	and	a5,a5,a2
    80007560:	0705                	addi	a4,a4,1
    80007562:	0037d413          	srli	s0,a5,0x3
    80007566:	bf85                	j	800074d6 <__floatundidf+0x36>
    80007568:	07a1                	addi	a5,a5,8
    8000756a:	b7d1                	j	8000752e <__floatundidf+0x8e>
    8000756c:	4701                	li	a4,0
    8000756e:	4681                	li	a3,0
    80007570:	b79d                	j	800074d6 <__floatundidf+0x36>

0000000080007572 <__extendsfdf2>:
    80007572:	1101                	addi	sp,sp,-32
    80007574:	ec06                	sd	ra,24(sp)
    80007576:	e822                	sd	s0,16(sp)
    80007578:	e426                	sd	s1,8(sp)
    8000757a:	e04a                	sd	s2,0(sp)
    8000757c:	e0050553          	fmv.x.w	a0,fa0
    80007580:	002027f3          	frrm	a5
    80007584:	008007b7          	lui	a5,0x800
    80007588:	0175591b          	srliw	s2,a0,0x17
    8000758c:	17fd                	addi	a5,a5,-1
    8000758e:	8fe9                	and	a5,a5,a0
    80007590:	0ff97913          	andi	s2,s2,255
    80007594:	2781                	sext.w	a5,a5
    80007596:	01f5549b          	srliw	s1,a0,0x1f
    8000759a:	00190513          	addi	a0,s2,1
    8000759e:	02079413          	slli	s0,a5,0x20
    800075a2:	0fe57513          	andi	a0,a0,254
    800075a6:	9001                	srli	s0,s0,0x20
    800075a8:	c511                	beqz	a0,800075b4 <__extendsfdf2+0x42>
    800075aa:	38090513          	addi	a0,s2,896
    800075ae:	0476                	slli	s0,s0,0x1d
    800075b0:	4781                	li	a5,0
    800075b2:	a081                	j	800075f2 <__extendsfdf2+0x80>
    800075b4:	02091263          	bnez	s2,800075d8 <__extendsfdf2+0x66>
    800075b8:	4781                	li	a5,0
    800075ba:	cc05                	beqz	s0,800075f2 <__extendsfdf2+0x80>
    800075bc:	8522                	mv	a0,s0
    800075be:	00000097          	auipc	ra,0x0
    800075c2:	060080e7          	jalr	96(ra) # 8000761e <__clzdi2>
    800075c6:	ff55079b          	addiw	a5,a0,-11
    800075ca:	00f41433          	sll	s0,s0,a5
    800075ce:	3a900793          	li	a5,937
    800075d2:	40a7853b          	subw	a0,a5,a0
    800075d6:	bfe9                	j	800075b0 <__extendsfdf2+0x3e>
    800075d8:	c021                	beqz	s0,80007618 <__extendsfdf2+0xa6>
    800075da:	00400737          	lui	a4,0x400
    800075de:	8ff9                	and	a5,a5,a4
    800075e0:	4505                	li	a0,1
    800075e2:	154e                	slli	a0,a0,0x33
    800075e4:	0017b793          	seqz	a5,a5
    800075e8:	0476                	slli	s0,s0,0x1d
    800075ea:	8c49                	or	s0,s0,a0
    800075ec:	0792                	slli	a5,a5,0x4
    800075ee:	7ff00513          	li	a0,2047
    800075f2:	7ff57513          	andi	a0,a0,2047
    800075f6:	03451713          	slli	a4,a0,0x34
    800075fa:	557d                	li	a0,-1
    800075fc:	8131                	srli	a0,a0,0xc
    800075fe:	8d61                	and	a0,a0,s0
    80007600:	14fe                	slli	s1,s1,0x3f
    80007602:	8d59                	or	a0,a0,a4
    80007604:	8d45                	or	a0,a0,s1
    80007606:	c399                	beqz	a5,8000760c <__extendsfdf2+0x9a>
    80007608:	0017a073          	csrs	fflags,a5
    8000760c:	60e2                	ld	ra,24(sp)
    8000760e:	6442                	ld	s0,16(sp)
    80007610:	64a2                	ld	s1,8(sp)
    80007612:	6902                	ld	s2,0(sp)
    80007614:	6105                	addi	sp,sp,32
    80007616:	8082                	ret
    80007618:	7ff00513          	li	a0,2047
    8000761c:	bf51                	j	800075b0 <__extendsfdf2+0x3e>

000000008000761e <__clzdi2>:
    8000761e:	03800793          	li	a5,56
    80007622:	00f55733          	srl	a4,a0,a5
    80007626:	0ff77713          	andi	a4,a4,255
    8000762a:	e319                	bnez	a4,80007630 <__clzdi2+0x12>
    8000762c:	17e1                	addi	a5,a5,-8
    8000762e:	fbf5                	bnez	a5,80007622 <__clzdi2+0x4>
    80007630:	04000713          	li	a4,64
    80007634:	8f1d                	sub	a4,a4,a5
    80007636:	00f557b3          	srl	a5,a0,a5
    8000763a:	00007517          	auipc	a0,0x7
    8000763e:	9ae50513          	addi	a0,a0,-1618 # 8000dfe8 <__clz_tab>
    80007642:	97aa                	add	a5,a5,a0
    80007644:	0007c503          	lbu	a0,0(a5) # 800000 <_stack_size+0x7f8000>
    80007648:	40a7053b          	subw	a0,a4,a0
    8000764c:	8082                	ret

000000008000764e <__errno>:
    8000764e:	0000a797          	auipc	a5,0xa
    80007652:	46278793          	addi	a5,a5,1122 # 80011ab0 <_impure_ptr>
    80007656:	6388                	ld	a0,0(a5)
    80007658:	8082                	ret

000000008000765a <memcpy>:
    8000765a:	00a5c7b3          	xor	a5,a1,a0
    8000765e:	8b9d                	andi	a5,a5,7
    80007660:	00c50733          	add	a4,a0,a2
    80007664:	e781                	bnez	a5,8000766c <memcpy+0x12>
    80007666:	479d                	li	a5,7
    80007668:	00c7ee63          	bltu	a5,a2,80007684 <memcpy+0x2a>
    8000766c:	87aa                	mv	a5,a0
    8000766e:	0ae57063          	bleu	a4,a0,8000770e <memcpy+0xb4>
    80007672:	0005c683          	lbu	a3,0(a1)
    80007676:	0785                	addi	a5,a5,1
    80007678:	0585                	addi	a1,a1,1
    8000767a:	fed78fa3          	sb	a3,-1(a5)
    8000767e:	fee7eae3          	bltu	a5,a4,80007672 <memcpy+0x18>
    80007682:	8082                	ret
    80007684:	00757693          	andi	a3,a0,7
    80007688:	87aa                	mv	a5,a0
    8000768a:	ca91                	beqz	a3,8000769e <memcpy+0x44>
    8000768c:	0005c683          	lbu	a3,0(a1)
    80007690:	0785                	addi	a5,a5,1
    80007692:	0585                	addi	a1,a1,1
    80007694:	fed78fa3          	sb	a3,-1(a5)
    80007698:	0077f693          	andi	a3,a5,7
    8000769c:	b7fd                	j	8000768a <memcpy+0x30>
    8000769e:	ff877693          	andi	a3,a4,-8
    800076a2:	fc068613          	addi	a2,a3,-64 # ffffffff7fffffc0 <_buffer_start+0xfffffffefffb8780>
    800076a6:	06c7f063          	bleu	a2,a5,80007706 <memcpy+0xac>
    800076aa:	0005b383          	ld	t2,0(a1)
    800076ae:	0085b283          	ld	t0,8(a1)
    800076b2:	0105bf83          	ld	t6,16(a1)
    800076b6:	0185bf03          	ld	t5,24(a1)
    800076ba:	0205be83          	ld	t4,32(a1)
    800076be:	0285be03          	ld	t3,40(a1)
    800076c2:	0305b303          	ld	t1,48(a1)
    800076c6:	0385b883          	ld	a7,56(a1)
    800076ca:	04858593          	addi	a1,a1,72
    800076ce:	0077b023          	sd	t2,0(a5)
    800076d2:	ff85b803          	ld	a6,-8(a1)
    800076d6:	0057b423          	sd	t0,8(a5)
    800076da:	01f7b823          	sd	t6,16(a5)
    800076de:	01e7bc23          	sd	t5,24(a5)
    800076e2:	03d7b023          	sd	t4,32(a5)
    800076e6:	03c7b423          	sd	t3,40(a5)
    800076ea:	0267b823          	sd	t1,48(a5)
    800076ee:	0317bc23          	sd	a7,56(a5)
    800076f2:	04878793          	addi	a5,a5,72
    800076f6:	ff07bc23          	sd	a6,-8(a5)
    800076fa:	b775                	j	800076a6 <memcpy+0x4c>
    800076fc:	6190                	ld	a2,0(a1)
    800076fe:	07a1                	addi	a5,a5,8
    80007700:	05a1                	addi	a1,a1,8
    80007702:	fec7bc23          	sd	a2,-8(a5)
    80007706:	fed7ebe3          	bltu	a5,a3,800076fc <memcpy+0xa2>
    8000770a:	f6e7e4e3          	bltu	a5,a4,80007672 <memcpy+0x18>
    8000770e:	8082                	ret

0000000080007710 <memset>:
    80007710:	433d                	li	t1,15
    80007712:	872a                	mv	a4,a0
    80007714:	02c37163          	bleu	a2,t1,80007736 <memset+0x26>
    80007718:	00f77793          	andi	a5,a4,15
    8000771c:	e3c1                	bnez	a5,8000779c <memset+0x8c>
    8000771e:	e1bd                	bnez	a1,80007784 <memset+0x74>
    80007720:	ff067693          	andi	a3,a2,-16
    80007724:	8a3d                	andi	a2,a2,15
    80007726:	96ba                	add	a3,a3,a4
    80007728:	e30c                	sd	a1,0(a4)
    8000772a:	e70c                	sd	a1,8(a4)
    8000772c:	0741                	addi	a4,a4,16
    8000772e:	fed76de3          	bltu	a4,a3,80007728 <memset+0x18>
    80007732:	e211                	bnez	a2,80007736 <memset+0x26>
    80007734:	8082                	ret
    80007736:	40c306b3          	sub	a3,t1,a2
    8000773a:	068a                	slli	a3,a3,0x2
    8000773c:	00000297          	auipc	t0,0x0
    80007740:	9696                	add	a3,a3,t0
    80007742:	00a68067          	jr	10(a3)
    80007746:	00b70723          	sb	a1,14(a4) # 40000e <_stack_size+0x3f800e>
    8000774a:	00b706a3          	sb	a1,13(a4)
    8000774e:	00b70623          	sb	a1,12(a4)
    80007752:	00b705a3          	sb	a1,11(a4)
    80007756:	00b70523          	sb	a1,10(a4)
    8000775a:	00b704a3          	sb	a1,9(a4)
    8000775e:	00b70423          	sb	a1,8(a4)
    80007762:	00b703a3          	sb	a1,7(a4)
    80007766:	00b70323          	sb	a1,6(a4)
    8000776a:	00b702a3          	sb	a1,5(a4)
    8000776e:	00b70223          	sb	a1,4(a4)
    80007772:	00b701a3          	sb	a1,3(a4)
    80007776:	00b70123          	sb	a1,2(a4)
    8000777a:	00b700a3          	sb	a1,1(a4)
    8000777e:	00b70023          	sb	a1,0(a4)
    80007782:	8082                	ret
    80007784:	0ff5f593          	andi	a1,a1,255
    80007788:	00859693          	slli	a3,a1,0x8
    8000778c:	8dd5                	or	a1,a1,a3
    8000778e:	01059693          	slli	a3,a1,0x10
    80007792:	8dd5                	or	a1,a1,a3
    80007794:	02059693          	slli	a3,a1,0x20
    80007798:	8dd5                	or	a1,a1,a3
    8000779a:	b759                	j	80007720 <memset+0x10>
    8000779c:	00279693          	slli	a3,a5,0x2
    800077a0:	00000297          	auipc	t0,0x0
    800077a4:	9696                	add	a3,a3,t0
    800077a6:	8286                	mv	t0,ra
    800077a8:	fa2680e7          	jalr	-94(a3)
    800077ac:	8096                	mv	ra,t0
    800077ae:	17c1                	addi	a5,a5,-16
    800077b0:	8f1d                	sub	a4,a4,a5
    800077b2:	963e                	add	a2,a2,a5
    800077b4:	f8c371e3          	bleu	a2,t1,80007736 <memset+0x26>
    800077b8:	b79d                	j	8000771e <memset+0xe>

00000000800077ba <_vsprintf_r>:
    800077ba:	800007b7          	lui	a5,0x80000
    800077be:	7155                	addi	sp,sp,-208
    800077c0:	fff7c793          	not	a5,a5
    800077c4:	d43e                	sw	a5,40(sp)
    800077c6:	ca3e                	sw	a5,20(sp)
    800077c8:	77c1                	lui	a5,0xffff0
    800077ca:	e42e                	sd	a1,8(sp)
    800077cc:	f02e                	sd	a1,32(sp)
    800077ce:	2087879b          	addiw	a5,a5,520
    800077d2:	002c                	addi	a1,sp,8
    800077d4:	e586                	sd	ra,200(sp)
    800077d6:	cc3e                	sw	a5,24(sp)
    800077d8:	00001097          	auipc	ra,0x1
    800077dc:	8b4080e7          	jalr	-1868(ra) # 8000808c <_svfprintf_r>
    800077e0:	67a2                	ld	a5,8(sp)
    800077e2:	00078023          	sb	zero,0(a5) # ffffffffffff0000 <_buffer_start+0xffffffff7ffa87c0>
    800077e6:	60ae                	ld	ra,200(sp)
    800077e8:	6169                	addi	sp,sp,208
    800077ea:	8082                	ret

00000000800077ec <vsprintf>:
    800077ec:	0000a797          	auipc	a5,0xa
    800077f0:	2c478793          	addi	a5,a5,708 # 80011ab0 <_impure_ptr>
    800077f4:	86b2                	mv	a3,a2
    800077f6:	862e                	mv	a2,a1
    800077f8:	85aa                	mv	a1,a0
    800077fa:	6388                	ld	a0,0(a5)
    800077fc:	00000317          	auipc	t1,0x0
    80007800:	fbe30067          	jr	-66(t1) # 800077ba <_vsprintf_r>

0000000080007804 <_malloc_trim_r>:
    80007804:	7179                	addi	sp,sp,-48
    80007806:	f022                	sd	s0,32(sp)
    80007808:	ec26                	sd	s1,24(sp)
    8000780a:	e84a                	sd	s2,16(sp)
    8000780c:	e44e                	sd	s3,8(sp)
    8000780e:	842e                	mv	s0,a1
    80007810:	f406                	sd	ra,40(sp)
    80007812:	892a                	mv	s2,a0
    80007814:	0000a997          	auipc	s3,0xa
    80007818:	87498993          	addi	s3,s3,-1932 # 80011088 <__malloc_av_>
    8000781c:	00001097          	auipc	ra,0x1
    80007820:	81a080e7          	jalr	-2022(ra) # 80008036 <__malloc_lock>
    80007824:	0109b783          	ld	a5,16(s3)
    80007828:	6705                	lui	a4,0x1
    8000782a:	6784                	ld	s1,8(a5)
    8000782c:	fdf70793          	addi	a5,a4,-33 # fdf <_stack_size-0x7021>
    80007830:	40878433          	sub	s0,a5,s0
    80007834:	98f1                	andi	s1,s1,-4
    80007836:	9426                	add	s0,s0,s1
    80007838:	8031                	srli	s0,s0,0xc
    8000783a:	147d                	addi	s0,s0,-1
    8000783c:	0432                	slli	s0,s0,0xc
    8000783e:	00e45f63          	ble	a4,s0,8000785c <_malloc_trim_r+0x58>
    80007842:	854a                	mv	a0,s2
    80007844:	00001097          	auipc	ra,0x1
    80007848:	802080e7          	jalr	-2046(ra) # 80008046 <__malloc_unlock>
    8000784c:	4501                	li	a0,0
    8000784e:	70a2                	ld	ra,40(sp)
    80007850:	7402                	ld	s0,32(sp)
    80007852:	64e2                	ld	s1,24(sp)
    80007854:	6942                	ld	s2,16(sp)
    80007856:	69a2                	ld	s3,8(sp)
    80007858:	6145                	addi	sp,sp,48
    8000785a:	8082                	ret
    8000785c:	4581                	li	a1,0
    8000785e:	854a                	mv	a0,s2
    80007860:	00000097          	auipc	ra,0x0
    80007864:	7f6080e7          	jalr	2038(ra) # 80008056 <_sbrk_r>
    80007868:	0109b783          	ld	a5,16(s3)
    8000786c:	97a6                	add	a5,a5,s1
    8000786e:	fcf51ae3          	bne	a0,a5,80007842 <_malloc_trim_r+0x3e>
    80007872:	408005b3          	neg	a1,s0
    80007876:	854a                	mv	a0,s2
    80007878:	00000097          	auipc	ra,0x0
    8000787c:	7de080e7          	jalr	2014(ra) # 80008056 <_sbrk_r>
    80007880:	57fd                	li	a5,-1
    80007882:	02f51d63          	bne	a0,a5,800078bc <_malloc_trim_r+0xb8>
    80007886:	4581                	li	a1,0
    80007888:	854a                	mv	a0,s2
    8000788a:	00000097          	auipc	ra,0x0
    8000788e:	7cc080e7          	jalr	1996(ra) # 80008056 <_sbrk_r>
    80007892:	0109b703          	ld	a4,16(s3)
    80007896:	46fd                	li	a3,31
    80007898:	40e507b3          	sub	a5,a0,a4
    8000789c:	faf6d3e3          	ble	a5,a3,80007842 <_malloc_trim_r+0x3e>
    800078a0:	0000a697          	auipc	a3,0xa
    800078a4:	21868693          	addi	a3,a3,536 # 80011ab8 <__malloc_sbrk_base>
    800078a8:	6294                	ld	a3,0(a3)
    800078aa:	0017e793          	ori	a5,a5,1
    800078ae:	e71c                	sd	a5,8(a4)
    800078b0:	8d15                	sub	a0,a0,a3
    800078b2:	00020697          	auipc	a3,0x20
    800078b6:	f4a6a723          	sw	a0,-178(a3) # 80027800 <__malloc_current_mallinfo>
    800078ba:	b761                	j	80007842 <_malloc_trim_r+0x3e>
    800078bc:	0109b783          	ld	a5,16(s3)
    800078c0:	8c81                	sub	s1,s1,s0
    800078c2:	0014e493          	ori	s1,s1,1
    800078c6:	e784                	sd	s1,8(a5)
    800078c8:	00020797          	auipc	a5,0x20
    800078cc:	f3878793          	addi	a5,a5,-200 # 80027800 <__malloc_current_mallinfo>
    800078d0:	439c                	lw	a5,0(a5)
    800078d2:	854a                	mv	a0,s2
    800078d4:	4087843b          	subw	s0,a5,s0
    800078d8:	00020797          	auipc	a5,0x20
    800078dc:	f287a423          	sw	s0,-216(a5) # 80027800 <__malloc_current_mallinfo>
    800078e0:	00000097          	auipc	ra,0x0
    800078e4:	766080e7          	jalr	1894(ra) # 80008046 <__malloc_unlock>
    800078e8:	4505                	li	a0,1
    800078ea:	b795                	j	8000784e <_malloc_trim_r+0x4a>

00000000800078ec <_free_r>:
    800078ec:	1e058663          	beqz	a1,80007ad8 <_free_r+0x1ec>
    800078f0:	1101                	addi	sp,sp,-32
    800078f2:	e822                	sd	s0,16(sp)
    800078f4:	e426                	sd	s1,8(sp)
    800078f6:	842a                	mv	s0,a0
    800078f8:	84ae                	mv	s1,a1
    800078fa:	ec06                	sd	ra,24(sp)
    800078fc:	00000097          	auipc	ra,0x0
    80007900:	73a080e7          	jalr	1850(ra) # 80008036 <__malloc_lock>
    80007904:	ff84b583          	ld	a1,-8(s1)
    80007908:	ff048693          	addi	a3,s1,-16
    8000790c:	00009517          	auipc	a0,0x9
    80007910:	77c50513          	addi	a0,a0,1916 # 80011088 <__malloc_av_>
    80007914:	ffe5f793          	andi	a5,a1,-2
    80007918:	00f68633          	add	a2,a3,a5
    8000791c:	6618                	ld	a4,8(a2)
    8000791e:	01053803          	ld	a6,16(a0)
    80007922:	8985                	andi	a1,a1,1
    80007924:	9b71                	andi	a4,a4,-4
    80007926:	04c81d63          	bne	a6,a2,80007980 <_free_r+0x94>
    8000792a:	97ba                	add	a5,a5,a4
    8000792c:	e989                	bnez	a1,8000793e <_free_r+0x52>
    8000792e:	ff04b703          	ld	a4,-16(s1)
    80007932:	8e99                	sub	a3,a3,a4
    80007934:	6a90                	ld	a2,16(a3)
    80007936:	97ba                	add	a5,a5,a4
    80007938:	6e98                	ld	a4,24(a3)
    8000793a:	ee18                	sd	a4,24(a2)
    8000793c:	eb10                	sd	a2,16(a4)
    8000793e:	0017e713          	ori	a4,a5,1
    80007942:	e698                	sd	a4,8(a3)
    80007944:	00009717          	auipc	a4,0x9
    80007948:	74d73a23          	sd	a3,1876(a4) # 80011098 <__malloc_av_+0x10>
    8000794c:	0000a717          	auipc	a4,0xa
    80007950:	17470713          	addi	a4,a4,372 # 80011ac0 <__malloc_trim_threshold>
    80007954:	6318                	ld	a4,0(a4)
    80007956:	00e7ec63          	bltu	a5,a4,8000796e <_free_r+0x82>
    8000795a:	0000a797          	auipc	a5,0xa
    8000795e:	6c678793          	addi	a5,a5,1734 # 80012020 <__malloc_top_pad>
    80007962:	638c                	ld	a1,0(a5)
    80007964:	8522                	mv	a0,s0
    80007966:	00000097          	auipc	ra,0x0
    8000796a:	e9e080e7          	jalr	-354(ra) # 80007804 <_malloc_trim_r>
    8000796e:	8522                	mv	a0,s0
    80007970:	6442                	ld	s0,16(sp)
    80007972:	60e2                	ld	ra,24(sp)
    80007974:	64a2                	ld	s1,8(sp)
    80007976:	6105                	addi	sp,sp,32
    80007978:	00000317          	auipc	t1,0x0
    8000797c:	6ce30067          	jr	1742(t1) # 80008046 <__malloc_unlock>
    80007980:	e618                	sd	a4,8(a2)
    80007982:	4801                	li	a6,0
    80007984:	e195                	bnez	a1,800079a8 <_free_r+0xbc>
    80007986:	ff04b583          	ld	a1,-16(s1)
    8000798a:	00009897          	auipc	a7,0x9
    8000798e:	70e88893          	addi	a7,a7,1806 # 80011098 <__malloc_av_+0x10>
    80007992:	8e8d                	sub	a3,a3,a1
    80007994:	97ae                	add	a5,a5,a1
    80007996:	6a8c                	ld	a1,16(a3)
    80007998:	09158a63          	beq	a1,a7,80007a2c <_free_r+0x140>
    8000799c:	0186b883          	ld	a7,24(a3)
    800079a0:	0115bc23          	sd	a7,24(a1)
    800079a4:	00b8b823          	sd	a1,16(a7)
    800079a8:	00e605b3          	add	a1,a2,a4
    800079ac:	658c                	ld	a1,8(a1)
    800079ae:	8985                	andi	a1,a1,1
    800079b0:	e595                	bnez	a1,800079dc <_free_r+0xf0>
    800079b2:	97ba                	add	a5,a5,a4
    800079b4:	6a18                	ld	a4,16(a2)
    800079b6:	06081d63          	bnez	a6,80007a30 <_free_r+0x144>
    800079ba:	00009597          	auipc	a1,0x9
    800079be:	6de58593          	addi	a1,a1,1758 # 80011098 <__malloc_av_+0x10>
    800079c2:	06b71763          	bne	a4,a1,80007a30 <_free_r+0x144>
    800079c6:	00009617          	auipc	a2,0x9
    800079ca:	6ed63523          	sd	a3,1770(a2) # 800110b0 <__malloc_av_+0x28>
    800079ce:	00009617          	auipc	a2,0x9
    800079d2:	6cd63d23          	sd	a3,1754(a2) # 800110a8 <__malloc_av_+0x20>
    800079d6:	ee98                	sd	a4,24(a3)
    800079d8:	ea98                	sd	a4,16(a3)
    800079da:	4805                	li	a6,1
    800079dc:	0017e713          	ori	a4,a5,1
    800079e0:	e698                	sd	a4,8(a3)
    800079e2:	00f68733          	add	a4,a3,a5
    800079e6:	e31c                	sd	a5,0(a4)
    800079e8:	f80813e3          	bnez	a6,8000796e <_free_r+0x82>
    800079ec:	1ff00713          	li	a4,511
    800079f0:	04f76463          	bltu	a4,a5,80007a38 <_free_r+0x14c>
    800079f4:	0037d713          	srli	a4,a5,0x3
    800079f8:	2701                	sext.w	a4,a4
    800079fa:	4027561b          	sraiw	a2,a4,0x2
    800079fe:	4785                	li	a5,1
    80007a00:	00c797b3          	sll	a5,a5,a2
    80007a04:	6510                	ld	a2,8(a0)
    80007a06:	8fd1                	or	a5,a5,a2
    80007a08:	00009617          	auipc	a2,0x9
    80007a0c:	68f63423          	sd	a5,1672(a2) # 80011090 <__malloc_av_+0x8>
    80007a10:	0017079b          	addiw	a5,a4,1
    80007a14:	0017979b          	slliw	a5,a5,0x1
    80007a18:	078e                	slli	a5,a5,0x3
    80007a1a:	97aa                	add	a5,a5,a0
    80007a1c:	6398                	ld	a4,0(a5)
    80007a1e:	ff078613          	addi	a2,a5,-16
    80007a22:	ee90                	sd	a2,24(a3)
    80007a24:	ea98                	sd	a4,16(a3)
    80007a26:	e394                	sd	a3,0(a5)
    80007a28:	ef14                	sd	a3,24(a4)
    80007a2a:	b791                	j	8000796e <_free_r+0x82>
    80007a2c:	4805                	li	a6,1
    80007a2e:	bfad                	j	800079a8 <_free_r+0xbc>
    80007a30:	6e10                	ld	a2,24(a2)
    80007a32:	ef10                	sd	a2,24(a4)
    80007a34:	ea18                	sd	a4,16(a2)
    80007a36:	b75d                	j	800079dc <_free_r+0xf0>
    80007a38:	0097d613          	srli	a2,a5,0x9
    80007a3c:	4711                	li	a4,4
    80007a3e:	04c76163          	bltu	a4,a2,80007a80 <_free_r+0x194>
    80007a42:	0067d713          	srli	a4,a5,0x6
    80007a46:	0387071b          	addiw	a4,a4,56
    80007a4a:	0017061b          	addiw	a2,a4,1
    80007a4e:	0016161b          	slliw	a2,a2,0x1
    80007a52:	060e                	slli	a2,a2,0x3
    80007a54:	962a                	add	a2,a2,a0
    80007a56:	ff060593          	addi	a1,a2,-16
    80007a5a:	6210                	ld	a2,0(a2)
    80007a5c:	06c59863          	bne	a1,a2,80007acc <_free_r+0x1e0>
    80007a60:	4785                	li	a5,1
    80007a62:	4027571b          	sraiw	a4,a4,0x2
    80007a66:	00e79733          	sll	a4,a5,a4
    80007a6a:	651c                	ld	a5,8(a0)
    80007a6c:	8f5d                	or	a4,a4,a5
    80007a6e:	00009797          	auipc	a5,0x9
    80007a72:	62e7b123          	sd	a4,1570(a5) # 80011090 <__malloc_av_+0x8>
    80007a76:	ee8c                	sd	a1,24(a3)
    80007a78:	ea90                	sd	a2,16(a3)
    80007a7a:	e994                	sd	a3,16(a1)
    80007a7c:	ee14                	sd	a3,24(a2)
    80007a7e:	bdc5                	j	8000796e <_free_r+0x82>
    80007a80:	4751                	li	a4,20
    80007a82:	00c76563          	bltu	a4,a2,80007a8c <_free_r+0x1a0>
    80007a86:	05b6071b          	addiw	a4,a2,91
    80007a8a:	b7c1                	j	80007a4a <_free_r+0x15e>
    80007a8c:	05400713          	li	a4,84
    80007a90:	00c76763          	bltu	a4,a2,80007a9e <_free_r+0x1b2>
    80007a94:	00c7d713          	srli	a4,a5,0xc
    80007a98:	06e7071b          	addiw	a4,a4,110
    80007a9c:	b77d                	j	80007a4a <_free_r+0x15e>
    80007a9e:	15400713          	li	a4,340
    80007aa2:	00c76763          	bltu	a4,a2,80007ab0 <_free_r+0x1c4>
    80007aa6:	00f7d713          	srli	a4,a5,0xf
    80007aaa:	0777071b          	addiw	a4,a4,119
    80007aae:	bf71                	j	80007a4a <_free_r+0x15e>
    80007ab0:	55400593          	li	a1,1364
    80007ab4:	07e00713          	li	a4,126
    80007ab8:	f8c5e9e3          	bltu	a1,a2,80007a4a <_free_r+0x15e>
    80007abc:	0127d713          	srli	a4,a5,0x12
    80007ac0:	07c7071b          	addiw	a4,a4,124
    80007ac4:	b759                	j	80007a4a <_free_r+0x15e>
    80007ac6:	6a10                	ld	a2,16(a2)
    80007ac8:	00c58663          	beq	a1,a2,80007ad4 <_free_r+0x1e8>
    80007acc:	6618                	ld	a4,8(a2)
    80007ace:	9b71                	andi	a4,a4,-4
    80007ad0:	fee7ebe3          	bltu	a5,a4,80007ac6 <_free_r+0x1da>
    80007ad4:	6e0c                	ld	a1,24(a2)
    80007ad6:	b745                	j	80007a76 <_free_r+0x18a>
    80007ad8:	8082                	ret

0000000080007ada <_malloc_r>:
    80007ada:	711d                	addi	sp,sp,-96
    80007adc:	ec86                	sd	ra,88(sp)
    80007ade:	e8a2                	sd	s0,80(sp)
    80007ae0:	e4a6                	sd	s1,72(sp)
    80007ae2:	e0ca                	sd	s2,64(sp)
    80007ae4:	fc4e                	sd	s3,56(sp)
    80007ae6:	f852                	sd	s4,48(sp)
    80007ae8:	f456                	sd	s5,40(sp)
    80007aea:	f05a                	sd	s6,32(sp)
    80007aec:	ec5e                	sd	s7,24(sp)
    80007aee:	e862                	sd	s8,16(sp)
    80007af0:	e466                	sd	s9,8(sp)
    80007af2:	01758793          	addi	a5,a1,23
    80007af6:	02e00713          	li	a4,46
    80007afa:	02f77a63          	bleu	a5,a4,80007b2e <_malloc_r+0x54>
    80007afe:	ff07f493          	andi	s1,a5,-16
    80007b02:	800007b7          	lui	a5,0x80000
    80007b06:	fff7c793          	not	a5,a5
    80007b0a:	0297f463          	bleu	s1,a5,80007b32 <_malloc_r+0x58>
    80007b0e:	47b1                	li	a5,12
    80007b10:	c11c                	sw	a5,0(a0)
    80007b12:	4501                	li	a0,0
    80007b14:	60e6                	ld	ra,88(sp)
    80007b16:	6446                	ld	s0,80(sp)
    80007b18:	64a6                	ld	s1,72(sp)
    80007b1a:	6906                	ld	s2,64(sp)
    80007b1c:	79e2                	ld	s3,56(sp)
    80007b1e:	7a42                	ld	s4,48(sp)
    80007b20:	7aa2                	ld	s5,40(sp)
    80007b22:	7b02                	ld	s6,32(sp)
    80007b24:	6be2                	ld	s7,24(sp)
    80007b26:	6c42                	ld	s8,16(sp)
    80007b28:	6ca2                	ld	s9,8(sp)
    80007b2a:	6125                	addi	sp,sp,96
    80007b2c:	8082                	ret
    80007b2e:	02000493          	li	s1,32
    80007b32:	fcb4eee3          	bltu	s1,a1,80007b0e <_malloc_r+0x34>
    80007b36:	892a                	mv	s2,a0
    80007b38:	00000097          	auipc	ra,0x0
    80007b3c:	4fe080e7          	jalr	1278(ra) # 80008036 <__malloc_lock>
    80007b40:	1f700793          	li	a5,503
    80007b44:	00009997          	auipc	s3,0x9
    80007b48:	54498993          	addi	s3,s3,1348 # 80011088 <__malloc_av_>
    80007b4c:	0497e063          	bltu	a5,s1,80007b8c <_malloc_r+0xb2>
    80007b50:	0034d793          	srli	a5,s1,0x3
    80007b54:	2781                	sext.w	a5,a5
    80007b56:	0017871b          	addiw	a4,a5,1
    80007b5a:	0017171b          	slliw	a4,a4,0x1
    80007b5e:	070e                	slli	a4,a4,0x3
    80007b60:	974e                	add	a4,a4,s3
    80007b62:	6700                	ld	s0,8(a4)
    80007b64:	ff070693          	addi	a3,a4,-16
    80007b68:	00d41663          	bne	s0,a3,80007b74 <_malloc_r+0x9a>
    80007b6c:	6f00                	ld	s0,24(a4)
    80007b6e:	2789                	addiw	a5,a5,2
    80007b70:	04870e63          	beq	a4,s0,80007bcc <_malloc_r+0xf2>
    80007b74:	641c                	ld	a5,8(s0)
    80007b76:	6c18                	ld	a4,24(s0)
    80007b78:	6814                	ld	a3,16(s0)
    80007b7a:	9bf1                	andi	a5,a5,-4
    80007b7c:	97a2                	add	a5,a5,s0
    80007b7e:	ee98                	sd	a4,24(a3)
    80007b80:	eb14                	sd	a3,16(a4)
    80007b82:	6798                	ld	a4,8(a5)
    80007b84:	00176713          	ori	a4,a4,1
    80007b88:	e798                	sd	a4,8(a5)
    80007b8a:	a061                	j	80007c12 <_malloc_r+0x138>
    80007b8c:	0094d713          	srli	a4,s1,0x9
    80007b90:	03f00793          	li	a5,63
    80007b94:	cb01                	beqz	a4,80007ba4 <_malloc_r+0xca>
    80007b96:	4791                	li	a5,4
    80007b98:	08e7e563          	bltu	a5,a4,80007c22 <_malloc_r+0x148>
    80007b9c:	0064d793          	srli	a5,s1,0x6
    80007ba0:	0387879b          	addiw	a5,a5,56
    80007ba4:	0017871b          	addiw	a4,a5,1
    80007ba8:	0017171b          	slliw	a4,a4,0x1
    80007bac:	070e                	slli	a4,a4,0x3
    80007bae:	974e                	add	a4,a4,s3
    80007bb0:	6700                	ld	s0,8(a4)
    80007bb2:	ff070593          	addi	a1,a4,-16
    80007bb6:	457d                	li	a0,31
    80007bb8:	00b40963          	beq	s0,a1,80007bca <_malloc_r+0xf0>
    80007bbc:	6418                	ld	a4,8(s0)
    80007bbe:	9b71                	andi	a4,a4,-4
    80007bc0:	40970633          	sub	a2,a4,s1
    80007bc4:	0ac55263          	ble	a2,a0,80007c68 <_malloc_r+0x18e>
    80007bc8:	37fd                	addiw	a5,a5,-1
    80007bca:	2785                	addiw	a5,a5,1
    80007bcc:	0209b403          	ld	s0,32(s3)
    80007bd0:	00009597          	auipc	a1,0x9
    80007bd4:	4c858593          	addi	a1,a1,1224 # 80011098 <__malloc_av_+0x10>
    80007bd8:	10b40263          	beq	s0,a1,80007cdc <_malloc_r+0x202>
    80007bdc:	6418                	ld	a4,8(s0)
    80007bde:	46fd                	li	a3,31
    80007be0:	9b71                	andi	a4,a4,-4
    80007be2:	40970633          	sub	a2,a4,s1
    80007be6:	08c6dc63          	ble	a2,a3,80007c7e <_malloc_r+0x1a4>
    80007bea:	0014e793          	ori	a5,s1,1
    80007bee:	e41c                	sd	a5,8(s0)
    80007bf0:	009406b3          	add	a3,s0,s1
    80007bf4:	00009797          	auipc	a5,0x9
    80007bf8:	4ad7be23          	sd	a3,1212(a5) # 800110b0 <__malloc_av_+0x28>
    80007bfc:	00009797          	auipc	a5,0x9
    80007c00:	4ad7b623          	sd	a3,1196(a5) # 800110a8 <__malloc_av_+0x20>
    80007c04:	00166793          	ori	a5,a2,1
    80007c08:	ee8c                	sd	a1,24(a3)
    80007c0a:	ea8c                	sd	a1,16(a3)
    80007c0c:	e69c                	sd	a5,8(a3)
    80007c0e:	9722                	add	a4,a4,s0
    80007c10:	e310                	sd	a2,0(a4)
    80007c12:	854a                	mv	a0,s2
    80007c14:	00000097          	auipc	ra,0x0
    80007c18:	432080e7          	jalr	1074(ra) # 80008046 <__malloc_unlock>
    80007c1c:	01040513          	addi	a0,s0,16
    80007c20:	bdd5                	j	80007b14 <_malloc_r+0x3a>
    80007c22:	47d1                	li	a5,20
    80007c24:	00e7e563          	bltu	a5,a4,80007c2e <_malloc_r+0x154>
    80007c28:	05b7079b          	addiw	a5,a4,91
    80007c2c:	bfa5                	j	80007ba4 <_malloc_r+0xca>
    80007c2e:	05400793          	li	a5,84
    80007c32:	00e7e763          	bltu	a5,a4,80007c40 <_malloc_r+0x166>
    80007c36:	00c4d793          	srli	a5,s1,0xc
    80007c3a:	06e7879b          	addiw	a5,a5,110
    80007c3e:	b79d                	j	80007ba4 <_malloc_r+0xca>
    80007c40:	15400793          	li	a5,340
    80007c44:	00e7e763          	bltu	a5,a4,80007c52 <_malloc_r+0x178>
    80007c48:	00f4d793          	srli	a5,s1,0xf
    80007c4c:	0777879b          	addiw	a5,a5,119
    80007c50:	bf91                	j	80007ba4 <_malloc_r+0xca>
    80007c52:	55400693          	li	a3,1364
    80007c56:	07e00793          	li	a5,126
    80007c5a:	f4e6e5e3          	bltu	a3,a4,80007ba4 <_malloc_r+0xca>
    80007c5e:	0124d793          	srli	a5,s1,0x12
    80007c62:	07c7879b          	addiw	a5,a5,124
    80007c66:	bf3d                	j	80007ba4 <_malloc_r+0xca>
    80007c68:	6c14                	ld	a3,24(s0)
    80007c6a:	00064863          	bltz	a2,80007c7a <_malloc_r+0x1a0>
    80007c6e:	681c                	ld	a5,16(s0)
    80007c70:	ef94                	sd	a3,24(a5)
    80007c72:	ea9c                	sd	a5,16(a3)
    80007c74:	00e407b3          	add	a5,s0,a4
    80007c78:	b729                	j	80007b82 <_malloc_r+0xa8>
    80007c7a:	8436                	mv	s0,a3
    80007c7c:	bf35                	j	80007bb8 <_malloc_r+0xde>
    80007c7e:	00009697          	auipc	a3,0x9
    80007c82:	42b6b923          	sd	a1,1074(a3) # 800110b0 <__malloc_av_+0x28>
    80007c86:	00009697          	auipc	a3,0x9
    80007c8a:	42b6b123          	sd	a1,1058(a3) # 800110a8 <__malloc_av_+0x20>
    80007c8e:	00064863          	bltz	a2,80007c9e <_malloc_r+0x1c4>
    80007c92:	9722                	add	a4,a4,s0
    80007c94:	671c                	ld	a5,8(a4)
    80007c96:	0017e793          	ori	a5,a5,1
    80007c9a:	e71c                	sd	a5,8(a4)
    80007c9c:	bf9d                	j	80007c12 <_malloc_r+0x138>
    80007c9e:	1ff00693          	li	a3,511
    80007ca2:	0089b803          	ld	a6,8(s3)
    80007ca6:	16e6e263          	bltu	a3,a4,80007e0a <_malloc_r+0x330>
    80007caa:	830d                	srli	a4,a4,0x3
    80007cac:	2701                	sext.w	a4,a4
    80007cae:	4027561b          	sraiw	a2,a4,0x2
    80007cb2:	2705                	addiw	a4,a4,1
    80007cb4:	4685                	li	a3,1
    80007cb6:	0017171b          	slliw	a4,a4,0x1
    80007cba:	00c696b3          	sll	a3,a3,a2
    80007cbe:	070e                	slli	a4,a4,0x3
    80007cc0:	974e                	add	a4,a4,s3
    80007cc2:	0106e6b3          	or	a3,a3,a6
    80007cc6:	00009617          	auipc	a2,0x9
    80007cca:	3cd63523          	sd	a3,970(a2) # 80011090 <__malloc_av_+0x8>
    80007cce:	6314                	ld	a3,0(a4)
    80007cd0:	ff070613          	addi	a2,a4,-16
    80007cd4:	ec10                	sd	a2,24(s0)
    80007cd6:	e814                	sd	a3,16(s0)
    80007cd8:	e300                	sd	s0,0(a4)
    80007cda:	ee80                	sd	s0,24(a3)
    80007cdc:	4027d71b          	sraiw	a4,a5,0x2
    80007ce0:	4305                	li	t1,1
    80007ce2:	00e31333          	sll	t1,t1,a4
    80007ce6:	0089b703          	ld	a4,8(s3)
    80007cea:	06676263          	bltu	a4,t1,80007d4e <_malloc_r+0x274>
    80007cee:	006776b3          	and	a3,a4,t1
    80007cf2:	e699                	bnez	a3,80007d00 <_malloc_r+0x226>
    80007cf4:	9bf1                	andi	a5,a5,-4
    80007cf6:	0306                	slli	t1,t1,0x1
    80007cf8:	006776b3          	and	a3,a4,t1
    80007cfc:	2791                	addiw	a5,a5,4
    80007cfe:	dee5                	beqz	a3,80007cf6 <_malloc_r+0x21c>
    80007d00:	4e7d                	li	t3,31
    80007d02:	0017871b          	addiw	a4,a5,1
    80007d06:	0017171b          	slliw	a4,a4,0x1
    80007d0a:	070e                	slli	a4,a4,0x3
    80007d0c:	1741                	addi	a4,a4,-16
    80007d0e:	974e                	add	a4,a4,s3
    80007d10:	883a                	mv	a6,a4
    80007d12:	853e                	mv	a0,a5
    80007d14:	01883403          	ld	s0,24(a6)
    80007d18:	19041963          	bne	s0,a6,80007eaa <_malloc_r+0x3d0>
    80007d1c:	2505                	addiw	a0,a0,1
    80007d1e:	00357693          	andi	a3,a0,3
    80007d22:	0841                	addi	a6,a6,16
    80007d24:	fae5                	bnez	a3,80007d14 <_malloc_r+0x23a>
    80007d26:	0037f693          	andi	a3,a5,3
    80007d2a:	1c069d63          	bnez	a3,80007f04 <_malloc_r+0x42a>
    80007d2e:	0089b703          	ld	a4,8(s3)
    80007d32:	fff34793          	not	a5,t1
    80007d36:	8ff9                	and	a5,a5,a4
    80007d38:	00009717          	auipc	a4,0x9
    80007d3c:	34f73c23          	sd	a5,856(a4) # 80011090 <__malloc_av_+0x8>
    80007d40:	0089b703          	ld	a4,8(s3)
    80007d44:	0306                	slli	t1,t1,0x1
    80007d46:	00676463          	bltu	a4,t1,80007d4e <_malloc_r+0x274>
    80007d4a:	1c031963          	bnez	t1,80007f1c <_malloc_r+0x442>
    80007d4e:	0109bb83          	ld	s7,16(s3)
    80007d52:	008bb403          	ld	s0,8(s7)
    80007d56:	ffc47a93          	andi	s5,s0,-4
    80007d5a:	009ae763          	bltu	s5,s1,80007d68 <_malloc_r+0x28e>
    80007d5e:	409a8733          	sub	a4,s5,s1
    80007d62:	47fd                	li	a5,31
    80007d64:	2ae7cd63          	blt	a5,a4,8000801e <_malloc_r+0x544>
    80007d68:	0000a797          	auipc	a5,0xa
    80007d6c:	2b878793          	addi	a5,a5,696 # 80012020 <__malloc_top_pad>
    80007d70:	0000a717          	auipc	a4,0xa
    80007d74:	d4870713          	addi	a4,a4,-696 # 80011ab8 <__malloc_sbrk_base>
    80007d78:	6380                	ld	s0,0(a5)
    80007d7a:	6314                	ld	a3,0(a4)
    80007d7c:	57fd                	li	a5,-1
    80007d7e:	015b8c33          	add	s8,s7,s5
    80007d82:	9426                	add	s0,s0,s1
    80007d84:	8a3a                	mv	s4,a4
    80007d86:	18f69d63          	bne	a3,a5,80007f20 <_malloc_r+0x446>
    80007d8a:	02040413          	addi	s0,s0,32
    80007d8e:	85a2                	mv	a1,s0
    80007d90:	854a                	mv	a0,s2
    80007d92:	00000097          	auipc	ra,0x0
    80007d96:	2c4080e7          	jalr	708(ra) # 80008056 <_sbrk_r>
    80007d9a:	57fd                	li	a5,-1
    80007d9c:	8b2a                	mv	s6,a0
    80007d9e:	20f50f63          	beq	a0,a5,80007fbc <_malloc_r+0x4e2>
    80007da2:	01857463          	bleu	s8,a0,80007daa <_malloc_r+0x2d0>
    80007da6:	213b9b63          	bne	s7,s3,80007fbc <_malloc_r+0x4e2>
    80007daa:	00020c97          	auipc	s9,0x20
    80007dae:	a56c8c93          	addi	s9,s9,-1450 # 80027800 <__malloc_current_mallinfo>
    80007db2:	000ca703          	lw	a4,0(s9)
    80007db6:	9f21                	addw	a4,a4,s0
    80007db8:	00020797          	auipc	a5,0x20
    80007dbc:	a4e7a423          	sw	a4,-1464(a5) # 80027800 <__malloc_current_mallinfo>
    80007dc0:	176c1663          	bne	s8,s6,80007f2c <_malloc_r+0x452>
    80007dc4:	034c1793          	slli	a5,s8,0x34
    80007dc8:	16079263          	bnez	a5,80007f2c <_malloc_r+0x452>
    80007dcc:	0109b783          	ld	a5,16(s3)
    80007dd0:	9456                	add	s0,s0,s5
    80007dd2:	00146413          	ori	s0,s0,1
    80007dd6:	e780                	sd	s0,8(a5)
    80007dd8:	0000a717          	auipc	a4,0xa
    80007ddc:	23870713          	addi	a4,a4,568 # 80012010 <__malloc_max_sbrked_mem>
    80007de0:	000ca783          	lw	a5,0(s9)
    80007de4:	6318                	ld	a4,0(a4)
    80007de6:	00f77663          	bleu	a5,a4,80007df2 <_malloc_r+0x318>
    80007dea:	0000a717          	auipc	a4,0xa
    80007dee:	22f73323          	sd	a5,550(a4) # 80012010 <__malloc_max_sbrked_mem>
    80007df2:	0000a717          	auipc	a4,0xa
    80007df6:	22670713          	addi	a4,a4,550 # 80012018 <__malloc_max_total_mem>
    80007dfa:	6318                	ld	a4,0(a4)
    80007dfc:	1cf77063          	bleu	a5,a4,80007fbc <_malloc_r+0x4e2>
    80007e00:	0000a717          	auipc	a4,0xa
    80007e04:	20f73c23          	sd	a5,536(a4) # 80012018 <__malloc_max_total_mem>
    80007e08:	aa55                	j	80007fbc <_malloc_r+0x4e2>
    80007e0a:	00975613          	srli	a2,a4,0x9
    80007e0e:	4691                	li	a3,4
    80007e10:	04c6e163          	bltu	a3,a2,80007e52 <_malloc_r+0x378>
    80007e14:	00675693          	srli	a3,a4,0x6
    80007e18:	0386869b          	addiw	a3,a3,56
    80007e1c:	0016861b          	addiw	a2,a3,1
    80007e20:	0016161b          	slliw	a2,a2,0x1
    80007e24:	060e                	slli	a2,a2,0x3
    80007e26:	964e                	add	a2,a2,s3
    80007e28:	ff060513          	addi	a0,a2,-16
    80007e2c:	6210                	ld	a2,0(a2)
    80007e2e:	06c51863          	bne	a0,a2,80007e9e <_malloc_r+0x3c4>
    80007e32:	4705                	li	a4,1
    80007e34:	4026d69b          	sraiw	a3,a3,0x2
    80007e38:	00d716b3          	sll	a3,a4,a3
    80007e3c:	0106e6b3          	or	a3,a3,a6
    80007e40:	00009717          	auipc	a4,0x9
    80007e44:	24d73823          	sd	a3,592(a4) # 80011090 <__malloc_av_+0x8>
    80007e48:	ec08                	sd	a0,24(s0)
    80007e4a:	e810                	sd	a2,16(s0)
    80007e4c:	e900                	sd	s0,16(a0)
    80007e4e:	ee00                	sd	s0,24(a2)
    80007e50:	b571                	j	80007cdc <_malloc_r+0x202>
    80007e52:	46d1                	li	a3,20
    80007e54:	00c6e563          	bltu	a3,a2,80007e5e <_malloc_r+0x384>
    80007e58:	05b6069b          	addiw	a3,a2,91
    80007e5c:	b7c1                	j	80007e1c <_malloc_r+0x342>
    80007e5e:	05400693          	li	a3,84
    80007e62:	00c6e763          	bltu	a3,a2,80007e70 <_malloc_r+0x396>
    80007e66:	00c75693          	srli	a3,a4,0xc
    80007e6a:	06e6869b          	addiw	a3,a3,110
    80007e6e:	b77d                	j	80007e1c <_malloc_r+0x342>
    80007e70:	15400693          	li	a3,340
    80007e74:	00c6e763          	bltu	a3,a2,80007e82 <_malloc_r+0x3a8>
    80007e78:	00f75693          	srli	a3,a4,0xf
    80007e7c:	0776869b          	addiw	a3,a3,119
    80007e80:	bf71                	j	80007e1c <_malloc_r+0x342>
    80007e82:	55400513          	li	a0,1364
    80007e86:	07e00693          	li	a3,126
    80007e8a:	f8c569e3          	bltu	a0,a2,80007e1c <_malloc_r+0x342>
    80007e8e:	01275693          	srli	a3,a4,0x12
    80007e92:	07c6869b          	addiw	a3,a3,124
    80007e96:	b759                	j	80007e1c <_malloc_r+0x342>
    80007e98:	6a10                	ld	a2,16(a2)
    80007e9a:	00c50663          	beq	a0,a2,80007ea6 <_malloc_r+0x3cc>
    80007e9e:	6614                	ld	a3,8(a2)
    80007ea0:	9af1                	andi	a3,a3,-4
    80007ea2:	fed76be3          	bltu	a4,a3,80007e98 <_malloc_r+0x3be>
    80007ea6:	6e08                	ld	a0,24(a2)
    80007ea8:	b745                	j	80007e48 <_malloc_r+0x36e>
    80007eaa:	6414                	ld	a3,8(s0)
    80007eac:	6c10                	ld	a2,24(s0)
    80007eae:	9af1                	andi	a3,a3,-4
    80007eb0:	409688b3          	sub	a7,a3,s1
    80007eb4:	031e5b63          	ble	a7,t3,80007eea <_malloc_r+0x410>
    80007eb8:	0014e793          	ori	a5,s1,1
    80007ebc:	e41c                	sd	a5,8(s0)
    80007ebe:	681c                	ld	a5,16(s0)
    80007ec0:	00940733          	add	a4,s0,s1
    80007ec4:	96a2                	add	a3,a3,s0
    80007ec6:	ef90                	sd	a2,24(a5)
    80007ec8:	ea1c                	sd	a5,16(a2)
    80007eca:	00009797          	auipc	a5,0x9
    80007ece:	1ee7b323          	sd	a4,486(a5) # 800110b0 <__malloc_av_+0x28>
    80007ed2:	00009797          	auipc	a5,0x9
    80007ed6:	1ce7bb23          	sd	a4,470(a5) # 800110a8 <__malloc_av_+0x20>
    80007eda:	0018e793          	ori	a5,a7,1
    80007ede:	ef0c                	sd	a1,24(a4)
    80007ee0:	eb0c                	sd	a1,16(a4)
    80007ee2:	e71c                	sd	a5,8(a4)
    80007ee4:	0116b023          	sd	a7,0(a3)
    80007ee8:	b32d                	j	80007c12 <_malloc_r+0x138>
    80007eea:	0008cb63          	bltz	a7,80007f00 <_malloc_r+0x426>
    80007eee:	96a2                	add	a3,a3,s0
    80007ef0:	669c                	ld	a5,8(a3)
    80007ef2:	0017e793          	ori	a5,a5,1
    80007ef6:	e69c                	sd	a5,8(a3)
    80007ef8:	681c                	ld	a5,16(s0)
    80007efa:	ef90                	sd	a2,24(a5)
    80007efc:	ea1c                	sd	a5,16(a2)
    80007efe:	bb11                	j	80007c12 <_malloc_r+0x138>
    80007f00:	8432                	mv	s0,a2
    80007f02:	bd19                	j	80007d18 <_malloc_r+0x23e>
    80007f04:	1741                	addi	a4,a4,-16
    80007f06:	6b14                	ld	a3,16(a4)
    80007f08:	37fd                	addiw	a5,a5,-1
    80007f0a:	e0e68ee3          	beq	a3,a4,80007d26 <_malloc_r+0x24c>
    80007f0e:	bd0d                	j	80007d40 <_malloc_r+0x266>
    80007f10:	2791                	addiw	a5,a5,4
    80007f12:	0306                	slli	t1,t1,0x1
    80007f14:	006776b3          	and	a3,a4,t1
    80007f18:	dee5                	beqz	a3,80007f10 <_malloc_r+0x436>
    80007f1a:	b3e5                	j	80007d02 <_malloc_r+0x228>
    80007f1c:	87aa                	mv	a5,a0
    80007f1e:	bfdd                	j	80007f14 <_malloc_r+0x43a>
    80007f20:	6705                	lui	a4,0x1
    80007f22:	077d                	addi	a4,a4,31
    80007f24:	943a                	add	s0,s0,a4
    80007f26:	77fd                	lui	a5,0xfffff
    80007f28:	8c7d                	and	s0,s0,a5
    80007f2a:	b595                	j	80007d8e <_malloc_r+0x2b4>
    80007f2c:	000a3683          	ld	a3,0(s4) # 1000 <_stack_size-0x7000>
    80007f30:	57fd                	li	a5,-1
    80007f32:	0af69663          	bne	a3,a5,80007fde <_malloc_r+0x504>
    80007f36:	0000a797          	auipc	a5,0xa
    80007f3a:	b967b123          	sd	s6,-1150(a5) # 80011ab8 <__malloc_sbrk_base>
    80007f3e:	00fb7c13          	andi	s8,s6,15
    80007f42:	4781                	li	a5,0
    80007f44:	000c0663          	beqz	s8,80007f50 <_malloc_r+0x476>
    80007f48:	47c1                	li	a5,16
    80007f4a:	418787b3          	sub	a5,a5,s8
    80007f4e:	9b3e                	add	s6,s6,a5
    80007f50:	6505                	lui	a0,0x1
    80007f52:	00a78a33          	add	s4,a5,a0
    80007f56:	945a                	add	s0,s0,s6
    80007f58:	157d                	addi	a0,a0,-1
    80007f5a:	00a477b3          	and	a5,s0,a0
    80007f5e:	40fa0a33          	sub	s4,s4,a5
    80007f62:	00aa7a33          	and	s4,s4,a0
    80007f66:	85d2                	mv	a1,s4
    80007f68:	854a                	mv	a0,s2
    80007f6a:	00000097          	auipc	ra,0x0
    80007f6e:	0ec080e7          	jalr	236(ra) # 80008056 <_sbrk_r>
    80007f72:	57fd                	li	a5,-1
    80007f74:	00f51963          	bne	a0,a5,80007f86 <_malloc_r+0x4ac>
    80007f78:	8522                	mv	a0,s0
    80007f7a:	000c0563          	beqz	s8,80007f84 <_malloc_r+0x4aa>
    80007f7e:	ff0c0513          	addi	a0,s8,-16
    80007f82:	9522                	add	a0,a0,s0
    80007f84:	4a01                	li	s4,0
    80007f86:	000ca783          	lw	a5,0(s9)
    80007f8a:	41650533          	sub	a0,a0,s6
    80007f8e:	014787bb          	addw	a5,a5,s4
    80007f92:	9a2a                	add	s4,s4,a0
    80007f94:	00020717          	auipc	a4,0x20
    80007f98:	86f72623          	sw	a5,-1940(a4) # 80027800 <__malloc_current_mallinfo>
    80007f9c:	001a6a13          	ori	s4,s4,1
    80007fa0:	00009797          	auipc	a5,0x9
    80007fa4:	0f67bc23          	sd	s6,248(a5) # 80011098 <__malloc_av_+0x10>
    80007fa8:	014b3423          	sd	s4,8(s6)
    80007fac:	e33b86e3          	beq	s7,s3,80007dd8 <_malloc_r+0x2fe>
    80007fb0:	477d                	li	a4,31
    80007fb2:	03576e63          	bltu	a4,s5,80007fee <_malloc_r+0x514>
    80007fb6:	4785                	li	a5,1
    80007fb8:	00fb3423          	sd	a5,8(s6)
    80007fbc:	0109b783          	ld	a5,16(s3)
    80007fc0:	679c                	ld	a5,8(a5)
    80007fc2:	9bf1                	andi	a5,a5,-4
    80007fc4:	40978733          	sub	a4,a5,s1
    80007fc8:	0097e563          	bltu	a5,s1,80007fd2 <_malloc_r+0x4f8>
    80007fcc:	47fd                	li	a5,31
    80007fce:	04e7c863          	blt	a5,a4,8000801e <_malloc_r+0x544>
    80007fd2:	854a                	mv	a0,s2
    80007fd4:	00000097          	auipc	ra,0x0
    80007fd8:	072080e7          	jalr	114(ra) # 80008046 <__malloc_unlock>
    80007fdc:	be1d                	j	80007b12 <_malloc_r+0x38>
    80007fde:	418b07b3          	sub	a5,s6,s8
    80007fe2:	9fb9                	addw	a5,a5,a4
    80007fe4:	00020717          	auipc	a4,0x20
    80007fe8:	80f72e23          	sw	a5,-2020(a4) # 80027800 <__malloc_current_mallinfo>
    80007fec:	bf89                	j	80007f3e <_malloc_r+0x464>
    80007fee:	008bb783          	ld	a5,8(s7)
    80007ff2:	fe8a8413          	addi	s0,s5,-24 # fffe8 <_stack_size+0xf7fe8>
    80007ff6:	9841                	andi	s0,s0,-16
    80007ff8:	8b85                	andi	a5,a5,1
    80007ffa:	8fc1                	or	a5,a5,s0
    80007ffc:	00fbb423          	sd	a5,8(s7)
    80008000:	46a5                	li	a3,9
    80008002:	008b87b3          	add	a5,s7,s0
    80008006:	e794                	sd	a3,8(a5)
    80008008:	eb94                	sd	a3,16(a5)
    8000800a:	dc8777e3          	bleu	s0,a4,80007dd8 <_malloc_r+0x2fe>
    8000800e:	010b8593          	addi	a1,s7,16
    80008012:	854a                	mv	a0,s2
    80008014:	00000097          	auipc	ra,0x0
    80008018:	8d8080e7          	jalr	-1832(ra) # 800078ec <_free_r>
    8000801c:	bb75                	j	80007dd8 <_malloc_r+0x2fe>
    8000801e:	0109b403          	ld	s0,16(s3)
    80008022:	0014e793          	ori	a5,s1,1
    80008026:	e41c                	sd	a5,8(s0)
    80008028:	009407b3          	add	a5,s0,s1
    8000802c:	00009697          	auipc	a3,0x9
    80008030:	06f6b623          	sd	a5,108(a3) # 80011098 <__malloc_av_+0x10>
    80008034:	be81                	j	80007b84 <_malloc_r+0xaa>

0000000080008036 <__malloc_lock>:
    80008036:	0000a517          	auipc	a0,0xa
    8000803a:	ff250513          	addi	a0,a0,-14 # 80012028 <__malloc_recursive_mutex>
    8000803e:	ffff8317          	auipc	t1,0xffff8
    80008042:	23030067          	jr	560(t1) # 8000026e <_lock_acquire_recursive>

0000000080008046 <__malloc_unlock>:
    80008046:	0000a517          	auipc	a0,0xa
    8000804a:	fe250513          	addi	a0,a0,-30 # 80012028 <__malloc_recursive_mutex>
    8000804e:	ffff8317          	auipc	t1,0xffff8
    80008052:	2c230067          	jr	706(t1) # 80000310 <_lock_release_recursive>

0000000080008056 <_sbrk_r>:
    80008056:	1141                	addi	sp,sp,-16
    80008058:	e022                	sd	s0,0(sp)
    8000805a:	842a                	mv	s0,a0
    8000805c:	852e                	mv	a0,a1
    8000805e:	0001f797          	auipc	a5,0x1f
    80008062:	7c07a523          	sw	zero,1994(a5) # 80027828 <errno>
    80008066:	e406                	sd	ra,8(sp)
    80008068:	00004097          	auipc	ra,0x4
    8000806c:	820080e7          	jalr	-2016(ra) # 8000b888 <_sbrk>
    80008070:	57fd                	li	a5,-1
    80008072:	00f51963          	bne	a0,a5,80008084 <_sbrk_r+0x2e>
    80008076:	0001f797          	auipc	a5,0x1f
    8000807a:	7b278793          	addi	a5,a5,1970 # 80027828 <errno>
    8000807e:	439c                	lw	a5,0(a5)
    80008080:	c391                	beqz	a5,80008084 <_sbrk_r+0x2e>
    80008082:	c01c                	sw	a5,0(s0)
    80008084:	60a2                	ld	ra,8(sp)
    80008086:	6402                	ld	s0,0(sp)
    80008088:	0141                	addi	sp,sp,16
    8000808a:	8082                	ret

000000008000808c <_svfprintf_r>:
    8000808c:	db010113          	addi	sp,sp,-592
    80008090:	24113423          	sd	ra,584(sp)
    80008094:	22913c23          	sd	s1,568(sp)
    80008098:	23213823          	sd	s2,560(sp)
    8000809c:	23313423          	sd	s3,552(sp)
    800080a0:	21613823          	sd	s6,528(sp)
    800080a4:	89ae                	mv	s3,a1
    800080a6:	84b2                	mv	s1,a2
    800080a8:	8b36                	mv	s6,a3
    800080aa:	24813023          	sd	s0,576(sp)
    800080ae:	23413023          	sd	s4,544(sp)
    800080b2:	21513c23          	sd	s5,536(sp)
    800080b6:	21713423          	sd	s7,520(sp)
    800080ba:	21813023          	sd	s8,512(sp)
    800080be:	ffe6                	sd	s9,504(sp)
    800080c0:	fbea                	sd	s10,496(sp)
    800080c2:	f7ee                	sd	s11,488(sp)
    800080c4:	892a                	mv	s2,a0
    800080c6:	00003097          	auipc	ra,0x3
    800080ca:	f80080e7          	jalr	-128(ra) # 8000b046 <_localeconv_r>
    800080ce:	611c                	ld	a5,0(a0)
    800080d0:	853e                	mv	a0,a5
    800080d2:	e0be                	sd	a5,64(sp)
    800080d4:	00003097          	auipc	ra,0x3
    800080d8:	13c080e7          	jalr	316(ra) # 8000b210 <strlen>
    800080dc:	0109d783          	lhu	a5,16(s3)
    800080e0:	e82a                	sd	a0,16(sp)
    800080e2:	e982                	sd	zero,208(sp)
    800080e4:	ed82                	sd	zero,216(sp)
    800080e6:	0807f793          	andi	a5,a5,128
    800080ea:	cb95                	beqz	a5,8000811e <_svfprintf_r+0x92>
    800080ec:	0189b783          	ld	a5,24(s3)
    800080f0:	e79d                	bnez	a5,8000811e <_svfprintf_r+0x92>
    800080f2:	04000593          	li	a1,64
    800080f6:	854a                	mv	a0,s2
    800080f8:	00000097          	auipc	ra,0x0
    800080fc:	9e2080e7          	jalr	-1566(ra) # 80007ada <_malloc_r>
    80008100:	00a9b023          	sd	a0,0(s3)
    80008104:	00a9bc23          	sd	a0,24(s3)
    80008108:	e519                	bnez	a0,80008116 <_svfprintf_r+0x8a>
    8000810a:	47b1                	li	a5,12
    8000810c:	00f92023          	sw	a5,0(s2)
    80008110:	57fd                	li	a5,-1
    80008112:	f03e                	sd	a5,32(sp)
    80008114:	ab5d                	j	800086ca <_svfprintf_r+0x63e>
    80008116:	04000793          	li	a5,64
    8000811a:	02f9a023          	sw	a5,32(s3)
    8000811e:	129c                	addi	a5,sp,352
    80008120:	f1be                	sd	a5,224(sp)
    80008122:	f982                	sd	zero,240(sp)
    80008124:	d582                	sw	zero,232(sp)
    80008126:	4a01                	li	s4,0
    80008128:	8c3e                	mv	s8,a5
    8000812a:	ec82                	sd	zero,88(sp)
    8000812c:	e882                	sd	zero,80(sp)
    8000812e:	e002                	sd	zero,0(sp)
    80008130:	fc02                	sd	zero,56(sp)
    80008132:	e482                	sd	zero,72(sp)
    80008134:	f002                	sd	zero,32(sp)
    80008136:	8426                	mv	s0,s1
    80008138:	02500713          	li	a4,37
    8000813c:	00044783          	lbu	a5,0(s0)
    80008140:	c399                	beqz	a5,80008146 <_svfprintf_r+0xba>
    80008142:	08e79b63          	bne	a5,a4,800081d8 <_svfprintf_r+0x14c>
    80008146:	40940abb          	subw	s5,s0,s1
    8000814a:	040a8063          	beqz	s5,8000818a <_svfprintf_r+0xfe>
    8000814e:	77ce                	ld	a5,240(sp)
    80008150:	009c3023          	sd	s1,0(s8)
    80008154:	015c3423          	sd	s5,8(s8)
    80008158:	97d6                	add	a5,a5,s5
    8000815a:	f9be                	sd	a5,240(sp)
    8000815c:	57ae                	lw	a5,232(sp)
    8000815e:	0c41                	addi	s8,s8,16
    80008160:	0017871b          	addiw	a4,a5,1
    80008164:	d5ba                	sw	a4,232(sp)
    80008166:	479d                	li	a5,7
    80008168:	00e7dd63          	ble	a4,a5,80008182 <_svfprintf_r+0xf6>
    8000816c:	1190                	addi	a2,sp,224
    8000816e:	85ce                	mv	a1,s3
    80008170:	854a                	mv	a0,s2
    80008172:	00003097          	auipc	ra,0x3
    80008176:	0d4080e7          	jalr	212(ra) # 8000b246 <__ssprint_r>
    8000817a:	54051263          	bnez	a0,800086be <_svfprintf_r+0x632>
    8000817e:	16010c13          	addi	s8,sp,352
    80008182:	7782                	ld	a5,32(sp)
    80008184:	015787bb          	addw	a5,a5,s5
    80008188:	f03e                	sd	a5,32(sp)
    8000818a:	00044783          	lbu	a5,0(s0)
    8000818e:	e399                	bnez	a5,80008194 <_svfprintf_r+0x108>
    80008190:	4ce0106f          	j	8000965e <_svfprintf_r+0x15d2>
    80008194:	00140793          	addi	a5,s0,1
    80008198:	0a0107a3          	sb	zero,175(sp)
    8000819c:	5dfd                	li	s11,-1
    8000819e:	ec02                	sd	zero,24(sp)
    800081a0:	4401                	li	s0,0
    800081a2:	4ba9                	li	s7,10
    800081a4:	4d25                	li	s10,9
    800081a6:	0007ca83          	lbu	s5,0(a5)
    800081aa:	00178713          	addi	a4,a5,1
    800081ae:	e43a                	sd	a4,8(sp)
    800081b0:	05a00693          	li	a3,90
    800081b4:	02a00613          	li	a2,42
    800081b8:	fe0a879b          	addiw	a5,s5,-32
    800081bc:	0007871b          	sext.w	a4,a5
    800081c0:	44e6ebe3          	bltu	a3,a4,80008e16 <_svfprintf_r+0xd8a>
    800081c4:	1782                	slli	a5,a5,0x20
    800081c6:	00006717          	auipc	a4,0x6
    800081ca:	02670713          	addi	a4,a4,38 # 8000e1ec <_ctype_+0x104>
    800081ce:	83f9                	srli	a5,a5,0x1e
    800081d0:	97ba                	add	a5,a5,a4
    800081d2:	439c                	lw	a5,0(a5)
    800081d4:	97ba                	add	a5,a5,a4
    800081d6:	8782                	jr	a5
    800081d8:	0405                	addi	s0,s0,1
    800081da:	b78d                	j	8000813c <_svfprintf_r+0xb0>
    800081dc:	854a                	mv	a0,s2
    800081de:	00003097          	auipc	ra,0x3
    800081e2:	e68080e7          	jalr	-408(ra) # 8000b046 <_localeconv_r>
    800081e6:	651c                	ld	a5,8(a0)
    800081e8:	853e                	mv	a0,a5
    800081ea:	e4be                	sd	a5,72(sp)
    800081ec:	00003097          	auipc	ra,0x3
    800081f0:	024080e7          	jalr	36(ra) # 8000b210 <strlen>
    800081f4:	fc2a                	sd	a0,56(sp)
    800081f6:	854a                	mv	a0,s2
    800081f8:	00003097          	auipc	ra,0x3
    800081fc:	e4e080e7          	jalr	-434(ra) # 8000b046 <_localeconv_r>
    80008200:	691c                	ld	a5,16(a0)
    80008202:	e03e                	sd	a5,0(sp)
    80008204:	77e2                	ld	a5,56(sp)
    80008206:	c38d                	beqz	a5,80008228 <_svfprintf_r+0x19c>
    80008208:	6782                	ld	a5,0(sp)
    8000820a:	cf99                	beqz	a5,80008228 <_svfprintf_r+0x19c>
    8000820c:	0007c783          	lbu	a5,0(a5)
    80008210:	cf81                	beqz	a5,80008228 <_svfprintf_r+0x19c>
    80008212:	40046413          	ori	s0,s0,1024
    80008216:	2401                	sext.w	s0,s0
    80008218:	a801                	j	80008228 <_svfprintf_r+0x19c>
    8000821a:	0af14783          	lbu	a5,175(sp)
    8000821e:	e789                	bnez	a5,80008228 <_svfprintf_r+0x19c>
    80008220:	02000793          	li	a5,32
    80008224:	0af107a3          	sb	a5,175(sp)
    80008228:	67a2                	ld	a5,8(sp)
    8000822a:	bfb5                	j	800081a6 <_svfprintf_r+0x11a>
    8000822c:	00146413          	ori	s0,s0,1
    80008230:	b7dd                	j	80008216 <_svfprintf_r+0x18a>
    80008232:	000b2783          	lw	a5,0(s6)
    80008236:	0b21                	addi	s6,s6,8
    80008238:	ec3e                	sd	a5,24(sp)
    8000823a:	fe07d7e3          	bgez	a5,80008228 <_svfprintf_r+0x19c>
    8000823e:	40f007bb          	negw	a5,a5
    80008242:	ec3e                	sd	a5,24(sp)
    80008244:	00446413          	ori	s0,s0,4
    80008248:	b7f9                	j	80008216 <_svfprintf_r+0x18a>
    8000824a:	02b00793          	li	a5,43
    8000824e:	bfd9                	j	80008224 <_svfprintf_r+0x198>
    80008250:	6722                	ld	a4,8(sp)
    80008252:	67a2                	ld	a5,8(sp)
    80008254:	00074a83          	lbu	s5,0(a4)
    80008258:	0785                	addi	a5,a5,1
    8000825a:	02ca9e63          	bne	s5,a2,80008296 <_svfprintf_r+0x20a>
    8000825e:	000b2e03          	lw	t3,0(s6)
    80008262:	008b0713          	addi	a4,s6,8
    80008266:	020e1693          	slli	a3,t3,0x20
    8000826a:	0006d363          	bgez	a3,80008270 <_svfprintf_r+0x1e4>
    8000826e:	5e7d                	li	t3,-1
    80008270:	000e0d9b          	sext.w	s11,t3
    80008274:	8b3a                	mv	s6,a4
    80008276:	e43e                	sd	a5,8(sp)
    80008278:	bf45                	j	80008228 <_svfprintf_r+0x19c>
    8000827a:	03bb8e3b          	mulw	t3,s7,s11
    8000827e:	0785                	addi	a5,a5,1
    80008280:	fff7ca83          	lbu	s5,-1(a5)
    80008284:	00ee0dbb          	addw	s11,t3,a4
    80008288:	fd0a859b          	addiw	a1,s5,-48
    8000828c:	872e                	mv	a4,a1
    8000828e:	febd76e3          	bleu	a1,s10,8000827a <_svfprintf_r+0x1ee>
    80008292:	e43e                	sd	a5,8(sp)
    80008294:	b715                	j	800081b8 <_svfprintf_r+0x12c>
    80008296:	4d81                	li	s11,0
    80008298:	bfc5                	j	80008288 <_svfprintf_r+0x1fc>
    8000829a:	08046413          	ori	s0,s0,128
    8000829e:	bfa5                	j	80008216 <_svfprintf_r+0x18a>
    800082a0:	67a2                	ld	a5,8(sp)
    800082a2:	ec02                	sd	zero,24(sp)
    800082a4:	6762                	ld	a4,24(sp)
    800082a6:	fd0a8a9b          	addiw	s5,s5,-48
    800082aa:	0785                	addi	a5,a5,1
    800082ac:	02eb873b          	mulw	a4,s7,a4
    800082b0:	00ea873b          	addw	a4,s5,a4
    800082b4:	fff7ca83          	lbu	s5,-1(a5)
    800082b8:	ec3a                	sd	a4,24(sp)
    800082ba:	fd0a871b          	addiw	a4,s5,-48
    800082be:	feed73e3          	bleu	a4,s10,800082a4 <_svfprintf_r+0x218>
    800082c2:	bfc1                	j	80008292 <_svfprintf_r+0x206>
    800082c4:	00846413          	ori	s0,s0,8
    800082c8:	b7b9                	j	80008216 <_svfprintf_r+0x18a>
    800082ca:	67a2                	ld	a5,8(sp)
    800082cc:	0007c703          	lbu	a4,0(a5)
    800082d0:	06800793          	li	a5,104
    800082d4:	00f71863          	bne	a4,a5,800082e4 <_svfprintf_r+0x258>
    800082d8:	67a2                	ld	a5,8(sp)
    800082da:	20046413          	ori	s0,s0,512
    800082de:	0785                	addi	a5,a5,1
    800082e0:	e43e                	sd	a5,8(sp)
    800082e2:	bf15                	j	80008216 <_svfprintf_r+0x18a>
    800082e4:	04046413          	ori	s0,s0,64
    800082e8:	b73d                	j	80008216 <_svfprintf_r+0x18a>
    800082ea:	67a2                	ld	a5,8(sp)
    800082ec:	0007c703          	lbu	a4,0(a5)
    800082f0:	06c00793          	li	a5,108
    800082f4:	00f71863          	bne	a4,a5,80008304 <_svfprintf_r+0x278>
    800082f8:	67a2                	ld	a5,8(sp)
    800082fa:	0785                	addi	a5,a5,1
    800082fc:	e43e                	sd	a5,8(sp)
    800082fe:	02046413          	ori	s0,s0,32
    80008302:	bf11                	j	80008216 <_svfprintf_r+0x18a>
    80008304:	01046413          	ori	s0,s0,16
    80008308:	b739                	j	80008216 <_svfprintf_r+0x18a>
    8000830a:	008b0793          	addi	a5,s6,8
    8000830e:	f43e                	sd	a5,40(sp)
    80008310:	000b2783          	lw	a5,0(s6)
    80008314:	0a0107a3          	sb	zero,175(sp)
    80008318:	0ef10c23          	sb	a5,248(sp)
    8000831c:	4b01                	li	s6,0
    8000831e:	4d85                	li	s11,1
    80008320:	4701                	li	a4,0
    80008322:	4d01                	li	s10,0
    80008324:	4b81                	li	s7,0
    80008326:	4c81                	li	s9,0
    80008328:	19a4                	addi	s1,sp,248
    8000832a:	86ba                	mv	a3,a4
    8000832c:	01b75363          	ble	s11,a4,80008332 <_svfprintf_r+0x2a6>
    80008330:	86ee                	mv	a3,s11
    80008332:	0af14603          	lbu	a2,175(sp)
    80008336:	0006879b          	sext.w	a5,a3
    8000833a:	f83e                	sd	a5,48(sp)
    8000833c:	c601                	beqz	a2,80008344 <_svfprintf_r+0x2b8>
    8000833e:	0016879b          	addiw	a5,a3,1
    80008342:	f83e                	sd	a5,48(sp)
    80008344:	00247693          	andi	a3,s0,2
    80008348:	0006879b          	sext.w	a5,a3
    8000834c:	f0be                	sd	a5,96(sp)
    8000834e:	c781                	beqz	a5,80008356 <_svfprintf_r+0x2ca>
    80008350:	77c2                	ld	a5,48(sp)
    80008352:	2789                	addiw	a5,a5,2
    80008354:	f83e                	sd	a5,48(sp)
    80008356:	08447793          	andi	a5,s0,132
    8000835a:	f4be                	sd	a5,104(sp)
    8000835c:	efb9                	bnez	a5,800083ba <_svfprintf_r+0x32e>
    8000835e:	67e2                	ld	a5,24(sp)
    80008360:	76c2                	ld	a3,48(sp)
    80008362:	40d786bb          	subw	a3,a5,a3
    80008366:	04d05a63          	blez	a3,800083ba <_svfprintf_r+0x32e>
    8000836a:	48c1                	li	a7,16
    8000836c:	00006817          	auipc	a6,0x6
    80008370:	07c80813          	addi	a6,a6,124 # 8000e3e8 <blanks.4811>
    80008374:	4e9d                	li	t4,7
    80008376:	55ae                	lw	a1,232(sp)
    80008378:	010c3023          	sd	a6,0(s8)
    8000837c:	764e                	ld	a2,240(sp)
    8000837e:	0015851b          	addiw	a0,a1,1
    80008382:	85aa                	mv	a1,a0
    80008384:	010c0f13          	addi	t5,s8,16
    80008388:	2ad8c0e3          	blt	a7,a3,80008e28 <_svfprintf_r+0xd9c>
    8000838c:	00dc3423          	sd	a3,8(s8)
    80008390:	96b2                	add	a3,a3,a2
    80008392:	f9b6                	sd	a3,240(sp)
    80008394:	d5aa                	sw	a0,232(sp)
    80008396:	469d                	li	a3,7
    80008398:	8c7a                	mv	s8,t5
    8000839a:	02a6d063          	ble	a0,a3,800083ba <_svfprintf_r+0x32e>
    8000839e:	1190                	addi	a2,sp,224
    800083a0:	85ce                	mv	a1,s3
    800083a2:	854a                	mv	a0,s2
    800083a4:	f8ba                	sd	a4,112(sp)
    800083a6:	00003097          	auipc	ra,0x3
    800083aa:	ea0080e7          	jalr	-352(ra) # 8000b246 <__ssprint_r>
    800083ae:	c119                	beqz	a0,800083b4 <_svfprintf_r+0x328>
    800083b0:	2640106f          	j	80009614 <_svfprintf_r+0x1588>
    800083b4:	7746                	ld	a4,112(sp)
    800083b6:	16010c13          	addi	s8,sp,352
    800083ba:	0af14683          	lbu	a3,175(sp)
    800083be:	c2a9                	beqz	a3,80008400 <_svfprintf_r+0x374>
    800083c0:	0af10693          	addi	a3,sp,175
    800083c4:	00dc3023          	sd	a3,0(s8)
    800083c8:	4685                	li	a3,1
    800083ca:	00dc3423          	sd	a3,8(s8)
    800083ce:	76ce                	ld	a3,240(sp)
    800083d0:	0c41                	addi	s8,s8,16
    800083d2:	0685                	addi	a3,a3,1
    800083d4:	f9b6                	sd	a3,240(sp)
    800083d6:	56ae                	lw	a3,232(sp)
    800083d8:	0016861b          	addiw	a2,a3,1
    800083dc:	d5b2                	sw	a2,232(sp)
    800083de:	469d                	li	a3,7
    800083e0:	02c6d063          	ble	a2,a3,80008400 <_svfprintf_r+0x374>
    800083e4:	1190                	addi	a2,sp,224
    800083e6:	85ce                	mv	a1,s3
    800083e8:	854a                	mv	a0,s2
    800083ea:	f8ba                	sd	a4,112(sp)
    800083ec:	00003097          	auipc	ra,0x3
    800083f0:	e5a080e7          	jalr	-422(ra) # 8000b246 <__ssprint_r>
    800083f4:	c119                	beqz	a0,800083fa <_svfprintf_r+0x36e>
    800083f6:	21e0106f          	j	80009614 <_svfprintf_r+0x1588>
    800083fa:	7746                	ld	a4,112(sp)
    800083fc:	16010c13          	addi	s8,sp,352
    80008400:	7786                	ld	a5,96(sp)
    80008402:	c3a1                	beqz	a5,80008442 <_svfprintf_r+0x3b6>
    80008404:	1914                	addi	a3,sp,176
    80008406:	00dc3023          	sd	a3,0(s8)
    8000840a:	4689                	li	a3,2
    8000840c:	00dc3423          	sd	a3,8(s8)
    80008410:	76ce                	ld	a3,240(sp)
    80008412:	0c41                	addi	s8,s8,16
    80008414:	0689                	addi	a3,a3,2
    80008416:	f9b6                	sd	a3,240(sp)
    80008418:	56ae                	lw	a3,232(sp)
    8000841a:	0016861b          	addiw	a2,a3,1
    8000841e:	d5b2                	sw	a2,232(sp)
    80008420:	469d                	li	a3,7
    80008422:	02c6d063          	ble	a2,a3,80008442 <_svfprintf_r+0x3b6>
    80008426:	1190                	addi	a2,sp,224
    80008428:	85ce                	mv	a1,s3
    8000842a:	854a                	mv	a0,s2
    8000842c:	f0ba                	sd	a4,96(sp)
    8000842e:	00003097          	auipc	ra,0x3
    80008432:	e18080e7          	jalr	-488(ra) # 8000b246 <__ssprint_r>
    80008436:	c119                	beqz	a0,8000843c <_svfprintf_r+0x3b0>
    80008438:	1dc0106f          	j	80009614 <_svfprintf_r+0x1588>
    8000843c:	7706                	ld	a4,96(sp)
    8000843e:	16010c13          	addi	s8,sp,352
    80008442:	77a6                	ld	a5,104(sp)
    80008444:	08000693          	li	a3,128
    80008448:	06d79063          	bne	a5,a3,800084a8 <_svfprintf_r+0x41c>
    8000844c:	67e2                	ld	a5,24(sp)
    8000844e:	76c2                	ld	a3,48(sp)
    80008450:	40d786bb          	subw	a3,a5,a3
    80008454:	04d05a63          	blez	a3,800084a8 <_svfprintf_r+0x41c>
    80008458:	4841                	li	a6,16
    8000845a:	489d                	li	a7,7
    8000845c:	55ae                	lw	a1,232(sp)
    8000845e:	00006797          	auipc	a5,0x6
    80008462:	f9a78793          	addi	a5,a5,-102 # 8000e3f8 <zeroes.4812>
    80008466:	00fc3023          	sd	a5,0(s8)
    8000846a:	0015851b          	addiw	a0,a1,1
    8000846e:	764e                	ld	a2,240(sp)
    80008470:	85aa                	mv	a1,a0
    80008472:	010c0e93          	addi	t4,s8,16
    80008476:	1ed849e3          	blt	a6,a3,80008e68 <_svfprintf_r+0xddc>
    8000847a:	00dc3423          	sd	a3,8(s8)
    8000847e:	96b2                	add	a3,a3,a2
    80008480:	f9b6                	sd	a3,240(sp)
    80008482:	d5aa                	sw	a0,232(sp)
    80008484:	469d                	li	a3,7
    80008486:	8c76                	mv	s8,t4
    80008488:	02a6d063          	ble	a0,a3,800084a8 <_svfprintf_r+0x41c>
    8000848c:	1190                	addi	a2,sp,224
    8000848e:	85ce                	mv	a1,s3
    80008490:	854a                	mv	a0,s2
    80008492:	f0ba                	sd	a4,96(sp)
    80008494:	00003097          	auipc	ra,0x3
    80008498:	db2080e7          	jalr	-590(ra) # 8000b246 <__ssprint_r>
    8000849c:	c119                	beqz	a0,800084a2 <_svfprintf_r+0x416>
    8000849e:	1760106f          	j	80009614 <_svfprintf_r+0x1588>
    800084a2:	7706                	ld	a4,96(sp)
    800084a4:	16010c13          	addi	s8,sp,352
    800084a8:	41b7073b          	subw	a4,a4,s11
    800084ac:	04e05863          	blez	a4,800084fc <_svfprintf_r+0x470>
    800084b0:	4841                	li	a6,16
    800084b2:	489d                	li	a7,7
    800084b4:	562e                	lw	a2,232(sp)
    800084b6:	00006797          	auipc	a5,0x6
    800084ba:	f4278793          	addi	a5,a5,-190 # 8000e3f8 <zeroes.4812>
    800084be:	00fc3023          	sd	a5,0(s8)
    800084c2:	0016059b          	addiw	a1,a2,1
    800084c6:	76ce                	ld	a3,240(sp)
    800084c8:	862e                	mv	a2,a1
    800084ca:	010c0513          	addi	a0,s8,16
    800084ce:	1ce849e3          	blt	a6,a4,80008ea0 <_svfprintf_r+0xe14>
    800084d2:	00ec3423          	sd	a4,8(s8)
    800084d6:	9736                	add	a4,a4,a3
    800084d8:	f9ba                	sd	a4,240(sp)
    800084da:	d5ae                	sw	a1,232(sp)
    800084dc:	471d                	li	a4,7
    800084de:	8c2a                	mv	s8,a0
    800084e0:	00b75e63          	ble	a1,a4,800084fc <_svfprintf_r+0x470>
    800084e4:	1190                	addi	a2,sp,224
    800084e6:	85ce                	mv	a1,s3
    800084e8:	854a                	mv	a0,s2
    800084ea:	00003097          	auipc	ra,0x3
    800084ee:	d5c080e7          	jalr	-676(ra) # 8000b246 <__ssprint_r>
    800084f2:	c119                	beqz	a0,800084f8 <_svfprintf_r+0x46c>
    800084f4:	1200106f          	j	80009614 <_svfprintf_r+0x1588>
    800084f8:	16010c13          	addi	s8,sp,352
    800084fc:	10047693          	andi	a3,s0,256
    80008500:	774e                	ld	a4,240(sp)
    80008502:	1c0698e3          	bnez	a3,80008ed2 <_svfprintf_r+0xe46>
    80008506:	57ae                	lw	a5,232(sp)
    80008508:	00ed8e33          	add	t3,s11,a4
    8000850c:	009c3023          	sd	s1,0(s8)
    80008510:	0017871b          	addiw	a4,a5,1
    80008514:	01bc3423          	sd	s11,8(s8)
    80008518:	f9f2                	sd	t3,240(sp)
    8000851a:	d5ba                	sw	a4,232(sp)
    8000851c:	479d                	li	a5,7
    8000851e:	0c41                	addi	s8,s8,16
    80008520:	3ce7d2e3          	ble	a4,a5,800090e4 <_svfprintf_r+0x1058>
    80008524:	1190                	addi	a2,sp,224
    80008526:	85ce                	mv	a1,s3
    80008528:	854a                	mv	a0,s2
    8000852a:	00003097          	auipc	ra,0x3
    8000852e:	d1c080e7          	jalr	-740(ra) # 8000b246 <__ssprint_r>
    80008532:	c119                	beqz	a0,80008538 <_svfprintf_r+0x4ac>
    80008534:	0e00106f          	j	80009614 <_svfprintf_r+0x1588>
    80008538:	16010c13          	addi	s8,sp,352
    8000853c:	3a90006f          	j	800090e4 <_svfprintf_r+0x1058>
    80008540:	01046413          	ori	s0,s0,16
    80008544:	2401                	sext.w	s0,s0
    80008546:	008b0793          	addi	a5,s6,8
    8000854a:	f43e                	sd	a5,40(sp)
    8000854c:	02047793          	andi	a5,s0,32
    80008550:	cf95                	beqz	a5,8000858c <_svfprintf_r+0x500>
    80008552:	000b3b03          	ld	s6,0(s6)
    80008556:	000b4463          	bltz	s6,8000855e <_svfprintf_r+0x4d2>
    8000855a:	11c0106f          	j	80009676 <_svfprintf_r+0x15ea>
    8000855e:	02d00793          	li	a5,45
    80008562:	0af107a3          	sb	a5,175(sp)
    80008566:	41600b33          	neg	s6,s6
    8000856a:	4785                	li	a5,1
    8000856c:	577d                	li	a4,-1
    8000856e:	7aed8963          	beq	s11,a4,80008d20 <_svfprintf_r+0xc94>
    80008572:	8722                	mv	a4,s0
    80008574:	f7f47413          	andi	s0,s0,-129
    80008578:	2401                	sext.w	s0,s0
    8000857a:	7a0b1363          	bnez	s6,80008d20 <_svfprintf_r+0xc94>
    8000857e:	080d82e3          	beqz	s11,80008e02 <_svfprintf_r+0xd76>
    80008582:	4705                	li	a4,1
    80008584:	7ae79163          	bne	a5,a4,80008d26 <_svfprintf_r+0xc9a>
    80008588:	0fa0106f          	j	80009682 <_svfprintf_r+0x15f6>
    8000858c:	01047793          	andi	a5,s0,16
    80008590:	f3e9                	bnez	a5,80008552 <_svfprintf_r+0x4c6>
    80008592:	04047793          	andi	a5,s0,64
    80008596:	c781                	beqz	a5,8000859e <_svfprintf_r+0x512>
    80008598:	000b1b03          	lh	s6,0(s6)
    8000859c:	bf6d                	j	80008556 <_svfprintf_r+0x4ca>
    8000859e:	20047793          	andi	a5,s0,512
    800085a2:	c781                	beqz	a5,800085aa <_svfprintf_r+0x51e>
    800085a4:	000b0b03          	lb	s6,0(s6)
    800085a8:	b77d                	j	80008556 <_svfprintf_r+0x4ca>
    800085aa:	000b2b03          	lw	s6,0(s6)
    800085ae:	b765                	j	80008556 <_svfprintf_r+0x4ca>
    800085b0:	00847793          	andi	a5,s0,8
    800085b4:	c7bd                	beqz	a5,80008622 <_svfprintf_r+0x596>
    800085b6:	0b3d                	addi	s6,s6,15
    800085b8:	ff0b7b13          	andi	s6,s6,-16
    800085bc:	010b0793          	addi	a5,s6,16
    800085c0:	f43e                	sd	a5,40(sp)
    800085c2:	000b3783          	ld	a5,0(s6)
    800085c6:	e9be                	sd	a5,208(sp)
    800085c8:	008b3783          	ld	a5,8(s6)
    800085cc:	edbe                	sd	a5,216(sp)
    800085ce:	0988                	addi	a0,sp,208
    800085d0:	00003097          	auipc	ra,0x3
    800085d4:	a38080e7          	jalr	-1480(ra) # 8000b008 <_ldcheck>
    800085d8:	dd2a                	sw	a0,184(sp)
    800085da:	4789                	li	a5,2
    800085dc:	04f51f63          	bne	a0,a5,8000863a <_svfprintf_r+0x5ae>
    800085e0:	654e                	ld	a0,208(sp)
    800085e2:	65ee                	ld	a1,216(sp)
    800085e4:	4601                	li	a2,0
    800085e6:	4681                	li	a3,0
    800085e8:	00003097          	auipc	ra,0x3
    800085ec:	462080e7          	jalr	1122(ra) # 8000ba4a <__letf2>
    800085f0:	00055663          	bgez	a0,800085fc <_svfprintf_r+0x570>
    800085f4:	02d00793          	li	a5,45
    800085f8:	0af107a3          	sb	a5,175(sp)
    800085fc:	04700793          	li	a5,71
    80008600:	00006497          	auipc	s1,0x6
    80008604:	d9048493          	addi	s1,s1,-624 # 8000e390 <_ctype_+0x2a8>
    80008608:	0157d663          	ble	s5,a5,80008614 <_svfprintf_r+0x588>
    8000860c:	00006497          	auipc	s1,0x6
    80008610:	d8c48493          	addi	s1,s1,-628 # 8000e398 <_ctype_+0x2b0>
    80008614:	f7f47413          	andi	s0,s0,-129
    80008618:	2401                	sext.w	s0,s0
    8000861a:	4b01                	li	s6,0
    8000861c:	4d8d                	li	s11,3
    8000861e:	4701                	li	a4,0
    80008620:	a7a1                	j	80008d68 <_svfprintf_r+0xcdc>
    80008622:	000b3503          	ld	a0,0(s6)
    80008626:	008b0793          	addi	a5,s6,8
    8000862a:	f43e                	sd	a5,40(sp)
    8000862c:	00004097          	auipc	ra,0x4
    80008630:	444080e7          	jalr	1092(ra) # 8000ca70 <__extenddftf2>
    80008634:	e9aa                	sd	a0,208(sp)
    80008636:	edae                	sd	a1,216(sp)
    80008638:	bf59                	j	800085ce <_svfprintf_r+0x542>
    8000863a:	4785                	li	a5,1
    8000863c:	02f51663          	bne	a0,a5,80008668 <_svfprintf_r+0x5dc>
    80008640:	67ee                	ld	a5,216(sp)
    80008642:	0007d663          	bgez	a5,8000864e <_svfprintf_r+0x5c2>
    80008646:	02d00793          	li	a5,45
    8000864a:	0af107a3          	sb	a5,175(sp)
    8000864e:	04700793          	li	a5,71
    80008652:	00006497          	auipc	s1,0x6
    80008656:	d4e48493          	addi	s1,s1,-690 # 8000e3a0 <_ctype_+0x2b8>
    8000865a:	fb57dde3          	ble	s5,a5,80008614 <_svfprintf_r+0x588>
    8000865e:	00006497          	auipc	s1,0x6
    80008662:	d4a48493          	addi	s1,s1,-694 # 8000e3a8 <_ctype_+0x2c0>
    80008666:	b77d                	j	80008614 <_svfprintf_r+0x588>
    80008668:	fdfafb93          	andi	s7,s5,-33
    8000866c:	04100793          	li	a5,65
    80008670:	08fb9863          	bne	s7,a5,80008700 <_svfprintf_r+0x674>
    80008674:	03000793          	li	a5,48
    80008678:	0af10823          	sb	a5,176(sp)
    8000867c:	06100713          	li	a4,97
    80008680:	07800793          	li	a5,120
    80008684:	00ea8463          	beq	s5,a4,8000868c <_svfprintf_r+0x600>
    80008688:	05800793          	li	a5,88
    8000868c:	0af108a3          	sb	a5,177(sp)
    80008690:	00246413          	ori	s0,s0,2
    80008694:	06300793          	li	a5,99
    80008698:	2401                	sext.w	s0,s0
    8000869a:	2db7df63          	ble	s11,a5,80008978 <_svfprintf_r+0x8ec>
    8000869e:	001d859b          	addiw	a1,s11,1
    800086a2:	854a                	mv	a0,s2
    800086a4:	fffff097          	auipc	ra,0xfffff
    800086a8:	436080e7          	jalr	1078(ra) # 80007ada <_malloc_r>
    800086ac:	84aa                	mv	s1,a0
    800086ae:	2c051863          	bnez	a0,8000897e <_svfprintf_r+0x8f2>
    800086b2:	0109d783          	lhu	a5,16(s3)
    800086b6:	0407e793          	ori	a5,a5,64
    800086ba:	00f99823          	sh	a5,16(s3)
    800086be:	0109d783          	lhu	a5,16(s3)
    800086c2:	0407f793          	andi	a5,a5,64
    800086c6:	a40795e3          	bnez	a5,80008110 <_svfprintf_r+0x84>
    800086ca:	24813083          	ld	ra,584(sp)
    800086ce:	24013403          	ld	s0,576(sp)
    800086d2:	7502                	ld	a0,32(sp)
    800086d4:	23813483          	ld	s1,568(sp)
    800086d8:	23013903          	ld	s2,560(sp)
    800086dc:	22813983          	ld	s3,552(sp)
    800086e0:	22013a03          	ld	s4,544(sp)
    800086e4:	21813a83          	ld	s5,536(sp)
    800086e8:	21013b03          	ld	s6,528(sp)
    800086ec:	20813b83          	ld	s7,520(sp)
    800086f0:	20013c03          	ld	s8,512(sp)
    800086f4:	7cfe                	ld	s9,504(sp)
    800086f6:	7d5e                	ld	s10,496(sp)
    800086f8:	7dbe                	ld	s11,488(sp)
    800086fa:	25010113          	addi	sp,sp,592
    800086fe:	8082                	ret
    80008700:	57fd                	li	a5,-1
    80008702:	28fd8063          	beq	s11,a5,80008982 <_svfprintf_r+0x8f6>
    80008706:	04700793          	li	a5,71
    8000870a:	4b01                	li	s6,0
    8000870c:	00fb9663          	bne	s7,a5,80008718 <_svfprintf_r+0x68c>
    80008710:	000d9463          	bnez	s11,80008718 <_svfprintf_r+0x68c>
    80008714:	8b6e                	mv	s6,s11
    80008716:	4d85                	li	s11,1
    80008718:	10046793          	ori	a5,s0,256
    8000871c:	6a6e                	ld	s4,216(sp)
    8000871e:	2781                	sext.w	a5,a5
    80008720:	f0be                	sd	a5,96(sp)
    80008722:	fc82                	sd	zero,120(sp)
    80008724:	6ece                	ld	t4,208(sp)
    80008726:	000a5963          	bgez	s4,80008738 <_svfprintf_r+0x6ac>
    8000872a:	57fd                	li	a5,-1
    8000872c:	17fe                	slli	a5,a5,0x3f
    8000872e:	00fa4a33          	xor	s4,s4,a5
    80008732:	02d00793          	li	a5,45
    80008736:	fcbe                	sd	a5,120(sp)
    80008738:	04100793          	li	a5,65
    8000873c:	26fb9f63          	bne	s7,a5,800089ba <_svfprintf_r+0x92e>
    80008740:	8576                	mv	a0,t4
    80008742:	85d2                	mv	a1,s4
    80008744:	00004097          	auipc	ra,0x4
    80008748:	3f8080e7          	jalr	1016(ra) # 8000cb3c <__trunctfdf2>
    8000874c:	192c                	addi	a1,sp,184
    8000874e:	00003097          	auipc	ra,0x3
    80008752:	9d6080e7          	jalr	-1578(ra) # 8000b124 <frexp>
    80008756:	00004097          	auipc	ra,0x4
    8000875a:	31a080e7          	jalr	794(ra) # 8000ca70 <__extenddftf2>
    8000875e:	00006797          	auipc	a5,0x6
    80008762:	c0278793          	addi	a5,a5,-1022 # 8000e360 <_ctype_+0x278>
    80008766:	6794                	ld	a3,8(a5)
    80008768:	4601                	li	a2,0
    8000876a:	00003097          	auipc	ra,0x3
    8000876e:	392080e7          	jalr	914(ra) # 8000bafc <__multf3>
    80008772:	4601                	li	a2,0
    80008774:	4681                	li	a3,0
    80008776:	e12a                	sd	a0,128(sp)
    80008778:	8a2e                	mv	s4,a1
    8000877a:	00003097          	auipc	ra,0x3
    8000877e:	182080e7          	jalr	386(ra) # 8000b8fc <__eqtf2>
    80008782:	e119                	bnez	a0,80008788 <_svfprintf_r+0x6fc>
    80008784:	4785                	li	a5,1
    80008786:	dd3e                	sw	a5,184(sp)
    80008788:	00006717          	auipc	a4,0x6
    8000878c:	c2870713          	addi	a4,a4,-984 # 8000e3b0 <_ctype_+0x2c8>
    80008790:	06100793          	li	a5,97
    80008794:	f83a                	sd	a4,48(sp)
    80008796:	00fa8763          	beq	s5,a5,800087a4 <_svfprintf_r+0x718>
    8000879a:	00006797          	auipc	a5,0x6
    8000879e:	c2e78793          	addi	a5,a5,-978 # 8000e3c8 <_ctype_+0x2e0>
    800087a2:	f83e                	sd	a5,48(sp)
    800087a4:	00006697          	auipc	a3,0x6
    800087a8:	bcc68693          	addi	a3,a3,-1076 # 8000e370 <_ctype_+0x288>
    800087ac:	669c                	ld	a5,8(a3)
    800087ae:	fffd871b          	addiw	a4,s11,-1
    800087b2:	8ca6                	mv	s9,s1
    800087b4:	e53e                	sd	a5,136(sp)
    800087b6:	66aa                	ld	a3,136(sp)
    800087b8:	650a                	ld	a0,128(sp)
    800087ba:	4601                	li	a2,0
    800087bc:	85d2                	mv	a1,s4
    800087be:	f4ba                	sd	a4,104(sp)
    800087c0:	00003097          	auipc	ra,0x3
    800087c4:	33c080e7          	jalr	828(ra) # 8000bafc <__multf3>
    800087c8:	8a2e                	mv	s4,a1
    800087ca:	8d2a                	mv	s10,a0
    800087cc:	00004097          	auipc	ra,0x4
    800087d0:	1a6080e7          	jalr	422(ra) # 8000c972 <__fixtfsi>
    800087d4:	0005079b          	sext.w	a5,a0
    800087d8:	f8be                	sd	a5,112(sp)
    800087da:	00004097          	auipc	ra,0x4
    800087de:	228080e7          	jalr	552(ra) # 8000ca02 <__floatsitf>
    800087e2:	86ae                	mv	a3,a1
    800087e4:	862a                	mv	a2,a0
    800087e6:	85d2                	mv	a1,s4
    800087e8:	856a                	mv	a0,s10
    800087ea:	00004097          	auipc	ra,0x4
    800087ee:	950080e7          	jalr	-1712(ra) # 8000c13a <__subtf3>
    800087f2:	77c2                	ld	a5,48(sp)
    800087f4:	7746                	ld	a4,112(sp)
    800087f6:	0c85                	addi	s9,s9,1
    800087f8:	e12a                	sd	a0,128(sp)
    800087fa:	00e786b3          	add	a3,a5,a4
    800087fe:	7726                	ld	a4,104(sp)
    80008800:	0006c683          	lbu	a3,0(a3)
    80008804:	88aa                	mv	a7,a0
    80008806:	0007079b          	sext.w	a5,a4
    8000880a:	f4be                	sd	a5,104(sp)
    8000880c:	fedc8fa3          	sb	a3,-1(s9)
    80008810:	57fd                	li	a5,-1
    80008812:	8d2e                	mv	s10,a1
    80008814:	8a2e                	mv	s4,a1
    80008816:	16f70963          	beq	a4,a5,80008988 <_svfprintf_r+0x8fc>
    8000881a:	377d                	addiw	a4,a4,-1
    8000881c:	4601                	li	a2,0
    8000881e:	4681                	li	a3,0
    80008820:	e93a                	sd	a4,144(sp)
    80008822:	ed2a                	sd	a0,152(sp)
    80008824:	00003097          	auipc	ra,0x3
    80008828:	0d8080e7          	jalr	216(ra) # 8000b8fc <__eqtf2>
    8000882c:	674a                	ld	a4,144(sp)
    8000882e:	68ea                	ld	a7,152(sp)
    80008830:	f159                	bnez	a0,800087b6 <_svfprintf_r+0x72a>
    80008832:	00006717          	auipc	a4,0x6
    80008836:	b4e70713          	addi	a4,a4,-1202 # 8000e380 <_ctype_+0x298>
    8000883a:	00873a03          	ld	s4,8(a4)
    8000883e:	4601                	li	a2,0
    80008840:	8546                	mv	a0,a7
    80008842:	86d2                	mv	a3,s4
    80008844:	85ea                	mv	a1,s10
    80008846:	e146                	sd	a7,128(sp)
    80008848:	00003097          	auipc	ra,0x3
    8000884c:	150080e7          	jalr	336(ra) # 8000b998 <__getf2>
    80008850:	02a04263          	bgtz	a0,80008874 <_svfprintf_r+0x7e8>
    80008854:	688a                	ld	a7,128(sp)
    80008856:	4601                	li	a2,0
    80008858:	86d2                	mv	a3,s4
    8000885a:	8546                	mv	a0,a7
    8000885c:	85ea                	mv	a1,s10
    8000885e:	00003097          	auipc	ra,0x3
    80008862:	09e080e7          	jalr	158(ra) # 8000b8fc <__eqtf2>
    80008866:	14051363          	bnez	a0,800089ac <_svfprintf_r+0x920>
    8000886a:	77c6                	ld	a5,112(sp)
    8000886c:	0017f713          	andi	a4,a5,1
    80008870:	12070e63          	beqz	a4,800089ac <_svfprintf_r+0x920>
    80008874:	77c2                	ld	a5,48(sp)
    80008876:	e5e6                	sd	s9,200(sp)
    80008878:	03000593          	li	a1,48
    8000887c:	00f7c603          	lbu	a2,15(a5)
    80008880:	66ae                	ld	a3,200(sp)
    80008882:	fff68713          	addi	a4,a3,-1
    80008886:	e5ba                	sd	a4,200(sp)
    80008888:	fff6c703          	lbu	a4,-1(a3)
    8000888c:	10c70163          	beq	a4,a2,8000898e <_svfprintf_r+0x902>
    80008890:	03900613          	li	a2,57
    80008894:	10c71063          	bne	a4,a2,80008994 <_svfprintf_r+0x908>
    80008898:	77c2                	ld	a5,48(sp)
    8000889a:	00a7c703          	lbu	a4,10(a5)
    8000889e:	fee68fa3          	sb	a4,-1(a3)
    800088a2:	8a66                	mv	s4,s9
    800088a4:	04700713          	li	a4,71
    800088a8:	409a0a3b          	subw	s4,s4,s1
    800088ac:	5cea                	lw	s9,184(sp)
    800088ae:	1ceb9163          	bne	s7,a4,80008a70 <_svfprintf_r+0x9e4>
    800088b2:	5775                	li	a4,-3
    800088b4:	00ecc463          	blt	s9,a4,800088bc <_svfprintf_r+0x830>
    800088b8:	219ddf63          	ble	s9,s11,80008ad6 <_svfprintf_r+0xa4a>
    800088bc:	3af9                	addiw	s5,s5,-2
    800088be:	fffc869b          	addiw	a3,s9,-1
    800088c2:	dd36                	sw	a3,184(sp)
    800088c4:	fdfaf613          	andi	a2,s5,-33
    800088c8:	04100513          	li	a0,65
    800088cc:	0ffaf713          	andi	a4,s5,255
    800088d0:	4581                	li	a1,0
    800088d2:	00a61663          	bne	a2,a0,800088de <_svfprintf_r+0x852>
    800088d6:	273d                	addiw	a4,a4,15
    800088d8:	0ff77713          	andi	a4,a4,255
    800088dc:	4585                	li	a1,1
    800088de:	0ce10023          	sb	a4,192(sp)
    800088e2:	02b00793          	li	a5,43
    800088e6:	0006d763          	bgez	a3,800088f4 <_svfprintf_r+0x868>
    800088ea:	4685                	li	a3,1
    800088ec:	419686bb          	subw	a3,a3,s9
    800088f0:	02d00793          	li	a5,45
    800088f4:	0cf100a3          	sb	a5,193(sp)
    800088f8:	47a5                	li	a5,9
    800088fa:	1ad7d963          	ble	a3,a5,80008aac <_svfprintf_r+0xa20>
    800088fe:	0cf10713          	addi	a4,sp,207
    80008902:	853a                	mv	a0,a4
    80008904:	45a9                	li	a1,10
    80008906:	06300813          	li	a6,99
    8000890a:	02b6e7bb          	remw	a5,a3,a1
    8000890e:	fff70613          	addi	a2,a4,-1
    80008912:	0307879b          	addiw	a5,a5,48
    80008916:	fef70fa3          	sb	a5,-1(a4)
    8000891a:	02b6c7bb          	divw	a5,a3,a1
    8000891e:	16d84d63          	blt	a6,a3,80008a98 <_svfprintf_r+0xa0c>
    80008922:	0307879b          	addiw	a5,a5,48
    80008926:	fef60fa3          	sb	a5,-1(a2)
    8000892a:	1779                	addi	a4,a4,-2
    8000892c:	0c210613          	addi	a2,sp,194
    80008930:	16a76763          	bltu	a4,a0,80008a9e <_svfprintf_r+0xa12>
    80008934:	019c                	addi	a5,sp,192
    80008936:	40f607bb          	subw	a5,a2,a5
    8000893a:	e8be                	sd	a5,80(sp)
    8000893c:	01478dbb          	addw	s11,a5,s4
    80008940:	4705                	li	a4,1
    80008942:	87ee                	mv	a5,s11
    80008944:	01474563          	blt	a4,s4,8000894e <_svfprintf_r+0x8c2>
    80008948:	00147713          	andi	a4,s0,1
    8000894c:	c701                	beqz	a4,80008954 <_svfprintf_r+0x8c8>
    8000894e:	6742                	ld	a4,16(sp)
    80008950:	00e78dbb          	addw	s11,a5,a4
    80008954:	bff47413          	andi	s0,s0,-1025
    80008958:	2401                	sext.w	s0,s0
    8000895a:	10046793          	ori	a5,s0,256
    8000895e:	f0be                	sd	a5,96(sp)
    80008960:	4d01                	li	s10,0
    80008962:	4b81                	li	s7,0
    80008964:	4c81                	li	s9,0
    80008966:	77e6                	ld	a5,120(sp)
    80008968:	c789                	beqz	a5,80008972 <_svfprintf_r+0x8e6>
    8000896a:	02d00713          	li	a4,45
    8000896e:	0ae107a3          	sb	a4,175(sp)
    80008972:	7406                	ld	s0,96(sp)
    80008974:	4701                	li	a4,0
    80008976:	ba55                	j	8000832a <_svfprintf_r+0x29e>
    80008978:	4b01                	li	s6,0
    8000897a:	19a4                	addi	s1,sp,248
    8000897c:	bb71                	j	80008718 <_svfprintf_r+0x68c>
    8000897e:	8b2a                	mv	s6,a0
    80008980:	bb61                	j	80008718 <_svfprintf_r+0x68c>
    80008982:	4b01                	li	s6,0
    80008984:	4d99                	li	s11,6
    80008986:	bb49                	j	80008718 <_svfprintf_r+0x68c>
    80008988:	57fd                	li	a5,-1
    8000898a:	f4be                	sd	a5,104(sp)
    8000898c:	b55d                	j	80008832 <_svfprintf_r+0x7a6>
    8000898e:	feb68fa3          	sb	a1,-1(a3)
    80008992:	b5fd                	j	80008880 <_svfprintf_r+0x7f4>
    80008994:	2705                	addiw	a4,a4,1
    80008996:	0ff77713          	andi	a4,a4,255
    8000899a:	b711                	j	8000889e <_svfprintf_r+0x812>
    8000899c:	0a05                	addi	s4,s4,1
    8000899e:	feda0fa3          	sb	a3,-1(s4)
    800089a2:	4147873b          	subw	a4,a5,s4
    800089a6:	fe075be3          	bgez	a4,8000899c <_svfprintf_r+0x910>
    800089aa:	bded                	j	800088a4 <_svfprintf_r+0x818>
    800089ac:	77a6                	ld	a5,104(sp)
    800089ae:	8a66                	mv	s4,s9
    800089b0:	03000693          	li	a3,48
    800089b4:	00fc87bb          	addw	a5,s9,a5
    800089b8:	b7ed                	j	800089a2 <_svfprintf_r+0x916>
    800089ba:	04600793          	li	a5,70
    800089be:	00fb8b63          	beq	s7,a5,800089d4 <_svfprintf_r+0x948>
    800089c2:	04500793          	li	a5,69
    800089c6:	8d6e                	mv	s10,s11
    800089c8:	00fb9463          	bne	s7,a5,800089d0 <_svfprintf_r+0x944>
    800089cc:	001d8d1b          	addiw	s10,s11,1
    800089d0:	4689                	li	a3,2
    800089d2:	a019                	j	800089d8 <_svfprintf_r+0x94c>
    800089d4:	8d6e                	mv	s10,s11
    800089d6:	468d                	li	a3,3
    800089d8:	193c                	addi	a5,sp,184
    800089da:	85f6                	mv	a1,t4
    800089dc:	0c810893          	addi	a7,sp,200
    800089e0:	0bc10813          	addi	a6,sp,188
    800089e4:	876a                	mv	a4,s10
    800089e6:	8652                	mv	a2,s4
    800089e8:	854a                	mv	a0,s2
    800089ea:	f876                	sd	t4,48(sp)
    800089ec:	00002097          	auipc	ra,0x2
    800089f0:	ba8080e7          	jalr	-1112(ra) # 8000a594 <_ldtoa_r>
    800089f4:	04700793          	li	a5,71
    800089f8:	84aa                	mv	s1,a0
    800089fa:	7ec2                	ld	t4,48(sp)
    800089fc:	00fb9763          	bne	s7,a5,80008a0a <_svfprintf_r+0x97e>
    80008a00:	00147793          	andi	a5,s0,1
    80008a04:	e399                	bnez	a5,80008a0a <_svfprintf_r+0x97e>
    80008a06:	6a2e                	ld	s4,200(sp)
    80008a08:	bd71                	j	800088a4 <_svfprintf_r+0x818>
    80008a0a:	04600713          	li	a4,70
    80008a0e:	01a48cb3          	add	s9,s1,s10
    80008a12:	02eb9963          	bne	s7,a4,80008a44 <_svfprintf_r+0x9b8>
    80008a16:	0004c683          	lbu	a3,0(s1)
    80008a1a:	03000713          	li	a4,48
    80008a1e:	02e69163          	bne	a3,a4,80008a40 <_svfprintf_r+0x9b4>
    80008a22:	8576                	mv	a0,t4
    80008a24:	4601                	li	a2,0
    80008a26:	4681                	li	a3,0
    80008a28:	85d2                	mv	a1,s4
    80008a2a:	f876                	sd	t4,48(sp)
    80008a2c:	00003097          	auipc	ra,0x3
    80008a30:	ed0080e7          	jalr	-304(ra) # 8000b8fc <__eqtf2>
    80008a34:	7ec2                	ld	t4,48(sp)
    80008a36:	c509                	beqz	a0,80008a40 <_svfprintf_r+0x9b4>
    80008a38:	4705                	li	a4,1
    80008a3a:	41a70d3b          	subw	s10,a4,s10
    80008a3e:	dd6a                	sw	s10,184(sp)
    80008a40:	576a                	lw	a4,184(sp)
    80008a42:	9cba                	add	s9,s9,a4
    80008a44:	4601                	li	a2,0
    80008a46:	4681                	li	a3,0
    80008a48:	8576                	mv	a0,t4
    80008a4a:	85d2                	mv	a1,s4
    80008a4c:	00003097          	auipc	ra,0x3
    80008a50:	eb0080e7          	jalr	-336(ra) # 8000b8fc <__eqtf2>
    80008a54:	e111                	bnez	a0,80008a58 <_svfprintf_r+0x9cc>
    80008a56:	e5e6                	sd	s9,200(sp)
    80008a58:	03000693          	li	a3,48
    80008a5c:	a031                	j	80008a68 <_svfprintf_r+0x9dc>
    80008a5e:	00170613          	addi	a2,a4,1
    80008a62:	e5b2                	sd	a2,200(sp)
    80008a64:	00d70023          	sb	a3,0(a4)
    80008a68:	672e                	ld	a4,200(sp)
    80008a6a:	ff976ae3          	bltu	a4,s9,80008a5e <_svfprintf_r+0x9d2>
    80008a6e:	bf61                	j	80008a06 <_svfprintf_r+0x97a>
    80008a70:	04600713          	li	a4,70
    80008a74:	e4eb95e3          	bne	s7,a4,800088be <_svfprintf_r+0x832>
    80008a78:	00147713          	andi	a4,s0,1
    80008a7c:	00ede733          	or	a4,s11,a4
    80008a80:	2701                	sext.w	a4,a4
    80008a82:	05905563          	blez	s9,80008acc <_svfprintf_r+0xa40>
    80008a86:	cf41                	beqz	a4,80008b1e <_svfprintf_r+0xa92>
    80008a88:	67c2                	ld	a5,16(sp)
    80008a8a:	0197873b          	addw	a4,a5,s9
    80008a8e:	01b70dbb          	addw	s11,a4,s11
    80008a92:	06600a93          	li	s5,102
    80008a96:	a0bd                	j	80008b04 <_svfprintf_r+0xa78>
    80008a98:	8732                	mv	a4,a2
    80008a9a:	86be                	mv	a3,a5
    80008a9c:	b5bd                	j	8000890a <_svfprintf_r+0x87e>
    80008a9e:	0705                	addi	a4,a4,1
    80008aa0:	fff74783          	lbu	a5,-1(a4)
    80008aa4:	0605                	addi	a2,a2,1
    80008aa6:	fef60fa3          	sb	a5,-1(a2)
    80008aaa:	b559                	j	80008930 <_svfprintf_r+0x8a4>
    80008aac:	0c210713          	addi	a4,sp,194
    80008ab0:	e599                	bnez	a1,80008abe <_svfprintf_r+0xa32>
    80008ab2:	03000793          	li	a5,48
    80008ab6:	0cf10123          	sb	a5,194(sp)
    80008aba:	0c310713          	addi	a4,sp,195
    80008abe:	0306879b          	addiw	a5,a3,48
    80008ac2:	00170613          	addi	a2,a4,1
    80008ac6:	00f70023          	sb	a5,0(a4)
    80008aca:	b5ad                	j	80008934 <_svfprintf_r+0x8a8>
    80008acc:	cb39                	beqz	a4,80008b22 <_svfprintf_r+0xa96>
    80008ace:	67c2                	ld	a5,16(sp)
    80008ad0:	0017871b          	addiw	a4,a5,1
    80008ad4:	bf6d                	j	80008a8e <_svfprintf_r+0xa02>
    80008ad6:	014ccc63          	blt	s9,s4,80008aee <_svfprintf_r+0xa62>
    80008ada:	00147713          	andi	a4,s0,1
    80008ade:	8de6                	mv	s11,s9
    80008ae0:	c701                	beqz	a4,80008ae8 <_svfprintf_r+0xa5c>
    80008ae2:	67c2                	ld	a5,16(sp)
    80008ae4:	01978dbb          	addw	s11,a5,s9
    80008ae8:	06700a93          	li	s5,103
    80008aec:	a821                	j	80008b04 <_svfprintf_r+0xa78>
    80008aee:	67c2                	ld	a5,16(sp)
    80008af0:	06700a93          	li	s5,103
    80008af4:	01478dbb          	addw	s11,a5,s4
    80008af8:	01904663          	bgtz	s9,80008b04 <_svfprintf_r+0xa78>
    80008afc:	419d8e3b          	subw	t3,s11,s9
    80008b00:	001e0d9b          	addiw	s11,t3,1
    80008b04:	40047413          	andi	s0,s0,1024
    80008b08:	00040b9b          	sext.w	s7,s0
    80008b0c:	4d01                	li	s10,0
    80008b0e:	e40b8ce3          	beqz	s7,80008966 <_svfprintf_r+0x8da>
    80008b12:	4b81                	li	s7,0
    80008b14:	e59059e3          	blez	s9,80008966 <_svfprintf_r+0x8da>
    80008b18:	0ff00693          	li	a3,255
    80008b1c:	a01d                	j	80008b42 <_svfprintf_r+0xab6>
    80008b1e:	8de6                	mv	s11,s9
    80008b20:	bf8d                	j	80008a92 <_svfprintf_r+0xa06>
    80008b22:	06600a93          	li	s5,102
    80008b26:	4d85                	li	s11,1
    80008b28:	bff1                	j	80008b04 <_svfprintf_r+0xa78>
    80008b2a:	2701                	sext.w	a4,a4
    80008b2c:	03975063          	ble	s9,a4,80008b4c <_svfprintf_r+0xac0>
    80008b30:	6782                	ld	a5,0(sp)
    80008b32:	40ec8cbb          	subw	s9,s9,a4
    80008b36:	0017c703          	lbu	a4,1(a5)
    80008b3a:	c30d                	beqz	a4,80008b5c <_svfprintf_r+0xad0>
    80008b3c:	0785                	addi	a5,a5,1
    80008b3e:	2b85                	addiw	s7,s7,1
    80008b40:	e03e                	sd	a5,0(sp)
    80008b42:	6782                	ld	a5,0(sp)
    80008b44:	0007c703          	lbu	a4,0(a5)
    80008b48:	fed711e3          	bne	a4,a3,80008b2a <_svfprintf_r+0xa9e>
    80008b4c:	77e2                	ld	a5,56(sp)
    80008b4e:	01ab873b          	addw	a4,s7,s10
    80008b52:	02f7073b          	mulw	a4,a4,a5
    80008b56:	01b70dbb          	addw	s11,a4,s11
    80008b5a:	b531                	j	80008966 <_svfprintf_r+0x8da>
    80008b5c:	2d05                	addiw	s10,s10,1
    80008b5e:	b7d5                	j	80008b42 <_svfprintf_r+0xab6>
    80008b60:	008b0713          	addi	a4,s6,8
    80008b64:	f43a                	sd	a4,40(sp)
    80008b66:	02047713          	andi	a4,s0,32
    80008b6a:	000b3783          	ld	a5,0(s6)
    80008b6e:	c719                	beqz	a4,80008b7c <_svfprintf_r+0xaf0>
    80008b70:	7702                	ld	a4,32(sp)
    80008b72:	e398                	sd	a4,0(a5)
    80008b74:	7b22                	ld	s6,40(sp)
    80008b76:	64a2                	ld	s1,8(sp)
    80008b78:	dbeff06f          	j	80008136 <_svfprintf_r+0xaa>
    80008b7c:	01047713          	andi	a4,s0,16
    80008b80:	fb65                	bnez	a4,80008b70 <_svfprintf_r+0xae4>
    80008b82:	04047713          	andi	a4,s0,64
    80008b86:	c709                	beqz	a4,80008b90 <_svfprintf_r+0xb04>
    80008b88:	7702                	ld	a4,32(sp)
    80008b8a:	00e79023          	sh	a4,0(a5)
    80008b8e:	b7dd                	j	80008b74 <_svfprintf_r+0xae8>
    80008b90:	20047413          	andi	s0,s0,512
    80008b94:	7702                	ld	a4,32(sp)
    80008b96:	c401                	beqz	s0,80008b9e <_svfprintf_r+0xb12>
    80008b98:	00e78023          	sb	a4,0(a5)
    80008b9c:	bfe1                	j	80008b74 <_svfprintf_r+0xae8>
    80008b9e:	c398                	sw	a4,0(a5)
    80008ba0:	bfd1                	j	80008b74 <_svfprintf_r+0xae8>
    80008ba2:	01046413          	ori	s0,s0,16
    80008ba6:	2401                	sext.w	s0,s0
    80008ba8:	008b0793          	addi	a5,s6,8
    80008bac:	f43e                	sd	a5,40(sp)
    80008bae:	02047793          	andi	a5,s0,32
    80008bb2:	cb91                	beqz	a5,80008bc6 <_svfprintf_r+0xb3a>
    80008bb4:	000b3b03          	ld	s6,0(s6)
    80008bb8:	bff47413          	andi	s0,s0,-1025
    80008bbc:	2401                	sext.w	s0,s0
    80008bbe:	4781                	li	a5,0
    80008bc0:	0a0107a3          	sb	zero,175(sp)
    80008bc4:	b265                	j	8000856c <_svfprintf_r+0x4e0>
    80008bc6:	01047793          	andi	a5,s0,16
    80008bca:	f7ed                	bnez	a5,80008bb4 <_svfprintf_r+0xb28>
    80008bcc:	04047793          	andi	a5,s0,64
    80008bd0:	000b2b03          	lw	s6,0(s6)
    80008bd4:	c789                	beqz	a5,80008bde <_svfprintf_r+0xb52>
    80008bd6:	1b42                	slli	s6,s6,0x30
    80008bd8:	030b5b13          	srli	s6,s6,0x30
    80008bdc:	bff1                	j	80008bb8 <_svfprintf_r+0xb2c>
    80008bde:	20047793          	andi	a5,s0,512
    80008be2:	c781                	beqz	a5,80008bea <_svfprintf_r+0xb5e>
    80008be4:	0ffb7b13          	andi	s6,s6,255
    80008be8:	bfc1                	j	80008bb8 <_svfprintf_r+0xb2c>
    80008bea:	1b02                	slli	s6,s6,0x20
    80008bec:	020b5b13          	srli	s6,s6,0x20
    80008bf0:	b7e1                	j	80008bb8 <_svfprintf_r+0xb2c>
    80008bf2:	008b0793          	addi	a5,s6,8
    80008bf6:	f43e                	sd	a5,40(sp)
    80008bf8:	77e1                	lui	a5,0xffff8
    80008bfa:	8307c793          	xori	a5,a5,-2000
    80008bfe:	00246413          	ori	s0,s0,2
    80008c02:	0af11823          	sh	a5,176(sp)
    80008c06:	00005797          	auipc	a5,0x5
    80008c0a:	7aa78793          	addi	a5,a5,1962 # 8000e3b0 <_ctype_+0x2c8>
    80008c0e:	ecbe                	sd	a5,88(sp)
    80008c10:	000b3b03          	ld	s6,0(s6)
    80008c14:	2401                	sext.w	s0,s0
    80008c16:	4789                	li	a5,2
    80008c18:	07800a93          	li	s5,120
    80008c1c:	b755                	j	80008bc0 <_svfprintf_r+0xb34>
    80008c1e:	008b0793          	addi	a5,s6,8
    80008c22:	f43e                	sd	a5,40(sp)
    80008c24:	0a0107a3          	sb	zero,175(sp)
    80008c28:	57fd                	li	a5,-1
    80008c2a:	000b3483          	ld	s1,0(s6)
    80008c2e:	02fd8063          	beq	s11,a5,80008c4e <_svfprintf_r+0xbc2>
    80008c32:	866e                	mv	a2,s11
    80008c34:	4581                	li	a1,0
    80008c36:	8526                	mv	a0,s1
    80008c38:	00002097          	auipc	ra,0x2
    80008c3c:	452080e7          	jalr	1106(ra) # 8000b08a <memchr>
    80008c40:	8b2a                	mv	s6,a0
    80008c42:	9c050ee3          	beqz	a0,8000861e <_svfprintf_r+0x592>
    80008c46:	40950dbb          	subw	s11,a0,s1
    80008c4a:	4b01                	li	s6,0
    80008c4c:	bac9                	j	8000861e <_svfprintf_r+0x592>
    80008c4e:	8526                	mv	a0,s1
    80008c50:	00002097          	auipc	ra,0x2
    80008c54:	5c0080e7          	jalr	1472(ra) # 8000b210 <strlen>
    80008c58:	00050d9b          	sext.w	s11,a0
    80008c5c:	b7fd                	j	80008c4a <_svfprintf_r+0xbbe>
    80008c5e:	01046413          	ori	s0,s0,16
    80008c62:	2401                	sext.w	s0,s0
    80008c64:	008b0793          	addi	a5,s6,8
    80008c68:	f43e                	sd	a5,40(sp)
    80008c6a:	02047793          	andi	a5,s0,32
    80008c6e:	c789                	beqz	a5,80008c78 <_svfprintf_r+0xbec>
    80008c70:	000b3b03          	ld	s6,0(s6)
    80008c74:	4785                	li	a5,1
    80008c76:	b7a9                	j	80008bc0 <_svfprintf_r+0xb34>
    80008c78:	01047793          	andi	a5,s0,16
    80008c7c:	fbf5                	bnez	a5,80008c70 <_svfprintf_r+0xbe4>
    80008c7e:	04047793          	andi	a5,s0,64
    80008c82:	000b2b03          	lw	s6,0(s6)
    80008c86:	c789                	beqz	a5,80008c90 <_svfprintf_r+0xc04>
    80008c88:	1b42                	slli	s6,s6,0x30
    80008c8a:	030b5b13          	srli	s6,s6,0x30
    80008c8e:	b7dd                	j	80008c74 <_svfprintf_r+0xbe8>
    80008c90:	20047793          	andi	a5,s0,512
    80008c94:	c781                	beqz	a5,80008c9c <_svfprintf_r+0xc10>
    80008c96:	0ffb7b13          	andi	s6,s6,255
    80008c9a:	bfe9                	j	80008c74 <_svfprintf_r+0xbe8>
    80008c9c:	1b02                	slli	s6,s6,0x20
    80008c9e:	020b5b13          	srli	s6,s6,0x20
    80008ca2:	bfc9                	j	80008c74 <_svfprintf_r+0xbe8>
    80008ca4:	00005797          	auipc	a5,0x5
    80008ca8:	72478793          	addi	a5,a5,1828 # 8000e3c8 <_ctype_+0x2e0>
    80008cac:	ecbe                	sd	a5,88(sp)
    80008cae:	008b0793          	addi	a5,s6,8
    80008cb2:	f43e                	sd	a5,40(sp)
    80008cb4:	02047793          	andi	a5,s0,32
    80008cb8:	cb9d                	beqz	a5,80008cee <_svfprintf_r+0xc62>
    80008cba:	000b3b03          	ld	s6,0(s6)
    80008cbe:	00147793          	andi	a5,s0,1
    80008cc2:	cf81                	beqz	a5,80008cda <_svfprintf_r+0xc4e>
    80008cc4:	000b0b63          	beqz	s6,80008cda <_svfprintf_r+0xc4e>
    80008cc8:	03000793          	li	a5,48
    80008ccc:	00246413          	ori	s0,s0,2
    80008cd0:	0af10823          	sb	a5,176(sp)
    80008cd4:	0b5108a3          	sb	s5,177(sp)
    80008cd8:	2401                	sext.w	s0,s0
    80008cda:	bff47413          	andi	s0,s0,-1025
    80008cde:	2401                	sext.w	s0,s0
    80008ce0:	4789                	li	a5,2
    80008ce2:	bdf9                	j	80008bc0 <_svfprintf_r+0xb34>
    80008ce4:	00005797          	auipc	a5,0x5
    80008ce8:	6cc78793          	addi	a5,a5,1740 # 8000e3b0 <_ctype_+0x2c8>
    80008cec:	b7c1                	j	80008cac <_svfprintf_r+0xc20>
    80008cee:	01047793          	andi	a5,s0,16
    80008cf2:	f7e1                	bnez	a5,80008cba <_svfprintf_r+0xc2e>
    80008cf4:	04047793          	andi	a5,s0,64
    80008cf8:	000b2b03          	lw	s6,0(s6)
    80008cfc:	c789                	beqz	a5,80008d06 <_svfprintf_r+0xc7a>
    80008cfe:	1b42                	slli	s6,s6,0x30
    80008d00:	030b5b13          	srli	s6,s6,0x30
    80008d04:	bf6d                	j	80008cbe <_svfprintf_r+0xc32>
    80008d06:	20047793          	andi	a5,s0,512
    80008d0a:	c781                	beqz	a5,80008d12 <_svfprintf_r+0xc86>
    80008d0c:	0ffb7b13          	andi	s6,s6,255
    80008d10:	b77d                	j	80008cbe <_svfprintf_r+0xc32>
    80008d12:	1b02                	slli	s6,s6,0x20
    80008d14:	020b5b13          	srli	s6,s6,0x20
    80008d18:	b75d                	j	80008cbe <_svfprintf_r+0xc32>
    80008d1a:	8722                	mv	a4,s0
    80008d1c:	4785                	li	a5,1
    80008d1e:	b899                	j	80008574 <_svfprintf_r+0x4e8>
    80008d20:	4705                	li	a4,1
    80008d22:	14e78de3          	beq	a5,a4,8000967c <_svfprintf_r+0x15f0>
    80008d26:	4709                	li	a4,2
    80008d28:	0ae78e63          	beq	a5,a4,80008de4 <_svfprintf_r+0xd58>
    80008d2c:	0afc                	addi	a5,sp,348
    80008d2e:	007b7713          	andi	a4,s6,7
    80008d32:	03070713          	addi	a4,a4,48
    80008d36:	fee78fa3          	sb	a4,-1(a5)
    80008d3a:	003b5b13          	srli	s6,s6,0x3
    80008d3e:	fff78493          	addi	s1,a5,-1
    80008d42:	020b1863          	bnez	s6,80008d72 <_svfprintf_r+0xce6>
    80008d46:	00147693          	andi	a3,s0,1
    80008d4a:	ca89                	beqz	a3,80008d5c <_svfprintf_r+0xcd0>
    80008d4c:	03000693          	li	a3,48
    80008d50:	00d70663          	beq	a4,a3,80008d5c <_svfprintf_r+0xcd0>
    80008d54:	fed48fa3          	sb	a3,-1(s1)
    80008d58:	ffe78493          	addi	s1,a5,-2
    80008d5c:	15c10e13          	addi	t3,sp,348
    80008d60:	876e                	mv	a4,s11
    80008d62:	4b01                	li	s6,0
    80008d64:	409e0dbb          	subw	s11,t3,s1
    80008d68:	4d01                	li	s10,0
    80008d6a:	4b81                	li	s7,0
    80008d6c:	4c81                	li	s9,0
    80008d6e:	dbcff06f          	j	8000832a <_svfprintf_r+0x29e>
    80008d72:	87a6                	mv	a5,s1
    80008d74:	bf6d                	j	80008d2e <_svfprintf_r+0xca2>
    80008d76:	40047b93          	andi	s7,s0,1024
    80008d7a:	4a01                	li	s4,0
    80008d7c:	0afc                	addi	a5,sp,348
    80008d7e:	4ca9                	li	s9,10
    80008d80:	2b81                	sext.w	s7,s7
    80008d82:	0ff00813          	li	a6,255
    80008d86:	4d25                	li	s10,9
    80008d88:	039b7733          	remu	a4,s6,s9
    80008d8c:	fff78493          	addi	s1,a5,-1
    80008d90:	2a05                	addiw	s4,s4,1
    80008d92:	0307071b          	addiw	a4,a4,48
    80008d96:	fee78fa3          	sb	a4,-1(a5)
    80008d9a:	020b8e63          	beqz	s7,80008dd6 <_svfprintf_r+0xd4a>
    80008d9e:	6782                	ld	a5,0(sp)
    80008da0:	0007c783          	lbu	a5,0(a5)
    80008da4:	02fa1963          	bne	s4,a5,80008dd6 <_svfprintf_r+0xd4a>
    80008da8:	03078763          	beq	a5,a6,80008dd6 <_svfprintf_r+0xd4a>
    80008dac:	036d7563          	bleu	s6,s10,80008dd6 <_svfprintf_r+0xd4a>
    80008db0:	77e2                	ld	a5,56(sp)
    80008db2:	65a6                	ld	a1,72(sp)
    80008db4:	4a01                	li	s4,0
    80008db6:	8c9d                	sub	s1,s1,a5
    80008db8:	863e                	mv	a2,a5
    80008dba:	8526                	mv	a0,s1
    80008dbc:	00002097          	auipc	ra,0x2
    80008dc0:	466080e7          	jalr	1126(ra) # 8000b222 <strncpy>
    80008dc4:	6782                	ld	a5,0(sp)
    80008dc6:	0ff00813          	li	a6,255
    80008dca:	0017c783          	lbu	a5,1(a5)
    80008dce:	c781                	beqz	a5,80008dd6 <_svfprintf_r+0xd4a>
    80008dd0:	6782                	ld	a5,0(sp)
    80008dd2:	0785                	addi	a5,a5,1
    80008dd4:	e03e                	sd	a5,0(sp)
    80008dd6:	039b57b3          	divu	a5,s6,s9
    80008dda:	f96d71e3          	bleu	s6,s10,80008d5c <_svfprintf_r+0xcd0>
    80008dde:	8b3e                	mv	s6,a5
    80008de0:	87a6                	mv	a5,s1
    80008de2:	b75d                	j	80008d88 <_svfprintf_r+0xcfc>
    80008de4:	0ae4                	addi	s1,sp,348
    80008de6:	6766                	ld	a4,88(sp)
    80008de8:	00fb7793          	andi	a5,s6,15
    80008dec:	14fd                	addi	s1,s1,-1
    80008dee:	97ba                	add	a5,a5,a4
    80008df0:	0007c783          	lbu	a5,0(a5)
    80008df4:	004b5b13          	srli	s6,s6,0x4
    80008df8:	00f48023          	sb	a5,0(s1)
    80008dfc:	fe0b15e3          	bnez	s6,80008de6 <_svfprintf_r+0xd5a>
    80008e00:	bfb1                	j	80008d5c <_svfprintf_r+0xcd0>
    80008e02:	0ae4                	addi	s1,sp,348
    80008e04:	ffa1                	bnez	a5,80008d5c <_svfprintf_r+0xcd0>
    80008e06:	8b05                	andi	a4,a4,1
    80008e08:	db31                	beqz	a4,80008d5c <_svfprintf_r+0xcd0>
    80008e0a:	03000793          	li	a5,48
    80008e0e:	14f10da3          	sb	a5,347(sp)
    80008e12:	0790006f          	j	8000968a <_svfprintf_r+0x15fe>
    80008e16:	040a84e3          	beqz	s5,8000965e <_svfprintf_r+0x15d2>
    80008e1a:	0f510c23          	sb	s5,248(sp)
    80008e1e:	0a0107a3          	sb	zero,175(sp)
    80008e22:	f45a                	sd	s6,40(sp)
    80008e24:	cf8ff06f          	j	8000831c <_svfprintf_r+0x290>
    80008e28:	0641                	addi	a2,a2,16
    80008e2a:	011c3423          	sd	a7,8(s8)
    80008e2e:	f9b2                	sd	a2,240(sp)
    80008e30:	d5ae                	sw	a1,232(sp)
    80008e32:	02aed763          	ble	a0,t4,80008e60 <_svfprintf_r+0xdd4>
    80008e36:	1190                	addi	a2,sp,224
    80008e38:	85ce                	mv	a1,s3
    80008e3a:	854a                	mv	a0,s2
    80008e3c:	fcba                	sd	a4,120(sp)
    80008e3e:	f8b6                	sd	a3,112(sp)
    80008e40:	00002097          	auipc	ra,0x2
    80008e44:	406080e7          	jalr	1030(ra) # 8000b246 <__ssprint_r>
    80008e48:	7c051663          	bnez	a0,80009614 <_svfprintf_r+0x1588>
    80008e4c:	7766                	ld	a4,120(sp)
    80008e4e:	76c6                	ld	a3,112(sp)
    80008e50:	16010f13          	addi	t5,sp,352
    80008e54:	4e9d                	li	t4,7
    80008e56:	00005817          	auipc	a6,0x5
    80008e5a:	59280813          	addi	a6,a6,1426 # 8000e3e8 <blanks.4811>
    80008e5e:	48c1                	li	a7,16
    80008e60:	36c1                	addiw	a3,a3,-16
    80008e62:	8c7a                	mv	s8,t5
    80008e64:	d12ff06f          	j	80008376 <_svfprintf_r+0x2ea>
    80008e68:	0641                	addi	a2,a2,16
    80008e6a:	010c3423          	sd	a6,8(s8)
    80008e6e:	f9b2                	sd	a2,240(sp)
    80008e70:	d5ae                	sw	a1,232(sp)
    80008e72:	02a8d363          	ble	a0,a7,80008e98 <_svfprintf_r+0xe0c>
    80008e76:	1190                	addi	a2,sp,224
    80008e78:	85ce                	mv	a1,s3
    80008e7a:	854a                	mv	a0,s2
    80008e7c:	f4ba                	sd	a4,104(sp)
    80008e7e:	f0b6                	sd	a3,96(sp)
    80008e80:	00002097          	auipc	ra,0x2
    80008e84:	3c6080e7          	jalr	966(ra) # 8000b246 <__ssprint_r>
    80008e88:	78051663          	bnez	a0,80009614 <_svfprintf_r+0x1588>
    80008e8c:	7726                	ld	a4,104(sp)
    80008e8e:	7686                	ld	a3,96(sp)
    80008e90:	16010e93          	addi	t4,sp,352
    80008e94:	489d                	li	a7,7
    80008e96:	4841                	li	a6,16
    80008e98:	36c1                	addiw	a3,a3,-16
    80008e9a:	8c76                	mv	s8,t4
    80008e9c:	dc0ff06f          	j	8000845c <_svfprintf_r+0x3d0>
    80008ea0:	06c1                	addi	a3,a3,16
    80008ea2:	010c3423          	sd	a6,8(s8)
    80008ea6:	f9b6                	sd	a3,240(sp)
    80008ea8:	d5b2                	sw	a2,232(sp)
    80008eaa:	02b8d063          	ble	a1,a7,80008eca <_svfprintf_r+0xe3e>
    80008eae:	1190                	addi	a2,sp,224
    80008eb0:	85ce                	mv	a1,s3
    80008eb2:	854a                	mv	a0,s2
    80008eb4:	f0ba                	sd	a4,96(sp)
    80008eb6:	00002097          	auipc	ra,0x2
    80008eba:	390080e7          	jalr	912(ra) # 8000b246 <__ssprint_r>
    80008ebe:	74051b63          	bnez	a0,80009614 <_svfprintf_r+0x1588>
    80008ec2:	7706                	ld	a4,96(sp)
    80008ec4:	1288                	addi	a0,sp,352
    80008ec6:	489d                	li	a7,7
    80008ec8:	4841                	li	a6,16
    80008eca:	3741                	addiw	a4,a4,-16
    80008ecc:	8c2a                	mv	s8,a0
    80008ece:	de6ff06f          	j	800084b4 <_svfprintf_r+0x428>
    80008ed2:	06500693          	li	a3,101
    80008ed6:	5956d563          	ble	s5,a3,80009460 <_svfprintf_r+0x13d4>
    80008eda:	654e                	ld	a0,208(sp)
    80008edc:	65ee                	ld	a1,216(sp)
    80008ede:	4601                	li	a2,0
    80008ee0:	4681                	li	a3,0
    80008ee2:	f0ba                	sd	a4,96(sp)
    80008ee4:	00003097          	auipc	ra,0x3
    80008ee8:	a18080e7          	jalr	-1512(ra) # 8000b8fc <__eqtf2>
    80008eec:	7706                	ld	a4,96(sp)
    80008eee:	ed6d                	bnez	a0,80008fe8 <_svfprintf_r+0xf5c>
    80008ef0:	00005797          	auipc	a5,0x5
    80008ef4:	4f078793          	addi	a5,a5,1264 # 8000e3e0 <_ctype_+0x2f8>
    80008ef8:	00fc3023          	sd	a5,0(s8)
    80008efc:	4785                	li	a5,1
    80008efe:	00fc3423          	sd	a5,8(s8)
    80008f02:	57ae                	lw	a5,232(sp)
    80008f04:	0705                	addi	a4,a4,1
    80008f06:	f9ba                	sd	a4,240(sp)
    80008f08:	0017871b          	addiw	a4,a5,1
    80008f0c:	d5ba                	sw	a4,232(sp)
    80008f0e:	479d                	li	a5,7
    80008f10:	0c41                	addi	s8,s8,16
    80008f12:	00e7dd63          	ble	a4,a5,80008f2c <_svfprintf_r+0xea0>
    80008f16:	1190                	addi	a2,sp,224
    80008f18:	85ce                	mv	a1,s3
    80008f1a:	854a                	mv	a0,s2
    80008f1c:	00002097          	auipc	ra,0x2
    80008f20:	32a080e7          	jalr	810(ra) # 8000b246 <__ssprint_r>
    80008f24:	6e051863          	bnez	a0,80009614 <_svfprintf_r+0x1588>
    80008f28:	16010c13          	addi	s8,sp,352
    80008f2c:	57ea                	lw	a5,184(sp)
    80008f2e:	0147c663          	blt	a5,s4,80008f3a <_svfprintf_r+0xeae>
    80008f32:	00147793          	andi	a5,s0,1
    80008f36:	1a078763          	beqz	a5,800090e4 <_svfprintf_r+0x1058>
    80008f3a:	6786                	ld	a5,64(sp)
    80008f3c:	6742                	ld	a4,16(sp)
    80008f3e:	0c41                	addi	s8,s8,16
    80008f40:	fefc3823          	sd	a5,-16(s8)
    80008f44:	67c2                	ld	a5,16(sp)
    80008f46:	fefc3c23          	sd	a5,-8(s8)
    80008f4a:	77ce                	ld	a5,240(sp)
    80008f4c:	97ba                	add	a5,a5,a4
    80008f4e:	f9be                	sd	a5,240(sp)
    80008f50:	57ae                	lw	a5,232(sp)
    80008f52:	0017871b          	addiw	a4,a5,1
    80008f56:	d5ba                	sw	a4,232(sp)
    80008f58:	479d                	li	a5,7
    80008f5a:	00e7dd63          	ble	a4,a5,80008f74 <_svfprintf_r+0xee8>
    80008f5e:	1190                	addi	a2,sp,224
    80008f60:	85ce                	mv	a1,s3
    80008f62:	854a                	mv	a0,s2
    80008f64:	00002097          	auipc	ra,0x2
    80008f68:	2e2080e7          	jalr	738(ra) # 8000b246 <__ssprint_r>
    80008f6c:	6a051463          	bnez	a0,80009614 <_svfprintf_r+0x1588>
    80008f70:	16010c13          	addi	s8,sp,352
    80008f74:	fffa049b          	addiw	s1,s4,-1
    80008f78:	16905663          	blez	s1,800090e4 <_svfprintf_r+0x1058>
    80008f7c:	4ac1                	li	s5,16
    80008f7e:	4b9d                	li	s7,7
    80008f80:	572e                	lw	a4,232(sp)
    80008f82:	77ce                	ld	a5,240(sp)
    80008f84:	010c0613          	addi	a2,s8,16
    80008f88:	0017069b          	addiw	a3,a4,1
    80008f8c:	8736                	mv	a4,a3
    80008f8e:	029ac363          	blt	s5,s1,80008fb4 <_svfprintf_r+0xf28>
    80008f92:	00005717          	auipc	a4,0x5
    80008f96:	46670713          	addi	a4,a4,1126 # 8000e3f8 <zeroes.4812>
    80008f9a:	009c3423          	sd	s1,8(s8)
    80008f9e:	00ec3023          	sd	a4,0(s8)
    80008fa2:	94be                	add	s1,s1,a5
    80008fa4:	f9a6                	sd	s1,240(sp)
    80008fa6:	d5b6                	sw	a3,232(sp)
    80008fa8:	479d                	li	a5,7
    80008faa:	8c32                	mv	s8,a2
    80008fac:	12d7dc63          	ble	a3,a5,800090e4 <_svfprintf_r+0x1058>
    80008fb0:	d74ff06f          	j	80008524 <_svfprintf_r+0x498>
    80008fb4:	00005597          	auipc	a1,0x5
    80008fb8:	44458593          	addi	a1,a1,1092 # 8000e3f8 <zeroes.4812>
    80008fbc:	07c1                	addi	a5,a5,16
    80008fbe:	00bc3023          	sd	a1,0(s8)
    80008fc2:	015c3423          	sd	s5,8(s8)
    80008fc6:	f9be                	sd	a5,240(sp)
    80008fc8:	d5ba                	sw	a4,232(sp)
    80008fca:	00dbdc63          	ble	a3,s7,80008fe2 <_svfprintf_r+0xf56>
    80008fce:	1190                	addi	a2,sp,224
    80008fd0:	85ce                	mv	a1,s3
    80008fd2:	854a                	mv	a0,s2
    80008fd4:	00002097          	auipc	ra,0x2
    80008fd8:	272080e7          	jalr	626(ra) # 8000b246 <__ssprint_r>
    80008fdc:	62051c63          	bnez	a0,80009614 <_svfprintf_r+0x1588>
    80008fe0:	1290                	addi	a2,sp,352
    80008fe2:	34c1                	addiw	s1,s1,-16
    80008fe4:	8c32                	mv	s8,a2
    80008fe6:	bf69                	j	80008f80 <_svfprintf_r+0xef4>
    80008fe8:	56ea                	lw	a3,184(sp)
    80008fea:	16d04463          	bgtz	a3,80009152 <_svfprintf_r+0x10c6>
    80008fee:	00005797          	auipc	a5,0x5
    80008ff2:	3f278793          	addi	a5,a5,1010 # 8000e3e0 <_ctype_+0x2f8>
    80008ff6:	00fc3023          	sd	a5,0(s8)
    80008ffa:	4785                	li	a5,1
    80008ffc:	00fc3423          	sd	a5,8(s8)
    80009000:	57ae                	lw	a5,232(sp)
    80009002:	0705                	addi	a4,a4,1
    80009004:	f9ba                	sd	a4,240(sp)
    80009006:	0017871b          	addiw	a4,a5,1
    8000900a:	d5ba                	sw	a4,232(sp)
    8000900c:	479d                	li	a5,7
    8000900e:	0c41                	addi	s8,s8,16
    80009010:	00e7dd63          	ble	a4,a5,8000902a <_svfprintf_r+0xf9e>
    80009014:	1190                	addi	a2,sp,224
    80009016:	85ce                	mv	a1,s3
    80009018:	854a                	mv	a0,s2
    8000901a:	00002097          	auipc	ra,0x2
    8000901e:	22c080e7          	jalr	556(ra) # 8000b246 <__ssprint_r>
    80009022:	5e051963          	bnez	a0,80009614 <_svfprintf_r+0x1588>
    80009026:	16010c13          	addi	s8,sp,352
    8000902a:	57ea                	lw	a5,184(sp)
    8000902c:	00147693          	andi	a3,s0,1
    80009030:	774e                	ld	a4,240(sp)
    80009032:	00fa67b3          	or	a5,s4,a5
    80009036:	8fd5                	or	a5,a5,a3
    80009038:	2781                	sext.w	a5,a5
    8000903a:	c7cd                	beqz	a5,800090e4 <_svfprintf_r+0x1058>
    8000903c:	6786                	ld	a5,64(sp)
    8000903e:	010c0313          	addi	t1,s8,16
    80009042:	00fc3023          	sd	a5,0(s8)
    80009046:	67c2                	ld	a5,16(sp)
    80009048:	00fc3423          	sd	a5,8(s8)
    8000904c:	97ba                	add	a5,a5,a4
    8000904e:	f9be                	sd	a5,240(sp)
    80009050:	57ae                	lw	a5,232(sp)
    80009052:	0017871b          	addiw	a4,a5,1
    80009056:	d5ba                	sw	a4,232(sp)
    80009058:	479d                	li	a5,7
    8000905a:	00e7dd63          	ble	a4,a5,80009074 <_svfprintf_r+0xfe8>
    8000905e:	1190                	addi	a2,sp,224
    80009060:	85ce                	mv	a1,s3
    80009062:	854a                	mv	a0,s2
    80009064:	00002097          	auipc	ra,0x2
    80009068:	1e2080e7          	jalr	482(ra) # 8000b246 <__ssprint_r>
    8000906c:	5a051463          	bnez	a0,80009614 <_svfprintf_r+0x1588>
    80009070:	16010313          	addi	t1,sp,352
    80009074:	5aea                	lw	s5,184(sp)
    80009076:	040ad763          	bgez	s5,800090c4 <_svfprintf_r+0x1038>
    8000907a:	41500abb          	negw	s5,s5
    8000907e:	879a                	mv	a5,t1
    80009080:	4bc1                	li	s7,16
    80009082:	4d1d                	li	s10,7
    80009084:	56ae                	lw	a3,232(sp)
    80009086:	774e                	ld	a4,240(sp)
    80009088:	0341                	addi	t1,t1,16
    8000908a:	0016861b          	addiw	a2,a3,1
    8000908e:	86b2                	mv	a3,a2
    80009090:	095bc763          	blt	s7,s5,8000911e <_svfprintf_r+0x1092>
    80009094:	0157b423          	sd	s5,8(a5)
    80009098:	00005697          	auipc	a3,0x5
    8000909c:	36068693          	addi	a3,a3,864 # 8000e3f8 <zeroes.4812>
    800090a0:	9aba                	add	s5,s5,a4
    800090a2:	e394                	sd	a3,0(a5)
    800090a4:	f9d6                	sd	s5,240(sp)
    800090a6:	d5b2                	sw	a2,232(sp)
    800090a8:	479d                	li	a5,7
    800090aa:	00c7dd63          	ble	a2,a5,800090c4 <_svfprintf_r+0x1038>
    800090ae:	1190                	addi	a2,sp,224
    800090b0:	85ce                	mv	a1,s3
    800090b2:	854a                	mv	a0,s2
    800090b4:	00002097          	auipc	ra,0x2
    800090b8:	192080e7          	jalr	402(ra) # 8000b246 <__ssprint_r>
    800090bc:	54051c63          	bnez	a0,80009614 <_svfprintf_r+0x1588>
    800090c0:	16010313          	addi	t1,sp,352
    800090c4:	77ce                	ld	a5,240(sp)
    800090c6:	00933023          	sd	s1,0(t1)
    800090ca:	01433423          	sd	s4,8(t1)
    800090ce:	97d2                	add	a5,a5,s4
    800090d0:	f9be                	sd	a5,240(sp)
    800090d2:	57ae                	lw	a5,232(sp)
    800090d4:	01030c13          	addi	s8,t1,16
    800090d8:	0017871b          	addiw	a4,a5,1
    800090dc:	d5ba                	sw	a4,232(sp)
    800090de:	479d                	li	a5,7
    800090e0:	c4e7c263          	blt	a5,a4,80008524 <_svfprintf_r+0x498>
    800090e4:	8811                	andi	s0,s0,4
    800090e6:	4e041163          	bnez	s0,800095c8 <_svfprintf_r+0x153c>
    800090ea:	6762                	ld	a4,24(sp)
    800090ec:	76c2                	ld	a3,48(sp)
    800090ee:	47e2                	lw	a5,24(sp)
    800090f0:	00d75363          	ble	a3,a4,800090f6 <_svfprintf_r+0x106a>
    800090f4:	57c2                	lw	a5,48(sp)
    800090f6:	7702                	ld	a4,32(sp)
    800090f8:	9fb9                	addw	a5,a5,a4
    800090fa:	f03e                	sd	a5,32(sp)
    800090fc:	77ce                	ld	a5,240(sp)
    800090fe:	cb91                	beqz	a5,80009112 <_svfprintf_r+0x1086>
    80009100:	1190                	addi	a2,sp,224
    80009102:	85ce                	mv	a1,s3
    80009104:	854a                	mv	a0,s2
    80009106:	00002097          	auipc	ra,0x2
    8000910a:	140080e7          	jalr	320(ra) # 8000b246 <__ssprint_r>
    8000910e:	50051363          	bnez	a0,80009614 <_svfprintf_r+0x1588>
    80009112:	d582                	sw	zero,232(sp)
    80009114:	520b1e63          	bnez	s6,80009650 <_svfprintf_r+0x15c4>
    80009118:	16010c13          	addi	s8,sp,352
    8000911c:	bca1                	j	80008b74 <_svfprintf_r+0xae8>
    8000911e:	00005597          	auipc	a1,0x5
    80009122:	2da58593          	addi	a1,a1,730 # 8000e3f8 <zeroes.4812>
    80009126:	0741                	addi	a4,a4,16
    80009128:	e38c                	sd	a1,0(a5)
    8000912a:	0177b423          	sd	s7,8(a5)
    8000912e:	f9ba                	sd	a4,240(sp)
    80009130:	d5b6                	sw	a3,232(sp)
    80009132:	00cd5d63          	ble	a2,s10,8000914c <_svfprintf_r+0x10c0>
    80009136:	1190                	addi	a2,sp,224
    80009138:	85ce                	mv	a1,s3
    8000913a:	854a                	mv	a0,s2
    8000913c:	00002097          	auipc	ra,0x2
    80009140:	10a080e7          	jalr	266(ra) # 8000b246 <__ssprint_r>
    80009144:	4c051863          	bnez	a0,80009614 <_svfprintf_r+0x1588>
    80009148:	16010313          	addi	t1,sp,352
    8000914c:	3ac1                	addiw	s5,s5,-16
    8000914e:	879a                	mv	a5,t1
    80009150:	bf15                	j	80009084 <_svfprintf_r+0xff8>
    80009152:	86e6                	mv	a3,s9
    80009154:	019a5363          	ble	s9,s4,8000915a <_svfprintf_r+0x10ce>
    80009158:	86d2                	mv	a3,s4
    8000915a:	00068d9b          	sext.w	s11,a3
    8000915e:	03b05b63          	blez	s11,80009194 <_svfprintf_r+0x1108>
    80009162:	976e                	add	a4,a4,s11
    80009164:	f9ba                	sd	a4,240(sp)
    80009166:	572e                	lw	a4,232(sp)
    80009168:	009c3023          	sd	s1,0(s8)
    8000916c:	01bc3423          	sd	s11,8(s8)
    80009170:	0017061b          	addiw	a2,a4,1
    80009174:	d5b2                	sw	a2,232(sp)
    80009176:	471d                	li	a4,7
    80009178:	0c41                	addi	s8,s8,16
    8000917a:	00c75d63          	ble	a2,a4,80009194 <_svfprintf_r+0x1108>
    8000917e:	1190                	addi	a2,sp,224
    80009180:	85ce                	mv	a1,s3
    80009182:	854a                	mv	a0,s2
    80009184:	00002097          	auipc	ra,0x2
    80009188:	0c2080e7          	jalr	194(ra) # 8000b246 <__ssprint_r>
    8000918c:	48051463          	bnez	a0,80009614 <_svfprintf_r+0x1588>
    80009190:	16010c13          	addi	s8,sp,352
    80009194:	8aee                	mv	s5,s11
    80009196:	000dd363          	bgez	s11,8000919c <_svfprintf_r+0x1110>
    8000919a:	4a81                	li	s5,0
    8000919c:	415c8abb          	subw	s5,s9,s5
    800091a0:	05505763          	blez	s5,800091ee <_svfprintf_r+0x1162>
    800091a4:	4dc1                	li	s11,16
    800091a6:	489d                	li	a7,7
    800091a8:	56ae                	lw	a3,232(sp)
    800091aa:	00005797          	auipc	a5,0x5
    800091ae:	24e78793          	addi	a5,a5,590 # 8000e3f8 <zeroes.4812>
    800091b2:	00fc3023          	sd	a5,0(s8)
    800091b6:	0016861b          	addiw	a2,a3,1
    800091ba:	774e                	ld	a4,240(sp)
    800091bc:	86b2                	mv	a3,a2
    800091be:	010c0593          	addi	a1,s8,16
    800091c2:	155dc163          	blt	s11,s5,80009304 <_svfprintf_r+0x1278>
    800091c6:	015c3423          	sd	s5,8(s8)
    800091ca:	9aba                	add	s5,s5,a4
    800091cc:	f9d6                	sd	s5,240(sp)
    800091ce:	d5b2                	sw	a2,232(sp)
    800091d0:	471d                	li	a4,7
    800091d2:	8c2e                	mv	s8,a1
    800091d4:	00c75d63          	ble	a2,a4,800091ee <_svfprintf_r+0x1162>
    800091d8:	1190                	addi	a2,sp,224
    800091da:	85ce                	mv	a1,s3
    800091dc:	854a                	mv	a0,s2
    800091de:	00002097          	auipc	ra,0x2
    800091e2:	068080e7          	jalr	104(ra) # 8000b246 <__ssprint_r>
    800091e6:	42051763          	bnez	a0,80009614 <_svfprintf_r+0x1588>
    800091ea:	16010c13          	addi	s8,sp,352
    800091ee:	40047793          	andi	a5,s0,1024
    800091f2:	01948ab3          	add	s5,s1,s9
    800091f6:	cf91                	beqz	a5,80009212 <_svfprintf_r+0x1186>
    800091f8:	014487b3          	add	a5,s1,s4
    800091fc:	4d9d                	li	s11,7
    800091fe:	8cbe                	mv	s9,a5
    80009200:	120b9763          	bnez	s7,8000932e <_svfprintf_r+0x12a2>
    80009204:	120d1763          	bnez	s10,80009332 <_svfprintf_r+0x12a6>
    80009208:	014487b3          	add	a5,s1,s4
    8000920c:	0157f363          	bleu	s5,a5,80009212 <_svfprintf_r+0x1186>
    80009210:	8abe                	mv	s5,a5
    80009212:	57ea                	lw	a5,184(sp)
    80009214:	0147c563          	blt	a5,s4,8000921e <_svfprintf_r+0x1192>
    80009218:	00147793          	andi	a5,s0,1
    8000921c:	cf95                	beqz	a5,80009258 <_svfprintf_r+0x11cc>
    8000921e:	6786                	ld	a5,64(sp)
    80009220:	6742                	ld	a4,16(sp)
    80009222:	0c41                	addi	s8,s8,16
    80009224:	fefc3823          	sd	a5,-16(s8)
    80009228:	67c2                	ld	a5,16(sp)
    8000922a:	fefc3c23          	sd	a5,-8(s8)
    8000922e:	77ce                	ld	a5,240(sp)
    80009230:	97ba                	add	a5,a5,a4
    80009232:	f9be                	sd	a5,240(sp)
    80009234:	57ae                	lw	a5,232(sp)
    80009236:	0017871b          	addiw	a4,a5,1
    8000923a:	d5ba                	sw	a4,232(sp)
    8000923c:	479d                	li	a5,7
    8000923e:	00e7dd63          	ble	a4,a5,80009258 <_svfprintf_r+0x11cc>
    80009242:	1190                	addi	a2,sp,224
    80009244:	85ce                	mv	a1,s3
    80009246:	854a                	mv	a0,s2
    80009248:	00002097          	auipc	ra,0x2
    8000924c:	ffe080e7          	jalr	-2(ra) # 8000b246 <__ssprint_r>
    80009250:	3c051263          	bnez	a0,80009614 <_svfprintf_r+0x1588>
    80009254:	16010c13          	addi	s8,sp,352
    80009258:	5bea                	lw	s7,184(sp)
    8000925a:	94d2                	add	s1,s1,s4
    8000925c:	415484bb          	subw	s1,s1,s5
    80009260:	417a07bb          	subw	a5,s4,s7
    80009264:	8bbe                	mv	s7,a5
    80009266:	00f4d463          	ble	a5,s1,8000926e <_svfprintf_r+0x11e2>
    8000926a:	00048b9b          	sext.w	s7,s1
    8000926e:	03705c63          	blez	s7,800092a6 <_svfprintf_r+0x121a>
    80009272:	77ce                	ld	a5,240(sp)
    80009274:	015c3023          	sd	s5,0(s8)
    80009278:	017c3423          	sd	s7,8(s8)
    8000927c:	97de                	add	a5,a5,s7
    8000927e:	f9be                	sd	a5,240(sp)
    80009280:	57ae                	lw	a5,232(sp)
    80009282:	0c41                	addi	s8,s8,16
    80009284:	0017871b          	addiw	a4,a5,1
    80009288:	d5ba                	sw	a4,232(sp)
    8000928a:	479d                	li	a5,7
    8000928c:	00e7dd63          	ble	a4,a5,800092a6 <_svfprintf_r+0x121a>
    80009290:	1190                	addi	a2,sp,224
    80009292:	85ce                	mv	a1,s3
    80009294:	854a                	mv	a0,s2
    80009296:	00002097          	auipc	ra,0x2
    8000929a:	fb0080e7          	jalr	-80(ra) # 8000b246 <__ssprint_r>
    8000929e:	36051b63          	bnez	a0,80009614 <_svfprintf_r+0x1588>
    800092a2:	16010c13          	addi	s8,sp,352
    800092a6:	87de                	mv	a5,s7
    800092a8:	000bd363          	bgez	s7,800092ae <_svfprintf_r+0x1222>
    800092ac:	4781                	li	a5,0
    800092ae:	54ea                	lw	s1,184(sp)
    800092b0:	409a04bb          	subw	s1,s4,s1
    800092b4:	9c9d                	subw	s1,s1,a5
    800092b6:	e29057e3          	blez	s1,800090e4 <_svfprintf_r+0x1058>
    800092ba:	4ac1                	li	s5,16
    800092bc:	4b9d                	li	s7,7
    800092be:	572e                	lw	a4,232(sp)
    800092c0:	77ce                	ld	a5,240(sp)
    800092c2:	010c0613          	addi	a2,s8,16
    800092c6:	0017069b          	addiw	a3,a4,1
    800092ca:	8736                	mv	a4,a3
    800092cc:	cc9ad3e3          	ble	s1,s5,80008f92 <_svfprintf_r+0xf06>
    800092d0:	00005597          	auipc	a1,0x5
    800092d4:	12858593          	addi	a1,a1,296 # 8000e3f8 <zeroes.4812>
    800092d8:	07c1                	addi	a5,a5,16
    800092da:	00bc3023          	sd	a1,0(s8)
    800092de:	015c3423          	sd	s5,8(s8)
    800092e2:	f9be                	sd	a5,240(sp)
    800092e4:	d5ba                	sw	a4,232(sp)
    800092e6:	00dbdc63          	ble	a3,s7,800092fe <_svfprintf_r+0x1272>
    800092ea:	1190                	addi	a2,sp,224
    800092ec:	85ce                	mv	a1,s3
    800092ee:	854a                	mv	a0,s2
    800092f0:	00002097          	auipc	ra,0x2
    800092f4:	f56080e7          	jalr	-170(ra) # 8000b246 <__ssprint_r>
    800092f8:	30051e63          	bnez	a0,80009614 <_svfprintf_r+0x1588>
    800092fc:	1290                	addi	a2,sp,352
    800092fe:	34c1                	addiw	s1,s1,-16
    80009300:	8c32                	mv	s8,a2
    80009302:	bf75                	j	800092be <_svfprintf_r+0x1232>
    80009304:	0741                	addi	a4,a4,16
    80009306:	01bc3423          	sd	s11,8(s8)
    8000930a:	f9ba                	sd	a4,240(sp)
    8000930c:	d5b6                	sw	a3,232(sp)
    8000930e:	00c8dd63          	ble	a2,a7,80009328 <_svfprintf_r+0x129c>
    80009312:	1190                	addi	a2,sp,224
    80009314:	85ce                	mv	a1,s3
    80009316:	854a                	mv	a0,s2
    80009318:	00002097          	auipc	ra,0x2
    8000931c:	f2e080e7          	jalr	-210(ra) # 8000b246 <__ssprint_r>
    80009320:	2e051a63          	bnez	a0,80009614 <_svfprintf_r+0x1588>
    80009324:	128c                	addi	a1,sp,352
    80009326:	489d                	li	a7,7
    80009328:	3ac1                	addiw	s5,s5,-16
    8000932a:	8c2e                	mv	s8,a1
    8000932c:	bdb5                	j	800091a8 <_svfprintf_r+0x111c>
    8000932e:	0a0d0563          	beqz	s10,800093d8 <_svfprintf_r+0x134c>
    80009332:	3d7d                	addiw	s10,s10,-1
    80009334:	67a6                	ld	a5,72(sp)
    80009336:	7762                	ld	a4,56(sp)
    80009338:	0c41                	addi	s8,s8,16
    8000933a:	fefc3823          	sd	a5,-16(s8)
    8000933e:	77e2                	ld	a5,56(sp)
    80009340:	fefc3c23          	sd	a5,-8(s8)
    80009344:	77ce                	ld	a5,240(sp)
    80009346:	97ba                	add	a5,a5,a4
    80009348:	f9be                	sd	a5,240(sp)
    8000934a:	57ae                	lw	a5,232(sp)
    8000934c:	0017871b          	addiw	a4,a5,1
    80009350:	d5ba                	sw	a4,232(sp)
    80009352:	00eddd63          	ble	a4,s11,8000936c <_svfprintf_r+0x12e0>
    80009356:	1190                	addi	a2,sp,224
    80009358:	85ce                	mv	a1,s3
    8000935a:	854a                	mv	a0,s2
    8000935c:	00002097          	auipc	ra,0x2
    80009360:	eea080e7          	jalr	-278(ra) # 8000b246 <__ssprint_r>
    80009364:	2a051863          	bnez	a0,80009614 <_svfprintf_r+0x1588>
    80009368:	16010c13          	addi	s8,sp,352
    8000936c:	6702                	ld	a4,0(sp)
    8000936e:	415c87bb          	subw	a5,s9,s5
    80009372:	00074703          	lbu	a4,0(a4)
    80009376:	00e7d463          	ble	a4,a5,8000937e <_svfprintf_r+0x12f2>
    8000937a:	0007871b          	sext.w	a4,a5
    8000937e:	02e05d63          	blez	a4,800093b8 <_svfprintf_r+0x132c>
    80009382:	77ce                	ld	a5,240(sp)
    80009384:	015c3023          	sd	s5,0(s8)
    80009388:	00ec3423          	sd	a4,8(s8)
    8000938c:	97ba                	add	a5,a5,a4
    8000938e:	f9be                	sd	a5,240(sp)
    80009390:	57ae                	lw	a5,232(sp)
    80009392:	0c41                	addi	s8,s8,16
    80009394:	0017869b          	addiw	a3,a5,1
    80009398:	d5b6                	sw	a3,232(sp)
    8000939a:	00dddf63          	ble	a3,s11,800093b8 <_svfprintf_r+0x132c>
    8000939e:	1190                	addi	a2,sp,224
    800093a0:	85ce                	mv	a1,s3
    800093a2:	854a                	mv	a0,s2
    800093a4:	f0ba                	sd	a4,96(sp)
    800093a6:	00002097          	auipc	ra,0x2
    800093aa:	ea0080e7          	jalr	-352(ra) # 8000b246 <__ssprint_r>
    800093ae:	26051363          	bnez	a0,80009614 <_svfprintf_r+0x1588>
    800093b2:	7706                	ld	a4,96(sp)
    800093b4:	16010c13          	addi	s8,sp,352
    800093b8:	86ba                	mv	a3,a4
    800093ba:	00075363          	bgez	a4,800093c0 <_svfprintf_r+0x1334>
    800093be:	4681                	li	a3,0
    800093c0:	6782                	ld	a5,0(sp)
    800093c2:	4841                	li	a6,16
    800093c4:	0007c783          	lbu	a5,0(a5)
    800093c8:	9f95                	subw	a5,a5,a3
    800093ca:	04f04863          	bgtz	a5,8000941a <_svfprintf_r+0x138e>
    800093ce:	6782                	ld	a5,0(sp)
    800093d0:	0007c783          	lbu	a5,0(a5)
    800093d4:	9abe                	add	s5,s5,a5
    800093d6:	b52d                	j	80009200 <_svfprintf_r+0x1174>
    800093d8:	6782                	ld	a5,0(sp)
    800093da:	3bfd                	addiw	s7,s7,-1
    800093dc:	17fd                	addi	a5,a5,-1
    800093de:	e03e                	sd	a5,0(sp)
    800093e0:	bf91                	j	80009334 <_svfprintf_r+0x12a8>
    800093e2:	00005517          	auipc	a0,0x5
    800093e6:	01650513          	addi	a0,a0,22 # 8000e3f8 <zeroes.4812>
    800093ea:	0741                	addi	a4,a4,16
    800093ec:	00ac3023          	sd	a0,0(s8)
    800093f0:	010c3423          	sd	a6,8(s8)
    800093f4:	f9ba                	sd	a4,240(sp)
    800093f6:	d5b6                	sw	a3,232(sp)
    800093f8:	00cddf63          	ble	a2,s11,80009416 <_svfprintf_r+0x138a>
    800093fc:	1190                	addi	a2,sp,224
    800093fe:	85ce                	mv	a1,s3
    80009400:	854a                	mv	a0,s2
    80009402:	f0be                	sd	a5,96(sp)
    80009404:	00002097          	auipc	ra,0x2
    80009408:	e42080e7          	jalr	-446(ra) # 8000b246 <__ssprint_r>
    8000940c:	20051463          	bnez	a0,80009614 <_svfprintf_r+0x1588>
    80009410:	7786                	ld	a5,96(sp)
    80009412:	128c                	addi	a1,sp,352
    80009414:	4841                	li	a6,16
    80009416:	37c1                	addiw	a5,a5,-16
    80009418:	8c2e                	mv	s8,a1
    8000941a:	56ae                	lw	a3,232(sp)
    8000941c:	774e                	ld	a4,240(sp)
    8000941e:	010c0593          	addi	a1,s8,16
    80009422:	0016861b          	addiw	a2,a3,1
    80009426:	86b2                	mv	a3,a2
    80009428:	faf84de3          	blt	a6,a5,800093e2 <_svfprintf_r+0x1356>
    8000942c:	00fc3423          	sd	a5,8(s8)
    80009430:	00005697          	auipc	a3,0x5
    80009434:	fc868693          	addi	a3,a3,-56 # 8000e3f8 <zeroes.4812>
    80009438:	97ba                	add	a5,a5,a4
    8000943a:	00dc3023          	sd	a3,0(s8)
    8000943e:	f9be                	sd	a5,240(sp)
    80009440:	d5b2                	sw	a2,232(sp)
    80009442:	8c2e                	mv	s8,a1
    80009444:	f8cdd5e3          	ble	a2,s11,800093ce <_svfprintf_r+0x1342>
    80009448:	1190                	addi	a2,sp,224
    8000944a:	85ce                	mv	a1,s3
    8000944c:	854a                	mv	a0,s2
    8000944e:	00002097          	auipc	ra,0x2
    80009452:	df8080e7          	jalr	-520(ra) # 8000b246 <__ssprint_r>
    80009456:	1a051f63          	bnez	a0,80009614 <_svfprintf_r+0x1588>
    8000945a:	16010c13          	addi	s8,sp,352
    8000945e:	bf85                	j	800093ce <_svfprintf_r+0x1342>
    80009460:	57ae                	lw	a5,232(sp)
    80009462:	4605                	li	a2,1
    80009464:	009c3023          	sd	s1,0(s8)
    80009468:	0017869b          	addiw	a3,a5,1
    8000946c:	0705                	addi	a4,a4,1
    8000946e:	87b6                	mv	a5,a3
    80009470:	010c0b93          	addi	s7,s8,16
    80009474:	01464663          	blt	a2,s4,80009480 <_svfprintf_r+0x13f4>
    80009478:	00147593          	andi	a1,s0,1
    8000947c:	14058063          	beqz	a1,800095bc <_svfprintf_r+0x1530>
    80009480:	4605                	li	a2,1
    80009482:	d5be                	sw	a5,232(sp)
    80009484:	00cc3423          	sd	a2,8(s8)
    80009488:	f9ba                	sd	a4,240(sp)
    8000948a:	479d                	li	a5,7
    8000948c:	00d7dd63          	ble	a3,a5,800094a6 <_svfprintf_r+0x141a>
    80009490:	1190                	addi	a2,sp,224
    80009492:	85ce                	mv	a1,s3
    80009494:	854a                	mv	a0,s2
    80009496:	00002097          	auipc	ra,0x2
    8000949a:	db0080e7          	jalr	-592(ra) # 8000b246 <__ssprint_r>
    8000949e:	16051b63          	bnez	a0,80009614 <_svfprintf_r+0x1588>
    800094a2:	16010b93          	addi	s7,sp,352
    800094a6:	6786                	ld	a5,64(sp)
    800094a8:	6742                	ld	a4,16(sp)
    800094aa:	0bc1                	addi	s7,s7,16
    800094ac:	fefbb823          	sd	a5,-16(s7)
    800094b0:	67c2                	ld	a5,16(sp)
    800094b2:	fefbbc23          	sd	a5,-8(s7)
    800094b6:	77ce                	ld	a5,240(sp)
    800094b8:	97ba                	add	a5,a5,a4
    800094ba:	f9be                	sd	a5,240(sp)
    800094bc:	57ae                	lw	a5,232(sp)
    800094be:	0017871b          	addiw	a4,a5,1
    800094c2:	d5ba                	sw	a4,232(sp)
    800094c4:	479d                	li	a5,7
    800094c6:	00e7dd63          	ble	a4,a5,800094e0 <_svfprintf_r+0x1454>
    800094ca:	1190                	addi	a2,sp,224
    800094cc:	85ce                	mv	a1,s3
    800094ce:	854a                	mv	a0,s2
    800094d0:	00002097          	auipc	ra,0x2
    800094d4:	d76080e7          	jalr	-650(ra) # 8000b246 <__ssprint_r>
    800094d8:	12051e63          	bnez	a0,80009614 <_svfprintf_r+0x1588>
    800094dc:	16010b93          	addi	s7,sp,352
    800094e0:	654e                	ld	a0,208(sp)
    800094e2:	65ee                	ld	a1,216(sp)
    800094e4:	4601                	li	a2,0
    800094e6:	4681                	li	a3,0
    800094e8:	fffa0a9b          	addiw	s5,s4,-1
    800094ec:	00002097          	auipc	ra,0x2
    800094f0:	410080e7          	jalr	1040(ra) # 8000b8fc <__eqtf2>
    800094f4:	c125                	beqz	a0,80009554 <_svfprintf_r+0x14c8>
    800094f6:	572e                	lw	a4,232(sp)
    800094f8:	77ce                	ld	a5,240(sp)
    800094fa:	0485                	addi	s1,s1,1
    800094fc:	0017069b          	addiw	a3,a4,1
    80009500:	97d6                	add	a5,a5,s5
    80009502:	009bb023          	sd	s1,0(s7)
    80009506:	015bb423          	sd	s5,8(s7)
    8000950a:	f9be                	sd	a5,240(sp)
    8000950c:	d5b6                	sw	a3,232(sp)
    8000950e:	479d                	li	a5,7
    80009510:	0bc1                	addi	s7,s7,16
    80009512:	00d7dc63          	ble	a3,a5,8000952a <_svfprintf_r+0x149e>
    80009516:	1190                	addi	a2,sp,224
    80009518:	85ce                	mv	a1,s3
    8000951a:	854a                	mv	a0,s2
    8000951c:	00002097          	auipc	ra,0x2
    80009520:	d2a080e7          	jalr	-726(ra) # 8000b246 <__ssprint_r>
    80009524:	e965                	bnez	a0,80009614 <_svfprintf_r+0x1588>
    80009526:	16010b93          	addi	s7,sp,352
    8000952a:	019c                	addi	a5,sp,192
    8000952c:	00fbb023          	sd	a5,0(s7)
    80009530:	67c6                	ld	a5,80(sp)
    80009532:	6746                	ld	a4,80(sp)
    80009534:	010b8c13          	addi	s8,s7,16
    80009538:	00fbb423          	sd	a5,8(s7)
    8000953c:	77ce                	ld	a5,240(sp)
    8000953e:	97ba                	add	a5,a5,a4
    80009540:	f9be                	sd	a5,240(sp)
    80009542:	57ae                	lw	a5,232(sp)
    80009544:	0017871b          	addiw	a4,a5,1
    80009548:	d5ba                	sw	a4,232(sp)
    8000954a:	479d                	li	a5,7
    8000954c:	b8e7dce3          	ble	a4,a5,800090e4 <_svfprintf_r+0x1058>
    80009550:	fd5fe06f          	j	80008524 <_svfprintf_r+0x498>
    80009554:	fd505be3          	blez	s5,8000952a <_svfprintf_r+0x149e>
    80009558:	44c1                	li	s1,16
    8000955a:	4d1d                	li	s10,7
    8000955c:	572e                	lw	a4,232(sp)
    8000955e:	77ce                	ld	a5,240(sp)
    80009560:	010b8613          	addi	a2,s7,16
    80009564:	0017069b          	addiw	a3,a4,1
    80009568:	8736                	mv	a4,a3
    8000956a:	0354c063          	blt	s1,s5,8000958a <_svfprintf_r+0x14fe>
    8000956e:	97d6                	add	a5,a5,s5
    80009570:	00005717          	auipc	a4,0x5
    80009574:	e8870713          	addi	a4,a4,-376 # 8000e3f8 <zeroes.4812>
    80009578:	00ebb023          	sd	a4,0(s7)
    8000957c:	015bb423          	sd	s5,8(s7)
    80009580:	f9be                	sd	a5,240(sp)
    80009582:	d5b6                	sw	a3,232(sp)
    80009584:	479d                	li	a5,7
    80009586:	8bb2                	mv	s7,a2
    80009588:	b769                	j	80009512 <_svfprintf_r+0x1486>
    8000958a:	00005597          	auipc	a1,0x5
    8000958e:	e6e58593          	addi	a1,a1,-402 # 8000e3f8 <zeroes.4812>
    80009592:	07c1                	addi	a5,a5,16
    80009594:	00bbb023          	sd	a1,0(s7)
    80009598:	009bb423          	sd	s1,8(s7)
    8000959c:	f9be                	sd	a5,240(sp)
    8000959e:	d5ba                	sw	a4,232(sp)
    800095a0:	00dd5b63          	ble	a3,s10,800095b6 <_svfprintf_r+0x152a>
    800095a4:	1190                	addi	a2,sp,224
    800095a6:	85ce                	mv	a1,s3
    800095a8:	854a                	mv	a0,s2
    800095aa:	00002097          	auipc	ra,0x2
    800095ae:	c9c080e7          	jalr	-868(ra) # 8000b246 <__ssprint_r>
    800095b2:	e12d                	bnez	a0,80009614 <_svfprintf_r+0x1588>
    800095b4:	1290                	addi	a2,sp,352
    800095b6:	3ac1                	addiw	s5,s5,-16
    800095b8:	8bb2                	mv	s7,a2
    800095ba:	b74d                	j	8000955c <_svfprintf_r+0x14d0>
    800095bc:	00cc3423          	sd	a2,8(s8)
    800095c0:	f9ba                	sd	a4,240(sp)
    800095c2:	d5b6                	sw	a3,232(sp)
    800095c4:	479d                	li	a5,7
    800095c6:	b7b1                	j	80009512 <_svfprintf_r+0x1486>
    800095c8:	67e2                	ld	a5,24(sp)
    800095ca:	7742                	ld	a4,48(sp)
    800095cc:	40e7843b          	subw	s0,a5,a4
    800095d0:	b0805de3          	blez	s0,800090ea <_svfprintf_r+0x105e>
    800095d4:	4ac1                	li	s5,16
    800095d6:	00005497          	auipc	s1,0x5
    800095da:	e1248493          	addi	s1,s1,-494 # 8000e3e8 <blanks.4811>
    800095de:	4b9d                	li	s7,7
    800095e0:	572e                	lw	a4,232(sp)
    800095e2:	009c3023          	sd	s1,0(s8)
    800095e6:	77ce                	ld	a5,240(sp)
    800095e8:	0017069b          	addiw	a3,a4,1
    800095ec:	8736                	mv	a4,a3
    800095ee:	028acd63          	blt	s5,s0,80009628 <_svfprintf_r+0x159c>
    800095f2:	008c3423          	sd	s0,8(s8)
    800095f6:	943e                	add	s0,s0,a5
    800095f8:	f9a2                	sd	s0,240(sp)
    800095fa:	d5b6                	sw	a3,232(sp)
    800095fc:	479d                	li	a5,7
    800095fe:	aed7d6e3          	ble	a3,a5,800090ea <_svfprintf_r+0x105e>
    80009602:	1190                	addi	a2,sp,224
    80009604:	85ce                	mv	a1,s3
    80009606:	854a                	mv	a0,s2
    80009608:	00002097          	auipc	ra,0x2
    8000960c:	c3e080e7          	jalr	-962(ra) # 8000b246 <__ssprint_r>
    80009610:	ac050de3          	beqz	a0,800090ea <_svfprintf_r+0x105e>
    80009614:	8a0b0563          	beqz	s6,800086be <_svfprintf_r+0x632>
    80009618:	85da                	mv	a1,s6
    8000961a:	854a                	mv	a0,s2
    8000961c:	ffffe097          	auipc	ra,0xffffe
    80009620:	2d0080e7          	jalr	720(ra) # 800078ec <_free_r>
    80009624:	89aff06f          	j	800086be <_svfprintf_r+0x632>
    80009628:	07c1                	addi	a5,a5,16
    8000962a:	015c3423          	sd	s5,8(s8)
    8000962e:	f9be                	sd	a5,240(sp)
    80009630:	d5ba                	sw	a4,232(sp)
    80009632:	0c41                	addi	s8,s8,16
    80009634:	00dbdc63          	ble	a3,s7,8000964c <_svfprintf_r+0x15c0>
    80009638:	1190                	addi	a2,sp,224
    8000963a:	85ce                	mv	a1,s3
    8000963c:	854a                	mv	a0,s2
    8000963e:	00002097          	auipc	ra,0x2
    80009642:	c08080e7          	jalr	-1016(ra) # 8000b246 <__ssprint_r>
    80009646:	f579                	bnez	a0,80009614 <_svfprintf_r+0x1588>
    80009648:	16010c13          	addi	s8,sp,352
    8000964c:	3441                	addiw	s0,s0,-16
    8000964e:	bf49                	j	800095e0 <_svfprintf_r+0x1554>
    80009650:	85da                	mv	a1,s6
    80009652:	854a                	mv	a0,s2
    80009654:	ffffe097          	auipc	ra,0xffffe
    80009658:	298080e7          	jalr	664(ra) # 800078ec <_free_r>
    8000965c:	bc75                	j	80009118 <_svfprintf_r+0x108c>
    8000965e:	77ce                	ld	a5,240(sp)
    80009660:	84078f63          	beqz	a5,800086be <_svfprintf_r+0x632>
    80009664:	1190                	addi	a2,sp,224
    80009666:	85ce                	mv	a1,s3
    80009668:	854a                	mv	a0,s2
    8000966a:	00002097          	auipc	ra,0x2
    8000966e:	bdc080e7          	jalr	-1060(ra) # 8000b246 <__ssprint_r>
    80009672:	84cff06f          	j	800086be <_svfprintf_r+0x632>
    80009676:	57fd                	li	a5,-1
    80009678:	eafd9163          	bne	s11,a5,80008d1a <_svfprintf_r+0xc8e>
    8000967c:	47a5                	li	a5,9
    8000967e:	ef67ec63          	bltu	a5,s6,80008d76 <_svfprintf_r+0xcea>
    80009682:	030b0b1b          	addiw	s6,s6,48
    80009686:	15610da3          	sb	s6,347(sp)
    8000968a:	15b10493          	addi	s1,sp,347
    8000968e:	eceff06f          	j	80008d5c <_svfprintf_r+0xcd0>

0000000080009692 <eclear>:
    80009692:	01450793          	addi	a5,a0,20
    80009696:	0509                	addi	a0,a0,2
    80009698:	fe051f23          	sh	zero,-2(a0)
    8000969c:	fef51de3          	bne	a0,a5,80009696 <eclear+0x4>
    800096a0:	8082                	ret

00000000800096a2 <emov>:
    800096a2:	4781                	li	a5,0
    800096a4:	4751                	li	a4,20
    800096a6:	00f506b3          	add	a3,a0,a5
    800096aa:	0006d603          	lhu	a2,0(a3)
    800096ae:	00f586b3          	add	a3,a1,a5
    800096b2:	0789                	addi	a5,a5,2
    800096b4:	00c69023          	sh	a2,0(a3)
    800096b8:	fee797e3          	bne	a5,a4,800096a6 <emov+0x4>
    800096bc:	8082                	ret

00000000800096be <ecleaz>:
    800096be:	01a50793          	addi	a5,a0,26
    800096c2:	0509                	addi	a0,a0,2
    800096c4:	fe051f23          	sh	zero,-2(a0)
    800096c8:	fef51de3          	bne	a0,a5,800096c2 <ecleaz+0x4>
    800096cc:	8082                	ret

00000000800096ce <emovz>:
    800096ce:	4781                	li	a5,0
    800096d0:	4761                	li	a4,24
    800096d2:	00f506b3          	add	a3,a0,a5
    800096d6:	0006d603          	lhu	a2,0(a3)
    800096da:	00f586b3          	add	a3,a1,a5
    800096de:	0789                	addi	a5,a5,2
    800096e0:	00c69023          	sh	a2,0(a3)
    800096e4:	fee797e3          	bne	a5,a4,800096d2 <emovz+0x4>
    800096e8:	00059c23          	sh	zero,24(a1)
    800096ec:	8082                	ret

00000000800096ee <ecmpm>:
    800096ee:	4791                	li	a5,4
    800096f0:	4669                	li	a2,26
    800096f2:	00f506b3          	add	a3,a0,a5
    800096f6:	00f58733          	add	a4,a1,a5
    800096fa:	0006d683          	lhu	a3,0(a3)
    800096fe:	00075703          	lhu	a4,0(a4)
    80009702:	00e68763          	beq	a3,a4,80009710 <ecmpm+0x22>
    80009706:	4505                	li	a0,1
    80009708:	00d76863          	bltu	a4,a3,80009718 <ecmpm+0x2a>
    8000970c:	557d                	li	a0,-1
    8000970e:	8082                	ret
    80009710:	0789                	addi	a5,a5,2
    80009712:	fec790e3          	bne	a5,a2,800096f2 <ecmpm+0x4>
    80009716:	4501                	li	a0,0
    80009718:	8082                	ret

000000008000971a <eshdn1>:
    8000971a:	00450693          	addi	a3,a0,4
    8000971e:	4781                	li	a5,0
    80009720:	0569                	addi	a0,a0,26
    80009722:	7661                	lui	a2,0xffff8
    80009724:	0006d703          	lhu	a4,0(a3)
    80009728:	00177593          	andi	a1,a4,1
    8000972c:	c199                	beqz	a1,80009732 <eshdn1+0x18>
    8000972e:	0017e793          	ori	a5,a5,1
    80009732:	0027f593          	andi	a1,a5,2
    80009736:	8305                	srli	a4,a4,0x1
    80009738:	e999                	bnez	a1,8000974e <eshdn1+0x34>
    8000973a:	0017979b          	slliw	a5,a5,0x1
    8000973e:	00e69023          	sh	a4,0(a3)
    80009742:	17c2                	slli	a5,a5,0x30
    80009744:	0689                	addi	a3,a3,2
    80009746:	93c1                	srli	a5,a5,0x30
    80009748:	fcd51ee3          	bne	a0,a3,80009724 <eshdn1+0xa>
    8000974c:	8082                	ret
    8000974e:	8f51                	or	a4,a4,a2
    80009750:	b7ed                	j	8000973a <eshdn1+0x20>

0000000080009752 <eshup1>:
    80009752:	01650693          	addi	a3,a0,22
    80009756:	4701                	li	a4,0
    80009758:	0026d783          	lhu	a5,2(a3)
    8000975c:	0107961b          	slliw	a2,a5,0x10
    80009760:	4106561b          	sraiw	a2,a2,0x10
    80009764:	02061593          	slli	a1,a2,0x20
    80009768:	0005d463          	bgez	a1,80009770 <eshup1+0x1e>
    8000976c:	00176713          	ori	a4,a4,1
    80009770:	0017979b          	slliw	a5,a5,0x1
    80009774:	17c2                	slli	a5,a5,0x30
    80009776:	00277613          	andi	a2,a4,2
    8000977a:	93c1                	srli	a5,a5,0x30
    8000977c:	ea19                	bnez	a2,80009792 <eshup1+0x40>
    8000977e:	0017171b          	slliw	a4,a4,0x1
    80009782:	00f69123          	sh	a5,2(a3)
    80009786:	1742                	slli	a4,a4,0x30
    80009788:	16f9                	addi	a3,a3,-2
    8000978a:	9341                	srli	a4,a4,0x30
    8000978c:	fcd516e3          	bne	a0,a3,80009758 <eshup1+0x6>
    80009790:	8082                	ret
    80009792:	0017e793          	ori	a5,a5,1
    80009796:	b7e5                	j	8000977e <eshup1+0x2c>

0000000080009798 <eshdn8>:
    80009798:	00450793          	addi	a5,a0,4
    8000979c:	4701                	li	a4,0
    8000979e:	0569                	addi	a0,a0,26
    800097a0:	0007d683          	lhu	a3,0(a5)
    800097a4:	0789                	addi	a5,a5,2
    800097a6:	0086d61b          	srliw	a2,a3,0x8
    800097aa:	8f51                	or	a4,a4,a2
    800097ac:	fee79f23          	sh	a4,-2(a5)
    800097b0:	0086971b          	slliw	a4,a3,0x8
    800097b4:	1742                	slli	a4,a4,0x30
    800097b6:	9341                	srli	a4,a4,0x30
    800097b8:	fef514e3          	bne	a0,a5,800097a0 <eshdn8+0x8>
    800097bc:	8082                	ret

00000000800097be <eshup8>:
    800097be:	01650793          	addi	a5,a0,22
    800097c2:	4701                	li	a4,0
    800097c4:	0027d683          	lhu	a3,2(a5)
    800097c8:	17f9                	addi	a5,a5,-2
    800097ca:	00869613          	slli	a2,a3,0x8
    800097ce:	8f51                	or	a4,a4,a2
    800097d0:	00e79223          	sh	a4,4(a5)
    800097d4:	0086d713          	srli	a4,a3,0x8
    800097d8:	fef516e3          	bne	a0,a5,800097c4 <eshup8+0x6>
    800097dc:	8082                	ret

00000000800097de <eshup6>:
    800097de:	00450793          	addi	a5,a0,4
    800097e2:	01850713          	addi	a4,a0,24
    800097e6:	0789                	addi	a5,a5,2
    800097e8:	0007d683          	lhu	a3,0(a5)
    800097ec:	fed79f23          	sh	a3,-2(a5)
    800097f0:	fef71be3          	bne	a4,a5,800097e6 <eshup6+0x8>
    800097f4:	00051c23          	sh	zero,24(a0)
    800097f8:	8082                	ret

00000000800097fa <eshdn6>:
    800097fa:	01850793          	addi	a5,a0,24
    800097fe:	00450713          	addi	a4,a0,4
    80009802:	17f9                	addi	a5,a5,-2
    80009804:	0007d683          	lhu	a3,0(a5)
    80009808:	00d79123          	sh	a3,2(a5)
    8000980c:	fef71be3          	bne	a4,a5,80009802 <eshdn6+0x8>
    80009810:	00051223          	sh	zero,4(a0)
    80009814:	8082                	ret

0000000080009816 <eaddm>:
    80009816:	05e1                	addi	a1,a1,24
    80009818:	01650713          	addi	a4,a0,22
    8000981c:	4681                	li	a3,0
    8000981e:	0005d783          	lhu	a5,0(a1)
    80009822:	1779                	addi	a4,a4,-2
    80009824:	15f9                	addi	a1,a1,-2
    80009826:	97b6                	add	a5,a5,a3
    80009828:	00475683          	lhu	a3,4(a4)
    8000982c:	97b6                	add	a5,a5,a3
    8000982e:	00f59123          	sh	a5,2(a1)
    80009832:	83c1                	srli	a5,a5,0x10
    80009834:	0017f693          	andi	a3,a5,1
    80009838:	fee513e3          	bne	a0,a4,8000981e <eaddm+0x8>
    8000983c:	8082                	ret

000000008000983e <esubm>:
    8000983e:	05e1                	addi	a1,a1,24
    80009840:	01650713          	addi	a4,a0,22
    80009844:	4681                	li	a3,0
    80009846:	0005d783          	lhu	a5,0(a1)
    8000984a:	1779                	addi	a4,a4,-2
    8000984c:	15f9                	addi	a1,a1,-2
    8000984e:	8f95                	sub	a5,a5,a3
    80009850:	00475683          	lhu	a3,4(a4)
    80009854:	8f95                	sub	a5,a5,a3
    80009856:	00f59123          	sh	a5,2(a1)
    8000985a:	83c1                	srli	a5,a5,0x10
    8000985c:	0017f693          	andi	a3,a5,1
    80009860:	fee513e3          	bne	a0,a4,80009846 <esubm+0x8>
    80009864:	8082                	ret

0000000080009866 <m16m>:
    80009866:	1101                	addi	sp,sp,-32
    80009868:	6341                	lui	t1,0x10
    8000986a:	01858893          	addi	a7,a1,24
    8000986e:	00011b23          	sh	zero,22(sp)
    80009872:	00011c23          	sh	zero,24(sp)
    80009876:	0591                	addi	a1,a1,4
    80009878:	0834                	addi	a3,sp,24
    8000987a:	137d                	addi	t1,t1,-1
    8000987c:	0008d703          	lhu	a4,0(a7)
    80009880:	16f9                	addi	a3,a3,-2
    80009882:	18f9                	addi	a7,a7,-2
    80009884:	e705                	bnez	a4,800098ac <m16m+0x46>
    80009886:	fe069f23          	sh	zero,-2(a3)
    8000988a:	ff1599e3          	bne	a1,a7,8000987c <m16m+0x16>
    8000988e:	4791                	li	a5,4
    80009890:	4769                	li	a4,26
    80009892:	00f105b3          	add	a1,sp,a5
    80009896:	0005d583          	lhu	a1,0(a1)
    8000989a:	00f606b3          	add	a3,a2,a5
    8000989e:	0789                	addi	a5,a5,2
    800098a0:	00b69023          	sh	a1,0(a3)
    800098a4:	fee797e3          	bne	a5,a4,80009892 <m16m+0x2c>
    800098a8:	6105                	addi	sp,sp,32
    800098aa:	8082                	ret
    800098ac:	02a70733          	mul	a4,a4,a0
    800098b0:	0026d803          	lhu	a6,2(a3)
    800098b4:	006777b3          	and	a5,a4,t1
    800098b8:	97c2                	add	a5,a5,a6
    800098ba:	0107d813          	srli	a6,a5,0x10
    800098be:	00f69123          	sh	a5,2(a3)
    800098c2:	01075793          	srli	a5,a4,0x10
    800098c6:	0006d703          	lhu	a4,0(a3)
    800098ca:	97ba                	add	a5,a5,a4
    800098cc:	97c2                	add	a5,a5,a6
    800098ce:	00f69023          	sh	a5,0(a3)
    800098d2:	83c1                	srli	a5,a5,0x10
    800098d4:	fef69f23          	sh	a5,-2(a3)
    800098d8:	bf4d                	j	8000988a <m16m+0x24>

00000000800098da <eisnan>:
    800098da:	01255783          	lhu	a5,18(a0)
    800098de:	fff7c793          	not	a5,a5
    800098e2:	03179713          	slli	a4,a5,0x31
    800098e6:	eb09                	bnez	a4,800098f8 <eisnan+0x1e>
    800098e8:	01250793          	addi	a5,a0,18
    800098ec:	0509                	addi	a0,a0,2
    800098ee:	ffe55703          	lhu	a4,-2(a0)
    800098f2:	e709                	bnez	a4,800098fc <eisnan+0x22>
    800098f4:	fea79ce3          	bne	a5,a0,800098ec <eisnan+0x12>
    800098f8:	4501                	li	a0,0
    800098fa:	8082                	ret
    800098fc:	4505                	li	a0,1
    800098fe:	8082                	ret

0000000080009900 <eisneg>:
    80009900:	1141                	addi	sp,sp,-16
    80009902:	e022                	sd	s0,0(sp)
    80009904:	e406                	sd	ra,8(sp)
    80009906:	842a                	mv	s0,a0
    80009908:	00000097          	auipc	ra,0x0
    8000990c:	fd2080e7          	jalr	-46(ra) # 800098da <eisnan>
    80009910:	e909                	bnez	a0,80009922 <eisneg+0x22>
    80009912:	01241503          	lh	a0,18(s0)
    80009916:	01f5551b          	srliw	a0,a0,0x1f
    8000991a:	60a2                	ld	ra,8(sp)
    8000991c:	6402                	ld	s0,0(sp)
    8000991e:	0141                	addi	sp,sp,16
    80009920:	8082                	ret
    80009922:	4501                	li	a0,0
    80009924:	bfdd                	j	8000991a <eisneg+0x1a>

0000000080009926 <emovi>:
    80009926:	01251783          	lh	a5,18(a0)
    8000992a:	1101                	addi	sp,sp,-32
    8000992c:	ec06                	sd	ra,24(sp)
    8000992e:	e822                	sd	s0,16(sp)
    80009930:	e426                	sd	s1,8(sp)
    80009932:	e04a                	sd	s2,0(sp)
    80009934:	0407db63          	bgez	a5,8000998a <emovi+0x64>
    80009938:	57fd                	li	a5,-1
    8000993a:	00f59023          	sh	a5,0(a1)
    8000993e:	01255703          	lhu	a4,18(a0)
    80009942:	67a1                	lui	a5,0x8
    80009944:	17fd                	addi	a5,a5,-1
    80009946:	8f7d                	and	a4,a4,a5
    80009948:	00e59123          	sh	a4,2(a1)
    8000994c:	01050913          	addi	s2,a0,16
    80009950:	04f71a63          	bne	a4,a5,800099a4 <emovi+0x7e>
    80009954:	842e                	mv	s0,a1
    80009956:	84aa                	mv	s1,a0
    80009958:	00000097          	auipc	ra,0x0
    8000995c:	f82080e7          	jalr	-126(ra) # 800098da <eisnan>
    80009960:	c905                	beqz	a0,80009990 <emovi+0x6a>
    80009962:	00640793          	addi	a5,s0,6
    80009966:	00041223          	sh	zero,4(s0)
    8000996a:	ffc48513          	addi	a0,s1,-4
    8000996e:	1979                	addi	s2,s2,-2
    80009970:	00295703          	lhu	a4,2(s2)
    80009974:	0789                	addi	a5,a5,2
    80009976:	fee79f23          	sh	a4,-2(a5) # 7ffe <_stack_size-0x2>
    8000997a:	fea91ae3          	bne	s2,a0,8000996e <emovi+0x48>
    8000997e:	60e2                	ld	ra,24(sp)
    80009980:	6442                	ld	s0,16(sp)
    80009982:	64a2                	ld	s1,8(sp)
    80009984:	6902                	ld	s2,0(sp)
    80009986:	6105                	addi	sp,sp,32
    80009988:	8082                	ret
    8000998a:	00059023          	sh	zero,0(a1)
    8000998e:	bf45                	j	8000993e <emovi+0x18>
    80009990:	00440793          	addi	a5,s0,4
    80009994:	01a40593          	addi	a1,s0,26
    80009998:	0789                	addi	a5,a5,2
    8000999a:	fe079f23          	sh	zero,-2(a5)
    8000999e:	feb79de3          	bne	a5,a1,80009998 <emovi+0x72>
    800099a2:	bff1                	j	8000997e <emovi+0x58>
    800099a4:	00658793          	addi	a5,a1,6
    800099a8:	00059223          	sh	zero,4(a1)
    800099ac:	1579                	addi	a0,a0,-2
    800099ae:	1979                	addi	s2,s2,-2
    800099b0:	00295703          	lhu	a4,2(s2)
    800099b4:	0789                	addi	a5,a5,2
    800099b6:	fee79f23          	sh	a4,-2(a5)
    800099ba:	fea91ae3          	bne	s2,a0,800099ae <emovi+0x88>
    800099be:	00059c23          	sh	zero,24(a1)
    800099c2:	bf75                	j	8000997e <emovi+0x58>

00000000800099c4 <ecmp>:
    800099c4:	711d                	addi	sp,sp,-96
    800099c6:	e4a6                	sd	s1,72(sp)
    800099c8:	e0ca                	sd	s2,64(sp)
    800099ca:	ec86                	sd	ra,88(sp)
    800099cc:	e8a2                	sd	s0,80(sp)
    800099ce:	892a                	mv	s2,a0
    800099d0:	84ae                	mv	s1,a1
    800099d2:	00000097          	auipc	ra,0x0
    800099d6:	f08080e7          	jalr	-248(ra) # 800098da <eisnan>
    800099da:	ed49                	bnez	a0,80009a74 <ecmp+0xb0>
    800099dc:	8526                	mv	a0,s1
    800099de:	00000097          	auipc	ra,0x0
    800099e2:	efc080e7          	jalr	-260(ra) # 800098da <eisnan>
    800099e6:	842a                	mv	s0,a0
    800099e8:	e551                	bnez	a0,80009a74 <ecmp+0xb0>
    800099ea:	858a                	mv	a1,sp
    800099ec:	854a                	mv	a0,s2
    800099ee:	00000097          	auipc	ra,0x0
    800099f2:	f38080e7          	jalr	-200(ra) # 80009926 <emovi>
    800099f6:	100c                	addi	a1,sp,32
    800099f8:	8526                	mv	a0,s1
    800099fa:	00000097          	auipc	ra,0x0
    800099fe:	f2c080e7          	jalr	-212(ra) # 80009926 <emovi>
    80009a02:	00015703          	lhu	a4,0(sp)
    80009a06:	02015783          	lhu	a5,32(sp)
    80009a0a:	02e78c63          	beq	a5,a4,80009a42 <ecmp+0x7e>
    80009a0e:	4789                	li	a5,2
    80009a10:	46e1                	li	a3,24
    80009a12:	00f10633          	add	a2,sp,a5
    80009a16:	00065603          	lhu	a2,0(a2) # ffffffffffff8000 <_buffer_start+0xffffffff7ffb07c0>
    80009a1a:	e205                	bnez	a2,80009a3a <ecmp+0x76>
    80009a1c:	1010                	addi	a2,sp,32
    80009a1e:	963e                	add	a2,a2,a5
    80009a20:	00065603          	lhu	a2,0(a2)
    80009a24:	ea19                	bnez	a2,80009a3a <ecmp+0x76>
    80009a26:	0789                	addi	a5,a5,2
    80009a28:	fed795e3          	bne	a5,a3,80009a12 <ecmp+0x4e>
    80009a2c:	8522                	mv	a0,s0
    80009a2e:	60e6                	ld	ra,88(sp)
    80009a30:	6446                	ld	s0,80(sp)
    80009a32:	64a6                	ld	s1,72(sp)
    80009a34:	6906                	ld	s2,64(sp)
    80009a36:	6125                	addi	sp,sp,96
    80009a38:	8082                	ret
    80009a3a:	4405                	li	s0,1
    80009a3c:	db65                	beqz	a4,80009a2c <ecmp+0x68>
    80009a3e:	547d                	li	s0,-1
    80009a40:	b7f5                	j	80009a2c <ecmp+0x68>
    80009a42:	4685                	li	a3,1
    80009a44:	c311                	beqz	a4,80009a48 <ecmp+0x84>
    80009a46:	56fd                	li	a3,-1
    80009a48:	4781                	li	a5,0
    80009a4a:	45e1                	li	a1,24
    80009a4c:	00f10733          	add	a4,sp,a5
    80009a50:	00075603          	lhu	a2,0(a4)
    80009a54:	1018                	addi	a4,sp,32
    80009a56:	973e                	add	a4,a4,a5
    80009a58:	00075703          	lhu	a4,0(a4)
    80009a5c:	00e60863          	beq	a2,a4,80009a6c <ecmp+0xa8>
    80009a60:	8436                	mv	s0,a3
    80009a62:	fcc765e3          	bltu	a4,a2,80009a2c <ecmp+0x68>
    80009a66:	40d0043b          	negw	s0,a3
    80009a6a:	b7c9                	j	80009a2c <ecmp+0x68>
    80009a6c:	0789                	addi	a5,a5,2
    80009a6e:	fcb79fe3          	bne	a5,a1,80009a4c <ecmp+0x88>
    80009a72:	bf6d                	j	80009a2c <ecmp+0x68>
    80009a74:	5479                	li	s0,-2
    80009a76:	bf5d                	j	80009a2c <ecmp+0x68>

0000000080009a78 <eisinf>:
    80009a78:	01255783          	lhu	a5,18(a0)
    80009a7c:	fff7c793          	not	a5,a5
    80009a80:	03179713          	slli	a4,a5,0x31
    80009a84:	ef01                	bnez	a4,80009a9c <eisinf+0x24>
    80009a86:	1141                	addi	sp,sp,-16
    80009a88:	e406                	sd	ra,8(sp)
    80009a8a:	00000097          	auipc	ra,0x0
    80009a8e:	e50080e7          	jalr	-432(ra) # 800098da <eisnan>
    80009a92:	60a2                	ld	ra,8(sp)
    80009a94:	00153513          	seqz	a0,a0
    80009a98:	0141                	addi	sp,sp,16
    80009a9a:	8082                	ret
    80009a9c:	4501                	li	a0,0
    80009a9e:	8082                	ret

0000000080009aa0 <einfin.isra.2>:
    80009aa0:	01250713          	addi	a4,a0,18
    80009aa4:	87aa                	mv	a5,a0
    80009aa6:	0789                	addi	a5,a5,2
    80009aa8:	fe079f23          	sh	zero,-2(a5)
    80009aac:	fee79de3          	bne	a5,a4,80009aa6 <einfin.isra.2+0x6>
    80009ab0:	01255783          	lhu	a5,18(a0)
    80009ab4:	6721                	lui	a4,0x8
    80009ab6:	177d                	addi	a4,a4,-1
    80009ab8:	8fd9                	or	a5,a5,a4
    80009aba:	00f51923          	sh	a5,18(a0)
    80009abe:	8082                	ret

0000000080009ac0 <eshift.part.3>:
    80009ac0:	7139                	addi	sp,sp,-64
    80009ac2:	f822                	sd	s0,48(sp)
    80009ac4:	ec4e                	sd	s3,24(sp)
    80009ac6:	fc06                	sd	ra,56(sp)
    80009ac8:	f426                	sd	s1,40(sp)
    80009aca:	f04a                	sd	s2,32(sp)
    80009acc:	e852                	sd	s4,16(sp)
    80009ace:	e456                	sd	s5,8(sp)
    80009ad0:	89aa                	mv	s3,a0
    80009ad2:	842e                	mv	s0,a1
    80009ad4:	0c05d163          	bgez	a1,80009b96 <eshift.part.3+0xd6>
    80009ad8:	40b00a3b          	negw	s4,a1
    80009adc:	8952                	mv	s2,s4
    80009ade:	4481                	li	s1,0
    80009ae0:	4abd                	li	s5,15
    80009ae2:	034ac763          	blt	s5,s4,80009b10 <eshift.part.3+0x50>
    80009ae6:	0049591b          	srliw	s2,s2,0x4
    80009aea:	55c1                	li	a1,-16
    80009aec:	02b905bb          	mulw	a1,s2,a1
    80009af0:	4a1d                	li	s4,7
    80009af2:	4085893b          	subw	s2,a1,s0
    80009af6:	844a                	mv	s0,s2
    80009af8:	032a4663          	blt	s4,s2,80009b24 <eshift.part.3+0x64>
    80009afc:	0034559b          	srliw	a1,s0,0x3
    80009b00:	57e1                	li	a5,-8
    80009b02:	02f585bb          	mulw	a1,a1,a5
    80009b06:	9c2d                	addw	s0,s0,a1
    80009b08:	e805                	bnez	s0,80009b38 <eshift.part.3+0x78>
    80009b0a:	00903533          	snez	a0,s1
    80009b0e:	a89d                	j	80009b84 <eshift.part.3+0xc4>
    80009b10:	0189d783          	lhu	a5,24(s3)
    80009b14:	854e                	mv	a0,s3
    80009b16:	3a41                	addiw	s4,s4,-16
    80009b18:	8cdd                	or	s1,s1,a5
    80009b1a:	00000097          	auipc	ra,0x0
    80009b1e:	ce0080e7          	jalr	-800(ra) # 800097fa <eshdn6>
    80009b22:	b7c1                	j	80009ae2 <eshift.part.3+0x22>
    80009b24:	0189c783          	lbu	a5,24(s3)
    80009b28:	854e                	mv	a0,s3
    80009b2a:	3961                	addiw	s2,s2,-8
    80009b2c:	8cdd                	or	s1,s1,a5
    80009b2e:	00000097          	auipc	ra,0x0
    80009b32:	c6a080e7          	jalr	-918(ra) # 80009798 <eshdn8>
    80009b36:	b7c9                	j	80009af8 <eshift.part.3+0x38>
    80009b38:	0189d783          	lhu	a5,24(s3)
    80009b3c:	854e                	mv	a0,s3
    80009b3e:	347d                	addiw	s0,s0,-1
    80009b40:	8b85                	andi	a5,a5,1
    80009b42:	8cdd                	or	s1,s1,a5
    80009b44:	00000097          	auipc	ra,0x0
    80009b48:	bd6080e7          	jalr	-1066(ra) # 8000971a <eshdn1>
    80009b4c:	bf75                	j	80009b08 <eshift.part.3+0x48>
    80009b4e:	854e                	mv	a0,s3
    80009b50:	00000097          	auipc	ra,0x0
    80009b54:	c8e080e7          	jalr	-882(ra) # 800097de <eshup6>
    80009b58:	34c1                	addiw	s1,s1,-16
    80009b5a:	fe994ae3          	blt	s2,s1,80009b4e <eshift.part.3+0x8e>
    80009b5e:	0044559b          	srliw	a1,s0,0x4
    80009b62:	57c1                	li	a5,-16
    80009b64:	02f585bb          	mulw	a1,a1,a5
    80009b68:	491d                	li	s2,7
    80009b6a:	00b404bb          	addw	s1,s0,a1
    80009b6e:	8426                	mv	s0,s1
    80009b70:	02994663          	blt	s2,s1,80009b9c <eshift.part.3+0xdc>
    80009b74:	0034559b          	srliw	a1,s0,0x3
    80009b78:	57e1                	li	a5,-8
    80009b7a:	02f585bb          	mulw	a1,a1,a5
    80009b7e:	9c2d                	addw	s0,s0,a1
    80009b80:	e40d                	bnez	s0,80009baa <eshift.part.3+0xea>
    80009b82:	4501                	li	a0,0
    80009b84:	70e2                	ld	ra,56(sp)
    80009b86:	7442                	ld	s0,48(sp)
    80009b88:	74a2                	ld	s1,40(sp)
    80009b8a:	7902                	ld	s2,32(sp)
    80009b8c:	69e2                	ld	s3,24(sp)
    80009b8e:	6a42                	ld	s4,16(sp)
    80009b90:	6aa2                	ld	s5,8(sp)
    80009b92:	6121                	addi	sp,sp,64
    80009b94:	8082                	ret
    80009b96:	84ae                	mv	s1,a1
    80009b98:	493d                	li	s2,15
    80009b9a:	b7c1                	j	80009b5a <eshift.part.3+0x9a>
    80009b9c:	854e                	mv	a0,s3
    80009b9e:	00000097          	auipc	ra,0x0
    80009ba2:	c20080e7          	jalr	-992(ra) # 800097be <eshup8>
    80009ba6:	34e1                	addiw	s1,s1,-8
    80009ba8:	b7e1                	j	80009b70 <eshift.part.3+0xb0>
    80009baa:	854e                	mv	a0,s3
    80009bac:	00000097          	auipc	ra,0x0
    80009bb0:	ba6080e7          	jalr	-1114(ra) # 80009752 <eshup1>
    80009bb4:	347d                	addiw	s0,s0,-1
    80009bb6:	b7e9                	j	80009b80 <eshift.part.3+0xc0>

0000000080009bb8 <enormlz>:
    80009bb8:	00455783          	lhu	a5,4(a0)
    80009bbc:	1101                	addi	sp,sp,-32
    80009bbe:	e426                	sd	s1,8(sp)
    80009bc0:	ec06                	sd	ra,24(sp)
    80009bc2:	e822                	sd	s0,16(sp)
    80009bc4:	e04a                	sd	s2,0(sp)
    80009bc6:	84aa                	mv	s1,a0
    80009bc8:	cf89                	beqz	a5,80009be2 <enormlz+0x2a>
    80009bca:	f007f793          	andi	a5,a5,-256
    80009bce:	4401                	li	s0,0
    80009bd0:	c791                	beqz	a5,80009bdc <enormlz+0x24>
    80009bd2:	00000097          	auipc	ra,0x0
    80009bd6:	bc6080e7          	jalr	-1082(ra) # 80009798 <eshdn8>
    80009bda:	5461                	li	s0,-8
    80009bdc:	f6f00913          	li	s2,-145
    80009be0:	a8ad                	j	80009c5a <enormlz+0xa2>
    80009be2:	00651783          	lh	a5,6(a0)
    80009be6:	4401                	li	s0,0
    80009be8:	0a000913          	li	s2,160
    80009bec:	0207d163          	bgez	a5,80009c0e <enormlz+0x56>
    80009bf0:	8522                	mv	a0,s0
    80009bf2:	60e2                	ld	ra,24(sp)
    80009bf4:	6442                	ld	s0,16(sp)
    80009bf6:	64a2                	ld	s1,8(sp)
    80009bf8:	6902                	ld	s2,0(sp)
    80009bfa:	6105                	addi	sp,sp,32
    80009bfc:	8082                	ret
    80009bfe:	8526                	mv	a0,s1
    80009c00:	2441                	addiw	s0,s0,16
    80009c02:	00000097          	auipc	ra,0x0
    80009c06:	bdc080e7          	jalr	-1060(ra) # 800097de <eshup6>
    80009c0a:	ff2403e3          	beq	s0,s2,80009bf0 <enormlz+0x38>
    80009c0e:	0064d783          	lhu	a5,6(s1)
    80009c12:	d7f5                	beqz	a5,80009bfe <enormlz+0x46>
    80009c14:	0064d783          	lhu	a5,6(s1)
    80009c18:	f007f793          	andi	a5,a5,-256
    80009c1c:	c385                	beqz	a5,80009c3c <enormlz+0x84>
    80009c1e:	0a000913          	li	s2,160
    80009c22:	00649783          	lh	a5,6(s1)
    80009c26:	fc07c5e3          	bltz	a5,80009bf0 <enormlz+0x38>
    80009c2a:	8526                	mv	a0,s1
    80009c2c:	2405                	addiw	s0,s0,1
    80009c2e:	00000097          	auipc	ra,0x0
    80009c32:	b24080e7          	jalr	-1244(ra) # 80009752 <eshup1>
    80009c36:	fe8956e3          	ble	s0,s2,80009c22 <enormlz+0x6a>
    80009c3a:	bf5d                	j	80009bf0 <enormlz+0x38>
    80009c3c:	8526                	mv	a0,s1
    80009c3e:	00000097          	auipc	ra,0x0
    80009c42:	b80080e7          	jalr	-1152(ra) # 800097be <eshup8>
    80009c46:	2421                	addiw	s0,s0,8
    80009c48:	b7f1                	j	80009c14 <enormlz+0x5c>
    80009c4a:	8526                	mv	a0,s1
    80009c4c:	347d                	addiw	s0,s0,-1
    80009c4e:	00000097          	auipc	ra,0x0
    80009c52:	acc080e7          	jalr	-1332(ra) # 8000971a <eshdn1>
    80009c56:	f9240de3          	beq	s0,s2,80009bf0 <enormlz+0x38>
    80009c5a:	0044d783          	lhu	a5,4(s1)
    80009c5e:	f7f5                	bnez	a5,80009c4a <enormlz+0x92>
    80009c60:	bf41                	j	80009bf0 <enormlz+0x38>

0000000080009c62 <enan.constprop.12>:
    80009c62:	01050713          	addi	a4,a0,16
    80009c66:	87aa                	mv	a5,a0
    80009c68:	0789                	addi	a5,a5,2
    80009c6a:	fe079f23          	sh	zero,-2(a5)
    80009c6e:	fee79de3          	bne	a5,a4,80009c68 <enan.constprop.12+0x6>
    80009c72:	7fffc7b7          	lui	a5,0x7fffc
    80009c76:	c91c                	sw	a5,16(a0)
    80009c78:	8082                	ret

0000000080009c7a <emovo.isra.6>:
    80009c7a:	872a                	mv	a4,a0
    80009c7c:	00075683          	lhu	a3,0(a4) # 8000 <_stack_size>
    80009c80:	852e                	mv	a0,a1
    80009c82:	00275783          	lhu	a5,2(a4)
    80009c86:	c299                	beqz	a3,80009c8c <emovo.isra.6+0x12>
    80009c88:	76e1                	lui	a3,0xffff8
    80009c8a:	8fd5                	or	a5,a5,a3
    80009c8c:	00f51923          	sh	a5,18(a0)
    80009c90:	00275603          	lhu	a2,2(a4)
    80009c94:	66a1                	lui	a3,0x8
    80009c96:	16fd                	addi	a3,a3,-1
    80009c98:	00670793          	addi	a5,a4,6
    80009c9c:	00d61d63          	bne	a2,a3,80009cb6 <emovo.isra.6+0x3c>
    80009ca0:	0769                	addi	a4,a4,26
    80009ca2:	0007d683          	lhu	a3,0(a5) # 7fffc000 <_stack_size+0x7fff4000>
    80009ca6:	e29d                	bnez	a3,80009ccc <emovo.isra.6+0x52>
    80009ca8:	0789                	addi	a5,a5,2
    80009caa:	fee79ce3          	bne	a5,a4,80009ca2 <emovo.isra.6+0x28>
    80009cae:	00000317          	auipc	t1,0x0
    80009cb2:	df230067          	jr	-526(t1) # 80009aa0 <einfin.isra.2>
    80009cb6:	0541                	addi	a0,a0,16
    80009cb8:	0761                	addi	a4,a4,24
    80009cba:	0789                	addi	a5,a5,2
    80009cbc:	ffe7d683          	lhu	a3,-2(a5)
    80009cc0:	1579                	addi	a0,a0,-2
    80009cc2:	00d51123          	sh	a3,2(a0)
    80009cc6:	fee79ae3          	bne	a5,a4,80009cba <emovo.isra.6+0x40>
    80009cca:	8082                	ret
    80009ccc:	00000317          	auipc	t1,0x0
    80009cd0:	f9630067          	jr	-106(t1) # 80009c62 <enan.constprop.12>

0000000080009cd4 <e113toe.isra.8>:
    80009cd4:	7139                	addi	sp,sp,-64
    80009cd6:	f426                	sd	s1,40(sp)
    80009cd8:	84aa                	mv	s1,a0
    80009cda:	850a                	mv	a0,sp
    80009cdc:	f822                	sd	s0,48(sp)
    80009cde:	fc06                	sd	ra,56(sp)
    80009ce0:	842e                	mv	s0,a1
    80009ce2:	00000097          	auipc	ra,0x0
    80009ce6:	9dc080e7          	jalr	-1572(ra) # 800096be <ecleaz>
    80009cea:	00e4d703          	lhu	a4,14(s1)
    80009cee:	0107179b          	slliw	a5,a4,0x10
    80009cf2:	4107d79b          	sraiw	a5,a5,0x10
    80009cf6:	02079693          	slli	a3,a5,0x20
    80009cfa:	0206c963          	bltz	a3,80009d2c <e113toe.isra.8+0x58>
    80009cfe:	00011023          	sh	zero,0(sp)
    80009d02:	66a1                	lui	a3,0x8
    80009d04:	16fd                	addi	a3,a3,-1
    80009d06:	8f75                	and	a4,a4,a3
    80009d08:	00e48793          	addi	a5,s1,14
    80009d0c:	06d71263          	bne	a4,a3,80009d70 <e113toe.isra.8+0x9c>
    80009d10:	8726                	mv	a4,s1
    80009d12:	00075683          	lhu	a3,0(a4)
    80009d16:	ce99                	beqz	a3,80009d34 <e113toe.isra.8+0x60>
    80009d18:	8522                	mv	a0,s0
    80009d1a:	00000097          	auipc	ra,0x0
    80009d1e:	f48080e7          	jalr	-184(ra) # 80009c62 <enan.constprop.12>
    80009d22:	70e2                	ld	ra,56(sp)
    80009d24:	7442                	ld	s0,48(sp)
    80009d26:	74a2                	ld	s1,40(sp)
    80009d28:	6121                	addi	sp,sp,64
    80009d2a:	8082                	ret
    80009d2c:	57fd                	li	a5,-1
    80009d2e:	00f11023          	sh	a5,0(sp)
    80009d32:	bfc1                	j	80009d02 <e113toe.isra.8+0x2e>
    80009d34:	0709                	addi	a4,a4,2
    80009d36:	fce79ee3          	bne	a5,a4,80009d12 <e113toe.isra.8+0x3e>
    80009d3a:	8522                	mv	a0,s0
    80009d3c:	00000097          	auipc	ra,0x0
    80009d40:	956080e7          	jalr	-1706(ra) # 80009692 <eclear>
    80009d44:	8522                	mv	a0,s0
    80009d46:	00000097          	auipc	ra,0x0
    80009d4a:	d5a080e7          	jalr	-678(ra) # 80009aa0 <einfin.isra.2>
    80009d4e:	00e49783          	lh	a5,14(s1)
    80009d52:	fc07d8e3          	bgez	a5,80009d22 <e113toe.isra.8+0x4e>
    80009d56:	8522                	mv	a0,s0
    80009d58:	00000097          	auipc	ra,0x0
    80009d5c:	b82080e7          	jalr	-1150(ra) # 800098da <eisnan>
    80009d60:	f169                	bnez	a0,80009d22 <e113toe.isra.8+0x4e>
    80009d62:	01245783          	lhu	a5,18(s0)
    80009d66:	7761                	lui	a4,0xffff8
    80009d68:	8fb9                	xor	a5,a5,a4
    80009d6a:	00f41923          	sh	a5,18(s0)
    80009d6e:	bf55                	j	80009d22 <e113toe.isra.8+0x4e>
    80009d70:	00e11123          	sh	a4,2(sp)
    80009d74:	868a                	mv	a3,sp
    80009d76:	17f9                	addi	a5,a5,-2
    80009d78:	0007d603          	lhu	a2,0(a5)
    80009d7c:	0689                	addi	a3,a3,2
    80009d7e:	00c69223          	sh	a2,4(a3) # 8004 <_stack_size+0x4>
    80009d82:	fef49ae3          	bne	s1,a5,80009d76 <e113toe.isra.8+0xa2>
    80009d86:	eb11                	bnez	a4,80009d9a <e113toe.isra.8+0xc6>
    80009d88:	00011223          	sh	zero,4(sp)
    80009d8c:	85a2                	mv	a1,s0
    80009d8e:	850a                	mv	a0,sp
    80009d90:	00000097          	auipc	ra,0x0
    80009d94:	eea080e7          	jalr	-278(ra) # 80009c7a <emovo.isra.6>
    80009d98:	b769                	j	80009d22 <e113toe.isra.8+0x4e>
    80009d9a:	4785                	li	a5,1
    80009d9c:	55fd                	li	a1,-1
    80009d9e:	850a                	mv	a0,sp
    80009da0:	00f11223          	sh	a5,4(sp)
    80009da4:	00000097          	auipc	ra,0x0
    80009da8:	d1c080e7          	jalr	-740(ra) # 80009ac0 <eshift.part.3>
    80009dac:	b7c5                	j	80009d8c <e113toe.isra.8+0xb8>

0000000080009dae <emdnorm>:
    80009dae:	7139                	addi	sp,sp,-64
    80009db0:	f822                	sd	s0,48(sp)
    80009db2:	f426                	sd	s1,40(sp)
    80009db4:	f04a                	sd	s2,32(sp)
    80009db6:	ec4e                	sd	s3,24(sp)
    80009db8:	e852                	sd	s4,16(sp)
    80009dba:	e456                	sd	s5,8(sp)
    80009dbc:	8936                	mv	s2,a3
    80009dbe:	843e                	mv	s0,a5
    80009dc0:	fc06                	sd	ra,56(sp)
    80009dc2:	84aa                	mv	s1,a0
    80009dc4:	89ae                	mv	s3,a1
    80009dc6:	8a32                	mv	s4,a2
    80009dc8:	8aba                	mv	s5,a4
    80009dca:	00000097          	auipc	ra,0x0
    80009dce:	dee080e7          	jalr	-530(ra) # 80009bb8 <enormlz>
    80009dd2:	09000793          	li	a5,144
    80009dd6:	40a90933          	sub	s2,s2,a0
    80009dda:	02a7d763          	ble	a0,a5,80009e08 <emdnorm+0x5a>
    80009dde:	67a1                	lui	a5,0x8
    80009de0:	17f9                	addi	a5,a5,-2
    80009de2:	0527c263          	blt	a5,s2,80009e26 <emdnorm+0x78>
    80009de6:	00248793          	addi	a5,s1,2
    80009dea:	04e9                	addi	s1,s1,26
    80009dec:	0789                	addi	a5,a5,2
    80009dee:	fe079f23          	sh	zero,-2(a5) # 7ffe <_stack_size-0x2>
    80009df2:	fe979de3          	bne	a5,s1,80009dec <emdnorm+0x3e>
    80009df6:	70e2                	ld	ra,56(sp)
    80009df8:	7442                	ld	s0,48(sp)
    80009dfa:	74a2                	ld	s1,40(sp)
    80009dfc:	7902                	ld	s2,32(sp)
    80009dfe:	69e2                	ld	s3,24(sp)
    80009e00:	6a42                	ld	s4,16(sp)
    80009e02:	6aa2                	ld	s5,8(sp)
    80009e04:	6121                	addi	sp,sp,64
    80009e06:	8082                	ret
    80009e08:	00095f63          	bgez	s2,80009e26 <emdnorm+0x78>
    80009e0c:	f7000793          	li	a5,-144
    80009e10:	14f94363          	blt	s2,a5,80009f56 <emdnorm+0x1a8>
    80009e14:	0009059b          	sext.w	a1,s2
    80009e18:	8526                	mv	a0,s1
    80009e1a:	00000097          	auipc	ra,0x0
    80009e1e:	ca6080e7          	jalr	-858(ra) # 80009ac0 <eshift.part.3>
    80009e22:	14051363          	bnez	a0,80009f68 <emdnorm+0x1ba>
    80009e26:	100a8463          	beqz	s5,80009f2e <emdnorm+0x180>
    80009e2a:	4058                	lw	a4,4(s0)
    80009e2c:	401c                	lw	a5,0(s0)
    80009e2e:	04f70a63          	beq	a4,a5,80009e82 <emdnorm+0xd4>
    80009e32:	01a40513          	addi	a0,s0,26
    80009e36:	00000097          	auipc	ra,0x0
    80009e3a:	888080e7          	jalr	-1912(ra) # 800096be <ecleaz>
    80009e3e:	405c                	lw	a5,4(s0)
    80009e40:	03800713          	li	a4,56
    80009e44:	16e78263          	beq	a5,a4,80009fa8 <emdnorm+0x1fa>
    80009e48:	12f74263          	blt	a4,a5,80009f6c <emdnorm+0x1be>
    80009e4c:	4761                	li	a4,24
    80009e4e:	18e78363          	beq	a5,a4,80009fd4 <emdnorm+0x226>
    80009e52:	03500713          	li	a4,53
    80009e56:	16e78663          	beq	a5,a4,80009fc2 <emdnorm+0x214>
    80009e5a:	80010737          	lui	a4,0x80010
    80009e5e:	377d                	addiw	a4,a4,-1
    80009e60:	c858                	sw	a4,20(s0)
    80009e62:	4705                	li	a4,1
    80009e64:	00e41c23          	sh	a4,24(s0)
    80009e68:	472d                	li	a4,11
    80009e6a:	1702                	slli	a4,a4,0x20
    80009e6c:	0731                	addi	a4,a4,12
    80009e6e:	e418                	sd	a4,8(s0)
    80009e70:	4458                	lw	a4,12(s0)
    80009e72:	01845683          	lhu	a3,24(s0)
    80009e76:	0721                	addi	a4,a4,8
    80009e78:	0706                	slli	a4,a4,0x1
    80009e7a:	9722                	add	a4,a4,s0
    80009e7c:	00d71523          	sh	a3,10(a4) # ffffffff8001000a <_buffer_start+0xfffffffefffc87ca>
    80009e80:	c01c                	sw	a5,0(s0)
    80009e82:	03204163          	bgtz	s2,80009ea4 <emdnorm+0xf6>
    80009e86:	4058                	lw	a4,4(s0)
    80009e88:	09000793          	li	a5,144
    80009e8c:	00f70c63          	beq	a4,a5,80009ea4 <emdnorm+0xf6>
    80009e90:	0184d783          	lhu	a5,24(s1)
    80009e94:	8526                	mv	a0,s1
    80009e96:	8b85                	andi	a5,a5,1
    80009e98:	00f9e9b3          	or	s3,s3,a5
    80009e9c:	00000097          	auipc	ra,0x0
    80009ea0:	87e080e7          	jalr	-1922(ra) # 8000971a <eshdn1>
    80009ea4:	441c                	lw	a5,8(s0)
    80009ea6:	01445603          	lhu	a2,20(s0)
    80009eaa:	404c                	lw	a1,4(s0)
    80009eac:	00179693          	slli	a3,a5,0x1
    80009eb0:	96a6                	add	a3,a3,s1
    80009eb2:	0006d703          	lhu	a4,0(a3)
    80009eb6:	8f71                	and	a4,a4,a2
    80009eb8:	08f00613          	li	a2,143
    80009ebc:	00b64863          	blt	a2,a1,80009ecc <emdnorm+0x11e>
    80009ec0:	2785                	addiw	a5,a5,1
    80009ec2:	45b1                	li	a1,12
    80009ec4:	0007861b          	sext.w	a2,a5
    80009ec8:	12c5d363          	ble	a2,a1,80009fee <emdnorm+0x240>
    80009ecc:	01445783          	lhu	a5,20(s0)
    80009ed0:	0006d603          	lhu	a2,0(a3)
    80009ed4:	fff7c793          	not	a5,a5
    80009ed8:	8ff1                	and	a5,a5,a2
    80009eda:	00f69023          	sh	a5,0(a3)
    80009ede:	01645783          	lhu	a5,22(s0)
    80009ee2:	00e7f6b3          	and	a3,a5,a4
    80009ee6:	ce99                	beqz	a3,80009f04 <emdnorm+0x156>
    80009ee8:	12e79163          	bne	a5,a4,8000a00a <emdnorm+0x25c>
    80009eec:	10099d63          	bnez	s3,8000a006 <emdnorm+0x258>
    80009ef0:	445c                	lw	a5,12(s0)
    80009ef2:	01845703          	lhu	a4,24(s0)
    80009ef6:	0786                	slli	a5,a5,0x1
    80009ef8:	97a6                	add	a5,a5,s1
    80009efa:	0007d783          	lhu	a5,0(a5)
    80009efe:	8ff9                	and	a5,a5,a4
    80009f00:	10079563          	bnez	a5,8000a00a <emdnorm+0x25c>
    80009f04:	01204c63          	bgtz	s2,80009f1c <emdnorm+0x16e>
    80009f08:	4058                	lw	a4,4(s0)
    80009f0a:	09000793          	li	a5,144
    80009f0e:	00f70763          	beq	a4,a5,80009f1c <emdnorm+0x16e>
    80009f12:	8526                	mv	a0,s1
    80009f14:	00000097          	auipc	ra,0x0
    80009f18:	83e080e7          	jalr	-1986(ra) # 80009752 <eshup1>
    80009f1c:	0044d783          	lhu	a5,4(s1)
    80009f20:	c799                	beqz	a5,80009f2e <emdnorm+0x180>
    80009f22:	8526                	mv	a0,s1
    80009f24:	fffff097          	auipc	ra,0xfffff
    80009f28:	7f6080e7          	jalr	2038(ra) # 8000971a <eshdn1>
    80009f2c:	0905                	addi	s2,s2,1
    80009f2e:	67a1                	lui	a5,0x8
    80009f30:	00049c23          	sh	zero,24(s1)
    80009f34:	17f9                	addi	a5,a5,-2
    80009f36:	0f27d263          	ble	s2,a5,8000a01a <emdnorm+0x26c>
    80009f3a:	77e1                	lui	a5,0xffff8
    80009f3c:	fff7c793          	not	a5,a5
    80009f40:	00f49123          	sh	a5,2(s1)
    80009f44:	00448793          	addi	a5,s1,4
    80009f48:	04e1                	addi	s1,s1,24
    80009f4a:	00079023          	sh	zero,0(a5) # ffffffffffff8000 <_buffer_start+0xffffffff7ffb07c0>
    80009f4e:	0789                	addi	a5,a5,2
    80009f50:	fef49de3          	bne	s1,a5,80009f4a <emdnorm+0x19c>
    80009f54:	b54d                	j	80009df6 <emdnorm+0x48>
    80009f56:	00248793          	addi	a5,s1,2
    80009f5a:	04e9                	addi	s1,s1,26
    80009f5c:	0789                	addi	a5,a5,2
    80009f5e:	fe079f23          	sh	zero,-2(a5)
    80009f62:	fe979de3          	bne	a5,s1,80009f5c <emdnorm+0x1ae>
    80009f66:	bd41                	j	80009df6 <emdnorm+0x48>
    80009f68:	4985                	li	s3,1
    80009f6a:	bd75                	j	80009e26 <emdnorm+0x78>
    80009f6c:	04000713          	li	a4,64
    80009f70:	02e78163          	beq	a5,a4,80009f92 <emdnorm+0x1e4>
    80009f74:	07100713          	li	a4,113
    80009f78:	eee791e3          	bne	a5,a4,80009e5a <emdnorm+0xac>
    80009f7c:	40008737          	lui	a4,0x40008
    80009f80:	377d                	addiw	a4,a4,-1
    80009f82:	c858                	sw	a4,20(s0)
    80009f84:	7761                	lui	a4,0xffff8
    80009f86:	00e41c23          	sh	a4,24(s0)
    80009f8a:	4729                	li	a4,10
    80009f8c:	1702                	slli	a4,a4,0x20
    80009f8e:	0729                	addi	a4,a4,10
    80009f90:	bdf9                	j	80009e6e <emdnorm+0xc0>
    80009f92:	80010737          	lui	a4,0x80010
    80009f96:	377d                	addiw	a4,a4,-1
    80009f98:	c858                	sw	a4,20(s0)
    80009f9a:	4705                	li	a4,1
    80009f9c:	00e41c23          	sh	a4,24(s0)
    80009fa0:	470d                	li	a4,3
    80009fa2:	1706                	slli	a4,a4,0x21
    80009fa4:	071d                	addi	a4,a4,7
    80009fa6:	b5e1                	j	80009e6e <emdnorm+0xc0>
    80009fa8:	00800737          	lui	a4,0x800
    80009fac:	0ff7071b          	addiw	a4,a4,255
    80009fb0:	c858                	sw	a4,20(s0)
    80009fb2:	10000713          	li	a4,256
    80009fb6:	00e41c23          	sh	a4,24(s0)
    80009fba:	4719                	li	a4,6
    80009fbc:	1702                	slli	a4,a4,0x20
    80009fbe:	0719                	addi	a4,a4,6
    80009fc0:	b57d                	j	80009e6e <emdnorm+0xc0>
    80009fc2:	04000737          	lui	a4,0x4000
    80009fc6:	7ff7071b          	addiw	a4,a4,2047
    80009fca:	c858                	sw	a4,20(s0)
    80009fcc:	6705                	lui	a4,0x1
    80009fce:	8007071b          	addiw	a4,a4,-2048
    80009fd2:	b7d5                	j	80009fb6 <emdnorm+0x208>
    80009fd4:	00800737          	lui	a4,0x800
    80009fd8:	0ff7071b          	addiw	a4,a4,255
    80009fdc:	c858                	sw	a4,20(s0)
    80009fde:	10000713          	li	a4,256
    80009fe2:	00e41c23          	sh	a4,24(s0)
    80009fe6:	4711                	li	a4,4
    80009fe8:	1702                	slli	a4,a4,0x20
    80009fea:	0711                	addi	a4,a4,4
    80009fec:	b549                	j	80009e6e <emdnorm+0xc0>
    80009fee:	00179613          	slli	a2,a5,0x1
    80009ff2:	9626                	add	a2,a2,s1
    80009ff4:	00065503          	lhu	a0,0(a2)
    80009ff8:	c119                	beqz	a0,80009ffe <emdnorm+0x250>
    80009ffa:	00176713          	ori	a4,a4,1
    80009ffe:	00061023          	sh	zero,0(a2)
    8000a002:	0785                	addi	a5,a5,1
    8000a004:	b5c1                	j	80009ec4 <emdnorm+0x116>
    8000a006:	ee0a1fe3          	bnez	s4,80009f04 <emdnorm+0x156>
    8000a00a:	85a6                	mv	a1,s1
    8000a00c:	01a40513          	addi	a0,s0,26
    8000a010:	00000097          	auipc	ra,0x0
    8000a014:	806080e7          	jalr	-2042(ra) # 80009816 <eaddm>
    8000a018:	b5f5                	j	80009f04 <emdnorm+0x156>
    8000a01a:	00095563          	bgez	s2,8000a024 <emdnorm+0x276>
    8000a01e:	00049123          	sh	zero,2(s1)
    8000a022:	bbd1                	j	80009df6 <emdnorm+0x48>
    8000a024:	01249123          	sh	s2,2(s1)
    8000a028:	b3f9                	j	80009df6 <emdnorm+0x48>

000000008000a02a <eiremain>:
    8000a02a:	7139                	addi	sp,sp,-64
    8000a02c:	e852                	sd	s4,16(sp)
    8000a02e:	00255a03          	lhu	s4,2(a0)
    8000a032:	f822                	sd	s0,48(sp)
    8000a034:	842e                	mv	s0,a1
    8000a036:	fc06                	sd	ra,56(sp)
    8000a038:	f426                	sd	s1,40(sp)
    8000a03a:	f04a                	sd	s2,32(sp)
    8000a03c:	e456                	sd	s5,8(sp)
    8000a03e:	e05a                	sd	s6,0(sp)
    8000a040:	8932                	mv	s2,a2
    8000a042:	03460b13          	addi	s6,a2,52
    8000a046:	ec4e                	sd	s3,24(sp)
    8000a048:	8aaa                	mv	s5,a0
    8000a04a:	00000097          	auipc	ra,0x0
    8000a04e:	b6e080e7          	jalr	-1170(ra) # 80009bb8 <enormlz>
    8000a052:	00245483          	lhu	s1,2(s0)
    8000a056:	40aa0a33          	sub	s4,s4,a0
    8000a05a:	8522                	mv	a0,s0
    8000a05c:	00000097          	auipc	ra,0x0
    8000a060:	b5c080e7          	jalr	-1188(ra) # 80009bb8 <enormlz>
    8000a064:	8c89                	sub	s1,s1,a0
    8000a066:	855a                	mv	a0,s6
    8000a068:	fffff097          	auipc	ra,0xfffff
    8000a06c:	656080e7          	jalr	1622(ra) # 800096be <ecleaz>
    8000a070:	0344d563          	ble	s4,s1,8000a09a <eiremain+0x70>
    8000a074:	8522                	mv	a0,s0
    8000a076:	7442                	ld	s0,48(sp)
    8000a078:	70e2                	ld	ra,56(sp)
    8000a07a:	69e2                	ld	s3,24(sp)
    8000a07c:	6a42                	ld	s4,16(sp)
    8000a07e:	6aa2                	ld	s5,8(sp)
    8000a080:	6b02                	ld	s6,0(sp)
    8000a082:	87ca                	mv	a5,s2
    8000a084:	86a6                	mv	a3,s1
    8000a086:	7902                	ld	s2,32(sp)
    8000a088:	74a2                	ld	s1,40(sp)
    8000a08a:	4701                	li	a4,0
    8000a08c:	4601                	li	a2,0
    8000a08e:	4581                	li	a1,0
    8000a090:	6121                	addi	sp,sp,64
    8000a092:	00000317          	auipc	t1,0x0
    8000a096:	d1c30067          	jr	-740(t1) # 80009dae <emdnorm>
    8000a09a:	85a2                	mv	a1,s0
    8000a09c:	8556                	mv	a0,s5
    8000a09e:	fffff097          	auipc	ra,0xfffff
    8000a0a2:	650080e7          	jalr	1616(ra) # 800096ee <ecmpm>
    8000a0a6:	4981                	li	s3,0
    8000a0a8:	00a04963          	bgtz	a0,8000a0ba <eiremain+0x90>
    8000a0ac:	85a2                	mv	a1,s0
    8000a0ae:	8556                	mv	a0,s5
    8000a0b0:	fffff097          	auipc	ra,0xfffff
    8000a0b4:	78e080e7          	jalr	1934(ra) # 8000983e <esubm>
    8000a0b8:	4985                	li	s3,1
    8000a0ba:	855a                	mv	a0,s6
    8000a0bc:	fffff097          	auipc	ra,0xfffff
    8000a0c0:	696080e7          	jalr	1686(ra) # 80009752 <eshup1>
    8000a0c4:	04c95783          	lhu	a5,76(s2)
    8000a0c8:	8522                	mv	a0,s0
    8000a0ca:	14fd                	addi	s1,s1,-1
    8000a0cc:	00f9e9b3          	or	s3,s3,a5
    8000a0d0:	05391623          	sh	s3,76(s2)
    8000a0d4:	fffff097          	auipc	ra,0xfffff
    8000a0d8:	67e080e7          	jalr	1662(ra) # 80009752 <eshup1>
    8000a0dc:	bf51                	j	8000a070 <eiremain+0x46>

000000008000a0de <emul>:
    8000a0de:	7171                	addi	sp,sp,-176
    8000a0e0:	f122                	sd	s0,160(sp)
    8000a0e2:	ed26                	sd	s1,152(sp)
    8000a0e4:	e54e                	sd	s3,136(sp)
    8000a0e6:	e152                	sd	s4,128(sp)
    8000a0e8:	f506                	sd	ra,168(sp)
    8000a0ea:	e94a                	sd	s2,144(sp)
    8000a0ec:	fcd6                	sd	s5,120(sp)
    8000a0ee:	f8da                	sd	s6,112(sp)
    8000a0f0:	f4de                	sd	s7,104(sp)
    8000a0f2:	f0e2                	sd	s8,96(sp)
    8000a0f4:	84aa                	mv	s1,a0
    8000a0f6:	842e                	mv	s0,a1
    8000a0f8:	89b2                	mv	s3,a2
    8000a0fa:	8a36                	mv	s4,a3
    8000a0fc:	fffff097          	auipc	ra,0xfffff
    8000a100:	7de080e7          	jalr	2014(ra) # 800098da <eisnan>
    8000a104:	c11d                	beqz	a0,8000a12a <emul+0x4c>
    8000a106:	85ce                	mv	a1,s3
    8000a108:	8526                	mv	a0,s1
    8000a10a:	fffff097          	auipc	ra,0xfffff
    8000a10e:	598080e7          	jalr	1432(ra) # 800096a2 <emov>
    8000a112:	70aa                	ld	ra,168(sp)
    8000a114:	740a                	ld	s0,160(sp)
    8000a116:	64ea                	ld	s1,152(sp)
    8000a118:	694a                	ld	s2,144(sp)
    8000a11a:	69aa                	ld	s3,136(sp)
    8000a11c:	6a0a                	ld	s4,128(sp)
    8000a11e:	7ae6                	ld	s5,120(sp)
    8000a120:	7b46                	ld	s6,112(sp)
    8000a122:	7ba6                	ld	s7,104(sp)
    8000a124:	7c06                	ld	s8,96(sp)
    8000a126:	614d                	addi	sp,sp,176
    8000a128:	8082                	ret
    8000a12a:	8522                	mv	a0,s0
    8000a12c:	fffff097          	auipc	ra,0xfffff
    8000a130:	7ae080e7          	jalr	1966(ra) # 800098da <eisnan>
    8000a134:	c501                	beqz	a0,8000a13c <emul+0x5e>
    8000a136:	85ce                	mv	a1,s3
    8000a138:	8522                	mv	a0,s0
    8000a13a:	bfc1                	j	8000a10a <emul+0x2c>
    8000a13c:	8526                	mv	a0,s1
    8000a13e:	00000097          	auipc	ra,0x0
    8000a142:	93a080e7          	jalr	-1734(ra) # 80009a78 <eisinf>
    8000a146:	e13d                	bnez	a0,8000a1ac <emul+0xce>
    8000a148:	8522                	mv	a0,s0
    8000a14a:	00000097          	auipc	ra,0x0
    8000a14e:	92e080e7          	jalr	-1746(ra) # 80009a78 <eisinf>
    8000a152:	c919                	beqz	a0,8000a168 <emul+0x8a>
    8000a154:	00004597          	auipc	a1,0x4
    8000a158:	53c58593          	addi	a1,a1,1340 # 8000e690 <ezero>
    8000a15c:	8526                	mv	a0,s1
    8000a15e:	00000097          	auipc	ra,0x0
    8000a162:	866080e7          	jalr	-1946(ra) # 800099c4 <ecmp>
    8000a166:	cd29                	beqz	a0,8000a1c0 <emul+0xe2>
    8000a168:	8526                	mv	a0,s1
    8000a16a:	00000097          	auipc	ra,0x0
    8000a16e:	90e080e7          	jalr	-1778(ra) # 80009a78 <eisinf>
    8000a172:	e519                	bnez	a0,8000a180 <emul+0xa2>
    8000a174:	8522                	mv	a0,s0
    8000a176:	00000097          	auipc	ra,0x0
    8000a17a:	902080e7          	jalr	-1790(ra) # 80009a78 <eisinf>
    8000a17e:	c931                	beqz	a0,8000a1d2 <emul+0xf4>
    8000a180:	8526                	mv	a0,s1
    8000a182:	fffff097          	auipc	ra,0xfffff
    8000a186:	77e080e7          	jalr	1918(ra) # 80009900 <eisneg>
    8000a18a:	84aa                	mv	s1,a0
    8000a18c:	8522                	mv	a0,s0
    8000a18e:	fffff097          	auipc	ra,0xfffff
    8000a192:	772080e7          	jalr	1906(ra) # 80009900 <eisneg>
    8000a196:	02a48b63          	beq	s1,a0,8000a1cc <emul+0xee>
    8000a19a:	77e1                	lui	a5,0xffff8
    8000a19c:	00f99923          	sh	a5,18(s3)
    8000a1a0:	854e                	mv	a0,s3
    8000a1a2:	00000097          	auipc	ra,0x0
    8000a1a6:	8fe080e7          	jalr	-1794(ra) # 80009aa0 <einfin.isra.2>
    8000a1aa:	b7a5                	j	8000a112 <emul+0x34>
    8000a1ac:	00004597          	auipc	a1,0x4
    8000a1b0:	4e458593          	addi	a1,a1,1252 # 8000e690 <ezero>
    8000a1b4:	8522                	mv	a0,s0
    8000a1b6:	00000097          	auipc	ra,0x0
    8000a1ba:	80e080e7          	jalr	-2034(ra) # 800099c4 <ecmp>
    8000a1be:	f549                	bnez	a0,8000a148 <emul+0x6a>
    8000a1c0:	854e                	mv	a0,s3
    8000a1c2:	00000097          	auipc	ra,0x0
    8000a1c6:	aa0080e7          	jalr	-1376(ra) # 80009c62 <enan.constprop.12>
    8000a1ca:	b7a1                	j	8000a112 <emul+0x34>
    8000a1cc:	00099923          	sh	zero,18(s3)
    8000a1d0:	bfc1                	j	8000a1a0 <emul+0xc2>
    8000a1d2:	8526                	mv	a0,s1
    8000a1d4:	858a                	mv	a1,sp
    8000a1d6:	fffff097          	auipc	ra,0xfffff
    8000a1da:	750080e7          	jalr	1872(ra) # 80009926 <emovi>
    8000a1de:	8522                	mv	a0,s0
    8000a1e0:	100c                	addi	a1,sp,32
    8000a1e2:	fffff097          	auipc	ra,0xfffff
    8000a1e6:	744080e7          	jalr	1860(ra) # 80009926 <emovi>
    8000a1ea:	00215403          	lhu	s0,2(sp)
    8000a1ee:	02215483          	lhu	s1,34(sp)
    8000a1f2:	c469                	beqz	s0,8000a2bc <emul+0x1de>
    8000a1f4:	02215783          	lhu	a5,34(sp)
    8000a1f8:	8b26                	mv	s6,s1
    8000a1fa:	cbf9                	beqz	a5,8000a2d0 <emul+0x1f2>
    8000a1fc:	5782                	lw	a5,32(sp)
    8000a1fe:	034a0913          	addi	s2,s4,52
    8000a202:	04ea0b93          	addi	s7,s4,78
    8000a206:	02fa2a23          	sw	a5,52(s4)
    8000a20a:	038a0793          	addi	a5,s4,56
    8000a20e:	00079023          	sh	zero,0(a5) # ffffffffffff8000 <_buffer_start+0xffffffff7ffb07c0>
    8000a212:	0789                	addi	a5,a5,2
    8000a214:	ff779de3          	bne	a5,s7,8000a20e <emul+0x130>
    8000a218:	848a                	mv	s1,sp
    8000a21a:	fec10c13          	addi	s8,sp,-20
    8000a21e:	4a81                	li	s5,0
    8000a220:	0184d503          	lhu	a0,24(s1)
    8000a224:	cd09                	beqz	a0,8000a23e <emul+0x160>
    8000a226:	100c                	addi	a1,sp,32
    8000a228:	0090                	addi	a2,sp,64
    8000a22a:	fffff097          	auipc	ra,0xfffff
    8000a22e:	63c080e7          	jalr	1596(ra) # 80009866 <m16m>
    8000a232:	85ca                	mv	a1,s2
    8000a234:	0088                	addi	a0,sp,64
    8000a236:	fffff097          	auipc	ra,0xfffff
    8000a23a:	5e0080e7          	jalr	1504(ra) # 80009816 <eaddm>
    8000a23e:	04ca5783          	lhu	a5,76(s4)
    8000a242:	854a                	mv	a0,s2
    8000a244:	14f9                	addi	s1,s1,-2
    8000a246:	00faeab3          	or	s5,s5,a5
    8000a24a:	fffff097          	auipc	ra,0xfffff
    8000a24e:	5b0080e7          	jalr	1456(ra) # 800097fa <eshdn6>
    8000a252:	fc9c17e3          	bne	s8,s1,8000a220 <emul+0x142>
    8000a256:	85ca                	mv	a1,s2
    8000a258:	101c                	addi	a5,sp,32
    8000a25a:	0005d703          	lhu	a4,0(a1)
    8000a25e:	0589                	addi	a1,a1,2
    8000a260:	0789                	addi	a5,a5,2
    8000a262:	fee79f23          	sh	a4,-2(a5)
    8000a266:	ff759ae3          	bne	a1,s7,8000a25a <emul+0x17c>
    8000a26a:	76f1                	lui	a3,0xffffc
    8000a26c:	945a                	add	s0,s0,s6
    8000a26e:	0689                	addi	a3,a3,2
    8000a270:	87d2                	mv	a5,s4
    8000a272:	04000713          	li	a4,64
    8000a276:	96a2                	add	a3,a3,s0
    8000a278:	4601                	li	a2,0
    8000a27a:	85d6                	mv	a1,s5
    8000a27c:	1008                	addi	a0,sp,32
    8000a27e:	00000097          	auipc	ra,0x0
    8000a282:	b30080e7          	jalr	-1232(ra) # 80009dae <emdnorm>
    8000a286:	00015703          	lhu	a4,0(sp)
    8000a28a:	02015783          	lhu	a5,32(sp)
    8000a28e:	06f71163          	bne	a4,a5,8000a2f0 <emul+0x212>
    8000a292:	02011023          	sh	zero,32(sp)
    8000a296:	85ce                	mv	a1,s3
    8000a298:	1008                	addi	a0,sp,32
    8000a29a:	00000097          	auipc	ra,0x0
    8000a29e:	9e0080e7          	jalr	-1568(ra) # 80009c7a <emovo.isra.6>
    8000a2a2:	bd85                	j	8000a112 <emul+0x34>
    8000a2a4:	0789                	addi	a5,a5,2
    8000a2a6:	0027d683          	lhu	a3,2(a5)
    8000a2aa:	ca99                	beqz	a3,8000a2c0 <emul+0x1e2>
    8000a2ac:	850a                	mv	a0,sp
    8000a2ae:	00000097          	auipc	ra,0x0
    8000a2b2:	90a080e7          	jalr	-1782(ra) # 80009bb8 <enormlz>
    8000a2b6:	40a00433          	neg	s0,a0
    8000a2ba:	bf2d                	j	8000a1f4 <emul+0x116>
    8000a2bc:	878a                	mv	a5,sp
    8000a2be:	0858                	addi	a4,sp,20
    8000a2c0:	fee792e3          	bne	a5,a4,8000a2a4 <emul+0x1c6>
    8000a2c4:	854e                	mv	a0,s3
    8000a2c6:	fffff097          	auipc	ra,0xfffff
    8000a2ca:	3cc080e7          	jalr	972(ra) # 80009692 <eclear>
    8000a2ce:	b591                	j	8000a112 <emul+0x34>
    8000a2d0:	101c                	addi	a5,sp,32
    8000a2d2:	1858                	addi	a4,sp,52
    8000a2d4:	fee788e3          	beq	a5,a4,8000a2c4 <emul+0x1e6>
    8000a2d8:	0789                	addi	a5,a5,2
    8000a2da:	0027d683          	lhu	a3,2(a5)
    8000a2de:	dafd                	beqz	a3,8000a2d4 <emul+0x1f6>
    8000a2e0:	1008                	addi	a0,sp,32
    8000a2e2:	00000097          	auipc	ra,0x0
    8000a2e6:	8d6080e7          	jalr	-1834(ra) # 80009bb8 <enormlz>
    8000a2ea:	40a48b33          	sub	s6,s1,a0
    8000a2ee:	b739                	j	8000a1fc <emul+0x11e>
    8000a2f0:	57fd                	li	a5,-1
    8000a2f2:	02f11023          	sh	a5,32(sp)
    8000a2f6:	b745                	j	8000a296 <emul+0x1b8>

000000008000a2f8 <ediv>:
    8000a2f8:	7131                	addi	sp,sp,-192
    8000a2fa:	f922                	sd	s0,176(sp)
    8000a2fc:	f526                	sd	s1,168(sp)
    8000a2fe:	f14a                	sd	s2,160(sp)
    8000a300:	e556                	sd	s5,136(sp)
    8000a302:	fd06                	sd	ra,184(sp)
    8000a304:	ed4e                	sd	s3,152(sp)
    8000a306:	e952                	sd	s4,144(sp)
    8000a308:	e15a                	sd	s6,128(sp)
    8000a30a:	fcde                	sd	s7,120(sp)
    8000a30c:	f8e2                	sd	s8,112(sp)
    8000a30e:	f4e6                	sd	s9,104(sp)
    8000a310:	84aa                	mv	s1,a0
    8000a312:	842e                	mv	s0,a1
    8000a314:	8932                	mv	s2,a2
    8000a316:	8ab6                	mv	s5,a3
    8000a318:	fffff097          	auipc	ra,0xfffff
    8000a31c:	5c2080e7          	jalr	1474(ra) # 800098da <eisnan>
    8000a320:	c505                	beqz	a0,8000a348 <ediv+0x50>
    8000a322:	85ca                	mv	a1,s2
    8000a324:	8526                	mv	a0,s1
    8000a326:	fffff097          	auipc	ra,0xfffff
    8000a32a:	37c080e7          	jalr	892(ra) # 800096a2 <emov>
    8000a32e:	70ea                	ld	ra,184(sp)
    8000a330:	744a                	ld	s0,176(sp)
    8000a332:	74aa                	ld	s1,168(sp)
    8000a334:	790a                	ld	s2,160(sp)
    8000a336:	69ea                	ld	s3,152(sp)
    8000a338:	6a4a                	ld	s4,144(sp)
    8000a33a:	6aaa                	ld	s5,136(sp)
    8000a33c:	6b0a                	ld	s6,128(sp)
    8000a33e:	7be6                	ld	s7,120(sp)
    8000a340:	7c46                	ld	s8,112(sp)
    8000a342:	7ca6                	ld	s9,104(sp)
    8000a344:	6129                	addi	sp,sp,192
    8000a346:	8082                	ret
    8000a348:	8522                	mv	a0,s0
    8000a34a:	fffff097          	auipc	ra,0xfffff
    8000a34e:	590080e7          	jalr	1424(ra) # 800098da <eisnan>
    8000a352:	c501                	beqz	a0,8000a35a <ediv+0x62>
    8000a354:	85ca                	mv	a1,s2
    8000a356:	8522                	mv	a0,s0
    8000a358:	b7f9                	j	8000a326 <ediv+0x2e>
    8000a35a:	00004597          	auipc	a1,0x4
    8000a35e:	33658593          	addi	a1,a1,822 # 8000e690 <ezero>
    8000a362:	8526                	mv	a0,s1
    8000a364:	fffff097          	auipc	ra,0xfffff
    8000a368:	660080e7          	jalr	1632(ra) # 800099c4 <ecmp>
    8000a36c:	c529                	beqz	a0,8000a3b6 <ediv+0xbe>
    8000a36e:	8526                	mv	a0,s1
    8000a370:	fffff097          	auipc	ra,0xfffff
    8000a374:	708080e7          	jalr	1800(ra) # 80009a78 <eisinf>
    8000a378:	89aa                	mv	s3,a0
    8000a37a:	8522                	mv	a0,s0
    8000a37c:	fffff097          	auipc	ra,0xfffff
    8000a380:	6fc080e7          	jalr	1788(ra) # 80009a78 <eisinf>
    8000a384:	04099963          	bnez	s3,8000a3d6 <ediv+0xde>
    8000a388:	cd31                	beqz	a0,8000a3e4 <ediv+0xec>
    8000a38a:	8526                	mv	a0,s1
    8000a38c:	fffff097          	auipc	ra,0xfffff
    8000a390:	574080e7          	jalr	1396(ra) # 80009900 <eisneg>
    8000a394:	84aa                	mv	s1,a0
    8000a396:	8522                	mv	a0,s0
    8000a398:	fffff097          	auipc	ra,0xfffff
    8000a39c:	568080e7          	jalr	1384(ra) # 80009900 <eisneg>
    8000a3a0:	1ca48963          	beq	s1,a0,8000a572 <ediv+0x27a>
    8000a3a4:	77e1                	lui	a5,0xffff8
    8000a3a6:	00f91923          	sh	a5,18(s2)
    8000a3aa:	854a                	mv	a0,s2
    8000a3ac:	fffff097          	auipc	ra,0xfffff
    8000a3b0:	6f4080e7          	jalr	1780(ra) # 80009aa0 <einfin.isra.2>
    8000a3b4:	bfad                	j	8000a32e <ediv+0x36>
    8000a3b6:	00004597          	auipc	a1,0x4
    8000a3ba:	2da58593          	addi	a1,a1,730 # 8000e690 <ezero>
    8000a3be:	8522                	mv	a0,s0
    8000a3c0:	fffff097          	auipc	ra,0xfffff
    8000a3c4:	604080e7          	jalr	1540(ra) # 800099c4 <ecmp>
    8000a3c8:	f15d                	bnez	a0,8000a36e <ediv+0x76>
    8000a3ca:	854a                	mv	a0,s2
    8000a3cc:	00000097          	auipc	ra,0x0
    8000a3d0:	896080e7          	jalr	-1898(ra) # 80009c62 <enan.constprop.12>
    8000a3d4:	bfa9                	j	8000a32e <ediv+0x36>
    8000a3d6:	f975                	bnez	a0,8000a3ca <ediv+0xd2>
    8000a3d8:	854a                	mv	a0,s2
    8000a3da:	fffff097          	auipc	ra,0xfffff
    8000a3de:	2b8080e7          	jalr	696(ra) # 80009692 <eclear>
    8000a3e2:	b7b1                	j	8000a32e <ediv+0x36>
    8000a3e4:	8526                	mv	a0,s1
    8000a3e6:	858a                	mv	a1,sp
    8000a3e8:	fffff097          	auipc	ra,0xfffff
    8000a3ec:	53e080e7          	jalr	1342(ra) # 80009926 <emovi>
    8000a3f0:	8522                	mv	a0,s0
    8000a3f2:	100c                	addi	a1,sp,32
    8000a3f4:	fffff097          	auipc	ra,0xfffff
    8000a3f8:	532080e7          	jalr	1330(ra) # 80009926 <emovi>
    8000a3fc:	02215483          	lhu	s1,34(sp)
    8000a400:	00215403          	lhu	s0,2(sp)
    8000a404:	12048163          	beqz	s1,8000a526 <ediv+0x22e>
    8000a408:	00215783          	lhu	a5,2(sp)
    8000a40c:	8ba2                	mv	s7,s0
    8000a40e:	14078863          	beqz	a5,8000a55e <ediv+0x266>
    8000a412:	5702                	lw	a4,32(sp)
    8000a414:	038a8793          	addi	a5,s5,56
    8000a418:	04ea8b13          	addi	s6,s5,78
    8000a41c:	02eaaa23          	sw	a4,52(s5)
    8000a420:	89be                	mv	s3,a5
    8000a422:	0789                	addi	a5,a5,2
    8000a424:	fe079f23          	sh	zero,-2(a5) # ffffffffffff7ffe <_buffer_start+0xffffffff7ffb07be>
    8000a428:	ff679de3          	bne	a5,s6,8000a422 <ediv+0x12a>
    8000a42c:	1008                	addi	a0,sp,32
    8000a42e:	fffff097          	auipc	ra,0xfffff
    8000a432:	2ec080e7          	jalr	748(ra) # 8000971a <eshdn1>
    8000a436:	00615c03          	lhu	s8,6(sp)
    8000a43a:	6a41                	lui	s4,0x10
    8000a43c:	1a7d                	addi	s4,s4,-1
    8000a43e:	034c0cb3          	mul	s9,s8,s4
    8000a442:	02415783          	lhu	a5,36(sp)
    8000a446:	02615403          	lhu	s0,38(sp)
    8000a44a:	07c2                	slli	a5,a5,0x10
    8000a44c:	97a2                	add	a5,a5,s0
    8000a44e:	8452                	mv	s0,s4
    8000a450:	00fce663          	bltu	s9,a5,8000a45c <ediv+0x164>
    8000a454:	0387d433          	divu	s0,a5,s8
    8000a458:	1442                	slli	s0,s0,0x30
    8000a45a:	9041                	srli	s0,s0,0x30
    8000a45c:	858a                	mv	a1,sp
    8000a45e:	8522                	mv	a0,s0
    8000a460:	0090                	addi	a2,sp,64
    8000a462:	fffff097          	auipc	ra,0xfffff
    8000a466:	404080e7          	jalr	1028(ra) # 80009866 <m16m>
    8000a46a:	100c                	addi	a1,sp,32
    8000a46c:	0088                	addi	a0,sp,64
    8000a46e:	fffff097          	auipc	ra,0xfffff
    8000a472:	280080e7          	jalr	640(ra) # 800096ee <ecmpm>
    8000a476:	02a05363          	blez	a0,8000a49c <ediv+0x1a4>
    8000a47a:	008c                	addi	a1,sp,64
    8000a47c:	850a                	mv	a0,sp
    8000a47e:	fffff097          	auipc	ra,0xfffff
    8000a482:	3c0080e7          	jalr	960(ra) # 8000983e <esubm>
    8000a486:	100c                	addi	a1,sp,32
    8000a488:	0088                	addi	a0,sp,64
    8000a48a:	fffff097          	auipc	ra,0xfffff
    8000a48e:	264080e7          	jalr	612(ra) # 800096ee <ecmpm>
    8000a492:	0ea04363          	bgtz	a0,8000a578 <ediv+0x280>
    8000a496:	347d                	addiw	s0,s0,-1
    8000a498:	1442                	slli	s0,s0,0x30
    8000a49a:	9041                	srli	s0,s0,0x30
    8000a49c:	100c                	addi	a1,sp,32
    8000a49e:	0088                	addi	a0,sp,64
    8000a4a0:	fffff097          	auipc	ra,0xfffff
    8000a4a4:	39e080e7          	jalr	926(ra) # 8000983e <esubm>
    8000a4a8:	1008                	addi	a0,sp,32
    8000a4aa:	00899023          	sh	s0,0(s3)
    8000a4ae:	0989                	addi	s3,s3,2
    8000a4b0:	fffff097          	auipc	ra,0xfffff
    8000a4b4:	32e080e7          	jalr	814(ra) # 800097de <eshup6>
    8000a4b8:	f93b15e3          	bne	s6,s3,8000a442 <ediv+0x14a>
    8000a4bc:	1018                	addi	a4,sp,32
    8000a4be:	03610693          	addi	a3,sp,54
    8000a4c2:	87ba                	mv	a5,a4
    8000a4c4:	4581                	li	a1,0
    8000a4c6:	0047d603          	lhu	a2,4(a5)
    8000a4ca:	0789                	addi	a5,a5,2
    8000a4cc:	8dd1                	or	a1,a1,a2
    8000a4ce:	fef69ce3          	bne	a3,a5,8000a4c6 <ediv+0x1ce>
    8000a4d2:	2581                	sext.w	a1,a1
    8000a4d4:	00b035b3          	snez	a1,a1
    8000a4d8:	034a8793          	addi	a5,s5,52
    8000a4dc:	0007d683          	lhu	a3,0(a5)
    8000a4e0:	0789                	addi	a5,a5,2
    8000a4e2:	0709                	addi	a4,a4,2
    8000a4e4:	fed71f23          	sh	a3,-2(a4) # 7ffffe <_stack_size+0x7f7ffe>
    8000a4e8:	fefb1ae3          	bne	s6,a5,8000a4dc <ediv+0x1e4>
    8000a4ec:	6691                	lui	a3,0x4
    8000a4ee:	417484b3          	sub	s1,s1,s7
    8000a4f2:	16fd                	addi	a3,a3,-1
    8000a4f4:	87d6                	mv	a5,s5
    8000a4f6:	04000713          	li	a4,64
    8000a4fa:	96a6                	add	a3,a3,s1
    8000a4fc:	4601                	li	a2,0
    8000a4fe:	1008                	addi	a0,sp,32
    8000a500:	00000097          	auipc	ra,0x0
    8000a504:	8ae080e7          	jalr	-1874(ra) # 80009dae <emdnorm>
    8000a508:	00015703          	lhu	a4,0(sp)
    8000a50c:	02015783          	lhu	a5,32(sp)
    8000a510:	06f71e63          	bne	a4,a5,8000a58c <ediv+0x294>
    8000a514:	02011023          	sh	zero,32(sp)
    8000a518:	85ca                	mv	a1,s2
    8000a51a:	1008                	addi	a0,sp,32
    8000a51c:	fffff097          	auipc	ra,0xfffff
    8000a520:	75e080e7          	jalr	1886(ra) # 80009c7a <emovo.isra.6>
    8000a524:	b529                	j	8000a32e <ediv+0x36>
    8000a526:	101c                	addi	a5,sp,32
    8000a528:	1858                	addi	a4,sp,52
    8000a52a:	eae787e3          	beq	a5,a4,8000a3d8 <ediv+0xe0>
    8000a52e:	0789                	addi	a5,a5,2
    8000a530:	0027d683          	lhu	a3,2(a5)
    8000a534:	dafd                	beqz	a3,8000a52a <ediv+0x232>
    8000a536:	1008                	addi	a0,sp,32
    8000a538:	fffff097          	auipc	ra,0xfffff
    8000a53c:	680080e7          	jalr	1664(ra) # 80009bb8 <enormlz>
    8000a540:	40a004b3          	neg	s1,a0
    8000a544:	b5d1                	j	8000a408 <ediv+0x110>
    8000a546:	0789                	addi	a5,a5,2
    8000a548:	0027d683          	lhu	a3,2(a5)
    8000a54c:	ca99                	beqz	a3,8000a562 <ediv+0x26a>
    8000a54e:	850a                	mv	a0,sp
    8000a550:	fffff097          	auipc	ra,0xfffff
    8000a554:	668080e7          	jalr	1640(ra) # 80009bb8 <enormlz>
    8000a558:	40a40bb3          	sub	s7,s0,a0
    8000a55c:	bd5d                	j	8000a412 <ediv+0x11a>
    8000a55e:	878a                	mv	a5,sp
    8000a560:	0858                	addi	a4,sp,20
    8000a562:	fee792e3          	bne	a5,a4,8000a546 <ediv+0x24e>
    8000a566:	00015703          	lhu	a4,0(sp)
    8000a56a:	02015783          	lhu	a5,32(sp)
    8000a56e:	e2f71be3          	bne	a4,a5,8000a3a4 <ediv+0xac>
    8000a572:	00091923          	sh	zero,18(s2)
    8000a576:	bd15                	j	8000a3aa <ediv+0xb2>
    8000a578:	3479                	addiw	s0,s0,-2
    8000a57a:	1442                	slli	s0,s0,0x30
    8000a57c:	008c                	addi	a1,sp,64
    8000a57e:	850a                	mv	a0,sp
    8000a580:	9041                	srli	s0,s0,0x30
    8000a582:	fffff097          	auipc	ra,0xfffff
    8000a586:	2bc080e7          	jalr	700(ra) # 8000983e <esubm>
    8000a58a:	bf09                	j	8000a49c <ediv+0x1a4>
    8000a58c:	57fd                	li	a5,-1
    8000a58e:	02f11023          	sh	a5,32(sp)
    8000a592:	b759                	j	8000a518 <ediv+0x220>

000000008000a594 <_ldtoa_r>:
    8000a594:	dd010113          	addi	sp,sp,-560
    8000a598:	f7de                	sd	s7,488(sp)
    8000a59a:	8bbe                	mv	s7,a5
    8000a59c:	09100793          	li	a5,145
    8000a5a0:	f02e                	sd	a1,32(sp)
    8000a5a2:	1782                	slli	a5,a5,0x20
    8000a5a4:	712c                	ld	a1,96(a0)
    8000a5a6:	17fd                	addi	a5,a5,-1
    8000a5a8:	22813023          	sd	s0,544(sp)
    8000a5ac:	21213823          	sd	s2,528(sp)
    8000a5b0:	ffd6                	sd	s5,504(sp)
    8000a5b2:	fbda                	sd	s6,496(sp)
    8000a5b4:	22113423          	sd	ra,552(sp)
    8000a5b8:	20913c23          	sd	s1,536(sp)
    8000a5bc:	21313423          	sd	s3,520(sp)
    8000a5c0:	21413023          	sd	s4,512(sp)
    8000a5c4:	f3e2                	sd	s8,480(sp)
    8000a5c6:	efe6                	sd	s9,472(sp)
    8000a5c8:	ebea                	sd	s10,464(sp)
    8000a5ca:	e7ee                	sd	s11,456(sp)
    8000a5cc:	e046                	sd	a7,0(sp)
    8000a5ce:	f432                	sd	a2,40(sp)
    8000a5d0:	fabe                	sd	a5,368(sp)
    8000a5d2:	892a                	mv	s2,a0
    8000a5d4:	8ab6                	mv	s5,a3
    8000a5d6:	8b3a                	mv	s6,a4
    8000a5d8:	8442                	mv	s0,a6
    8000a5da:	cd89                	beqz	a1,8000a5f4 <_ldtoa_r+0x60>
    8000a5dc:	5538                	lw	a4,104(a0)
    8000a5de:	4785                	li	a5,1
    8000a5e0:	00e797bb          	sllw	a5,a5,a4
    8000a5e4:	c598                	sw	a4,8(a1)
    8000a5e6:	c5dc                	sw	a5,12(a1)
    8000a5e8:	00001097          	auipc	ra,0x1
    8000a5ec:	b28080e7          	jalr	-1240(ra) # 8000b110 <_Bfree>
    8000a5f0:	06093023          	sd	zero,96(s2)
    8000a5f4:	1008                	addi	a0,sp,32
    8000a5f6:	088c                	addi	a1,sp,80
    8000a5f8:	fffff097          	auipc	ra,0xfffff
    8000a5fc:	6dc080e7          	jalr	1756(ra) # 80009cd4 <e113toe.isra.8>
    8000a600:	0888                	addi	a0,sp,80
    8000a602:	fffff097          	auipc	ra,0xfffff
    8000a606:	2fe080e7          	jalr	766(ra) # 80009900 <eisneg>
    8000a60a:	16050e63          	beqz	a0,8000a786 <_ldtoa_r+0x1f2>
    8000a60e:	4785                	li	a5,1
    8000a610:	c01c                	sw	a5,0(s0)
    8000a612:	478d                	li	a5,3
    8000a614:	16fa8c63          	beq	s5,a5,8000a78c <_ldtoa_r+0x1f8>
    8000a618:	44d1                	li	s1,20
    8000a61a:	000a8c63          	beqz	s5,8000a632 <_ldtoa_r+0x9e>
    8000a61e:	fffb079b          	addiw	a5,s6,-1
    8000a622:	02a00713          	li	a4,42
    8000a626:	0007849b          	sext.w	s1,a5
    8000a62a:	00f75463          	ble	a5,a4,8000a632 <_ldtoa_r+0x9e>
    8000a62e:	02a00493          	li	s1,42
    8000a632:	17412783          	lw	a5,372(sp)
    8000a636:	0888                	addi	a0,sp,80
    8000a638:	e43e                	sd	a5,8(sp)
    8000a63a:	fffff097          	auipc	ra,0xfffff
    8000a63e:	2a0080e7          	jalr	672(ra) # 800098da <eisnan>
    8000a642:	842a                	mv	s0,a0
    8000a644:	00004597          	auipc	a1,0x4
    8000a648:	dc458593          	addi	a1,a1,-572 # 8000e408 <zeroes.4812+0x10>
    8000a64c:	12051be3          	bnez	a0,8000af82 <_ldtoa_r+0x9ee>
    8000a650:	09000793          	li	a5,144
    8000a654:	188c                	addi	a1,sp,112
    8000a656:	0888                	addi	a0,sp,80
    8000a658:	16f12a23          	sw	a5,372(sp)
    8000a65c:	fffff097          	auipc	ra,0xfffff
    8000a660:	046080e7          	jalr	70(ra) # 800096a2 <emov>
    8000a664:	08215783          	lhu	a5,130(sp)
    8000a668:	4a01                	li	s4,0
    8000a66a:	0107971b          	slliw	a4,a5,0x10
    8000a66e:	4107571b          	sraiw	a4,a4,0x10
    8000a672:	02071693          	slli	a3,a4,0x20
    8000a676:	0006d963          	bgez	a3,8000a688 <_ldtoa_r+0xf4>
    8000a67a:	6721                	lui	a4,0x8
    8000a67c:	177d                	addi	a4,a4,-1
    8000a67e:	8ff9                	and	a5,a5,a4
    8000a680:	6a41                	lui	s4,0x10
    8000a682:	08f11123          	sh	a5,130(sp)
    8000a686:	1a7d                	addi	s4,s4,-1
    8000a688:	090c                	addi	a1,sp,144
    8000a68a:	00004517          	auipc	a0,0x4
    8000a68e:	ee650513          	addi	a0,a0,-282 # 8000e570 <eone>
    8000a692:	fffff097          	auipc	ra,0xfffff
    8000a696:	010080e7          	jalr	16(ra) # 800096a2 <emov>
    8000a69a:	08215703          	lhu	a4,130(sp)
    8000a69e:	0c0714e3          	bnez	a4,8000af66 <_ldtoa_r+0x9d2>
    8000a6a2:	189c                	addi	a5,sp,112
    8000a6a4:	08210713          	addi	a4,sp,130
    8000a6a8:	0007d683          	lhu	a3,0(a5)
    8000a6ac:	eaf5                	bnez	a3,8000a7a0 <_ldtoa_r+0x20c>
    8000a6ae:	0789                	addi	a5,a5,2
    8000a6b0:	fef71ce3          	bne	a4,a5,8000a6a8 <_ldtoa_r+0x114>
    8000a6b4:	098c                	addi	a1,sp,208
    8000a6b6:	0908                	addi	a0,sp,144
    8000a6b8:	fffff097          	auipc	ra,0xfffff
    8000a6bc:	26e080e7          	jalr	622(ra) # 80009926 <emovi>
    8000a6c0:	090c                	addi	a1,sp,144
    8000a6c2:	0988                	addi	a0,sp,208
    8000a6c4:	fffff097          	auipc	ra,0xfffff
    8000a6c8:	00a080e7          	jalr	10(ra) # 800096ce <emovz>
    8000a6cc:	098c                	addi	a1,sp,208
    8000a6ce:	1888                	addi	a0,sp,112
    8000a6d0:	fffff097          	auipc	ra,0xfffff
    8000a6d4:	256080e7          	jalr	598(ra) # 80009926 <emovi>
    8000a6d8:	188c                	addi	a1,sp,112
    8000a6da:	0988                	addi	a0,sp,208
    8000a6dc:	fffff097          	auipc	ra,0xfffff
    8000a6e0:	ff2080e7          	jalr	-14(ra) # 800096ce <emovz>
    8000a6e4:	1a90                	addi	a2,sp,368
    8000a6e6:	188c                	addi	a1,sp,112
    8000a6e8:	0908                	addi	a0,sp,144
    8000a6ea:	00000097          	auipc	ra,0x0
    8000a6ee:	940080e7          	jalr	-1728(ra) # 8000a02a <eiremain>
    8000a6f2:	1bc15983          	lhu	s3,444(sp)
    8000a6f6:	00004c17          	auipc	s8,0x4
    8000a6fa:	f9ac0c13          	addi	s8,s8,-102 # 8000e690 <ezero>
    8000a6fe:	00099a63          	bnez	s3,8000a712 <_ldtoa_r+0x17e>
    8000a702:	85e2                	mv	a1,s8
    8000a704:	1888                	addi	a0,sp,112
    8000a706:	fffff097          	auipc	ra,0xfffff
    8000a70a:	2be080e7          	jalr	702(ra) # 800099c4 <ecmp>
    8000a70e:	5e051763          	bnez	a0,8000acfc <_ldtoa_r+0x768>
    8000a712:	02d00793          	li	a5,45
    8000a716:	000a1463          	bnez	s4,8000a71e <_ldtoa_r+0x18a>
    8000a71a:	02000793          	li	a5,32
    8000a71e:	12f10823          	sb	a5,304(sp)
    8000a722:	478d                	li	a5,3
    8000a724:	8a26                	mv	s4,s1
    8000a726:	00fa9b63          	bne	s5,a5,8000a73c <_ldtoa_r+0x1a8>
    8000a72a:	0084873b          	addw	a4,s1,s0
    8000a72e:	02a00793          	li	a5,42
    8000a732:	8a3a                	mv	s4,a4
    8000a734:	00e7d463          	ble	a4,a5,8000a73c <_ldtoa_r+0x1a8>
    8000a738:	02a00a13          	li	s4,42
    8000a73c:	47a9                	li	a5,10
    8000a73e:	60f99563          	bne	s3,a5,8000ad48 <_ldtoa_r+0x7b4>
    8000a742:	03100793          	li	a5,49
    8000a746:	12f108a3          	sb	a5,305(sp)
    8000a74a:	02e00793          	li	a5,46
    8000a74e:	12f10923          	sb	a5,306(sp)
    8000a752:	13310c13          	addi	s8,sp,307
    8000a756:	01405963          	blez	s4,8000a768 <_ldtoa_r+0x1d4>
    8000a75a:	03000793          	li	a5,48
    8000a75e:	12f109a3          	sb	a5,307(sp)
    8000a762:	3a7d                	addiw	s4,s4,-1
    8000a764:	13410c13          	addi	s8,sp,308
    8000a768:	2405                	addiw	s0,s0,1
    8000a76a:	5e0a5963          	bgez	s4,8000ad5c <_ldtoa_r+0x7c8>
    8000a76e:	8622                	mv	a2,s0
    8000a770:	00004597          	auipc	a1,0x4
    8000a774:	cc858593          	addi	a1,a1,-824 # 8000e438 <zeroes.4812+0x40>
    8000a778:	8562                	mv	a0,s8
    8000a77a:	00001097          	auipc	ra,0x1
    8000a77e:	a36080e7          	jalr	-1482(ra) # 8000b1b0 <sprintf>
    8000a782:	0110006f          	j	8000af92 <_ldtoa_r+0x9fe>
    8000a786:	00042023          	sw	zero,0(s0)
    8000a78a:	b561                	j	8000a612 <_ldtoa_r+0x7e>
    8000a78c:	87da                	mv	a5,s6
    8000a78e:	bd51                	j	8000a622 <_ldtoa_r+0x8e>
    8000a790:	08011783          	lh	a5,128(sp)
    8000a794:	00004597          	auipc	a1,0x4
    8000a798:	c9c58593          	addi	a1,a1,-868 # 8000e430 <zeroes.4812+0x38>
    8000a79c:	7e07d363          	bgez	a5,8000af82 <_ldtoa_r+0x9ee>
    8000a7a0:	188c                	addi	a1,sp,112
    8000a7a2:	00004517          	auipc	a0,0x4
    8000a7a6:	dce50513          	addi	a0,a0,-562 # 8000e570 <eone>
    8000a7aa:	fffff097          	auipc	ra,0xfffff
    8000a7ae:	21a080e7          	jalr	538(ra) # 800099c4 <ecmp>
    8000a7b2:	d109                	beqz	a0,8000a6b4 <_ldtoa_r+0x120>
    8000a7b4:	3c055c63          	bgez	a0,8000ab8c <_ldtoa_r+0x5f8>
    8000a7b8:	190c                	addi	a1,sp,176
    8000a7ba:	1888                	addi	a0,sp,112
    8000a7bc:	fffff097          	auipc	ra,0xfffff
    8000a7c0:	ee6080e7          	jalr	-282(ra) # 800096a2 <emov>
    8000a7c4:	6791                	lui	a5,0x4
    8000a7c6:	08e7879b          	addiw	a5,a5,142
    8000a7ca:	0cf11123          	sh	a5,194(sp)
    8000a7ce:	67a1                	lui	a5,0x8
    8000a7d0:	17fd                	addi	a5,a5,-1
    8000a7d2:	e83e                	sd	a5,16(sp)
    8000a7d4:	77f1                	lui	a5,0xffffc
    8000a7d6:	2789                	addiw	a5,a5,2
    8000a7d8:	4d41                	li	s10,16
    8000a7da:	00004c17          	auipc	s8,0x4
    8000a7de:	e4ec0c13          	addi	s8,s8,-434 # 8000e628 <etens+0xa0>
    8000a7e2:	ce3e                	sw	a5,28(sp)
    8000a7e4:	1a94                	addi	a3,sp,368
    8000a7e6:	0910                	addi	a2,sp,144
    8000a7e8:	190c                	addi	a1,sp,176
    8000a7ea:	8562                	mv	a0,s8
    8000a7ec:	00000097          	auipc	ra,0x0
    8000a7f0:	b0c080e7          	jalr	-1268(ra) # 8000a2f8 <ediv>
    8000a7f4:	182c                	addi	a1,sp,56
    8000a7f6:	0908                	addi	a0,sp,144
    8000a7f8:	fffff097          	auipc	ra,0xfffff
    8000a7fc:	eaa080e7          	jalr	-342(ra) # 800096a2 <emov>
    8000a800:	67c2                	ld	a5,16(sp)
    8000a802:	04a15983          	lhu	s3,74(sp)
    8000a806:	00f9fdb3          	and	s11,s3,a5
    8000a80a:	47f2                	lw	a5,28(sp)
    8000a80c:	00fd87bb          	addw	a5,s11,a5
    8000a810:	8dbe                	mv	s11,a5
    8000a812:	04f04d63          	bgtz	a5,8000a86c <_ldtoa_r+0x2d8>
    8000a816:	0988                	addi	a0,sp,208
    8000a818:	fffff097          	auipc	ra,0xfffff
    8000a81c:	e7a080e7          	jalr	-390(ra) # 80009692 <eclear>
    8000a820:	0109999b          	slliw	s3,s3,0x10
    8000a824:	4109d99b          	sraiw	s3,s3,0x10
    8000a828:	02099793          	slli	a5,s3,0x20
    8000a82c:	1007d263          	bgez	a5,8000a930 <_ldtoa_r+0x39c>
    8000a830:	4781                	li	a5,0
    8000a832:	1838                	addi	a4,sp,56
    8000a834:	973e                	add	a4,a4,a5
    8000a836:	00075683          	lhu	a3,0(a4) # 8000 <_stack_size>
    8000a83a:	0998                	addi	a4,sp,208
    8000a83c:	973e                	add	a4,a4,a5
    8000a83e:	00075703          	lhu	a4,0(a4)
    8000a842:	34e68063          	beq	a3,a4,8000ab82 <_ldtoa_r+0x5ee>
    8000a846:	00004517          	auipc	a0,0x4
    8000a84a:	d2a50513          	addi	a0,a0,-726 # 8000e570 <eone>
    8000a84e:	fffff097          	auipc	ra,0xfffff
    8000a852:	08c080e7          	jalr	140(ra) # 800098da <eisnan>
    8000a856:	cd25                	beqz	a0,8000a8ce <_ldtoa_r+0x33a>
    8000a858:	098c                	addi	a1,sp,208
    8000a85a:	00004517          	auipc	a0,0x4
    8000a85e:	d1650513          	addi	a0,a0,-746 # 8000e570 <eone>
    8000a862:	fffff097          	auipc	ra,0xfffff
    8000a866:	e40080e7          	jalr	-448(ra) # 800096a2 <emov>
    8000a86a:	a0d9                	j	8000a930 <_ldtoa_r+0x39c>
    8000a86c:	09000793          	li	a5,144
    8000a870:	41b78cbb          	subw	s9,a5,s11
    8000a874:	098c                	addi	a1,sp,208
    8000a876:	1828                	addi	a0,sp,56
    8000a878:	8de6                	mv	s11,s9
    8000a87a:	fffff097          	auipc	ra,0xfffff
    8000a87e:	e28080e7          	jalr	-472(ra) # 800096a2 <emov>
    8000a882:	0b905763          	blez	s9,8000a930 <_ldtoa_r+0x39c>
    8000a886:	099c                	addi	a5,sp,208
    8000a888:	8766                	mv	a4,s9
    8000a88a:	46bd                	li	a3,15
    8000a88c:	02e6cc63          	blt	a3,a4,8000a8c4 <_ldtoa_r+0x330>
    8000a890:	004dd69b          	srliw	a3,s11,0x4
    8000a894:	02069713          	slli	a4,a3,0x20
    8000a898:	099c                	addi	a5,sp,208
    8000a89a:	837d                	srli	a4,a4,0x1f
    8000a89c:	973e                	add	a4,a4,a5
    8000a89e:	57c1                	li	a5,-16
    8000a8a0:	02d787bb          	mulw	a5,a5,a3
    8000a8a4:	00004697          	auipc	a3,0x4
    8000a8a8:	b9c68693          	addi	a3,a3,-1124 # 8000e440 <bmask>
    8000a8ac:	01b787bb          	addw	a5,a5,s11
    8000a8b0:	0786                	slli	a5,a5,0x1
    8000a8b2:	97b6                	add	a5,a5,a3
    8000a8b4:	0007d783          	lhu	a5,0(a5) # ffffffffffffc000 <_buffer_start+0xffffffff7ffb47c0>
    8000a8b8:	00075683          	lhu	a3,0(a4)
    8000a8bc:	8ff5                	and	a5,a5,a3
    8000a8be:	00f71023          	sh	a5,0(a4)
    8000a8c2:	bfb9                	j	8000a820 <_ldtoa_r+0x28c>
    8000a8c4:	00079023          	sh	zero,0(a5)
    8000a8c8:	3741                	addiw	a4,a4,-16
    8000a8ca:	0789                	addi	a5,a5,2
    8000a8cc:	b7c1                	j	8000a88c <_ldtoa_r+0x2f8>
    8000a8ce:	0988                	addi	a0,sp,208
    8000a8d0:	fffff097          	auipc	ra,0xfffff
    8000a8d4:	00a080e7          	jalr	10(ra) # 800098da <eisnan>
    8000a8d8:	c501                	beqz	a0,8000a8e0 <_ldtoa_r+0x34c>
    8000a8da:	098c                	addi	a1,sp,208
    8000a8dc:	852e                	mv	a0,a1
    8000a8de:	b751                	j	8000a862 <_ldtoa_r+0x2ce>
    8000a8e0:	00004517          	auipc	a0,0x4
    8000a8e4:	c9050513          	addi	a0,a0,-880 # 8000e570 <eone>
    8000a8e8:	fffff097          	auipc	ra,0xfffff
    8000a8ec:	190080e7          	jalr	400(ra) # 80009a78 <eisinf>
    8000a8f0:	89aa                	mv	s3,a0
    8000a8f2:	0988                	addi	a0,sp,208
    8000a8f4:	fffff097          	auipc	ra,0xfffff
    8000a8f8:	184080e7          	jalr	388(ra) # 80009a78 <eisinf>
    8000a8fc:	8caa                	mv	s9,a0
    8000a8fe:	12098a63          	beqz	s3,8000aa32 <_ldtoa_r+0x49e>
    8000a902:	10050263          	beqz	a0,8000aa06 <_ldtoa_r+0x472>
    8000a906:	00004517          	auipc	a0,0x4
    8000a90a:	c6a50513          	addi	a0,a0,-918 # 8000e570 <eone>
    8000a90e:	fffff097          	auipc	ra,0xfffff
    8000a912:	ff2080e7          	jalr	-14(ra) # 80009900 <eisneg>
    8000a916:	89aa                	mv	s3,a0
    8000a918:	0988                	addi	a0,sp,208
    8000a91a:	fffff097          	auipc	ra,0xfffff
    8000a91e:	fe6080e7          	jalr	-26(ra) # 80009900 <eisneg>
    8000a922:	0ea99263          	bne	s3,a0,8000aa06 <_ldtoa_r+0x472>
    8000a926:	0988                	addi	a0,sp,208
    8000a928:	fffff097          	auipc	ra,0xfffff
    8000a92c:	33a080e7          	jalr	826(ra) # 80009c62 <enan.constprop.12>
    8000a930:	4781                	li	a5,0
    8000a932:	0918                	addi	a4,sp,144
    8000a934:	973e                	add	a4,a4,a5
    8000a936:	00075683          	lhu	a3,0(a4)
    8000a93a:	0998                	addi	a4,sp,208
    8000a93c:	973e                	add	a4,a4,a5
    8000a93e:	00075703          	lhu	a4,0(a4)
    8000a942:	00e69e63          	bne	a3,a4,8000a95e <_ldtoa_r+0x3ca>
    8000a946:	0789                	addi	a5,a5,2
    8000a948:	4749                	li	a4,18
    8000a94a:	fee794e3          	bne	a5,a4,8000a932 <_ldtoa_r+0x39e>
    8000a94e:	190c                	addi	a1,sp,176
    8000a950:	0908                	addi	a0,sp,144
    8000a952:	fffff097          	auipc	ra,0xfffff
    8000a956:	d50080e7          	jalr	-688(ra) # 800096a2 <emov>
    8000a95a:	008d043b          	addw	s0,s10,s0
    8000a95e:	0c51                	addi	s8,s8,20
    8000a960:	00004797          	auipc	a5,0x4
    8000a964:	d2c78793          	addi	a5,a5,-724 # 8000e68c <etens+0x104>
    8000a968:	001d5d13          	srli	s10,s10,0x1
    8000a96c:	e6fc1ce3          	bne	s8,a5,8000a7e4 <_ldtoa_r+0x250>
    8000a970:	0c215783          	lhu	a5,194(sp)
    8000a974:	08215703          	lhu	a4,130(sp)
    8000a978:	188c                	addi	a1,sp,112
    8000a97a:	1908                	addi	a0,sp,176
    8000a97c:	9fb9                	addw	a5,a5,a4
    8000a97e:	7771                	lui	a4,0xffffc
    8000a980:	f727071b          	addiw	a4,a4,-142
    8000a984:	9fb9                	addw	a5,a5,a4
    8000a986:	0cf11123          	sh	a5,194(sp)
    8000a98a:	fffff097          	auipc	ra,0xfffff
    8000a98e:	d18080e7          	jalr	-744(ra) # 800096a2 <emov>
    8000a992:	090c                	addi	a1,sp,144
    8000a994:	00004517          	auipc	a0,0x4
    8000a998:	bdc50513          	addi	a0,a0,-1060 # 8000e570 <eone>
    8000a99c:	fffff097          	auipc	ra,0xfffff
    8000a9a0:	d06080e7          	jalr	-762(ra) # 800096a2 <emov>
    8000a9a4:	6c05                	lui	s8,0x1
    8000a9a6:	00004997          	auipc	s3,0x4
    8000a9aa:	be298993          	addi	s3,s3,-1054 # 8000e588 <etens>
    8000a9ae:	00004c97          	auipc	s9,0x4
    8000a9b2:	ccac8c93          	addi	s9,s9,-822 # 8000e678 <etens+0xf0>
    8000a9b6:	190c                	addi	a1,sp,176
    8000a9b8:	8566                	mv	a0,s9
    8000a9ba:	fffff097          	auipc	ra,0xfffff
    8000a9be:	00a080e7          	jalr	10(ra) # 800099c4 <ecmp>
    8000a9c2:	cea049e3          	bgtz	a0,8000a6b4 <_ldtoa_r+0x120>
    8000a9c6:	190c                	addi	a1,sp,176
    8000a9c8:	854e                	mv	a0,s3
    8000a9ca:	fffff097          	auipc	ra,0xfffff
    8000a9ce:	ffa080e7          	jalr	-6(ra) # 800099c4 <ecmp>
    8000a9d2:	02a04463          	bgtz	a0,8000a9fa <_ldtoa_r+0x466>
    8000a9d6:	1910                	addi	a2,sp,176
    8000a9d8:	85b2                	mv	a1,a2
    8000a9da:	1a94                	addi	a3,sp,368
    8000a9dc:	854e                	mv	a0,s3
    8000a9de:	00000097          	auipc	ra,0x0
    8000a9e2:	91a080e7          	jalr	-1766(ra) # 8000a2f8 <ediv>
    8000a9e6:	0910                	addi	a2,sp,144
    8000a9e8:	1a94                	addi	a3,sp,368
    8000a9ea:	85b2                	mv	a1,a2
    8000a9ec:	854e                	mv	a0,s3
    8000a9ee:	fffff097          	auipc	ra,0xfffff
    8000a9f2:	6f0080e7          	jalr	1776(ra) # 8000a0de <emul>
    8000a9f6:	008c043b          	addw	s0,s8,s0
    8000a9fa:	001c5c13          	srli	s8,s8,0x1
    8000a9fe:	cb998be3          	beq	s3,s9,8000a6b4 <_ldtoa_r+0x120>
    8000aa02:	09d1                	addi	s3,s3,20
    8000aa04:	bf4d                	j	8000a9b6 <_ldtoa_r+0x422>
    8000aa06:	00004517          	auipc	a0,0x4
    8000aa0a:	b6a50513          	addi	a0,a0,-1174 # 8000e570 <eone>
    8000aa0e:	098c                	addi	a1,sp,208
    8000aa10:	fffff097          	auipc	ra,0xfffff
    8000aa14:	c92080e7          	jalr	-878(ra) # 800096a2 <emov>
    8000aa18:	0988                	addi	a0,sp,208
    8000aa1a:	fffff097          	auipc	ra,0xfffff
    8000aa1e:	ec0080e7          	jalr	-320(ra) # 800098da <eisnan>
    8000aa22:	f519                	bnez	a0,8000a930 <_ldtoa_r+0x39c>
    8000aa24:	0e215783          	lhu	a5,226(sp)
    8000aa28:	7761                	lui	a4,0xffff8
    8000aa2a:	8fb9                	xor	a5,a5,a4
    8000aa2c:	0ef11123          	sh	a5,226(sp)
    8000aa30:	b701                	j	8000a930 <_ldtoa_r+0x39c>
    8000aa32:	ea0514e3          	bnez	a0,8000a8da <_ldtoa_r+0x346>
    8000aa36:	198c                	addi	a1,sp,240
    8000aa38:	00004517          	auipc	a0,0x4
    8000aa3c:	b3850513          	addi	a0,a0,-1224 # 8000e570 <eone>
    8000aa40:	fffff097          	auipc	ra,0xfffff
    8000aa44:	ee6080e7          	jalr	-282(ra) # 80009926 <emovi>
    8000aa48:	0a0c                	addi	a1,sp,272
    8000aa4a:	0988                	addi	a0,sp,208
    8000aa4c:	fffff097          	auipc	ra,0xfffff
    8000aa50:	eda080e7          	jalr	-294(ra) # 80009926 <emovi>
    8000aa54:	0f015783          	lhu	a5,240(sp)
    8000aa58:	0f215d83          	lhu	s11,242(sp)
    8000aa5c:	11215983          	lhu	s3,274(sp)
    8000aa60:	fff7c793          	not	a5,a5
    8000aa64:	0ef11823          	sh	a5,240(sp)
    8000aa68:	413d85b3          	sub	a1,s11,s3
    8000aa6c:	02b05863          	blez	a1,8000aa9c <_ldtoa_r+0x508>
    8000aa70:	1a0c                	addi	a1,sp,304
    8000aa72:	0a08                	addi	a0,sp,272
    8000aa74:	fffff097          	auipc	ra,0xfffff
    8000aa78:	c5a080e7          	jalr	-934(ra) # 800096ce <emovz>
    8000aa7c:	0a0c                	addi	a1,sp,272
    8000aa7e:	1988                	addi	a0,sp,240
    8000aa80:	fffff097          	auipc	ra,0xfffff
    8000aa84:	c4e080e7          	jalr	-946(ra) # 800096ce <emovz>
    8000aa88:	198c                	addi	a1,sp,240
    8000aa8a:	1a08                	addi	a0,sp,304
    8000aa8c:	fffff097          	auipc	ra,0xfffff
    8000aa90:	c42080e7          	jalr	-958(ra) # 800096ce <emovz>
    8000aa94:	41b985b3          	sub	a1,s3,s11
    8000aa98:	11215983          	lhu	s3,274(sp)
    8000aa9c:	c1b9                	beqz	a1,8000aae2 <_ldtoa_r+0x54e>
    8000aa9e:	f6f00793          	li	a5,-145
    8000aaa2:	06f5cf63          	blt	a1,a5,8000ab20 <_ldtoa_r+0x58c>
    8000aaa6:	1988                	addi	a0,sp,240
    8000aaa8:	fffff097          	auipc	ra,0xfffff
    8000aaac:	018080e7          	jalr	24(ra) # 80009ac0 <eshift.part.3>
    8000aab0:	8daa                	mv	s11,a0
    8000aab2:	0f015703          	lhu	a4,240(sp)
    8000aab6:	11015783          	lhu	a5,272(sp)
    8000aaba:	0a0c                	addi	a1,sp,272
    8000aabc:	1988                	addi	a0,sp,240
    8000aabe:	0af71c63          	bne	a4,a5,8000ab76 <_ldtoa_r+0x5e2>
    8000aac2:	fffff097          	auipc	ra,0xfffff
    8000aac6:	d54080e7          	jalr	-684(ra) # 80009816 <eaddm>
    8000aaca:	1a9c                	addi	a5,sp,368
    8000aacc:	04000713          	li	a4,64
    8000aad0:	86ce                	mv	a3,s3
    8000aad2:	8666                	mv	a2,s9
    8000aad4:	85ee                	mv	a1,s11
    8000aad6:	0a08                	addi	a0,sp,272
    8000aad8:	fffff097          	auipc	ra,0xfffff
    8000aadc:	2d6080e7          	jalr	726(ra) # 80009dae <emdnorm>
    8000aae0:	a081                	j	8000ab20 <_ldtoa_r+0x58c>
    8000aae2:	0a0c                	addi	a1,sp,272
    8000aae4:	1988                	addi	a0,sp,240
    8000aae6:	fffff097          	auipc	ra,0xfffff
    8000aaea:	c08080e7          	jalr	-1016(ra) # 800096ee <ecmpm>
    8000aaee:	ed31                	bnez	a0,8000ab4a <_ldtoa_r+0x5b6>
    8000aaf0:	0f015703          	lhu	a4,240(sp)
    8000aaf4:	11015783          	lhu	a5,272(sp)
    8000aaf8:	00f70863          	beq	a4,a5,8000ab08 <_ldtoa_r+0x574>
    8000aafc:	0988                	addi	a0,sp,208
    8000aafe:	fffff097          	auipc	ra,0xfffff
    8000ab02:	b94080e7          	jalr	-1132(ra) # 80009692 <eclear>
    8000ab06:	b52d                	j	8000a930 <_ldtoa_r+0x39c>
    8000ab08:	11215783          	lhu	a5,274(sp)
    8000ab0c:	e38d                	bnez	a5,8000ab2e <_ldtoa_r+0x59a>
    8000ab0e:	11611783          	lh	a5,278(sp)
    8000ab12:	0007ce63          	bltz	a5,8000ab2e <_ldtoa_r+0x59a>
    8000ab16:	0a08                	addi	a0,sp,272
    8000ab18:	fffff097          	auipc	ra,0xfffff
    8000ab1c:	c3a080e7          	jalr	-966(ra) # 80009752 <eshup1>
    8000ab20:	098c                	addi	a1,sp,208
    8000ab22:	0a08                	addi	a0,sp,272
    8000ab24:	fffff097          	auipc	ra,0xfffff
    8000ab28:	156080e7          	jalr	342(ra) # 80009c7a <emovo.isra.6>
    8000ab2c:	b511                	j	8000a930 <_ldtoa_r+0x39c>
    8000ab2e:	0a1c                	addi	a5,sp,272
    8000ab30:	12610713          	addi	a4,sp,294
    8000ab34:	0027d683          	lhu	a3,2(a5)
    8000ab38:	c689                	beqz	a3,8000ab42 <_ldtoa_r+0x5ae>
    8000ab3a:	0985                	addi	s3,s3,1
    8000ab3c:	11311923          	sh	s3,274(sp)
    8000ab40:	b7c5                	j	8000ab20 <_ldtoa_r+0x58c>
    8000ab42:	0789                	addi	a5,a5,2
    8000ab44:	fef718e3          	bne	a4,a5,8000ab34 <_ldtoa_r+0x5a0>
    8000ab48:	bfd5                	j	8000ab3c <_ldtoa_r+0x5a8>
    8000ab4a:	4d81                	li	s11,0
    8000ab4c:	f6a053e3          	blez	a0,8000aab2 <_ldtoa_r+0x51e>
    8000ab50:	1a0c                	addi	a1,sp,304
    8000ab52:	0a08                	addi	a0,sp,272
    8000ab54:	fffff097          	auipc	ra,0xfffff
    8000ab58:	b7a080e7          	jalr	-1158(ra) # 800096ce <emovz>
    8000ab5c:	0a0c                	addi	a1,sp,272
    8000ab5e:	1988                	addi	a0,sp,240
    8000ab60:	fffff097          	auipc	ra,0xfffff
    8000ab64:	b6e080e7          	jalr	-1170(ra) # 800096ce <emovz>
    8000ab68:	198c                	addi	a1,sp,240
    8000ab6a:	1a08                	addi	a0,sp,304
    8000ab6c:	fffff097          	auipc	ra,0xfffff
    8000ab70:	b62080e7          	jalr	-1182(ra) # 800096ce <emovz>
    8000ab74:	bf3d                	j	8000aab2 <_ldtoa_r+0x51e>
    8000ab76:	fffff097          	auipc	ra,0xfffff
    8000ab7a:	cc8080e7          	jalr	-824(ra) # 8000983e <esubm>
    8000ab7e:	4c85                	li	s9,1
    8000ab80:	b7a9                	j	8000aaca <_ldtoa_r+0x536>
    8000ab82:	0789                	addi	a5,a5,2
    8000ab84:	4749                	li	a4,18
    8000ab86:	cae796e3          	bne	a5,a4,8000a832 <_ldtoa_r+0x29e>
    8000ab8a:	b35d                	j	8000a930 <_ldtoa_r+0x39c>
    8000ab8c:	08215783          	lhu	a5,130(sp)
    8000ab90:	00004997          	auipc	s3,0x4
    8000ab94:	ae898993          	addi	s3,s3,-1304 # 8000e678 <etens+0xf0>
    8000ab98:	cfc9                	beqz	a5,8000ac32 <_ldtoa_r+0x69e>
    8000ab9a:	098c                	addi	a1,sp,208
    8000ab9c:	1888                	addi	a0,sp,112
    8000ab9e:	6991                	lui	s3,0x4
    8000aba0:	fffff097          	auipc	ra,0xfffff
    8000aba4:	d86080e7          	jalr	-634(ra) # 80009926 <emovi>
    8000aba8:	19f9                	addi	s3,s3,-2
    8000abaa:	fd500c13          	li	s8,-43
    8000abae:	0e815783          	lhu	a5,232(sp)
    8000abb2:	8b9d                	andi	a5,a5,7
    8000abb4:	efb9                	bnez	a5,8000ac12 <_ldtoa_r+0x67e>
    8000abb6:	190c                	addi	a1,sp,176
    8000abb8:	0988                	addi	a0,sp,208
    8000abba:	fffff097          	auipc	ra,0xfffff
    8000abbe:	b14080e7          	jalr	-1260(ra) # 800096ce <emovz>
    8000abc2:	1908                	addi	a0,sp,176
    8000abc4:	fffff097          	auipc	ra,0xfffff
    8000abc8:	b56080e7          	jalr	-1194(ra) # 8000971a <eshdn1>
    8000abcc:	1908                	addi	a0,sp,176
    8000abce:	fffff097          	auipc	ra,0xfffff
    8000abd2:	b4c080e7          	jalr	-1204(ra) # 8000971a <eshdn1>
    8000abd6:	190c                	addi	a1,sp,176
    8000abd8:	0988                	addi	a0,sp,208
    8000abda:	fffff097          	auipc	ra,0xfffff
    8000abde:	c3c080e7          	jalr	-964(ra) # 80009816 <eaddm>
    8000abe2:	0b215783          	lhu	a5,178(sp)
    8000abe6:	278d                	addiw	a5,a5,3
    8000abe8:	0af11923          	sh	a5,178(sp)
    8000abec:	0b415783          	lhu	a5,180(sp)
    8000abf0:	efed                	bnez	a5,8000acea <_ldtoa_r+0x756>
    8000abf2:	0c815783          	lhu	a5,200(sp)
    8000abf6:	ef91                	bnez	a5,8000ac12 <_ldtoa_r+0x67e>
    8000abf8:	0b215783          	lhu	a5,178(sp)
    8000abfc:	00f9eb63          	bltu	s3,a5,8000ac12 <_ldtoa_r+0x67e>
    8000ac00:	098c                	addi	a1,sp,208
    8000ac02:	1908                	addi	a0,sp,176
    8000ac04:	347d                	addiw	s0,s0,-1
    8000ac06:	fffff097          	auipc	ra,0xfffff
    8000ac0a:	ac8080e7          	jalr	-1336(ra) # 800096ce <emovz>
    8000ac0e:	fb8410e3          	bne	s0,s8,8000abae <_ldtoa_r+0x61a>
    8000ac12:	188c                	addi	a1,sp,112
    8000ac14:	0988                	addi	a0,sp,208
    8000ac16:	fffff097          	auipc	ra,0xfffff
    8000ac1a:	064080e7          	jalr	100(ra) # 80009c7a <emovo.isra.6>
    8000ac1e:	a831                	j	8000ac3a <_ldtoa_r+0x6a6>
    8000ac20:	1890                	addi	a2,sp,112
    8000ac22:	1a94                	addi	a3,sp,368
    8000ac24:	85b2                	mv	a1,a2
    8000ac26:	854e                	mv	a0,s3
    8000ac28:	fffff097          	auipc	ra,0xfffff
    8000ac2c:	4b6080e7          	jalr	1206(ra) # 8000a0de <emul>
    8000ac30:	347d                	addiw	s0,s0,-1
    8000ac32:	08011783          	lh	a5,128(sp)
    8000ac36:	fe07d5e3          	bgez	a5,8000ac20 <_ldtoa_r+0x68c>
    8000ac3a:	098c                	addi	a1,sp,208
    8000ac3c:	1888                	addi	a0,sp,112
    8000ac3e:	fffff097          	auipc	ra,0xfffff
    8000ac42:	a64080e7          	jalr	-1436(ra) # 800096a2 <emov>
    8000ac46:	090c                	addi	a1,sp,144
    8000ac48:	00004517          	auipc	a0,0x4
    8000ac4c:	92850513          	addi	a0,a0,-1752 # 8000e570 <eone>
    8000ac50:	fffff097          	auipc	ra,0xfffff
    8000ac54:	a52080e7          	jalr	-1454(ra) # 800096a2 <emov>
    8000ac58:	4c81                	li	s9,0
    8000ac5a:	79fd                	lui	s3,0xfffff
    8000ac5c:	00004d97          	auipc	s11,0x4
    8000ac60:	80cd8d93          	addi	s11,s11,-2036 # 8000e468 <emtens>
    8000ac64:	10400d13          	li	s10,260
    8000ac68:	019d8733          	add	a4,s11,s9
    8000ac6c:	00004797          	auipc	a5,0x4
    8000ac70:	91c78793          	addi	a5,a5,-1764 # 8000e588 <etens>
    8000ac74:	098c                	addi	a1,sp,208
    8000ac76:	00004517          	auipc	a0,0x4
    8000ac7a:	8fa50513          	addi	a0,a0,-1798 # 8000e570 <eone>
    8000ac7e:	e83a                	sd	a4,16(sp)
    8000ac80:	01978c33          	add	s8,a5,s9
    8000ac84:	fffff097          	auipc	ra,0xfffff
    8000ac88:	d40080e7          	jalr	-704(ra) # 800099c4 <ecmp>
    8000ac8c:	6742                	ld	a4,16(sp)
    8000ac8e:	04a05263          	blez	a0,8000acd2 <_ldtoa_r+0x73e>
    8000ac92:	098c                	addi	a1,sp,208
    8000ac94:	853a                	mv	a0,a4
    8000ac96:	fffff097          	auipc	ra,0xfffff
    8000ac9a:	d2e080e7          	jalr	-722(ra) # 800099c4 <ecmp>
    8000ac9e:	02054463          	bltz	a0,8000acc6 <_ldtoa_r+0x732>
    8000aca2:	0990                	addi	a2,sp,208
    8000aca4:	85b2                	mv	a1,a2
    8000aca6:	1a94                	addi	a3,sp,368
    8000aca8:	8562                	mv	a0,s8
    8000acaa:	fffff097          	auipc	ra,0xfffff
    8000acae:	434080e7          	jalr	1076(ra) # 8000a0de <emul>
    8000acb2:	0910                	addi	a2,sp,144
    8000acb4:	1a94                	addi	a3,sp,368
    8000acb6:	85b2                	mv	a1,a2
    8000acb8:	8562                	mv	a0,s8
    8000acba:	fffff097          	auipc	ra,0xfffff
    8000acbe:	424080e7          	jalr	1060(ra) # 8000a0de <emul>
    8000acc2:	0089843b          	addw	s0,s3,s0
    8000acc6:	4789                	li	a5,2
    8000acc8:	0cd1                	addi	s9,s9,20
    8000acca:	02f9c9bb          	divw	s3,s3,a5
    8000acce:	f9ac9de3          	bne	s9,s10,8000ac68 <_ldtoa_r+0x6d4>
    8000acd2:	0910                	addi	a2,sp,144
    8000acd4:	1a94                	addi	a3,sp,368
    8000acd6:	00004597          	auipc	a1,0x4
    8000acda:	89a58593          	addi	a1,a1,-1894 # 8000e570 <eone>
    8000acde:	8532                	mv	a0,a2
    8000ace0:	fffff097          	auipc	ra,0xfffff
    8000ace4:	618080e7          	jalr	1560(ra) # 8000a2f8 <ediv>
    8000ace8:	b2f1                	j	8000a6b4 <_ldtoa_r+0x120>
    8000acea:	1908                	addi	a0,sp,176
    8000acec:	fffff097          	auipc	ra,0xfffff
    8000acf0:	a2e080e7          	jalr	-1490(ra) # 8000971a <eshdn1>
    8000acf4:	0b215783          	lhu	a5,178(sp)
    8000acf8:	2785                	addiw	a5,a5,1
    8000acfa:	b5fd                	j	8000abe8 <_ldtoa_r+0x654>
    8000acfc:	1888                	addi	a0,sp,112
    8000acfe:	fffff097          	auipc	ra,0xfffff
    8000ad02:	a54080e7          	jalr	-1452(ra) # 80009752 <eshup1>
    8000ad06:	190c                	addi	a1,sp,176
    8000ad08:	1888                	addi	a0,sp,112
    8000ad0a:	fffff097          	auipc	ra,0xfffff
    8000ad0e:	9c4080e7          	jalr	-1596(ra) # 800096ce <emovz>
    8000ad12:	1908                	addi	a0,sp,176
    8000ad14:	fffff097          	auipc	ra,0xfffff
    8000ad18:	a3e080e7          	jalr	-1474(ra) # 80009752 <eshup1>
    8000ad1c:	1908                	addi	a0,sp,176
    8000ad1e:	fffff097          	auipc	ra,0xfffff
    8000ad22:	a34080e7          	jalr	-1484(ra) # 80009752 <eshup1>
    8000ad26:	188c                	addi	a1,sp,112
    8000ad28:	1908                	addi	a0,sp,176
    8000ad2a:	fffff097          	auipc	ra,0xfffff
    8000ad2e:	aec080e7          	jalr	-1300(ra) # 80009816 <eaddm>
    8000ad32:	1a90                	addi	a2,sp,368
    8000ad34:	188c                	addi	a1,sp,112
    8000ad36:	0908                	addi	a0,sp,144
    8000ad38:	fffff097          	auipc	ra,0xfffff
    8000ad3c:	2f2080e7          	jalr	754(ra) # 8000a02a <eiremain>
    8000ad40:	347d                	addiw	s0,s0,-1
    8000ad42:	1bc15983          	lhu	s3,444(sp)
    8000ad46:	ba65                	j	8000a6fe <_ldtoa_r+0x16a>
    8000ad48:	0309899b          	addiw	s3,s3,48
    8000ad4c:	02e00793          	li	a5,46
    8000ad50:	133108a3          	sb	s3,305(sp)
    8000ad54:	12f10923          	sb	a5,306(sp)
    8000ad58:	13310c13          	addi	s8,sp,307
    8000ad5c:	89e2                	mv	s3,s8
    8000ad5e:	418987bb          	subw	a5,s3,s8
    8000ad62:	04fa5063          	ble	a5,s4,8000ada2 <_ldtoa_r+0x80e>
    8000ad66:	1bc15783          	lhu	a5,444(sp)
    8000ad6a:	4711                	li	a4,4
    8000ad6c:	fff98c13          	addi	s8,s3,-1 # ffffffffffffefff <_buffer_start+0xffffffff7ffb77bf>
    8000ad70:	9ef75fe3          	ble	a5,a4,8000a76e <_ldtoa_r+0x1da>
    8000ad74:	4715                	li	a4,5
    8000ad76:	08e78063          	beq	a5,a4,8000adf6 <_ldtoa_r+0x862>
    8000ad7a:	87e2                	mv	a5,s8
    8000ad7c:	02e00613          	li	a2,46
    8000ad80:	03800593          	li	a1,56
    8000ad84:	03000693          	li	a3,48
    8000ad88:	17fd                	addi	a5,a5,-1
    8000ad8a:	0007c703          	lbu	a4,0(a5)
    8000ad8e:	07f77713          	andi	a4,a4,127
    8000ad92:	0a0a5263          	bgez	s4,8000ae36 <_ldtoa_r+0x8a2>
    8000ad96:	03100713          	li	a4,49
    8000ad9a:	00e78023          	sb	a4,0(a5)
    8000ad9e:	2405                	addiw	s0,s0,1
    8000ada0:	b2f9                	j	8000a76e <_ldtoa_r+0x1da>
    8000ada2:	1888                	addi	a0,sp,112
    8000ada4:	fffff097          	auipc	ra,0xfffff
    8000ada8:	9ae080e7          	jalr	-1618(ra) # 80009752 <eshup1>
    8000adac:	190c                	addi	a1,sp,176
    8000adae:	1888                	addi	a0,sp,112
    8000adb0:	fffff097          	auipc	ra,0xfffff
    8000adb4:	91e080e7          	jalr	-1762(ra) # 800096ce <emovz>
    8000adb8:	1908                	addi	a0,sp,176
    8000adba:	fffff097          	auipc	ra,0xfffff
    8000adbe:	998080e7          	jalr	-1640(ra) # 80009752 <eshup1>
    8000adc2:	1908                	addi	a0,sp,176
    8000adc4:	fffff097          	auipc	ra,0xfffff
    8000adc8:	98e080e7          	jalr	-1650(ra) # 80009752 <eshup1>
    8000adcc:	188c                	addi	a1,sp,112
    8000adce:	1908                	addi	a0,sp,176
    8000add0:	fffff097          	auipc	ra,0xfffff
    8000add4:	a46080e7          	jalr	-1466(ra) # 80009816 <eaddm>
    8000add8:	1a90                	addi	a2,sp,368
    8000adda:	188c                	addi	a1,sp,112
    8000addc:	0908                	addi	a0,sp,144
    8000adde:	fffff097          	auipc	ra,0xfffff
    8000ade2:	24c080e7          	jalr	588(ra) # 8000a02a <eiremain>
    8000ade6:	1bc14783          	lbu	a5,444(sp)
    8000adea:	0985                	addi	s3,s3,1
    8000adec:	0307879b          	addiw	a5,a5,48
    8000adf0:	fef98fa3          	sb	a5,-1(s3)
    8000adf4:	b7ad                	j	8000ad5e <_ldtoa_r+0x7ca>
    8000adf6:	090c                	addi	a1,sp,144
    8000adf8:	1888                	addi	a0,sp,112
    8000adfa:	fffff097          	auipc	ra,0xfffff
    8000adfe:	e80080e7          	jalr	-384(ra) # 80009c7a <emovo.isra.6>
    8000ae02:	00004597          	auipc	a1,0x4
    8000ae06:	88e58593          	addi	a1,a1,-1906 # 8000e690 <ezero>
    8000ae0a:	0908                	addi	a0,sp,144
    8000ae0c:	fffff097          	auipc	ra,0xfffff
    8000ae10:	bb8080e7          	jalr	-1096(ra) # 800099c4 <ecmp>
    8000ae14:	f13d                	bnez	a0,8000ad7a <_ldtoa_r+0x7e6>
    8000ae16:	940a4ce3          	bltz	s4,8000a76e <_ldtoa_r+0x1da>
    8000ae1a:	ffe9c783          	lbu	a5,-2(s3)
    8000ae1e:	fd278793          	addi	a5,a5,-46
    8000ae22:	0017b793          	seqz	a5,a5
    8000ae26:	fff7c793          	not	a5,a5
    8000ae2a:	97e2                	add	a5,a5,s8
    8000ae2c:	0007c783          	lbu	a5,0(a5)
    8000ae30:	8b85                	andi	a5,a5,1
    8000ae32:	f7a1                	bnez	a5,8000ad7a <_ldtoa_r+0x7e6>
    8000ae34:	ba2d                	j	8000a76e <_ldtoa_r+0x1da>
    8000ae36:	02c71063          	bne	a4,a2,8000ae56 <_ldtoa_r+0x8c2>
    8000ae3a:	fff7c703          	lbu	a4,-1(a5)
    8000ae3e:	03800693          	li	a3,56
    8000ae42:	00e6e663          	bltu	a3,a4,8000ae4e <_ldtoa_r+0x8ba>
    8000ae46:	2705                	addiw	a4,a4,1
    8000ae48:	fee78fa3          	sb	a4,-1(a5)
    8000ae4c:	b20d                	j	8000a76e <_ldtoa_r+0x1da>
    8000ae4e:	2405                	addiw	s0,s0,1
    8000ae50:	03100713          	li	a4,49
    8000ae54:	bfd5                	j	8000ae48 <_ldtoa_r+0x8b4>
    8000ae56:	00e5e663          	bltu	a1,a4,8000ae62 <_ldtoa_r+0x8ce>
    8000ae5a:	2705                	addiw	a4,a4,1
    8000ae5c:	00e78023          	sb	a4,0(a5)
    8000ae60:	b239                	j	8000a76e <_ldtoa_r+0x1da>
    8000ae62:	00d78023          	sb	a3,0(a5)
    8000ae66:	b70d                	j	8000ad88 <_ldtoa_r+0x7f4>
    8000ae68:	0014079b          	addiw	a5,s0,1
    8000ae6c:	00fba023          	sw	a5,0(s7)
    8000ae70:	02e00693          	li	a3,46
    8000ae74:	87d2                	mv	a5,s4
    8000ae76:	0007c703          	lbu	a4,0(a5)
    8000ae7a:	e701                	bnez	a4,8000ae82 <_ldtoa_r+0x8ee>
    8000ae7c:	04500713          	li	a4,69
    8000ae80:	a839                	j	8000ae9e <_ldtoa_r+0x90a>
    8000ae82:	00178613          	addi	a2,a5,1
    8000ae86:	00d70463          	beq	a4,a3,8000ae8e <_ldtoa_r+0x8fa>
    8000ae8a:	87b2                	mv	a5,a2
    8000ae8c:	b7ed                	j	8000ae76 <_ldtoa_r+0x8e2>
    8000ae8e:	0017c703          	lbu	a4,1(a5)
    8000ae92:	0785                	addi	a5,a5,1
    8000ae94:	fee78fa3          	sb	a4,-1(a5)
    8000ae98:	fb7d                	bnez	a4,8000ae8e <_ldtoa_r+0x8fa>
    8000ae9a:	b7cd                	j	8000ae7c <_ldtoa_r+0x8e8>
    8000ae9c:	17fd                	addi	a5,a5,-1
    8000ae9e:	0007c683          	lbu	a3,0(a5)
    8000aea2:	00e68463          	beq	a3,a4,8000aeaa <_ldtoa_r+0x916>
    8000aea6:	fefa6be3          	bltu	s4,a5,8000ae9c <_ldtoa_r+0x908>
    8000aeaa:	00078023          	sb	zero,0(a5)
    8000aeae:	aa19                	j	8000afc4 <_ldtoa_r+0xa30>
    8000aeb0:	0785                	addi	a5,a5,1
    8000aeb2:	aa31                	j	8000afce <_ldtoa_r+0xa3a>
    8000aeb4:	89b6                	mv	s3,a3
    8000aeb6:	a21d                	j	8000afdc <_ldtoa_r+0xa48>
    8000aeb8:	19fd                	addi	s3,s3,-1
    8000aeba:	00098023          	sb	zero,0(s3)
    8000aebe:	fff9c703          	lbu	a4,-1(s3)
    8000aec2:	00d71663          	bne	a4,a3,8000aece <_ldtoa_r+0x93a>
    8000aec6:	41498733          	sub	a4,s3,s4
    8000aeca:	fee7c7e3          	blt	a5,a4,8000aeb8 <_ldtoa_r+0x924>
    8000aece:	478d                	li	a5,3
    8000aed0:	08fa9963          	bne	s5,a5,8000af62 <_ldtoa_r+0x9ce>
    8000aed4:	9c25                	addw	s0,s0,s1
    8000aed6:	00045763          	bgez	s0,8000aee4 <_ldtoa_r+0x950>
    8000aeda:	12010823          	sb	zero,304(sp)
    8000aede:	000ba023          	sw	zero,0(s7)
    8000aee2:	89d2                	mv	s3,s4
    8000aee4:	000ba783          	lw	a5,0(s7)
    8000aee8:	01678b3b          	addw	s6,a5,s6
    8000aeec:	2b0d                	addiw	s6,s6,3
    8000aeee:	06092423          	sw	zero,104(s2)
    8000aef2:	4791                	li	a5,4
    8000aef4:	01c78713          	addi	a4,a5,28
    8000aef8:	06892583          	lw	a1,104(s2)
    8000aefc:	04eb7d63          	bleu	a4,s6,8000af56 <_ldtoa_r+0x9c2>
    8000af00:	854a                	mv	a0,s2
    8000af02:	00000097          	auipc	ra,0x0
    8000af06:	1a2080e7          	jalr	418(ra) # 8000b0a4 <_Balloc>
    8000af0a:	06a93023          	sd	a0,96(s2)
    8000af0e:	85d2                	mv	a1,s4
    8000af10:	842a                	mv	s0,a0
    8000af12:	00000097          	auipc	ra,0x0
    8000af16:	2ec080e7          	jalr	748(ra) # 8000b1fe <strcpy>
    8000af1a:	6782                	ld	a5,0(sp)
    8000af1c:	c791                	beqz	a5,8000af28 <_ldtoa_r+0x994>
    8000af1e:	414989b3          	sub	s3,s3,s4
    8000af22:	99a2                	add	s3,s3,s0
    8000af24:	0137b023          	sd	s3,0(a5)
    8000af28:	8522                	mv	a0,s0
    8000af2a:	22813083          	ld	ra,552(sp)
    8000af2e:	22013403          	ld	s0,544(sp)
    8000af32:	21813483          	ld	s1,536(sp)
    8000af36:	21013903          	ld	s2,528(sp)
    8000af3a:	20813983          	ld	s3,520(sp)
    8000af3e:	20013a03          	ld	s4,512(sp)
    8000af42:	7afe                	ld	s5,504(sp)
    8000af44:	7b5e                	ld	s6,496(sp)
    8000af46:	7bbe                	ld	s7,488(sp)
    8000af48:	7c1e                	ld	s8,480(sp)
    8000af4a:	6cfe                	ld	s9,472(sp)
    8000af4c:	6d5e                	ld	s10,464(sp)
    8000af4e:	6dbe                	ld	s11,456(sp)
    8000af50:	23010113          	addi	sp,sp,560
    8000af54:	8082                	ret
    8000af56:	2585                	addiw	a1,a1,1
    8000af58:	06b92423          	sw	a1,104(s2)
    8000af5c:	0017979b          	slliw	a5,a5,0x1
    8000af60:	bf51                	j	8000aef4 <_ldtoa_r+0x960>
    8000af62:	2b25                	addiw	s6,s6,9
    8000af64:	b769                	j	8000aeee <_ldtoa_r+0x95a>
    8000af66:	67a1                	lui	a5,0x8
    8000af68:	17fd                	addi	a5,a5,-1
    8000af6a:	82f713e3          	bne	a4,a5,8000a790 <_ldtoa_r+0x1fc>
    8000af6e:	00003597          	auipc	a1,0x3
    8000af72:	4b258593          	addi	a1,a1,1202 # 8000e420 <zeroes.4812+0x28>
    8000af76:	000a0663          	beqz	s4,8000af82 <_ldtoa_r+0x9ee>
    8000af7a:	00003597          	auipc	a1,0x3
    8000af7e:	49658593          	addi	a1,a1,1174 # 8000e410 <zeroes.4812+0x18>
    8000af82:	1a08                	addi	a0,sp,304
    8000af84:	6409                	lui	s0,0x2
    8000af86:	00000097          	auipc	ra,0x0
    8000af8a:	22a080e7          	jalr	554(ra) # 8000b1b0 <sprintf>
    8000af8e:	70f40413          	addi	s0,s0,1807 # 270f <_stack_size-0x58f1>
    8000af92:	67a2                	ld	a5,8(sp)
    8000af94:	0888                	addi	a0,sp,80
    8000af96:	18812023          	sw	s0,384(sp)
    8000af9a:	16f12a23          	sw	a5,372(sp)
    8000af9e:	fffff097          	auipc	ra,0xfffff
    8000afa2:	ada080e7          	jalr	-1318(ra) # 80009a78 <eisinf>
    8000afa6:	13010a13          	addi	s4,sp,304
    8000afaa:	e901                	bnez	a0,8000afba <_ldtoa_r+0xa26>
    8000afac:	0888                	addi	a0,sp,80
    8000afae:	fffff097          	auipc	ra,0xfffff
    8000afb2:	92c080e7          	jalr	-1748(ra) # 800098da <eisnan>
    8000afb6:	ea0509e3          	beqz	a0,8000ae68 <_ldtoa_r+0x8d4>
    8000afba:	6789                	lui	a5,0x2
    8000afbc:	70f7879b          	addiw	a5,a5,1807
    8000afc0:	00fba023          	sw	a5,0(s7)
    8000afc4:	87d2                	mv	a5,s4
    8000afc6:	02000613          	li	a2,32
    8000afca:	02d00693          	li	a3,45
    8000afce:	0007c703          	lbu	a4,0(a5) # 2000 <_stack_size-0x6000>
    8000afd2:	ecc70fe3          	beq	a4,a2,8000aeb0 <_ldtoa_r+0x91c>
    8000afd6:	ecd70de3          	beq	a4,a3,8000aeb0 <_ldtoa_r+0x91c>
    8000afda:	89d2                	mv	s3,s4
    8000afdc:	0785                	addi	a5,a5,1
    8000afde:	fff7c703          	lbu	a4,-1(a5)
    8000afe2:	00198693          	addi	a3,s3,1
    8000afe6:	fee68fa3          	sb	a4,-1(a3)
    8000afea:	ec0715e3          	bnez	a4,8000aeb4 <_ldtoa_r+0x920>
    8000afee:	4709                	li	a4,2
    8000aff0:	4785                	li	a5,1
    8000aff2:	00ea8863          	beq	s5,a4,8000b002 <_ldtoa_r+0xa6e>
    8000aff6:	0004879b          	sext.w	a5,s1
    8000affa:	0084d463          	ble	s0,s1,8000b002 <_ldtoa_r+0xa6e>
    8000affe:	0004079b          	sext.w	a5,s0
    8000b002:	03000693          	li	a3,48
    8000b006:	bd65                	j	8000aebe <_ldtoa_r+0x92a>

000000008000b008 <_ldcheck>:
    8000b008:	611c                	ld	a5,0(a0)
    8000b00a:	7139                	addi	sp,sp,-64
    8000b00c:	080c                	addi	a1,sp,16
    8000b00e:	e03e                	sd	a5,0(sp)
    8000b010:	651c                	ld	a5,8(a0)
    8000b012:	850a                	mv	a0,sp
    8000b014:	fc06                	sd	ra,56(sp)
    8000b016:	e43e                	sd	a5,8(sp)
    8000b018:	fffff097          	auipc	ra,0xfffff
    8000b01c:	cbc080e7          	jalr	-836(ra) # 80009cd4 <e113toe.isra.8>
    8000b020:	02215783          	lhu	a5,34(sp)
    8000b024:	4501                	li	a0,0
    8000b026:	fff7c793          	not	a5,a5
    8000b02a:	03179713          	slli	a4,a5,0x31
    8000b02e:	eb09                	bnez	a4,8000b040 <_ldcheck+0x38>
    8000b030:	0808                	addi	a0,sp,16
    8000b032:	fffff097          	auipc	ra,0xfffff
    8000b036:	8a8080e7          	jalr	-1880(ra) # 800098da <eisnan>
    8000b03a:	00153513          	seqz	a0,a0
    8000b03e:	0505                	addi	a0,a0,1
    8000b040:	70e2                	ld	ra,56(sp)
    8000b042:	6121                	addi	sp,sp,64
    8000b044:	8082                	ret

000000008000b046 <_localeconv_r>:
    8000b046:	00007517          	auipc	a0,0x7
    8000b04a:	95250513          	addi	a0,a0,-1710 # 80011998 <__global_locale+0x100>
    8000b04e:	8082                	ret

000000008000b050 <__ascii_mbtowc>:
    8000b050:	e185                	bnez	a1,8000b070 <__ascii_mbtowc+0x20>
    8000b052:	1141                	addi	sp,sp,-16
    8000b054:	006c                	addi	a1,sp,12
    8000b056:	4501                	li	a0,0
    8000b058:	ca11                	beqz	a2,8000b06c <__ascii_mbtowc+0x1c>
    8000b05a:	5579                	li	a0,-2
    8000b05c:	ca81                	beqz	a3,8000b06c <__ascii_mbtowc+0x1c>
    8000b05e:	00064783          	lbu	a5,0(a2)
    8000b062:	c19c                	sw	a5,0(a1)
    8000b064:	00064503          	lbu	a0,0(a2)
    8000b068:	00a03533          	snez	a0,a0
    8000b06c:	0141                	addi	sp,sp,16
    8000b06e:	8082                	ret
    8000b070:	4501                	li	a0,0
    8000b072:	ca19                	beqz	a2,8000b088 <__ascii_mbtowc+0x38>
    8000b074:	5579                	li	a0,-2
    8000b076:	ca89                	beqz	a3,8000b088 <__ascii_mbtowc+0x38>
    8000b078:	00064783          	lbu	a5,0(a2)
    8000b07c:	c19c                	sw	a5,0(a1)
    8000b07e:	00064503          	lbu	a0,0(a2)
    8000b082:	00a03533          	snez	a0,a0
    8000b086:	8082                	ret
    8000b088:	8082                	ret

000000008000b08a <memchr>:
    8000b08a:	0ff5f593          	andi	a1,a1,255
    8000b08e:	962a                	add	a2,a2,a0
    8000b090:	00c51463          	bne	a0,a2,8000b098 <memchr+0xe>
    8000b094:	4501                	li	a0,0
    8000b096:	8082                	ret
    8000b098:	00054783          	lbu	a5,0(a0)
    8000b09c:	feb78de3          	beq	a5,a1,8000b096 <memchr+0xc>
    8000b0a0:	0505                	addi	a0,a0,1
    8000b0a2:	b7fd                	j	8000b090 <memchr+0x6>

000000008000b0a4 <_Balloc>:
    8000b0a4:	7d3c                	ld	a5,120(a0)
    8000b0a6:	1101                	addi	sp,sp,-32
    8000b0a8:	e426                	sd	s1,8(sp)
    8000b0aa:	e04a                	sd	s2,0(sp)
    8000b0ac:	ec06                	sd	ra,24(sp)
    8000b0ae:	e822                	sd	s0,16(sp)
    8000b0b0:	84aa                	mv	s1,a0
    8000b0b2:	892e                	mv	s2,a1
    8000b0b4:	cb8d                	beqz	a5,8000b0e6 <_Balloc+0x42>
    8000b0b6:	7cb8                	ld	a4,120(s1)
    8000b0b8:	00391793          	slli	a5,s2,0x3
    8000b0bc:	97ba                	add	a5,a5,a4
    8000b0be:	6388                	ld	a0,0(a5)
    8000b0c0:	e139                	bnez	a0,8000b106 <_Balloc+0x62>
    8000b0c2:	4405                	li	s0,1
    8000b0c4:	0124143b          	sllw	s0,s0,s2
    8000b0c8:	fff4061b          	addiw	a2,s0,-1
    8000b0cc:	0621                	addi	a2,a2,8
    8000b0ce:	060a                	slli	a2,a2,0x2
    8000b0d0:	4585                	li	a1,1
    8000b0d2:	8526                	mv	a0,s1
    8000b0d4:	00000097          	auipc	ra,0x0
    8000b0d8:	2ee080e7          	jalr	750(ra) # 8000b3c2 <_calloc_r>
    8000b0dc:	cd11                	beqz	a0,8000b0f8 <_Balloc+0x54>
    8000b0de:	01252423          	sw	s2,8(a0)
    8000b0e2:	c540                	sw	s0,12(a0)
    8000b0e4:	a01d                	j	8000b10a <_Balloc+0x66>
    8000b0e6:	04100613          	li	a2,65
    8000b0ea:	45a1                	li	a1,8
    8000b0ec:	00000097          	auipc	ra,0x0
    8000b0f0:	2d6080e7          	jalr	726(ra) # 8000b3c2 <_calloc_r>
    8000b0f4:	fca8                	sd	a0,120(s1)
    8000b0f6:	f161                	bnez	a0,8000b0b6 <_Balloc+0x12>
    8000b0f8:	4501                	li	a0,0
    8000b0fa:	60e2                	ld	ra,24(sp)
    8000b0fc:	6442                	ld	s0,16(sp)
    8000b0fe:	64a2                	ld	s1,8(sp)
    8000b100:	6902                	ld	s2,0(sp)
    8000b102:	6105                	addi	sp,sp,32
    8000b104:	8082                	ret
    8000b106:	6118                	ld	a4,0(a0)
    8000b108:	e398                	sd	a4,0(a5)
    8000b10a:	00053823          	sd	zero,16(a0)
    8000b10e:	b7f5                	j	8000b0fa <_Balloc+0x56>

000000008000b110 <_Bfree>:
    8000b110:	c989                	beqz	a1,8000b122 <_Bfree+0x12>
    8000b112:	459c                	lw	a5,8(a1)
    8000b114:	00379713          	slli	a4,a5,0x3
    8000b118:	7d3c                	ld	a5,120(a0)
    8000b11a:	97ba                	add	a5,a5,a4
    8000b11c:	6398                	ld	a4,0(a5)
    8000b11e:	e198                	sd	a4,0(a1)
    8000b120:	e38c                	sd	a1,0(a5)
    8000b122:	8082                	ret

000000008000b124 <frexp>:
    8000b124:	1101                	addi	sp,sp,-32
    8000b126:	e426                	sd	s1,8(sp)
    8000b128:	800004b7          	lui	s1,0x80000
    8000b12c:	ec06                	sd	ra,24(sp)
    8000b12e:	e822                	sd	s0,16(sp)
    8000b130:	42055793          	srai	a5,a0,0x20
    8000b134:	fff4c493          	not	s1,s1
    8000b138:	0097f6b3          	and	a3,a5,s1
    8000b13c:	0005a023          	sw	zero,0(a1)
    8000b140:	7ff00637          	lui	a2,0x7ff00
    8000b144:	872a                	mv	a4,a0
    8000b146:	04c6df63          	ble	a2,a3,8000b1a4 <frexp+0x80>
    8000b14a:	00a6e633          	or	a2,a3,a0
    8000b14e:	2601                	sext.w	a2,a2
    8000b150:	ca31                	beqz	a2,8000b1a4 <frexp+0x80>
    8000b152:	7ff00637          	lui	a2,0x7ff00
    8000b156:	8e7d                	and	a2,a2,a5
    8000b158:	842e                	mv	s0,a1
    8000b15a:	e215                	bnez	a2,8000b17e <frexp+0x5a>
    8000b15c:	00003797          	auipc	a5,0x3
    8000b160:	56478793          	addi	a5,a5,1380 # 8000e6c0 <ezero+0x30>
    8000b164:	638c                	ld	a1,0(a5)
    8000b166:	ffffb097          	auipc	ra,0xffffb
    8000b16a:	73a080e7          	jalr	1850(ra) # 800068a0 <__muldf3>
    8000b16e:	42055793          	srai	a5,a0,0x20
    8000b172:	fca00613          	li	a2,-54
    8000b176:	872a                	mv	a4,a0
    8000b178:	0097f6b3          	and	a3,a5,s1
    8000b17c:	c010                	sw	a2,0(s0)
    8000b17e:	4010                	lw	a2,0(s0)
    8000b180:	4146d69b          	sraiw	a3,a3,0x14
    8000b184:	c026869b          	addiw	a3,a3,-1022
    8000b188:	9eb1                	addw	a3,a3,a2
    8000b18a:	c014                	sw	a3,0(s0)
    8000b18c:	801006b7          	lui	a3,0x80100
    8000b190:	16fd                	addi	a3,a3,-1
    8000b192:	8ff5                	and	a5,a5,a3
    8000b194:	3fe006b7          	lui	a3,0x3fe00
    8000b198:	8fd5                	or	a5,a5,a3
    8000b19a:	56fd                	li	a3,-1
    8000b19c:	9281                	srli	a3,a3,0x20
    8000b19e:	1782                	slli	a5,a5,0x20
    8000b1a0:	8f75                	and	a4,a4,a3
    8000b1a2:	8f5d                	or	a4,a4,a5
    8000b1a4:	60e2                	ld	ra,24(sp)
    8000b1a6:	6442                	ld	s0,16(sp)
    8000b1a8:	64a2                	ld	s1,8(sp)
    8000b1aa:	853a                	mv	a0,a4
    8000b1ac:	6105                	addi	sp,sp,32
    8000b1ae:	8082                	ret

000000008000b1b0 <sprintf>:
    8000b1b0:	7111                	addi	sp,sp,-256
    8000b1b2:	f5be                	sd	a5,232(sp)
    8000b1b4:	800007b7          	lui	a5,0x80000
    8000b1b8:	fff7c793          	not	a5,a5
    8000b1bc:	d43e                	sw	a5,40(sp)
    8000b1be:	ca3e                	sw	a5,20(sp)
    8000b1c0:	77c1                	lui	a5,0xffff0
    8000b1c2:	2087879b          	addiw	a5,a5,520
    8000b1c6:	e9b2                	sd	a2,208(sp)
    8000b1c8:	edb6                	sd	a3,216(sp)
    8000b1ca:	f1ba                	sd	a4,224(sp)
    8000b1cc:	f9c2                	sd	a6,240(sp)
    8000b1ce:	fdc6                	sd	a7,248(sp)
    8000b1d0:	cc3e                	sw	a5,24(sp)
    8000b1d2:	00007797          	auipc	a5,0x7
    8000b1d6:	8de78793          	addi	a5,a5,-1826 # 80011ab0 <_impure_ptr>
    8000b1da:	e42a                	sd	a0,8(sp)
    8000b1dc:	f02a                	sd	a0,32(sp)
    8000b1de:	6388                	ld	a0,0(a5)
    8000b1e0:	0994                	addi	a3,sp,208
    8000b1e2:	862e                	mv	a2,a1
    8000b1e4:	002c                	addi	a1,sp,8
    8000b1e6:	e586                	sd	ra,200(sp)
    8000b1e8:	e036                	sd	a3,0(sp)
    8000b1ea:	ffffd097          	auipc	ra,0xffffd
    8000b1ee:	ea2080e7          	jalr	-350(ra) # 8000808c <_svfprintf_r>
    8000b1f2:	67a2                	ld	a5,8(sp)
    8000b1f4:	00078023          	sb	zero,0(a5)
    8000b1f8:	60ae                	ld	ra,200(sp)
    8000b1fa:	6111                	addi	sp,sp,256
    8000b1fc:	8082                	ret

000000008000b1fe <strcpy>:
    8000b1fe:	87aa                	mv	a5,a0
    8000b200:	0005c703          	lbu	a4,0(a1)
    8000b204:	0785                	addi	a5,a5,1
    8000b206:	0585                	addi	a1,a1,1
    8000b208:	fee78fa3          	sb	a4,-1(a5)
    8000b20c:	fb75                	bnez	a4,8000b200 <strcpy+0x2>
    8000b20e:	8082                	ret

000000008000b210 <strlen>:
    8000b210:	87aa                	mv	a5,a0
    8000b212:	0785                	addi	a5,a5,1
    8000b214:	fff7c703          	lbu	a4,-1(a5)
    8000b218:	ff6d                	bnez	a4,8000b212 <strlen+0x2>
    8000b21a:	40a78533          	sub	a0,a5,a0
    8000b21e:	157d                	addi	a0,a0,-1
    8000b220:	8082                	ret

000000008000b222 <strncpy>:
    8000b222:	87aa                	mv	a5,a0
    8000b224:	ca09                	beqz	a2,8000b236 <strncpy+0x14>
    8000b226:	0585                	addi	a1,a1,1
    8000b228:	fff5c703          	lbu	a4,-1(a1)
    8000b22c:	0785                	addi	a5,a5,1
    8000b22e:	167d                	addi	a2,a2,-1
    8000b230:	fee78fa3          	sb	a4,-1(a5)
    8000b234:	fb65                	bnez	a4,8000b224 <strncpy+0x2>
    8000b236:	963e                	add	a2,a2,a5
    8000b238:	00c79363          	bne	a5,a2,8000b23e <strncpy+0x1c>
    8000b23c:	8082                	ret
    8000b23e:	0785                	addi	a5,a5,1
    8000b240:	fe078fa3          	sb	zero,-1(a5)
    8000b244:	bfd5                	j	8000b238 <strncpy+0x16>

000000008000b246 <__ssprint_r>:
    8000b246:	6a1c                	ld	a5,16(a2)
    8000b248:	711d                	addi	sp,sp,-96
    8000b24a:	fc4e                	sd	s3,56(sp)
    8000b24c:	ec86                	sd	ra,88(sp)
    8000b24e:	e8a2                	sd	s0,80(sp)
    8000b250:	e4a6                	sd	s1,72(sp)
    8000b252:	e0ca                	sd	s2,64(sp)
    8000b254:	f852                	sd	s4,48(sp)
    8000b256:	f456                	sd	s5,40(sp)
    8000b258:	f05a                	sd	s6,32(sp)
    8000b25a:	ec5e                	sd	s7,24(sp)
    8000b25c:	e862                	sd	s8,16(sp)
    8000b25e:	e466                	sd	s9,8(sp)
    8000b260:	e06a                	sd	s10,0(sp)
    8000b262:	89b2                	mv	s3,a2
    8000b264:	cfed                	beqz	a5,8000b35e <__ssprint_r+0x118>
    8000b266:	00063b03          	ld	s6,0(a2) # 7ff00000 <_stack_size+0x7fef8000>
    8000b26a:	8a2a                	mv	s4,a0
    8000b26c:	842e                	mv	s0,a1
    8000b26e:	4a81                	li	s5,0
    8000b270:	4901                	li	s2,0
    8000b272:	4b8d                	li	s7,3
    8000b274:	4c09                	li	s8,2
    8000b276:	06090863          	beqz	s2,8000b2e6 <__ssprint_r+0xa0>
    8000b27a:	00c42d03          	lw	s10,12(s0)
    8000b27e:	0ba96363          	bltu	s2,s10,8000b324 <__ssprint_r+0xde>
    8000b282:	01045703          	lhu	a4,16(s0)
    8000b286:	48077793          	andi	a5,a4,1152
    8000b28a:	cfc9                	beqz	a5,8000b324 <__ssprint_r+0xde>
    8000b28c:	5004                	lw	s1,32(s0)
    8000b28e:	6c0c                	ld	a1,24(s0)
    8000b290:	601c                	ld	a5,0(s0)
    8000b292:	029b84bb          	mulw	s1,s7,s1
    8000b296:	8f8d                	sub	a5,a5,a1
    8000b298:	00078c9b          	sext.w	s9,a5
    8000b29c:	001c8693          	addi	a3,s9,1
    8000b2a0:	96ca                	add	a3,a3,s2
    8000b2a2:	0384c4bb          	divw	s1,s1,s8
    8000b2a6:	00d4f663          	bleu	a3,s1,8000b2b2 <__ssprint_r+0x6c>
    8000b2aa:	0017849b          	addiw	s1,a5,1
    8000b2ae:	012484bb          	addw	s1,s1,s2
    8000b2b2:	40077713          	andi	a4,a4,1024
    8000b2b6:	c769                	beqz	a4,8000b380 <__ssprint_r+0x13a>
    8000b2b8:	85a6                	mv	a1,s1
    8000b2ba:	8552                	mv	a0,s4
    8000b2bc:	ffffd097          	auipc	ra,0xffffd
    8000b2c0:	81e080e7          	jalr	-2018(ra) # 80007ada <_malloc_r>
    8000b2c4:	8d2a                	mv	s10,a0
    8000b2c6:	e515                	bnez	a0,8000b2f2 <__ssprint_r+0xac>
    8000b2c8:	47b1                	li	a5,12
    8000b2ca:	00fa2023          	sw	a5,0(s4) # 10000 <_stack_size+0x8000>
    8000b2ce:	01045783          	lhu	a5,16(s0)
    8000b2d2:	557d                	li	a0,-1
    8000b2d4:	0407e793          	ori	a5,a5,64
    8000b2d8:	00f41823          	sh	a5,16(s0)
    8000b2dc:	0009b823          	sd	zero,16(s3)
    8000b2e0:	0009a423          	sw	zero,8(s3)
    8000b2e4:	a041                	j	8000b364 <__ssprint_r+0x11e>
    8000b2e6:	000b3a83          	ld	s5,0(s6)
    8000b2ea:	008b3903          	ld	s2,8(s6)
    8000b2ee:	0b41                	addi	s6,s6,16
    8000b2f0:	b759                	j	8000b276 <__ssprint_r+0x30>
    8000b2f2:	6c0c                	ld	a1,24(s0)
    8000b2f4:	8666                	mv	a2,s9
    8000b2f6:	ffffc097          	auipc	ra,0xffffc
    8000b2fa:	364080e7          	jalr	868(ra) # 8000765a <memcpy>
    8000b2fe:	01045783          	lhu	a5,16(s0)
    8000b302:	b7f7f793          	andi	a5,a5,-1153
    8000b306:	0807e793          	ori	a5,a5,128
    8000b30a:	00f41823          	sh	a5,16(s0)
    8000b30e:	01a43c23          	sd	s10,24(s0)
    8000b312:	d004                	sw	s1,32(s0)
    8000b314:	9d66                	add	s10,s10,s9
    8000b316:	419484bb          	subw	s1,s1,s9
    8000b31a:	01a43023          	sd	s10,0(s0)
    8000b31e:	c444                	sw	s1,12(s0)
    8000b320:	00090d1b          	sext.w	s10,s2
    8000b324:	0009049b          	sext.w	s1,s2
    8000b328:	01a97363          	bleu	s10,s2,8000b32e <__ssprint_r+0xe8>
    8000b32c:	8d26                	mv	s10,s1
    8000b32e:	6008                	ld	a0,0(s0)
    8000b330:	866a                	mv	a2,s10
    8000b332:	85d6                	mv	a1,s5
    8000b334:	00000097          	auipc	ra,0x0
    8000b338:	112080e7          	jalr	274(ra) # 8000b446 <memmove>
    8000b33c:	445c                	lw	a5,12(s0)
    8000b33e:	9aa6                	add	s5,s5,s1
    8000b340:	40990933          	sub	s2,s2,s1
    8000b344:	41a787bb          	subw	a5,a5,s10
    8000b348:	c45c                	sw	a5,12(s0)
    8000b34a:	601c                	ld	a5,0(s0)
    8000b34c:	9d3e                	add	s10,s10,a5
    8000b34e:	0109b783          	ld	a5,16(s3)
    8000b352:	01a43023          	sd	s10,0(s0)
    8000b356:	8f85                	sub	a5,a5,s1
    8000b358:	00f9b823          	sd	a5,16(s3)
    8000b35c:	ff89                	bnez	a5,8000b276 <__ssprint_r+0x30>
    8000b35e:	0009a423          	sw	zero,8(s3)
    8000b362:	4501                	li	a0,0
    8000b364:	60e6                	ld	ra,88(sp)
    8000b366:	6446                	ld	s0,80(sp)
    8000b368:	64a6                	ld	s1,72(sp)
    8000b36a:	6906                	ld	s2,64(sp)
    8000b36c:	79e2                	ld	s3,56(sp)
    8000b36e:	7a42                	ld	s4,48(sp)
    8000b370:	7aa2                	ld	s5,40(sp)
    8000b372:	7b02                	ld	s6,32(sp)
    8000b374:	6be2                	ld	s7,24(sp)
    8000b376:	6c42                	ld	s8,16(sp)
    8000b378:	6ca2                	ld	s9,8(sp)
    8000b37a:	6d02                	ld	s10,0(sp)
    8000b37c:	6125                	addi	sp,sp,96
    8000b37e:	8082                	ret
    8000b380:	8626                	mv	a2,s1
    8000b382:	8552                	mv	a0,s4
    8000b384:	00000097          	auipc	ra,0x0
    8000b388:	10c080e7          	jalr	268(ra) # 8000b490 <_realloc_r>
    8000b38c:	8d2a                	mv	s10,a0
    8000b38e:	f141                	bnez	a0,8000b30e <__ssprint_r+0xc8>
    8000b390:	6c0c                	ld	a1,24(s0)
    8000b392:	8552                	mv	a0,s4
    8000b394:	ffffc097          	auipc	ra,0xffffc
    8000b398:	558080e7          	jalr	1368(ra) # 800078ec <_free_r>
    8000b39c:	b735                	j	8000b2c8 <__ssprint_r+0x82>

000000008000b39e <__ascii_wctomb>:
    8000b39e:	0006071b          	sext.w	a4,a2
    8000b3a2:	cd91                	beqz	a1,8000b3be <__ascii_wctomb+0x20>
    8000b3a4:	0ff00793          	li	a5,255
    8000b3a8:	00e7f763          	bleu	a4,a5,8000b3b6 <__ascii_wctomb+0x18>
    8000b3ac:	08a00793          	li	a5,138
    8000b3b0:	c11c                	sw	a5,0(a0)
    8000b3b2:	557d                	li	a0,-1
    8000b3b4:	8082                	ret
    8000b3b6:	00c58023          	sb	a2,0(a1)
    8000b3ba:	4505                	li	a0,1
    8000b3bc:	8082                	ret
    8000b3be:	4501                	li	a0,0
    8000b3c0:	8082                	ret

000000008000b3c2 <_calloc_r>:
    8000b3c2:	02c585b3          	mul	a1,a1,a2
    8000b3c6:	1141                	addi	sp,sp,-16
    8000b3c8:	e022                	sd	s0,0(sp)
    8000b3ca:	e406                	sd	ra,8(sp)
    8000b3cc:	ffffc097          	auipc	ra,0xffffc
    8000b3d0:	70e080e7          	jalr	1806(ra) # 80007ada <_malloc_r>
    8000b3d4:	842a                	mv	s0,a0
    8000b3d6:	cd15                	beqz	a0,8000b412 <_calloc_r+0x50>
    8000b3d8:	ff853603          	ld	a2,-8(a0)
    8000b3dc:	04800713          	li	a4,72
    8000b3e0:	9a71                	andi	a2,a2,-4
    8000b3e2:	1661                	addi	a2,a2,-8
    8000b3e4:	04c76b63          	bltu	a4,a2,8000b43a <_calloc_r+0x78>
    8000b3e8:	02700693          	li	a3,39
    8000b3ec:	87aa                	mv	a5,a0
    8000b3ee:	00c6fc63          	bleu	a2,a3,8000b406 <_calloc_r+0x44>
    8000b3f2:	00053023          	sd	zero,0(a0)
    8000b3f6:	00053423          	sd	zero,8(a0)
    8000b3fa:	03700793          	li	a5,55
    8000b3fe:	00c7ef63          	bltu	a5,a2,8000b41c <_calloc_r+0x5a>
    8000b402:	01050793          	addi	a5,a0,16
    8000b406:	0007b023          	sd	zero,0(a5)
    8000b40a:	0007b423          	sd	zero,8(a5)
    8000b40e:	0007b823          	sd	zero,16(a5)
    8000b412:	8522                	mv	a0,s0
    8000b414:	60a2                	ld	ra,8(sp)
    8000b416:	6402                	ld	s0,0(sp)
    8000b418:	0141                	addi	sp,sp,16
    8000b41a:	8082                	ret
    8000b41c:	00053823          	sd	zero,16(a0)
    8000b420:	00053c23          	sd	zero,24(a0)
    8000b424:	02050793          	addi	a5,a0,32
    8000b428:	fce61fe3          	bne	a2,a4,8000b406 <_calloc_r+0x44>
    8000b42c:	02053023          	sd	zero,32(a0)
    8000b430:	03050793          	addi	a5,a0,48
    8000b434:	02053423          	sd	zero,40(a0)
    8000b438:	b7f9                	j	8000b406 <_calloc_r+0x44>
    8000b43a:	4581                	li	a1,0
    8000b43c:	ffffc097          	auipc	ra,0xffffc
    8000b440:	2d4080e7          	jalr	724(ra) # 80007710 <memset>
    8000b444:	b7f9                	j	8000b412 <_calloc_r+0x50>

000000008000b446 <memmove>:
    8000b446:	04a5f363          	bleu	a0,a1,8000b48c <memmove+0x46>
    8000b44a:	00c586b3          	add	a3,a1,a2
    8000b44e:	02d57f63          	bleu	a3,a0,8000b48c <memmove+0x46>
    8000b452:	fff64593          	not	a1,a2
    8000b456:	4781                	li	a5,0
    8000b458:	17fd                	addi	a5,a5,-1
    8000b45a:	00f59363          	bne	a1,a5,8000b460 <memmove+0x1a>
    8000b45e:	8082                	ret
    8000b460:	00f68733          	add	a4,a3,a5
    8000b464:	00074803          	lbu	a6,0(a4) # ffffffffffff8000 <_buffer_start+0xffffffff7ffb07c0>
    8000b468:	00c78733          	add	a4,a5,a2
    8000b46c:	972a                	add	a4,a4,a0
    8000b46e:	01070023          	sb	a6,0(a4)
    8000b472:	b7dd                	j	8000b458 <memmove+0x12>
    8000b474:	00f58733          	add	a4,a1,a5
    8000b478:	00074683          	lbu	a3,0(a4)
    8000b47c:	00f50733          	add	a4,a0,a5
    8000b480:	0785                	addi	a5,a5,1
    8000b482:	00d70023          	sb	a3,0(a4)
    8000b486:	fef617e3          	bne	a2,a5,8000b474 <memmove+0x2e>
    8000b48a:	8082                	ret
    8000b48c:	4781                	li	a5,0
    8000b48e:	bfe5                	j	8000b486 <memmove+0x40>

000000008000b490 <_realloc_r>:
    8000b490:	711d                	addi	sp,sp,-96
    8000b492:	e8a2                	sd	s0,80(sp)
    8000b494:	ec86                	sd	ra,88(sp)
    8000b496:	842e                	mv	s0,a1
    8000b498:	e4a6                	sd	s1,72(sp)
    8000b49a:	e0ca                	sd	s2,64(sp)
    8000b49c:	fc4e                	sd	s3,56(sp)
    8000b49e:	f852                	sd	s4,48(sp)
    8000b4a0:	f456                	sd	s5,40(sp)
    8000b4a2:	f05a                	sd	s6,32(sp)
    8000b4a4:	ec5e                	sd	s7,24(sp)
    8000b4a6:	85b2                	mv	a1,a2
    8000b4a8:	ec19                	bnez	s0,8000b4c6 <_realloc_r+0x36>
    8000b4aa:	6446                	ld	s0,80(sp)
    8000b4ac:	60e6                	ld	ra,88(sp)
    8000b4ae:	64a6                	ld	s1,72(sp)
    8000b4b0:	6906                	ld	s2,64(sp)
    8000b4b2:	79e2                	ld	s3,56(sp)
    8000b4b4:	7a42                	ld	s4,48(sp)
    8000b4b6:	7aa2                	ld	s5,40(sp)
    8000b4b8:	7b02                	ld	s6,32(sp)
    8000b4ba:	6be2                	ld	s7,24(sp)
    8000b4bc:	6125                	addi	sp,sp,96
    8000b4be:	ffffc317          	auipc	t1,0xffffc
    8000b4c2:	61c30067          	jr	1564(t1) # 80007ada <_malloc_r>
    8000b4c6:	8aaa                	mv	s5,a0
    8000b4c8:	e432                	sd	a2,8(sp)
    8000b4ca:	ffffd097          	auipc	ra,0xffffd
    8000b4ce:	b6c080e7          	jalr	-1172(ra) # 80008036 <__malloc_lock>
    8000b4d2:	65a2                	ld	a1,8(sp)
    8000b4d4:	ff843683          	ld	a3,-8(s0)
    8000b4d8:	02e00793          	li	a5,46
    8000b4dc:	01758993          	addi	s3,a1,23
    8000b4e0:	ff040b93          	addi	s7,s0,-16
    8000b4e4:	ffc6f913          	andi	s2,a3,-4
    8000b4e8:	0337fa63          	bleu	s3,a5,8000b51c <_realloc_r+0x8c>
    8000b4ec:	800007b7          	lui	a5,0x80000
    8000b4f0:	ff09fb13          	andi	s6,s3,-16
    8000b4f4:	fff7c793          	not	a5,a5
    8000b4f8:	0367f463          	bleu	s6,a5,8000b520 <_realloc_r+0x90>
    8000b4fc:	47b1                	li	a5,12
    8000b4fe:	00faa023          	sw	a5,0(s5)
    8000b502:	4a01                	li	s4,0
    8000b504:	60e6                	ld	ra,88(sp)
    8000b506:	6446                	ld	s0,80(sp)
    8000b508:	8552                	mv	a0,s4
    8000b50a:	64a6                	ld	s1,72(sp)
    8000b50c:	6906                	ld	s2,64(sp)
    8000b50e:	79e2                	ld	s3,56(sp)
    8000b510:	7a42                	ld	s4,48(sp)
    8000b512:	7aa2                	ld	s5,40(sp)
    8000b514:	7b02                	ld	s6,32(sp)
    8000b516:	6be2                	ld	s7,24(sp)
    8000b518:	6125                	addi	sp,sp,96
    8000b51a:	8082                	ret
    8000b51c:	02000b13          	li	s6,32
    8000b520:	fcbb6ee3          	bltu	s6,a1,8000b4fc <_realloc_r+0x6c>
    8000b524:	35695763          	ble	s6,s2,8000b872 <_realloc_r+0x3e2>
    8000b528:	00006717          	auipc	a4,0x6
    8000b52c:	b6070713          	addi	a4,a4,-1184 # 80011088 <__malloc_av_>
    8000b530:	6b10                	ld	a2,16(a4)
    8000b532:	012b87b3          	add	a5,s7,s2
    8000b536:	6798                	ld	a4,8(a5)
    8000b538:	00f60863          	beq	a2,a5,8000b548 <_realloc_r+0xb8>
    8000b53c:	ffe77513          	andi	a0,a4,-2
    8000b540:	953e                	add	a0,a0,a5
    8000b542:	6508                	ld	a0,8(a0)
    8000b544:	8905                	andi	a0,a0,1
    8000b546:	ed21                	bnez	a0,8000b59e <_realloc_r+0x10e>
    8000b548:	9b71                	andi	a4,a4,-4
    8000b54a:	00e909b3          	add	s3,s2,a4
    8000b54e:	04f61063          	bne	a2,a5,8000b58e <_realloc_r+0xfe>
    8000b552:	020b0513          	addi	a0,s6,32
    8000b556:	04a9c663          	blt	s3,a0,8000b5a2 <_realloc_r+0x112>
    8000b55a:	9bda                	add	s7,s7,s6
    8000b55c:	416989b3          	sub	s3,s3,s6
    8000b560:	00006797          	auipc	a5,0x6
    8000b564:	b377bc23          	sd	s7,-1224(a5) # 80011098 <__malloc_av_+0x10>
    8000b568:	0019e993          	ori	s3,s3,1
    8000b56c:	013bb423          	sd	s3,8(s7)
    8000b570:	ff843983          	ld	s3,-8(s0)
    8000b574:	8556                	mv	a0,s5
    8000b576:	8a22                	mv	s4,s0
    8000b578:	0019f993          	andi	s3,s3,1
    8000b57c:	0169e9b3          	or	s3,s3,s6
    8000b580:	ff343c23          	sd	s3,-8(s0)
    8000b584:	ffffd097          	auipc	ra,0xffffd
    8000b588:	ac2080e7          	jalr	-1342(ra) # 80008046 <__malloc_unlock>
    8000b58c:	bfa5                	j	8000b504 <_realloc_r+0x74>
    8000b58e:	0169ca63          	blt	s3,s6,8000b5a2 <_realloc_r+0x112>
    8000b592:	6f98                	ld	a4,24(a5)
    8000b594:	6b9c                	ld	a5,16(a5)
    8000b596:	ef98                	sd	a4,24(a5)
    8000b598:	eb1c                	sd	a5,16(a4)
    8000b59a:	84de                	mv	s1,s7
    8000b59c:	a235                	j	8000b6c8 <_realloc_r+0x238>
    8000b59e:	4701                	li	a4,0
    8000b5a0:	4781                	li	a5,0
    8000b5a2:	8a85                	andi	a3,a3,1
    8000b5a4:	22069163          	bnez	a3,8000b7c6 <_realloc_r+0x336>
    8000b5a8:	ff043483          	ld	s1,-16(s0)
    8000b5ac:	409b84b3          	sub	s1,s7,s1
    8000b5b0:	0084ba03          	ld	s4,8(s1) # ffffffff80000008 <_buffer_start+0xfffffffefffb87c8>
    8000b5b4:	ffca7a13          	andi	s4,s4,-4
    8000b5b8:	9a4a                	add	s4,s4,s2
    8000b5ba:	18078663          	beqz	a5,8000b746 <_realloc_r+0x2b6>
    8000b5be:	014709b3          	add	s3,a4,s4
    8000b5c2:	0af61c63          	bne	a2,a5,8000b67a <_realloc_r+0x1ea>
    8000b5c6:	020b0793          	addi	a5,s6,32
    8000b5ca:	16f9ce63          	blt	s3,a5,8000b746 <_realloc_r+0x2b6>
    8000b5ce:	6898                	ld	a4,16(s1)
    8000b5d0:	6c9c                	ld	a5,24(s1)
    8000b5d2:	ff890613          	addi	a2,s2,-8
    8000b5d6:	01048a13          	addi	s4,s1,16
    8000b5da:	ef1c                	sd	a5,24(a4)
    8000b5dc:	eb98                	sd	a4,16(a5)
    8000b5de:	04800713          	li	a4,72
    8000b5e2:	08c76563          	bltu	a4,a2,8000b66c <_realloc_r+0x1dc>
    8000b5e6:	02700693          	li	a3,39
    8000b5ea:	87d2                	mv	a5,s4
    8000b5ec:	00c6fd63          	bleu	a2,a3,8000b606 <_realloc_r+0x176>
    8000b5f0:	601c                	ld	a5,0(s0)
    8000b5f2:	e89c                	sd	a5,16(s1)
    8000b5f4:	641c                	ld	a5,8(s0)
    8000b5f6:	ec9c                	sd	a5,24(s1)
    8000b5f8:	03700793          	li	a5,55
    8000b5fc:	04c7e363          	bltu	a5,a2,8000b642 <_realloc_r+0x1b2>
    8000b600:	0441                	addi	s0,s0,16
    8000b602:	02048793          	addi	a5,s1,32
    8000b606:	6018                	ld	a4,0(s0)
    8000b608:	e398                	sd	a4,0(a5)
    8000b60a:	6418                	ld	a4,8(s0)
    8000b60c:	e798                	sd	a4,8(a5)
    8000b60e:	6818                	ld	a4,16(s0)
    8000b610:	eb98                	sd	a4,16(a5)
    8000b612:	016487b3          	add	a5,s1,s6
    8000b616:	416989b3          	sub	s3,s3,s6
    8000b61a:	00006717          	auipc	a4,0x6
    8000b61e:	a6f73f23          	sd	a5,-1410(a4) # 80011098 <__malloc_av_+0x10>
    8000b622:	0019e993          	ori	s3,s3,1
    8000b626:	0137b423          	sd	s3,8(a5)
    8000b62a:	649c                	ld	a5,8(s1)
    8000b62c:	8b85                	andi	a5,a5,1
    8000b62e:	0167e9b3          	or	s3,a5,s6
    8000b632:	0134b423          	sd	s3,8(s1)
    8000b636:	8556                	mv	a0,s5
    8000b638:	ffffd097          	auipc	ra,0xffffd
    8000b63c:	a0e080e7          	jalr	-1522(ra) # 80008046 <__malloc_unlock>
    8000b640:	b5d1                	j	8000b504 <_realloc_r+0x74>
    8000b642:	681c                	ld	a5,16(s0)
    8000b644:	f09c                	sd	a5,32(s1)
    8000b646:	6c1c                	ld	a5,24(s0)
    8000b648:	f49c                	sd	a5,40(s1)
    8000b64a:	00e60763          	beq	a2,a4,8000b658 <_realloc_r+0x1c8>
    8000b64e:	02040413          	addi	s0,s0,32
    8000b652:	03048793          	addi	a5,s1,48
    8000b656:	bf45                	j	8000b606 <_realloc_r+0x176>
    8000b658:	701c                	ld	a5,32(s0)
    8000b65a:	03040413          	addi	s0,s0,48
    8000b65e:	f89c                	sd	a5,48(s1)
    8000b660:	ff843703          	ld	a4,-8(s0)
    8000b664:	04048793          	addi	a5,s1,64
    8000b668:	fc98                	sd	a4,56(s1)
    8000b66a:	bf71                	j	8000b606 <_realloc_r+0x176>
    8000b66c:	85a2                	mv	a1,s0
    8000b66e:	8552                	mv	a0,s4
    8000b670:	00000097          	auipc	ra,0x0
    8000b674:	dd6080e7          	jalr	-554(ra) # 8000b446 <memmove>
    8000b678:	bf69                	j	8000b612 <_realloc_r+0x182>
    8000b67a:	0d69c663          	blt	s3,s6,8000b746 <_realloc_r+0x2b6>
    8000b67e:	6f98                	ld	a4,24(a5)
    8000b680:	6b9c                	ld	a5,16(a5)
    8000b682:	ff890613          	addi	a2,s2,-8
    8000b686:	01048513          	addi	a0,s1,16
    8000b68a:	ef98                	sd	a4,24(a5)
    8000b68c:	eb1c                	sd	a5,16(a4)
    8000b68e:	6898                	ld	a4,16(s1)
    8000b690:	6c9c                	ld	a5,24(s1)
    8000b692:	ef1c                	sd	a5,24(a4)
    8000b694:	eb98                	sd	a4,16(a5)
    8000b696:	04800793          	li	a5,72
    8000b69a:	0ac7e063          	bltu	a5,a2,8000b73a <_realloc_r+0x2aa>
    8000b69e:	02700713          	li	a4,39
    8000b6a2:	00c77d63          	bleu	a2,a4,8000b6bc <_realloc_r+0x22c>
    8000b6a6:	6018                	ld	a4,0(s0)
    8000b6a8:	e898                	sd	a4,16(s1)
    8000b6aa:	6418                	ld	a4,8(s0)
    8000b6ac:	ec98                	sd	a4,24(s1)
    8000b6ae:	03700713          	li	a4,55
    8000b6b2:	04c76f63          	bltu	a4,a2,8000b710 <_realloc_r+0x280>
    8000b6b6:	0441                	addi	s0,s0,16
    8000b6b8:	02048513          	addi	a0,s1,32
    8000b6bc:	601c                	ld	a5,0(s0)
    8000b6be:	e11c                	sd	a5,0(a0)
    8000b6c0:	641c                	ld	a5,8(s0)
    8000b6c2:	e51c                	sd	a5,8(a0)
    8000b6c4:	681c                	ld	a5,16(s0)
    8000b6c6:	e91c                	sd	a5,16(a0)
    8000b6c8:	6498                	ld	a4,8(s1)
    8000b6ca:	416986b3          	sub	a3,s3,s6
    8000b6ce:	467d                	li	a2,31
    8000b6d0:	8b05                	andi	a4,a4,1
    8000b6d2:	013487b3          	add	a5,s1,s3
    8000b6d6:	1ad67063          	bleu	a3,a2,8000b876 <_realloc_r+0x3e6>
    8000b6da:	00eb69b3          	or	s3,s6,a4
    8000b6de:	0134b423          	sd	s3,8(s1)
    8000b6e2:	016485b3          	add	a1,s1,s6
    8000b6e6:	0016e693          	ori	a3,a3,1
    8000b6ea:	e594                	sd	a3,8(a1)
    8000b6ec:	6798                	ld	a4,8(a5)
    8000b6ee:	05c1                	addi	a1,a1,16
    8000b6f0:	8556                	mv	a0,s5
    8000b6f2:	00176713          	ori	a4,a4,1
    8000b6f6:	e798                	sd	a4,8(a5)
    8000b6f8:	ffffc097          	auipc	ra,0xffffc
    8000b6fc:	1f4080e7          	jalr	500(ra) # 800078ec <_free_r>
    8000b700:	8556                	mv	a0,s5
    8000b702:	ffffd097          	auipc	ra,0xffffd
    8000b706:	944080e7          	jalr	-1724(ra) # 80008046 <__malloc_unlock>
    8000b70a:	01048a13          	addi	s4,s1,16
    8000b70e:	bbdd                	j	8000b504 <_realloc_r+0x74>
    8000b710:	6818                	ld	a4,16(s0)
    8000b712:	f098                	sd	a4,32(s1)
    8000b714:	6c18                	ld	a4,24(s0)
    8000b716:	f498                	sd	a4,40(s1)
    8000b718:	00f60763          	beq	a2,a5,8000b726 <_realloc_r+0x296>
    8000b71c:	02040413          	addi	s0,s0,32
    8000b720:	03048513          	addi	a0,s1,48
    8000b724:	bf61                	j	8000b6bc <_realloc_r+0x22c>
    8000b726:	701c                	ld	a5,32(s0)
    8000b728:	04048513          	addi	a0,s1,64
    8000b72c:	03040413          	addi	s0,s0,48
    8000b730:	f89c                	sd	a5,48(s1)
    8000b732:	ff843783          	ld	a5,-8(s0)
    8000b736:	fc9c                	sd	a5,56(s1)
    8000b738:	b751                	j	8000b6bc <_realloc_r+0x22c>
    8000b73a:	85a2                	mv	a1,s0
    8000b73c:	00000097          	auipc	ra,0x0
    8000b740:	d0a080e7          	jalr	-758(ra) # 8000b446 <memmove>
    8000b744:	b751                	j	8000b6c8 <_realloc_r+0x238>
    8000b746:	096a4063          	blt	s4,s6,8000b7c6 <_realloc_r+0x336>
    8000b74a:	6c9c                	ld	a5,24(s1)
    8000b74c:	6898                	ld	a4,16(s1)
    8000b74e:	ff890613          	addi	a2,s2,-8
    8000b752:	01048513          	addi	a0,s1,16
    8000b756:	ef1c                	sd	a5,24(a4)
    8000b758:	eb98                	sd	a4,16(a5)
    8000b75a:	04800793          	li	a5,72
    8000b75e:	04c7ee63          	bltu	a5,a2,8000b7ba <_realloc_r+0x32a>
    8000b762:	02700713          	li	a4,39
    8000b766:	00c77d63          	bleu	a2,a4,8000b780 <_realloc_r+0x2f0>
    8000b76a:	6018                	ld	a4,0(s0)
    8000b76c:	e898                	sd	a4,16(s1)
    8000b76e:	6418                	ld	a4,8(s0)
    8000b770:	ec98                	sd	a4,24(s1)
    8000b772:	03700713          	li	a4,55
    8000b776:	00c76d63          	bltu	a4,a2,8000b790 <_realloc_r+0x300>
    8000b77a:	0441                	addi	s0,s0,16
    8000b77c:	02048513          	addi	a0,s1,32
    8000b780:	601c                	ld	a5,0(s0)
    8000b782:	e11c                	sd	a5,0(a0)
    8000b784:	641c                	ld	a5,8(s0)
    8000b786:	e51c                	sd	a5,8(a0)
    8000b788:	681c                	ld	a5,16(s0)
    8000b78a:	e91c                	sd	a5,16(a0)
    8000b78c:	89d2                	mv	s3,s4
    8000b78e:	bf2d                	j	8000b6c8 <_realloc_r+0x238>
    8000b790:	6818                	ld	a4,16(s0)
    8000b792:	f098                	sd	a4,32(s1)
    8000b794:	6c18                	ld	a4,24(s0)
    8000b796:	f498                	sd	a4,40(s1)
    8000b798:	00f60763          	beq	a2,a5,8000b7a6 <_realloc_r+0x316>
    8000b79c:	02040413          	addi	s0,s0,32
    8000b7a0:	03048513          	addi	a0,s1,48
    8000b7a4:	bff1                	j	8000b780 <_realloc_r+0x2f0>
    8000b7a6:	701c                	ld	a5,32(s0)
    8000b7a8:	04048513          	addi	a0,s1,64
    8000b7ac:	03040413          	addi	s0,s0,48
    8000b7b0:	f89c                	sd	a5,48(s1)
    8000b7b2:	ff843783          	ld	a5,-8(s0)
    8000b7b6:	fc9c                	sd	a5,56(s1)
    8000b7b8:	b7e1                	j	8000b780 <_realloc_r+0x2f0>
    8000b7ba:	85a2                	mv	a1,s0
    8000b7bc:	00000097          	auipc	ra,0x0
    8000b7c0:	c8a080e7          	jalr	-886(ra) # 8000b446 <memmove>
    8000b7c4:	b7e1                	j	8000b78c <_realloc_r+0x2fc>
    8000b7c6:	8556                	mv	a0,s5
    8000b7c8:	ffffc097          	auipc	ra,0xffffc
    8000b7cc:	312080e7          	jalr	786(ra) # 80007ada <_malloc_r>
    8000b7d0:	8a2a                	mv	s4,a0
    8000b7d2:	e60502e3          	beqz	a0,8000b636 <_realloc_r+0x1a6>
    8000b7d6:	ff843783          	ld	a5,-8(s0)
    8000b7da:	ff050713          	addi	a4,a0,-16
    8000b7de:	9bf9                	andi	a5,a5,-2
    8000b7e0:	97de                	add	a5,a5,s7
    8000b7e2:	00e79863          	bne	a5,a4,8000b7f2 <_realloc_r+0x362>
    8000b7e6:	ff853983          	ld	s3,-8(a0)
    8000b7ea:	ffc9f993          	andi	s3,s3,-4
    8000b7ee:	99ca                	add	s3,s3,s2
    8000b7f0:	b36d                	j	8000b59a <_realloc_r+0x10a>
    8000b7f2:	ff890613          	addi	a2,s2,-8
    8000b7f6:	04800793          	li	a5,72
    8000b7fa:	06c7e663          	bltu	a5,a2,8000b866 <_realloc_r+0x3d6>
    8000b7fe:	02700713          	li	a4,39
    8000b802:	04c77f63          	bleu	a2,a4,8000b860 <_realloc_r+0x3d0>
    8000b806:	6018                	ld	a4,0(s0)
    8000b808:	e118                	sd	a4,0(a0)
    8000b80a:	6418                	ld	a4,8(s0)
    8000b80c:	e518                	sd	a4,8(a0)
    8000b80e:	03700713          	li	a4,55
    8000b812:	02c76363          	bltu	a4,a2,8000b838 <_realloc_r+0x3a8>
    8000b816:	01040713          	addi	a4,s0,16
    8000b81a:	01050793          	addi	a5,a0,16
    8000b81e:	6314                	ld	a3,0(a4)
    8000b820:	e394                	sd	a3,0(a5)
    8000b822:	6714                	ld	a3,8(a4)
    8000b824:	e794                	sd	a3,8(a5)
    8000b826:	6b18                	ld	a4,16(a4)
    8000b828:	eb98                	sd	a4,16(a5)
    8000b82a:	85a2                	mv	a1,s0
    8000b82c:	8556                	mv	a0,s5
    8000b82e:	ffffc097          	auipc	ra,0xffffc
    8000b832:	0be080e7          	jalr	190(ra) # 800078ec <_free_r>
    8000b836:	b501                	j	8000b636 <_realloc_r+0x1a6>
    8000b838:	6818                	ld	a4,16(s0)
    8000b83a:	e918                	sd	a4,16(a0)
    8000b83c:	6c18                	ld	a4,24(s0)
    8000b83e:	ed18                	sd	a4,24(a0)
    8000b840:	00f60763          	beq	a2,a5,8000b84e <_realloc_r+0x3be>
    8000b844:	02040713          	addi	a4,s0,32
    8000b848:	02050793          	addi	a5,a0,32
    8000b84c:	bfc9                	j	8000b81e <_realloc_r+0x38e>
    8000b84e:	701c                	ld	a5,32(s0)
    8000b850:	03040713          	addi	a4,s0,48
    8000b854:	f11c                	sd	a5,32(a0)
    8000b856:	7414                	ld	a3,40(s0)
    8000b858:	03050793          	addi	a5,a0,48
    8000b85c:	f514                	sd	a3,40(a0)
    8000b85e:	b7c1                	j	8000b81e <_realloc_r+0x38e>
    8000b860:	87aa                	mv	a5,a0
    8000b862:	8722                	mv	a4,s0
    8000b864:	bf6d                	j	8000b81e <_realloc_r+0x38e>
    8000b866:	85a2                	mv	a1,s0
    8000b868:	00000097          	auipc	ra,0x0
    8000b86c:	bde080e7          	jalr	-1058(ra) # 8000b446 <memmove>
    8000b870:	bf6d                	j	8000b82a <_realloc_r+0x39a>
    8000b872:	89ca                	mv	s3,s2
    8000b874:	b31d                	j	8000b59a <_realloc_r+0x10a>
    8000b876:	00e9e9b3          	or	s3,s3,a4
    8000b87a:	0134b423          	sd	s3,8(s1)
    8000b87e:	6798                	ld	a4,8(a5)
    8000b880:	00176713          	ori	a4,a4,1
    8000b884:	e798                	sd	a4,8(a5)
    8000b886:	bdad                	j	8000b700 <_realloc_r+0x270>

000000008000b888 <_sbrk>:
    8000b888:	00006797          	auipc	a5,0x6
    8000b88c:	7a878793          	addi	a5,a5,1960 # 80012030 <heap_end.1919>
    8000b890:	6398                	ld	a4,0(a5)
    8000b892:	1141                	addi	sp,sp,-16
    8000b894:	e406                	sd	ra,8(sp)
    8000b896:	832a                	mv	t1,a0
    8000b898:	883e                	mv	a6,a5
    8000b89a:	eb1d                	bnez	a4,8000b8d0 <_sbrk+0x48>
    8000b89c:	4501                	li	a0,0
    8000b89e:	4581                	li	a1,0
    8000b8a0:	4601                	li	a2,0
    8000b8a2:	4681                	li	a3,0
    8000b8a4:	4781                	li	a5,0
    8000b8a6:	0d600893          	li	a7,214
    8000b8aa:	00000073          	ecall
    8000b8ae:	57fd                	li	a5,-1
    8000b8b0:	00f51c63          	bne	a0,a5,8000b8c8 <_sbrk+0x40>
    8000b8b4:	ffffc097          	auipc	ra,0xffffc
    8000b8b8:	d9a080e7          	jalr	-614(ra) # 8000764e <__errno>
    8000b8bc:	47b1                	li	a5,12
    8000b8be:	c11c                	sw	a5,0(a0)
    8000b8c0:	557d                	li	a0,-1
    8000b8c2:	60a2                	ld	ra,8(sp)
    8000b8c4:	0141                	addi	sp,sp,16
    8000b8c6:	8082                	ret
    8000b8c8:	00006797          	auipc	a5,0x6
    8000b8cc:	76a7b423          	sd	a0,1896(a5) # 80012030 <heap_end.1919>
    8000b8d0:	00083803          	ld	a6,0(a6)
    8000b8d4:	4581                	li	a1,0
    8000b8d6:	4601                	li	a2,0
    8000b8d8:	01030533          	add	a0,t1,a6
    8000b8dc:	4681                	li	a3,0
    8000b8de:	4701                	li	a4,0
    8000b8e0:	4781                	li	a5,0
    8000b8e2:	0d600893          	li	a7,214
    8000b8e6:	00000073          	ecall
    8000b8ea:	9342                	add	t1,t1,a6
    8000b8ec:	fc6514e3          	bne	a0,t1,8000b8b4 <_sbrk+0x2c>
    8000b8f0:	00006797          	auipc	a5,0x6
    8000b8f4:	74a7b023          	sd	a0,1856(a5) # 80012030 <heap_end.1919>
    8000b8f8:	8542                	mv	a0,a6
    8000b8fa:	b7e1                	j	8000b8c2 <_sbrk+0x3a>

000000008000b8fc <__eqtf2>:
    8000b8fc:	002027f3          	frrm	a5
    8000b900:	6721                	lui	a4,0x8
    8000b902:	0305d893          	srli	a7,a1,0x30
    8000b906:	177d                	addi	a4,a4,-1
    8000b908:	57fd                	li	a5,-1
    8000b90a:	83c1                	srli	a5,a5,0x10
    8000b90c:	0306d313          	srli	t1,a3,0x30
    8000b910:	00e8f8b3          	and	a7,a7,a4
    8000b914:	00f5f833          	and	a6,a1,a5
    8000b918:	00e37333          	and	t1,t1,a4
    8000b91c:	8ff5                	and	a5,a5,a3
    8000b91e:	91fd                	srli	a1,a1,0x3f
    8000b920:	92fd                	srli	a3,a3,0x3f
    8000b922:	00e89963          	bne	a7,a4,8000b934 <__eqtf2+0x38>
    8000b926:	00a86733          	or	a4,a6,a0
    8000b92a:	e739                	bnez	a4,8000b978 <__eqtf2+0x7c>
    8000b92c:	4705                	li	a4,1
    8000b92e:	03131763          	bne	t1,a7,8000b95c <__eqtf2+0x60>
    8000b932:	a019                	j	8000b938 <__eqtf2+0x3c>
    8000b934:	00e31563          	bne	t1,a4,8000b93e <__eqtf2+0x42>
    8000b938:	00c7e733          	or	a4,a5,a2
    8000b93c:	e71d                	bnez	a4,8000b96a <__eqtf2+0x6e>
    8000b93e:	4705                	li	a4,1
    8000b940:	00689e63          	bne	a7,t1,8000b95c <__eqtf2+0x60>
    8000b944:	00f81c63          	bne	a6,a5,8000b95c <__eqtf2+0x60>
    8000b948:	00c51a63          	bne	a0,a2,8000b95c <__eqtf2+0x60>
    8000b94c:	00d58a63          	beq	a1,a3,8000b960 <__eqtf2+0x64>
    8000b950:	00089663          	bnez	a7,8000b95c <__eqtf2+0x60>
    8000b954:	00a86733          	or	a4,a6,a0
    8000b958:	00e03733          	snez	a4,a4
    8000b95c:	853a                	mv	a0,a4
    8000b95e:	8082                	ret
    8000b960:	4701                	li	a4,0
    8000b962:	bfed                	j	8000b95c <__eqtf2+0x60>
    8000b964:	00186073          	csrsi	fflags,16
    8000b968:	a02d                	j	8000b992 <__eqtf2+0x96>
    8000b96a:	6721                	lui	a4,0x8
    8000b96c:	177d                	addi	a4,a4,-1
    8000b96e:	02e89063          	bne	a7,a4,8000b98e <__eqtf2+0x92>
    8000b972:	00a86733          	or	a4,a6,a0
    8000b976:	cf01                	beqz	a4,8000b98e <__eqtf2+0x92>
    8000b978:	02f85813          	srli	a6,a6,0x2f
    8000b97c:	fe0804e3          	beqz	a6,8000b964 <__eqtf2+0x68>
    8000b980:	6721                	lui	a4,0x8
    8000b982:	177d                	addi	a4,a4,-1
    8000b984:	4505                	li	a0,1
    8000b986:	00e31863          	bne	t1,a4,8000b996 <__eqtf2+0x9a>
    8000b98a:	8e5d                	or	a2,a2,a5
    8000b98c:	c609                	beqz	a2,8000b996 <__eqtf2+0x9a>
    8000b98e:	93bd                	srli	a5,a5,0x2f
    8000b990:	dbf1                	beqz	a5,8000b964 <__eqtf2+0x68>
    8000b992:	4505                	li	a0,1
    8000b994:	8082                	ret
    8000b996:	8082                	ret

000000008000b998 <__getf2>:
    8000b998:	002027f3          	frrm	a5
    8000b99c:	68a1                	lui	a7,0x8
    8000b99e:	0305d813          	srli	a6,a1,0x30
    8000b9a2:	18fd                	addi	a7,a7,-1
    8000b9a4:	57fd                	li	a5,-1
    8000b9a6:	83c1                	srli	a5,a5,0x10
    8000b9a8:	0306d713          	srli	a4,a3,0x30
    8000b9ac:	01187833          	and	a6,a6,a7
    8000b9b0:	00f5f333          	and	t1,a1,a5
    8000b9b4:	01177733          	and	a4,a4,a7
    8000b9b8:	8ff5                	and	a5,a5,a3
    8000b9ba:	91fd                	srli	a1,a1,0x3f
    8000b9bc:	92fd                	srli	a3,a3,0x3f
    8000b9be:	01181a63          	bne	a6,a7,8000b9d2 <__getf2+0x3a>
    8000b9c2:	00a368b3          	or	a7,t1,a0
    8000b9c6:	06088d63          	beqz	a7,8000ba40 <__getf2+0xa8>
    8000b9ca:	00186073          	csrsi	fflags,16
    8000b9ce:	57f9                	li	a5,-2
    8000b9d0:	a81d                	j	8000ba06 <__getf2+0x6e>
    8000b9d2:	01171663          	bne	a4,a7,8000b9de <__getf2+0x46>
    8000b9d6:	00c7e8b3          	or	a7,a5,a2
    8000b9da:	fe0898e3          	bnez	a7,8000b9ca <__getf2+0x32>
    8000b9de:	06081363          	bnez	a6,8000ba44 <__getf2+0xac>
    8000b9e2:	00a368b3          	or	a7,t1,a0
    8000b9e6:	0018b893          	seqz	a7,a7
    8000b9ea:	e709                	bnez	a4,8000b9f4 <__getf2+0x5c>
    8000b9ec:	00c7ee33          	or	t3,a5,a2
    8000b9f0:	040e0063          	beqz	t3,8000ba30 <__getf2+0x98>
    8000b9f4:	00089b63          	bnez	a7,8000ba0a <__getf2+0x72>
    8000b9f8:	00d59463          	bne	a1,a3,8000ba00 <__getf2+0x68>
    8000b9fc:	01075b63          	ble	a6,a4,8000ba12 <__getf2+0x7a>
    8000ba00:	4785                	li	a5,1
    8000ba02:	c191                	beqz	a1,8000ba06 <__getf2+0x6e>
    8000ba04:	57fd                	li	a5,-1
    8000ba06:	853e                	mv	a0,a5
    8000ba08:	8082                	ret
    8000ba0a:	57fd                	li	a5,-1
    8000ba0c:	deed                	beqz	a3,8000ba06 <__getf2+0x6e>
    8000ba0e:	4785                	li	a5,1
    8000ba10:	bfdd                	j	8000ba06 <__getf2+0x6e>
    8000ba12:	00e85563          	ble	a4,a6,8000ba1c <__getf2+0x84>
    8000ba16:	57fd                	li	a5,-1
    8000ba18:	f9fd                	bnez	a1,8000ba0e <__getf2+0x76>
    8000ba1a:	b7f5                	j	8000ba06 <__getf2+0x6e>
    8000ba1c:	fe67e2e3          	bltu	a5,t1,8000ba00 <__getf2+0x68>
    8000ba20:	00f31c63          	bne	t1,a5,8000ba38 <__getf2+0xa0>
    8000ba24:	fca66ee3          	bltu	a2,a0,8000ba00 <__getf2+0x68>
    8000ba28:	4781                	li	a5,0
    8000ba2a:	fcc57ee3          	bleu	a2,a0,8000ba06 <__getf2+0x6e>
    8000ba2e:	b7e5                	j	8000ba16 <__getf2+0x7e>
    8000ba30:	4781                	li	a5,0
    8000ba32:	fc089ae3          	bnez	a7,8000ba06 <__getf2+0x6e>
    8000ba36:	b7e9                	j	8000ba00 <__getf2+0x68>
    8000ba38:	fcf36fe3          	bltu	t1,a5,8000ba16 <__getf2+0x7e>
    8000ba3c:	4781                	li	a5,0
    8000ba3e:	b7e1                	j	8000ba06 <__getf2+0x6e>
    8000ba40:	f9070be3          	beq	a4,a6,8000b9d6 <__getf2+0x3e>
    8000ba44:	fb55                	bnez	a4,8000b9f8 <__getf2+0x60>
    8000ba46:	4881                	li	a7,0
    8000ba48:	b755                	j	8000b9ec <__getf2+0x54>

000000008000ba4a <__letf2>:
    8000ba4a:	002027f3          	frrm	a5
    8000ba4e:	68a1                	lui	a7,0x8
    8000ba50:	0305d813          	srli	a6,a1,0x30
    8000ba54:	18fd                	addi	a7,a7,-1
    8000ba56:	57fd                	li	a5,-1
    8000ba58:	83c1                	srli	a5,a5,0x10
    8000ba5a:	0306d713          	srli	a4,a3,0x30
    8000ba5e:	01187833          	and	a6,a6,a7
    8000ba62:	00f5f333          	and	t1,a1,a5
    8000ba66:	01177733          	and	a4,a4,a7
    8000ba6a:	8ff5                	and	a5,a5,a3
    8000ba6c:	91fd                	srli	a1,a1,0x3f
    8000ba6e:	92fd                	srli	a3,a3,0x3f
    8000ba70:	01181a63          	bne	a6,a7,8000ba84 <__letf2+0x3a>
    8000ba74:	00a368b3          	or	a7,t1,a0
    8000ba78:	06088d63          	beqz	a7,8000baf2 <__letf2+0xa8>
    8000ba7c:	00186073          	csrsi	fflags,16
    8000ba80:	4789                	li	a5,2
    8000ba82:	a81d                	j	8000bab8 <__letf2+0x6e>
    8000ba84:	01171663          	bne	a4,a7,8000ba90 <__letf2+0x46>
    8000ba88:	00c7e8b3          	or	a7,a5,a2
    8000ba8c:	fe0898e3          	bnez	a7,8000ba7c <__letf2+0x32>
    8000ba90:	06081363          	bnez	a6,8000baf6 <__letf2+0xac>
    8000ba94:	00a368b3          	or	a7,t1,a0
    8000ba98:	0018b893          	seqz	a7,a7
    8000ba9c:	e709                	bnez	a4,8000baa6 <__letf2+0x5c>
    8000ba9e:	00c7ee33          	or	t3,a5,a2
    8000baa2:	040e0063          	beqz	t3,8000bae2 <__letf2+0x98>
    8000baa6:	00089b63          	bnez	a7,8000babc <__letf2+0x72>
    8000baaa:	00d59463          	bne	a1,a3,8000bab2 <__letf2+0x68>
    8000baae:	01075b63          	ble	a6,a4,8000bac4 <__letf2+0x7a>
    8000bab2:	4785                	li	a5,1
    8000bab4:	c191                	beqz	a1,8000bab8 <__letf2+0x6e>
    8000bab6:	57fd                	li	a5,-1
    8000bab8:	853e                	mv	a0,a5
    8000baba:	8082                	ret
    8000babc:	57fd                	li	a5,-1
    8000babe:	deed                	beqz	a3,8000bab8 <__letf2+0x6e>
    8000bac0:	4785                	li	a5,1
    8000bac2:	bfdd                	j	8000bab8 <__letf2+0x6e>
    8000bac4:	00e85563          	ble	a4,a6,8000bace <__letf2+0x84>
    8000bac8:	57fd                	li	a5,-1
    8000baca:	f9fd                	bnez	a1,8000bac0 <__letf2+0x76>
    8000bacc:	b7f5                	j	8000bab8 <__letf2+0x6e>
    8000bace:	fe67e2e3          	bltu	a5,t1,8000bab2 <__letf2+0x68>
    8000bad2:	00f31c63          	bne	t1,a5,8000baea <__letf2+0xa0>
    8000bad6:	fca66ee3          	bltu	a2,a0,8000bab2 <__letf2+0x68>
    8000bada:	4781                	li	a5,0
    8000badc:	fcc57ee3          	bleu	a2,a0,8000bab8 <__letf2+0x6e>
    8000bae0:	b7e5                	j	8000bac8 <__letf2+0x7e>
    8000bae2:	4781                	li	a5,0
    8000bae4:	fc089ae3          	bnez	a7,8000bab8 <__letf2+0x6e>
    8000bae8:	b7e9                	j	8000bab2 <__letf2+0x68>
    8000baea:	fcf36fe3          	bltu	t1,a5,8000bac8 <__letf2+0x7e>
    8000baee:	4781                	li	a5,0
    8000baf0:	b7e1                	j	8000bab8 <__letf2+0x6e>
    8000baf2:	f9070be3          	beq	a4,a6,8000ba88 <__letf2+0x3e>
    8000baf6:	fb55                	bnez	a4,8000baaa <__letf2+0x60>
    8000baf8:	4881                	li	a7,0
    8000bafa:	b755                	j	8000ba9e <__letf2+0x54>

000000008000bafc <__multf3>:
    8000bafc:	711d                	addi	sp,sp,-96
    8000bafe:	f456                	sd	s5,40(sp)
    8000bb00:	e466                	sd	s9,8(sp)
    8000bb02:	ec86                	sd	ra,88(sp)
    8000bb04:	e8a2                	sd	s0,80(sp)
    8000bb06:	e4a6                	sd	s1,72(sp)
    8000bb08:	e0ca                	sd	s2,64(sp)
    8000bb0a:	fc4e                	sd	s3,56(sp)
    8000bb0c:	f852                	sd	s4,48(sp)
    8000bb0e:	f05a                	sd	s6,32(sp)
    8000bb10:	ec5e                	sd	s7,24(sp)
    8000bb12:	e862                	sd	s8,16(sp)
    8000bb14:	8cb2                	mv	s9,a2
    8000bb16:	8ab6                	mv	s5,a3
    8000bb18:	002029f3          	frrm	s3
    8000bb1c:	6721                	lui	a4,0x8
    8000bb1e:	54fd                	li	s1,-1
    8000bb20:	0305db93          	srli	s7,a1,0x30
    8000bb24:	177d                	addi	a4,a4,-1
    8000bb26:	80c1                	srli	s1,s1,0x10
    8000bb28:	00ebf7b3          	and	a5,s7,a4
    8000bb2c:	2981                	sext.w	s3,s3
    8000bb2e:	8ced                	and	s1,s1,a1
    8000bb30:	03f5db13          	srli	s6,a1,0x3f
    8000bb34:	c78d                	beqz	a5,8000bb5e <__multf3+0x62>
    8000bb36:	8a2a                	mv	s4,a0
    8000bb38:	0007851b          	sext.w	a0,a5
    8000bb3c:	08e50463          	beq	a0,a4,8000bbc4 <__multf3+0xc8>
    8000bb40:	03da5713          	srli	a4,s4,0x3d
    8000bb44:	048e                	slli	s1,s1,0x3
    8000bb46:	8f45                	or	a4,a4,s1
    8000bb48:	7571                	lui	a0,0xffffc
    8000bb4a:	4485                	li	s1,1
    8000bb4c:	14ce                	slli	s1,s1,0x33
    8000bb4e:	0505                	addi	a0,a0,1
    8000bb50:	8cd9                	or	s1,s1,a4
    8000bb52:	0a0e                	slli	s4,s4,0x3
    8000bb54:	00a78bb3          	add	s7,a5,a0
    8000bb58:	4c01                	li	s8,0
    8000bb5a:	4901                	li	s2,0
    8000bb5c:	a8b5                	j	8000bbd8 <__multf3+0xdc>
    8000bb5e:	00a4e7b3          	or	a5,s1,a0
    8000bb62:	842a                	mv	s0,a0
    8000bb64:	c3e5                	beqz	a5,8000bc44 <__multf3+0x148>
    8000bb66:	c0a9                	beqz	s1,8000bba8 <__multf3+0xac>
    8000bb68:	8526                	mv	a0,s1
    8000bb6a:	ffffc097          	auipc	ra,0xffffc
    8000bb6e:	ab4080e7          	jalr	-1356(ra) # 8000761e <__clzdi2>
    8000bb72:	2501                	sext.w	a0,a0
    8000bb74:	ff150713          	addi	a4,a0,-15 # ffffffffffffbff1 <_buffer_start+0xffffffff7ffb47b1>
    8000bb78:	03c00693          	li	a3,60
    8000bb7c:	0007079b          	sext.w	a5,a4
    8000bb80:	02e6cc63          	blt	a3,a4,8000bbb8 <__multf3+0xbc>
    8000bb84:	03d00713          	li	a4,61
    8000bb88:	00378a1b          	addiw	s4,a5,3
    8000bb8c:	40f707bb          	subw	a5,a4,a5
    8000bb90:	014494b3          	sll	s1,s1,s4
    8000bb94:	00f457b3          	srl	a5,s0,a5
    8000bb98:	8cdd                	or	s1,s1,a5
    8000bb9a:	01441a33          	sll	s4,s0,s4
    8000bb9e:	7bf1                	lui	s7,0xffffc
    8000bba0:	0bc5                	addi	s7,s7,17
    8000bba2:	40ab8bb3          	sub	s7,s7,a0
    8000bba6:	bf4d                	j	8000bb58 <__multf3+0x5c>
    8000bba8:	ffffc097          	auipc	ra,0xffffc
    8000bbac:	a76080e7          	jalr	-1418(ra) # 8000761e <__clzdi2>
    8000bbb0:	2501                	sext.w	a0,a0
    8000bbb2:	04050513          	addi	a0,a0,64
    8000bbb6:	bf7d                	j	8000bb74 <__multf3+0x78>
    8000bbb8:	fc37849b          	addiw	s1,a5,-61
    8000bbbc:	009414b3          	sll	s1,s0,s1
    8000bbc0:	4a01                	li	s4,0
    8000bbc2:	bff1                	j	8000bb9e <__multf3+0xa2>
    8000bbc4:	0144e7b3          	or	a5,s1,s4
    8000bbc8:	c3d9                	beqz	a5,8000bc4e <__multf3+0x152>
    8000bbca:	01049793          	slli	a5,s1,0x10
    8000bbce:	8baa                	mv	s7,a0
    8000bbd0:	4c0d                	li	s8,3
    8000bbd2:	4941                	li	s2,16
    8000bbd4:	f807c3e3          	bltz	a5,8000bb5a <__multf3+0x5e>
    8000bbd8:	577d                	li	a4,-1
    8000bbda:	8341                	srli	a4,a4,0x10
    8000bbdc:	00eaf433          	and	s0,s5,a4
    8000bbe0:	6721                	lui	a4,0x8
    8000bbe2:	030ad513          	srli	a0,s5,0x30
    8000bbe6:	177d                	addi	a4,a4,-1
    8000bbe8:	00e57633          	and	a2,a0,a4
    8000bbec:	87e6                	mv	a5,s9
    8000bbee:	03fada93          	srli	s5,s5,0x3f
    8000bbf2:	c23d                	beqz	a2,8000bc58 <__multf3+0x15c>
    8000bbf4:	0006051b          	sext.w	a0,a2
    8000bbf8:	0ce50463          	beq	a0,a4,8000bcc0 <__multf3+0x1c4>
    8000bbfc:	00341713          	slli	a4,s0,0x3
    8000bc00:	03dcd693          	srli	a3,s9,0x3d
    8000bc04:	00e6e433          	or	s0,a3,a4
    8000bc08:	7571                	lui	a0,0xffffc
    8000bc0a:	4705                	li	a4,1
    8000bc0c:	174e                	slli	a4,a4,0x33
    8000bc0e:	0505                	addi	a0,a0,1
    8000bc10:	8c59                	or	s0,s0,a4
    8000bc12:	003c9793          	slli	a5,s9,0x3
    8000bc16:	9532                	add	a0,a0,a2
    8000bc18:	4701                	li	a4,0
    8000bc1a:	002c1693          	slli	a3,s8,0x2
    8000bc1e:	8ed9                	or	a3,a3,a4
    8000bc20:	955e                	add	a0,a0,s7
    8000bc22:	16fd                	addi	a3,a3,-1
    8000bc24:	4639                	li	a2,14
    8000bc26:	015b4833          	xor	a6,s6,s5
    8000bc2a:	00150893          	addi	a7,a0,1 # ffffffffffffc001 <_buffer_start+0xffffffff7ffb47c1>
    8000bc2e:	10d66463          	bltu	a2,a3,8000bd36 <__multf3+0x23a>
    8000bc32:	00003617          	auipc	a2,0x3
    8000bc36:	a9660613          	addi	a2,a2,-1386 # 8000e6c8 <ezero+0x38>
    8000bc3a:	068a                	slli	a3,a3,0x2
    8000bc3c:	96b2                	add	a3,a3,a2
    8000bc3e:	4294                	lw	a3,0(a3)
    8000bc40:	96b2                	add	a3,a3,a2
    8000bc42:	8682                	jr	a3
    8000bc44:	4481                	li	s1,0
    8000bc46:	4a01                	li	s4,0
    8000bc48:	4b81                	li	s7,0
    8000bc4a:	4c05                	li	s8,1
    8000bc4c:	b739                	j	8000bb5a <__multf3+0x5e>
    8000bc4e:	4481                	li	s1,0
    8000bc50:	4a01                	li	s4,0
    8000bc52:	8baa                	mv	s7,a0
    8000bc54:	4c09                	li	s8,2
    8000bc56:	b711                	j	8000bb5a <__multf3+0x5e>
    8000bc58:	019467b3          	or	a5,s0,s9
    8000bc5c:	cfa5                	beqz	a5,8000bcd4 <__multf3+0x1d8>
    8000bc5e:	c031                	beqz	s0,8000bca2 <__multf3+0x1a6>
    8000bc60:	8522                	mv	a0,s0
    8000bc62:	ffffc097          	auipc	ra,0xffffc
    8000bc66:	9bc080e7          	jalr	-1604(ra) # 8000761e <__clzdi2>
    8000bc6a:	2501                	sext.w	a0,a0
    8000bc6c:	ff150793          	addi	a5,a0,-15
    8000bc70:	03c00713          	li	a4,60
    8000bc74:	0007869b          	sext.w	a3,a5
    8000bc78:	02f74e63          	blt	a4,a5,8000bcb4 <__multf3+0x1b8>
    8000bc7c:	03d00613          	li	a2,61
    8000bc80:	0036879b          	addiw	a5,a3,3
    8000bc84:	40d606bb          	subw	a3,a2,a3
    8000bc88:	00f41733          	sll	a4,s0,a5
    8000bc8c:	00dcd6b3          	srl	a3,s9,a3
    8000bc90:	00e6e433          	or	s0,a3,a4
    8000bc94:	00fc97b3          	sll	a5,s9,a5
    8000bc98:	7771                	lui	a4,0xffffc
    8000bc9a:	0745                	addi	a4,a4,17
    8000bc9c:	40a70533          	sub	a0,a4,a0
    8000bca0:	bfa5                	j	8000bc18 <__multf3+0x11c>
    8000bca2:	8566                	mv	a0,s9
    8000bca4:	ffffc097          	auipc	ra,0xffffc
    8000bca8:	97a080e7          	jalr	-1670(ra) # 8000761e <__clzdi2>
    8000bcac:	2501                	sext.w	a0,a0
    8000bcae:	04050513          	addi	a0,a0,64
    8000bcb2:	bf6d                	j	8000bc6c <__multf3+0x170>
    8000bcb4:	fc36871b          	addiw	a4,a3,-61
    8000bcb8:	00ec9433          	sll	s0,s9,a4
    8000bcbc:	4781                	li	a5,0
    8000bcbe:	bfe9                	j	8000bc98 <__multf3+0x19c>
    8000bcc0:	01946733          	or	a4,s0,s9
    8000bcc4:	cf09                	beqz	a4,8000bcde <__multf3+0x1e2>
    8000bcc6:	01041713          	slli	a4,s0,0x10
    8000bcca:	00074e63          	bltz	a4,8000bce6 <__multf3+0x1ea>
    8000bcce:	470d                	li	a4,3
    8000bcd0:	4941                	li	s2,16
    8000bcd2:	b7a1                	j	8000bc1a <__multf3+0x11e>
    8000bcd4:	4401                	li	s0,0
    8000bcd6:	4781                	li	a5,0
    8000bcd8:	4501                	li	a0,0
    8000bcda:	4705                	li	a4,1
    8000bcdc:	bf3d                	j	8000bc1a <__multf3+0x11e>
    8000bcde:	4401                	li	s0,0
    8000bce0:	4781                	li	a5,0
    8000bce2:	4709                	li	a4,2
    8000bce4:	bf1d                	j	8000bc1a <__multf3+0x11e>
    8000bce6:	470d                	li	a4,3
    8000bce8:	bf0d                	j	8000bc1a <__multf3+0x11e>
    8000bcea:	4705                	li	a4,1
    8000bcec:	66a1                	lui	a3,0x8
    8000bcee:	173e                	slli	a4,a4,0x2f
    8000bcf0:	4501                	li	a0,0
    8000bcf2:	16fd                	addi	a3,a3,-1
    8000bcf4:	4801                	li	a6,0
    8000bcf6:	4941                	li	s2,16
    8000bcf8:	6621                	lui	a2,0x8
    8000bcfa:	57fd                	li	a5,-1
    8000bcfc:	167d                	addi	a2,a2,-1
    8000bcfe:	0107d593          	srli	a1,a5,0x10
    8000bd02:	8ef1                	and	a3,a3,a2
    8000bd04:	16c2                	slli	a3,a3,0x30
    8000bd06:	8df9                	and	a1,a1,a4
    8000bd08:	8dd5                	or	a1,a1,a3
    8000bd0a:	8385                	srli	a5,a5,0x1
    8000bd0c:	187e                	slli	a6,a6,0x3f
    8000bd0e:	8dfd                	and	a1,a1,a5
    8000bd10:	0105e5b3          	or	a1,a1,a6
    8000bd14:	00090463          	beqz	s2,8000bd1c <__multf3+0x220>
    8000bd18:	00192073          	csrs	fflags,s2
    8000bd1c:	60e6                	ld	ra,88(sp)
    8000bd1e:	6446                	ld	s0,80(sp)
    8000bd20:	64a6                	ld	s1,72(sp)
    8000bd22:	6906                	ld	s2,64(sp)
    8000bd24:	79e2                	ld	s3,56(sp)
    8000bd26:	7a42                	ld	s4,48(sp)
    8000bd28:	7aa2                	ld	s5,40(sp)
    8000bd2a:	7b02                	ld	s6,32(sp)
    8000bd2c:	6be2                	ld	s7,24(sp)
    8000bd2e:	6c42                	ld	s8,16(sp)
    8000bd30:	6ca2                	ld	s9,8(sp)
    8000bd32:	6125                	addi	sp,sp,96
    8000bd34:	8082                	ret
    8000bd36:	577d                	li	a4,-1
    8000bd38:	9301                	srli	a4,a4,0x20
    8000bd3a:	01448ab3          	add	s5,s1,s4
    8000bd3e:	008783b3          	add	t2,a5,s0
    8000bd42:	020a5f13          	srli	t5,s4,0x20
    8000bd46:	0207d693          	srli	a3,a5,0x20
    8000bd4a:	014abfb3          	sltu	t6,s5,s4
    8000bd4e:	00f3b2b3          	sltu	t0,t2,a5
    8000bd52:	00ea7a33          	and	s4,s4,a4
    8000bd56:	8ff9                	and	a5,a5,a4
    8000bd58:	034785b3          	mul	a1,a5,s4
    8000bd5c:	000f8e9b          	sext.w	t4,t6
    8000bd60:	0002861b          	sext.w	a2,t0
    8000bd64:	02ff07b3          	mul	a5,t5,a5
    8000bd68:	02df0733          	mul	a4,t5,a3
    8000bd6c:	034686b3          	mul	a3,a3,s4
    8000bd70:	0205da13          	srli	s4,a1,0x20
    8000bd74:	96be                	add	a3,a3,a5
    8000bd76:	9a36                	add	s4,s4,a3
    8000bd78:	00fa7563          	bleu	a5,s4,8000bd82 <__multf3+0x286>
    8000bd7c:	4785                	li	a5,1
    8000bd7e:	1782                	slli	a5,a5,0x20
    8000bd80:	973e                	add	a4,a4,a5
    8000bd82:	020a5f13          	srli	t5,s4,0x20
    8000bd86:	9f3a                	add	t5,t5,a4
    8000bd88:	577d                	li	a4,-1
    8000bd8a:	9301                	srli	a4,a4,0x20
    8000bd8c:	00ea7333          	and	t1,s4,a4
    8000bd90:	00eaf7b3          	and	a5,s5,a4
    8000bd94:	8df9                	and	a1,a1,a4
    8000bd96:	020ada13          	srli	s4,s5,0x20
    8000bd9a:	0203d693          	srli	a3,t2,0x20
    8000bd9e:	00e3f733          	and	a4,t2,a4
    8000bda2:	1302                	slli	t1,t1,0x20
    8000bda4:	932e                	add	t1,t1,a1
    8000bda6:	02e785b3          	mul	a1,a5,a4
    8000bdaa:	02ea0733          	mul	a4,s4,a4
    8000bdae:	02da0a33          	mul	s4,s4,a3
    8000bdb2:	02f686b3          	mul	a3,a3,a5
    8000bdb6:	0205d793          	srli	a5,a1,0x20
    8000bdba:	96ba                	add	a3,a3,a4
    8000bdbc:	97b6                	add	a5,a5,a3
    8000bdbe:	00e7f563          	bleu	a4,a5,8000bdc8 <__multf3+0x2cc>
    8000bdc2:	4705                	li	a4,1
    8000bdc4:	1702                	slli	a4,a4,0x20
    8000bdc6:	9a3a                	add	s4,s4,a4
    8000bdc8:	56fd                	li	a3,-1
    8000bdca:	9281                	srli	a3,a3,0x20
    8000bdcc:	0207de13          	srli	t3,a5,0x20
    8000bdd0:	8ff5                	and	a5,a5,a3
    8000bdd2:	00d5f733          	and	a4,a1,a3
    8000bdd6:	1782                	slli	a5,a5,0x20
    8000bdd8:	0204d593          	srli	a1,s1,0x20
    8000bddc:	97ba                	add	a5,a5,a4
    8000bdde:	8cf5                	and	s1,s1,a3
    8000bde0:	02045713          	srli	a4,s0,0x20
    8000bde4:	8c75                	and	s0,s0,a3
    8000bde6:	02940b33          	mul	s6,s0,s1
    8000bdea:	02858433          	mul	s0,a1,s0
    8000bdee:	02e585b3          	mul	a1,a1,a4
    8000bdf2:	02970733          	mul	a4,a4,s1
    8000bdf6:	020b5493          	srli	s1,s6,0x20
    8000bdfa:	9722                	add	a4,a4,s0
    8000bdfc:	94ba                	add	s1,s1,a4
    8000bdfe:	0084f563          	bleu	s0,s1,8000be08 <__multf3+0x30c>
    8000be02:	4705                	li	a4,1
    8000be04:	1702                	slli	a4,a4,0x20
    8000be06:	95ba                	add	a1,a1,a4
    8000be08:	0204d713          	srli	a4,s1,0x20
    8000be0c:	95ba                	add	a1,a1,a4
    8000be0e:	577d                	li	a4,-1
    8000be10:	9301                	srli	a4,a4,0x20
    8000be12:	00e4f6b3          	and	a3,s1,a4
    8000be16:	00eb7b33          	and	s6,s6,a4
    8000be1a:	01e78733          	add	a4,a5,t5
    8000be1e:	01e737b3          	sltu	a5,a4,t5
    8000be22:	9e3e                	add	t3,t3,a5
    8000be24:	40c0063b          	negw	a2,a2
    8000be28:	9a72                	add	s4,s4,t3
    8000be2a:	01567633          	and	a2,a2,s5
    8000be2e:	41d00e3b          	negw	t3,t4
    8000be32:	9652                	add	a2,a2,s4
    8000be34:	005fffb3          	and	t6,t6,t0
    8000be38:	00fa37b3          	sltu	a5,s4,a5
    8000be3c:	007e73b3          	and	t2,t3,t2
    8000be40:	00c38e33          	add	t3,t2,a2
    8000be44:	97fe                	add	a5,a5,t6
    8000be46:	01463a33          	sltu	s4,a2,s4
    8000be4a:	40670fb3          	sub	t6,a4,t1
    8000be4e:	97d2                	add	a5,a5,s4
    8000be50:	41ee0eb3          	sub	t4,t3,t5
    8000be54:	1682                	slli	a3,a3,0x20
    8000be56:	00ce3633          	sltu	a2,t3,a2
    8000be5a:	01f732b3          	sltu	t0,a4,t6
    8000be5e:	963e                	add	a2,a2,a5
    8000be60:	96da                	add	a3,a3,s6
    8000be62:	01de37b3          	sltu	a5,t3,t4
    8000be66:	4401                	li	s0,0
    8000be68:	405e8eb3          	sub	t4,t4,t0
    8000be6c:	01f77663          	bleu	t6,a4,8000be78 <__multf3+0x37c>
    8000be70:	41cf0e33          	sub	t3,t5,t3
    8000be74:	001e3413          	seqz	s0,t3
    8000be78:	00b60733          	add	a4,a2,a1
    8000be7c:	40df8633          	sub	a2,t6,a3
    8000be80:	00f46e33          	or	t3,s0,a5
    8000be84:	40be85b3          	sub	a1,t4,a1
    8000be88:	00cfb7b3          	sltu	a5,t6,a2
    8000be8c:	00bebeb3          	sltu	t4,t4,a1
    8000be90:	40f687b3          	sub	a5,a3,a5
    8000be94:	4401                	li	s0,0
    8000be96:	00cff463          	bleu	a2,t6,8000be9e <__multf3+0x3a2>
    8000be9a:	0015b413          	seqz	s0,a1
    8000be9e:	95be                	add	a1,a1,a5
    8000bea0:	00d5b6b3          	sltu	a3,a1,a3
    8000bea4:	9736                	add	a4,a4,a3
    8000bea6:	01d46eb3          	or	t4,s0,t4
    8000beaa:	41c70733          	sub	a4,a4,t3
    8000beae:	00d61793          	slli	a5,a2,0xd
    8000beb2:	41d70733          	sub	a4,a4,t4
    8000beb6:	0736                	slli	a4,a4,0xd
    8000beb8:	0335d413          	srli	s0,a1,0x33
    8000bebc:	0067e7b3          	or	a5,a5,t1
    8000bec0:	8c59                	or	s0,s0,a4
    8000bec2:	00f037b3          	snez	a5,a5
    8000bec6:	924d                	srli	a2,a2,0x33
    8000bec8:	8fd1                	or	a5,a5,a2
    8000beca:	05b6                	slli	a1,a1,0xd
    8000becc:	00b41713          	slli	a4,s0,0xb
    8000bed0:	8fcd                	or	a5,a5,a1
    8000bed2:	06075a63          	bgez	a4,8000bf46 <__multf3+0x44a>
    8000bed6:	0017d713          	srli	a4,a5,0x1
    8000beda:	8b85                	andi	a5,a5,1
    8000bedc:	03f41513          	slli	a0,s0,0x3f
    8000bee0:	8fd9                	or	a5,a5,a4
    8000bee2:	8fc9                	or	a5,a5,a0
    8000bee4:	8005                	srli	s0,s0,0x1
    8000bee6:	6691                	lui	a3,0x4
    8000bee8:	16fd                	addi	a3,a3,-1
    8000beea:	96c6                	add	a3,a3,a7
    8000beec:	0cd05663          	blez	a3,8000bfb8 <__multf3+0x4bc>
    8000bef0:	0077f713          	andi	a4,a5,7
    8000bef4:	c335                	beqz	a4,8000bf58 <__multf3+0x45c>
    8000bef6:	4709                	li	a4,2
    8000bef8:	00196913          	ori	s2,s2,1
    8000befc:	04e98c63          	beq	s3,a4,8000bf54 <__multf3+0x458>
    8000bf00:	470d                	li	a4,3
    8000bf02:	04e98463          	beq	s3,a4,8000bf4a <__multf3+0x44e>
    8000bf06:	04099963          	bnez	s3,8000bf58 <__multf3+0x45c>
    8000bf0a:	00f7f713          	andi	a4,a5,15
    8000bf0e:	4611                	li	a2,4
    8000bf10:	04c70463          	beq	a4,a2,8000bf58 <__multf3+0x45c>
    8000bf14:	00478713          	addi	a4,a5,4
    8000bf18:	00f737b3          	sltu	a5,a4,a5
    8000bf1c:	943e                	add	s0,s0,a5
    8000bf1e:	87ba                	mv	a5,a4
    8000bf20:	a825                	j	8000bf58 <__multf3+0x45c>
    8000bf22:	885a                	mv	a6,s6
    8000bf24:	8426                	mv	s0,s1
    8000bf26:	87d2                	mv	a5,s4
    8000bf28:	8762                	mv	a4,s8
    8000bf2a:	4689                	li	a3,2
    8000bf2c:	1ed70b63          	beq	a4,a3,8000c122 <__multf3+0x626>
    8000bf30:	468d                	li	a3,3
    8000bf32:	1ed70d63          	beq	a4,a3,8000c12c <__multf3+0x630>
    8000bf36:	4685                	li	a3,1
    8000bf38:	fad717e3          	bne	a4,a3,8000bee6 <__multf3+0x3ea>
    8000bf3c:	4701                	li	a4,0
    8000bf3e:	4501                	li	a0,0
    8000bf40:	aad9                	j	8000c116 <__multf3+0x61a>
    8000bf42:	8856                	mv	a6,s5
    8000bf44:	b7dd                	j	8000bf2a <__multf3+0x42e>
    8000bf46:	88aa                	mv	a7,a0
    8000bf48:	bf79                	j	8000bee6 <__multf3+0x3ea>
    8000bf4a:	00081763          	bnez	a6,8000bf58 <__multf3+0x45c>
    8000bf4e:	00878713          	addi	a4,a5,8
    8000bf52:	b7d9                	j	8000bf18 <__multf3+0x41c>
    8000bf54:	fe081de3          	bnez	a6,8000bf4e <__multf3+0x452>
    8000bf58:	00b41713          	slli	a4,s0,0xb
    8000bf5c:	00075863          	bgez	a4,8000bf6c <__multf3+0x470>
    8000bf60:	577d                	li	a4,-1
    8000bf62:	1752                	slli	a4,a4,0x34
    8000bf64:	177d                	addi	a4,a4,-1
    8000bf66:	6691                	lui	a3,0x4
    8000bf68:	8c79                	and	s0,s0,a4
    8000bf6a:	96c6                	add	a3,a3,a7
    8000bf6c:	65a1                	lui	a1,0x8
    8000bf6e:	ffe58713          	addi	a4,a1,-2 # 7ffe <_stack_size-0x2>
    8000bf72:	00d74963          	blt	a4,a3,8000bf84 <__multf3+0x488>
    8000bf76:	838d                	srli	a5,a5,0x3
    8000bf78:	03d41513          	slli	a0,s0,0x3d
    8000bf7c:	8d5d                	or	a0,a0,a5
    8000bf7e:	00345713          	srli	a4,s0,0x3
    8000bf82:	bb9d                	j	8000bcf8 <__multf3+0x1fc>
    8000bf84:	4789                	li	a5,2
    8000bf86:	02f98363          	beq	s3,a5,8000bfac <__multf3+0x4b0>
    8000bf8a:	478d                	li	a5,3
    8000bf8c:	fff58693          	addi	a3,a1,-1
    8000bf90:	00f98a63          	beq	s3,a5,8000bfa4 <__multf3+0x4a8>
    8000bf94:	00098a63          	beqz	s3,8000bfa8 <__multf3+0x4ac>
    8000bf98:	557d                	li	a0,-1
    8000bf9a:	86ba                	mv	a3,a4
    8000bf9c:	00596913          	ori	s2,s2,5
    8000bfa0:	872a                	mv	a4,a0
    8000bfa2:	bb99                	j	8000bcf8 <__multf3+0x1fc>
    8000bfa4:	fe081ae3          	bnez	a6,8000bf98 <__multf3+0x49c>
    8000bfa8:	4501                	li	a0,0
    8000bfaa:	bfcd                	j	8000bf9c <__multf3+0x4a0>
    8000bfac:	fe0806e3          	beqz	a6,8000bf98 <__multf3+0x49c>
    8000bfb0:	4501                	li	a0,0
    8000bfb2:	fff58693          	addi	a3,a1,-1
    8000bfb6:	b7dd                	j	8000bf9c <__multf3+0x4a0>
    8000bfb8:	4605                	li	a2,1
    8000bfba:	eaa9                	bnez	a3,8000c00c <__multf3+0x510>
    8000bfbc:	0077f613          	andi	a2,a5,7
    8000bfc0:	8722                	mv	a4,s0
    8000bfc2:	c221                	beqz	a2,8000c002 <__multf3+0x506>
    8000bfc4:	4709                	li	a4,2
    8000bfc6:	00196913          	ori	s2,s2,1
    8000bfca:	02e98963          	beq	s3,a4,8000bffc <__multf3+0x500>
    8000bfce:	470d                	li	a4,3
    8000bfd0:	02e98063          	beq	s3,a4,8000bff0 <__multf3+0x4f4>
    8000bfd4:	8722                	mv	a4,s0
    8000bfd6:	02099663          	bnez	s3,8000c002 <__multf3+0x506>
    8000bfda:	00f7f613          	andi	a2,a5,15
    8000bfde:	4591                	li	a1,4
    8000bfe0:	02b60163          	beq	a2,a1,8000c002 <__multf3+0x506>
    8000bfe4:	ffc7b713          	sltiu	a4,a5,-4
    8000bfe8:	00174713          	xori	a4,a4,1
    8000bfec:	9722                	add	a4,a4,s0
    8000bfee:	a811                	j	8000c002 <__multf3+0x506>
    8000bff0:	8722                	mv	a4,s0
    8000bff2:	00081863          	bnez	a6,8000c002 <__multf3+0x506>
    8000bff6:	ff87b713          	sltiu	a4,a5,-8
    8000bffa:	b7fd                	j	8000bfe8 <__multf3+0x4ec>
    8000bffc:	8722                	mv	a4,s0
    8000bffe:	fe081ce3          	bnez	a6,8000bff6 <__multf3+0x4fa>
    8000c002:	03475613          	srli	a2,a4,0x34
    8000c006:	00164613          	xori	a2,a2,1
    8000c00a:	8a05                	andi	a2,a2,1
    8000c00c:	4585                	li	a1,1
    8000c00e:	40d586b3          	sub	a3,a1,a3
    8000c012:	07400713          	li	a4,116
    8000c016:	0cd74863          	blt	a4,a3,8000c0e6 <__multf3+0x5ea>
    8000c01a:	03f00593          	li	a1,63
    8000c01e:	0006871b          	sext.w	a4,a3
    8000c022:	04d5ca63          	blt	a1,a3,8000c076 <__multf3+0x57a>
    8000c026:	04000693          	li	a3,64
    8000c02a:	9e99                	subw	a3,a3,a4
    8000c02c:	00e7d5b3          	srl	a1,a5,a4
    8000c030:	00d41533          	sll	a0,s0,a3
    8000c034:	00d797b3          	sll	a5,a5,a3
    8000c038:	8d4d                	or	a0,a0,a1
    8000c03a:	00f037b3          	snez	a5,a5
    8000c03e:	8d5d                	or	a0,a0,a5
    8000c040:	00e45733          	srl	a4,s0,a4
    8000c044:	00757793          	andi	a5,a0,7
    8000c048:	c7a5                	beqz	a5,8000c0b0 <__multf3+0x5b4>
    8000c04a:	4789                	li	a5,2
    8000c04c:	00196913          	ori	s2,s2,1
    8000c050:	04f98e63          	beq	s3,a5,8000c0ac <__multf3+0x5b0>
    8000c054:	478d                	li	a5,3
    8000c056:	04f98663          	beq	s3,a5,8000c0a2 <__multf3+0x5a6>
    8000c05a:	04099b63          	bnez	s3,8000c0b0 <__multf3+0x5b4>
    8000c05e:	00f57793          	andi	a5,a0,15
    8000c062:	4691                	li	a3,4
    8000c064:	04d78663          	beq	a5,a3,8000c0b0 <__multf3+0x5b4>
    8000c068:	00450793          	addi	a5,a0,4
    8000c06c:	00a7b533          	sltu	a0,a5,a0
    8000c070:	972a                	add	a4,a4,a0
    8000c072:	853e                	mv	a0,a5
    8000c074:	a835                	j	8000c0b0 <__multf3+0x5b4>
    8000c076:	fc07051b          	addiw	a0,a4,-64
    8000c07a:	04000593          	li	a1,64
    8000c07e:	00a45533          	srl	a0,s0,a0
    8000c082:	4881                	li	a7,0
    8000c084:	00b68863          	beq	a3,a1,8000c094 <__multf3+0x598>
    8000c088:	08000893          	li	a7,128
    8000c08c:	40e8873b          	subw	a4,a7,a4
    8000c090:	00e418b3          	sll	a7,s0,a4
    8000c094:	00f8e7b3          	or	a5,a7,a5
    8000c098:	00f037b3          	snez	a5,a5
    8000c09c:	8d5d                	or	a0,a0,a5
    8000c09e:	4701                	li	a4,0
    8000c0a0:	b755                	j	8000c044 <__multf3+0x548>
    8000c0a2:	00081763          	bnez	a6,8000c0b0 <__multf3+0x5b4>
    8000c0a6:	00850793          	addi	a5,a0,8
    8000c0aa:	b7c9                	j	8000c06c <__multf3+0x570>
    8000c0ac:	fe081de3          	bnez	a6,8000c0a6 <__multf3+0x5aa>
    8000c0b0:	00c71793          	slli	a5,a4,0xc
    8000c0b4:	0007dc63          	bgez	a5,8000c0cc <__multf3+0x5d0>
    8000c0b8:	00196913          	ori	s2,s2,1
    8000c0bc:	4701                	li	a4,0
    8000c0be:	4501                	li	a0,0
    8000c0c0:	4685                	li	a3,1
    8000c0c2:	c2060be3          	beqz	a2,8000bcf8 <__multf3+0x1fc>
    8000c0c6:	00296913          	ori	s2,s2,2
    8000c0ca:	b13d                	j	8000bcf8 <__multf3+0x1fc>
    8000c0cc:	03d71793          	slli	a5,a4,0x3d
    8000c0d0:	810d                	srli	a0,a0,0x3
    8000c0d2:	8d5d                	or	a0,a0,a5
    8000c0d4:	830d                	srli	a4,a4,0x3
    8000c0d6:	4681                	li	a3,0
    8000c0d8:	c20600e3          	beqz	a2,8000bcf8 <__multf3+0x1fc>
    8000c0dc:	00197793          	andi	a5,s2,1
    8000c0e0:	c0078ce3          	beqz	a5,8000bcf8 <__multf3+0x1fc>
    8000c0e4:	b7cd                	j	8000c0c6 <__multf3+0x5ca>
    8000c0e6:	0087e533          	or	a0,a5,s0
    8000c0ea:	c11d                	beqz	a0,8000c110 <__multf3+0x614>
    8000c0ec:	4789                	li	a5,2
    8000c0ee:	00196913          	ori	s2,s2,1
    8000c0f2:	02f98463          	beq	s3,a5,8000c11a <__multf3+0x61e>
    8000c0f6:	478d                	li	a5,3
    8000c0f8:	00f98763          	beq	s3,a5,8000c106 <__multf3+0x60a>
    8000c0fc:	4795                	li	a5,5
    8000c0fe:	00098763          	beqz	s3,8000c10c <__multf3+0x610>
    8000c102:	4785                	li	a5,1
    8000c104:	a021                	j	8000c10c <__multf3+0x610>
    8000c106:	47a5                	li	a5,9
    8000c108:	fe081de3          	bnez	a6,8000c102 <__multf3+0x606>
    8000c10c:	0037d513          	srli	a0,a5,0x3
    8000c110:	00296913          	ori	s2,s2,2
    8000c114:	4701                	li	a4,0
    8000c116:	4681                	li	a3,0
    8000c118:	b6c5                	j	8000bcf8 <__multf3+0x1fc>
    8000c11a:	47a5                	li	a5,9
    8000c11c:	fe0818e3          	bnez	a6,8000c10c <__multf3+0x610>
    8000c120:	b7cd                	j	8000c102 <__multf3+0x606>
    8000c122:	66a1                	lui	a3,0x8
    8000c124:	4701                	li	a4,0
    8000c126:	4501                	li	a0,0
    8000c128:	16fd                	addi	a3,a3,-1
    8000c12a:	b6f9                	j	8000bcf8 <__multf3+0x1fc>
    8000c12c:	4705                	li	a4,1
    8000c12e:	66a1                	lui	a3,0x8
    8000c130:	173e                	slli	a4,a4,0x2f
    8000c132:	4501                	li	a0,0
    8000c134:	16fd                	addi	a3,a3,-1
    8000c136:	4801                	li	a6,0
    8000c138:	b6c1                	j	8000bcf8 <__multf3+0x1fc>

000000008000c13a <__subtf3>:
    8000c13a:	7179                	addi	sp,sp,-48
    8000c13c:	f406                	sd	ra,40(sp)
    8000c13e:	f022                	sd	s0,32(sp)
    8000c140:	ec26                	sd	s1,24(sp)
    8000c142:	e84a                	sd	s2,16(sp)
    8000c144:	e44e                	sd	s3,8(sp)
    8000c146:	e052                	sd	s4,0(sp)
    8000c148:	002024f3          	frrm	s1
    8000c14c:	52fd                	li	t0,-1
    8000c14e:	0102d293          	srli	t0,t0,0x10
    8000c152:	6fa1                	lui	t6,0x8
    8000c154:	0305d313          	srli	t1,a1,0x30
    8000c158:	1ffd                	addi	t6,t6,-1
    8000c15a:	0306d893          	srli	a7,a3,0x30
    8000c15e:	03f5d913          	srli	s2,a1,0x3f
    8000c162:	03f6de13          	srli	t3,a3,0x3f
    8000c166:	0055f5b3          	and	a1,a1,t0
    8000c16a:	0056f6b3          	and	a3,a3,t0
    8000c16e:	03d55413          	srli	s0,a0,0x3d
    8000c172:	01f37333          	and	t1,t1,t6
    8000c176:	058e                	slli	a1,a1,0x3
    8000c178:	00351f13          	slli	t5,a0,0x3
    8000c17c:	068e                	slli	a3,a3,0x3
    8000c17e:	03d65513          	srli	a0,a2,0x3d
    8000c182:	01f8f8b3          	and	a7,a7,t6
    8000c186:	2481                	sext.w	s1,s1
    8000c188:	899a                	mv	s3,t1
    8000c18a:	8dc1                	or	a1,a1,s0
    8000c18c:	8ec9                	or	a3,a3,a0
    8000c18e:	00361e93          	slli	t4,a2,0x3
    8000c192:	01f89563          	bne	a7,t6,8000c19c <__subtf3+0x62>
    8000c196:	01d6e7b3          	or	a5,a3,t4
    8000c19a:	e399                	bnez	a5,8000c1a0 <__subtf3+0x66>
    8000c19c:	001e4e13          	xori	t3,t3,1
    8000c1a0:	411307bb          	subw	a5,t1,a7
    8000c1a4:	6521                	lui	a0,0x8
    8000c1a6:	0007871b          	sext.w	a4,a5
    8000c1aa:	fff50613          	addi	a2,a0,-1 # 7fff <_stack_size-0x1>
    8000c1ae:	312e1c63          	bne	t3,s2,8000c4c6 <__subtf3+0x38c>
    8000c1b2:	0ee05e63          	blez	a4,8000c2ae <__subtf3+0x174>
    8000c1b6:	08089263          	bnez	a7,8000c23a <__subtf3+0x100>
    8000c1ba:	01d6e733          	or	a4,a3,t4
    8000c1be:	ef19                	bnez	a4,8000c1dc <__subtf3+0xa2>
    8000c1c0:	70c31463          	bne	t1,a2,8000c8c8 <__subtf3+0x78e>
    8000c1c4:	01e5eeb3          	or	t4,a1,t5
    8000c1c8:	740e8163          	beqz	t4,8000c90a <__subtf3+0x7d0>
    8000c1cc:	00d59793          	slli	a5,a1,0xd
    8000c1d0:	86ae                	mv	a3,a1
    8000c1d2:	8efa                	mv	t4,t5
    8000c1d4:	0407c663          	bltz	a5,8000c220 <__subtf3+0xe6>
    8000c1d8:	47c1                	li	a5,16
    8000c1da:	aad5                	j	8000c3ce <__subtf3+0x294>
    8000c1dc:	fff7871b          	addiw	a4,a5,-1
    8000c1e0:	e331                	bnez	a4,8000c224 <__subtf3+0xea>
    8000c1e2:	9efa                	add	t4,t4,t5
    8000c1e4:	96ae                	add	a3,a3,a1
    8000c1e6:	01eebf33          	sltu	t5,t4,t5
    8000c1ea:	96fa                	add	a3,a3,t5
    8000c1ec:	00c69793          	slli	a5,a3,0xc
    8000c1f0:	6c07d763          	bgez	a5,8000c8be <__subtf3+0x784>
    8000c1f4:	67a1                	lui	a5,0x8
    8000c1f6:	0985                	addi	s3,s3,1
    8000c1f8:	fff78713          	addi	a4,a5,-1 # 7fff <_stack_size-0x1>
    8000c1fc:	2ae98063          	beq	s3,a4,8000c49c <__subtf3+0x362>
    8000c200:	557d                	li	a0,-1
    8000c202:	154e                	slli	a0,a0,0x33
    8000c204:	157d                	addi	a0,a0,-1
    8000c206:	8d75                	and	a0,a0,a3
    8000c208:	001ed593          	srli	a1,t4,0x1
    8000c20c:	001efe93          	andi	t4,t4,1
    8000c210:	03f51693          	slli	a3,a0,0x3f
    8000c214:	01d5eeb3          	or	t4,a1,t4
    8000c218:	01d6eeb3          	or	t4,a3,t4
    8000c21c:	00155693          	srli	a3,a0,0x1
    8000c220:	4701                	li	a4,0
    8000c222:	a425                	j	8000c44a <__subtf3+0x310>
    8000c224:	02c31063          	bne	t1,a2,8000c244 <__subtf3+0x10a>
    8000c228:	01e5eeb3          	or	t4,a1,t5
    8000c22c:	6c0e8f63          	beqz	t4,8000c90a <__subtf3+0x7d0>
    8000c230:	00d59793          	slli	a5,a1,0xd
    8000c234:	86ae                	mv	a3,a1
    8000c236:	8efa                	mv	t4,t5
    8000c238:	a851                	j	8000c2cc <__subtf3+0x192>
    8000c23a:	fec307e3          	beq	t1,a2,8000c228 <__subtf3+0xee>
    8000c23e:	4785                	li	a5,1
    8000c240:	17ce                	slli	a5,a5,0x33
    8000c242:	8edd                	or	a3,a3,a5
    8000c244:	07400793          	li	a5,116
    8000c248:	04e7ce63          	blt	a5,a4,8000c2a4 <__subtf3+0x16a>
    8000c24c:	03f00793          	li	a5,63
    8000c250:	02e7c363          	blt	a5,a4,8000c276 <__subtf3+0x13c>
    8000c254:	04000413          	li	s0,64
    8000c258:	9c19                	subw	s0,s0,a4
    8000c25a:	008697b3          	sll	a5,a3,s0
    8000c25e:	00eed633          	srl	a2,t4,a4
    8000c262:	008e9eb3          	sll	t4,t4,s0
    8000c266:	8fd1                	or	a5,a5,a2
    8000c268:	01d03eb3          	snez	t4,t4
    8000c26c:	01d7eeb3          	or	t4,a5,t4
    8000c270:	00e6d6b3          	srl	a3,a3,a4
    8000c274:	b7bd                	j	8000c1e2 <__subtf3+0xa8>
    8000c276:	fc07079b          	addiw	a5,a4,-64
    8000c27a:	04000613          	li	a2,64
    8000c27e:	00f6d7b3          	srl	a5,a3,a5
    8000c282:	4401                	li	s0,0
    8000c284:	00c70863          	beq	a4,a2,8000c294 <__subtf3+0x15a>
    8000c288:	08000413          	li	s0,128
    8000c28c:	40e4073b          	subw	a4,s0,a4
    8000c290:	00e69433          	sll	s0,a3,a4
    8000c294:	01d46eb3          	or	t4,s0,t4
    8000c298:	01d03eb3          	snez	t4,t4
    8000c29c:	01d7eeb3          	or	t4,a5,t4
    8000c2a0:	4681                	li	a3,0
    8000c2a2:	b781                	j	8000c1e2 <__subtf3+0xa8>
    8000c2a4:	01d6eeb3          	or	t4,a3,t4
    8000c2a8:	01d03eb3          	snez	t4,t4
    8000c2ac:	bfd5                	j	8000c2a0 <__subtf3+0x166>
    8000c2ae:	cf79                	beqz	a4,8000c38c <__subtf3+0x252>
    8000c2b0:	08031263          	bnez	t1,8000c334 <__subtf3+0x1fa>
    8000c2b4:	01e5e533          	or	a0,a1,t5
    8000c2b8:	ed11                	bnez	a0,8000c2d4 <__subtf3+0x19a>
    8000c2ba:	89c6                	mv	s3,a7
    8000c2bc:	60c89163          	bne	a7,a2,8000c8be <__subtf3+0x784>
    8000c2c0:	01d6e7b3          	or	a5,a3,t4
    8000c2c4:	62078b63          	beqz	a5,8000c8fa <__subtf3+0x7c0>
    8000c2c8:	00d69793          	slli	a5,a3,0xd
    8000c2cc:	4701                	li	a4,0
    8000c2ce:	1607ce63          	bltz	a5,8000c44a <__subtf3+0x310>
    8000c2d2:	b719                	j	8000c1d8 <__subtf3+0x9e>
    8000c2d4:	557d                	li	a0,-1
    8000c2d6:	00a71a63          	bne	a4,a0,8000c2ea <__subtf3+0x1b0>
    8000c2da:	9f76                	add	t5,t5,t4
    8000c2dc:	96ae                	add	a3,a3,a1
    8000c2de:	01df3eb3          	sltu	t4,t5,t4
    8000c2e2:	96f6                	add	a3,a3,t4
    8000c2e4:	8efa                	mv	t4,t5
    8000c2e6:	89c6                	mv	s3,a7
    8000c2e8:	b711                	j	8000c1ec <__subtf3+0xb2>
    8000c2ea:	04c88763          	beq	a7,a2,8000c338 <__subtf3+0x1fe>
    8000c2ee:	fff7c793          	not	a5,a5
    8000c2f2:	0007881b          	sext.w	a6,a5
    8000c2f6:	07400793          	li	a5,116
    8000c2fa:	0907c463          	blt	a5,a6,8000c382 <__subtf3+0x248>
    8000c2fe:	03f00793          	li	a5,63
    8000c302:	0507c963          	blt	a5,a6,8000c354 <__subtf3+0x21a>
    8000c306:	04000513          	li	a0,64
    8000c30a:	4105053b          	subw	a0,a0,a6
    8000c30e:	010f57b3          	srl	a5,t5,a6
    8000c312:	00a59433          	sll	s0,a1,a0
    8000c316:	00af1f33          	sll	t5,t5,a0
    8000c31a:	8c5d                	or	s0,s0,a5
    8000c31c:	01e03f33          	snez	t5,t5
    8000c320:	01e46f33          	or	t5,s0,t5
    8000c324:	0105d833          	srl	a6,a1,a6
    8000c328:	9f76                	add	t5,t5,t4
    8000c32a:	9836                	add	a6,a6,a3
    8000c32c:	01df36b3          	sltu	a3,t5,t4
    8000c330:	96c2                	add	a3,a3,a6
    8000c332:	bf4d                	j	8000c2e4 <__subtf3+0x1aa>
    8000c334:	00c89a63          	bne	a7,a2,8000c348 <__subtf3+0x20e>
    8000c338:	01d6e7b3          	or	a5,a3,t4
    8000c33c:	5c078363          	beqz	a5,8000c902 <__subtf3+0x7c8>
    8000c340:	00d69793          	slli	a5,a3,0xd
    8000c344:	89c6                	mv	s3,a7
    8000c346:	b759                	j	8000c2cc <__subtf3+0x192>
    8000c348:	40f0083b          	negw	a6,a5
    8000c34c:	4785                	li	a5,1
    8000c34e:	17ce                	slli	a5,a5,0x33
    8000c350:	8ddd                	or	a1,a1,a5
    8000c352:	b755                	j	8000c2f6 <__subtf3+0x1bc>
    8000c354:	fc08041b          	addiw	s0,a6,-64
    8000c358:	04000793          	li	a5,64
    8000c35c:	0085d433          	srl	s0,a1,s0
    8000c360:	4501                	li	a0,0
    8000c362:	00f80863          	beq	a6,a5,8000c372 <__subtf3+0x238>
    8000c366:	08000513          	li	a0,128
    8000c36a:	4105083b          	subw	a6,a0,a6
    8000c36e:	01059533          	sll	a0,a1,a6
    8000c372:	01e56f33          	or	t5,a0,t5
    8000c376:	01e03f33          	snez	t5,t5
    8000c37a:	01e46f33          	or	t5,s0,t5
    8000c37e:	4801                	li	a6,0
    8000c380:	b765                	j	8000c328 <__subtf3+0x1ee>
    8000c382:	01e5e433          	or	s0,a1,t5
    8000c386:	00803f33          	snez	t5,s0
    8000c38a:	bfd5                	j	8000c37e <__subtf3+0x244>
    8000c38c:	00130e13          	addi	t3,t1,1
    8000c390:	ffe50793          	addi	a5,a0,-2
    8000c394:	00fe7533          	and	a0,t3,a5
    8000c398:	e559                	bnez	a0,8000c426 <__subtf3+0x2ec>
    8000c39a:	01e5e533          	or	a0,a1,t5
    8000c39e:	04031063          	bnez	t1,8000c3de <__subtf3+0x2a4>
    8000c3a2:	52050063          	beqz	a0,8000c8c2 <__subtf3+0x788>
    8000c3a6:	01d6e7b3          	or	a5,a3,t4
    8000c3aa:	2c078963          	beqz	a5,8000c67c <__subtf3+0x542>
    8000c3ae:	9efa                	add	t4,t4,t5
    8000c3b0:	96ae                	add	a3,a3,a1
    8000c3b2:	01eeb433          	sltu	s0,t4,t5
    8000c3b6:	008685b3          	add	a1,a3,s0
    8000c3ba:	00c59793          	slli	a5,a1,0xc
    8000c3be:	5007d363          	bgez	a5,8000c8c4 <__subtf3+0x78a>
    8000c3c2:	56fd                	li	a3,-1
    8000c3c4:	16ce                	slli	a3,a3,0x33
    8000c3c6:	16fd                	addi	a3,a3,-1
    8000c3c8:	8eed                	and	a3,a3,a1
    8000c3ca:	4781                	li	a5,0
    8000c3cc:	4985                	li	s3,1
    8000c3ce:	007ef613          	andi	a2,t4,7
    8000c3d2:	ee59                	bnez	a2,8000c470 <__subtf3+0x336>
    8000c3d4:	38070663          	beqz	a4,8000c760 <__subtf3+0x626>
    8000c3d8:	0017f713          	andi	a4,a5,1
    8000c3dc:	ab81                	j	8000c92c <__subtf3+0x7f2>
    8000c3de:	02c31f63          	bne	t1,a2,8000c41c <__subtf3+0x2e2>
    8000c3e2:	58050563          	beqz	a0,8000c96c <__subtf3+0x832>
    8000c3e6:	0325d793          	srli	a5,a1,0x32
    8000c3ea:	8b85                	andi	a5,a5,1
    8000c3ec:	0017b793          	seqz	a5,a5
    8000c3f0:	0792                	slli	a5,a5,0x4
    8000c3f2:	00689c63          	bne	a7,t1,8000c40a <__subtf3+0x2d0>
    8000c3f6:	01d6e633          	or	a2,a3,t4
    8000c3fa:	56060663          	beqz	a2,8000c966 <__subtf3+0x82c>
    8000c3fe:	00d69613          	slli	a2,a3,0xd
    8000c402:	00064363          	bltz	a2,8000c408 <__subtf3+0x2ce>
    8000c406:	47c1                	li	a5,16
    8000c408:	c519                	beqz	a0,8000c416 <__subtf3+0x2dc>
    8000c40a:	01d6e6b3          	or	a3,a3,t4
    8000c40e:	34069363          	bnez	a3,8000c754 <__subtf3+0x61a>
    8000c412:	86ae                	mv	a3,a1
    8000c414:	8efa                	mv	t4,t5
    8000c416:	69a1                	lui	s3,0x8
    8000c418:	19fd                	addi	s3,s3,-1
    8000c41a:	bf55                	j	8000c3ce <__subtf3+0x294>
    8000c41c:	4781                	li	a5,0
    8000c41e:	fec895e3          	bne	a7,a2,8000c408 <__subtf3+0x2ce>
    8000c422:	4781                	li	a5,0
    8000c424:	bfc9                	j	8000c3f6 <__subtf3+0x2bc>
    8000c426:	02ce0463          	beq	t3,a2,8000c44e <__subtf3+0x314>
    8000c42a:	9efa                	add	t4,t4,t5
    8000c42c:	00d58433          	add	s0,a1,a3
    8000c430:	01eeb6b3          	sltu	a3,t4,t5
    8000c434:	00d40f33          	add	t5,s0,a3
    8000c438:	03ff1693          	slli	a3,t5,0x3f
    8000c43c:	001ede93          	srli	t4,t4,0x1
    8000c440:	01d6eeb3          	or	t4,a3,t4
    8000c444:	89f2                	mv	s3,t3
    8000c446:	001f5693          	srli	a3,t5,0x1
    8000c44a:	4781                	li	a5,0
    8000c44c:	b749                	j	8000c3ce <__subtf3+0x294>
    8000c44e:	c491                	beqz	s1,8000c45a <__subtf3+0x320>
    8000c450:	468d                	li	a3,3
    8000c452:	00d49663          	bne	s1,a3,8000c45e <__subtf3+0x324>
    8000c456:	00091963          	bnez	s2,8000c468 <__subtf3+0x32e>
    8000c45a:	89f2                	mv	s3,t3
    8000c45c:	a0b1                	j	8000c4a8 <__subtf3+0x36e>
    8000c45e:	4689                	li	a3,2
    8000c460:	00d49463          	bne	s1,a3,8000c468 <__subtf3+0x32e>
    8000c464:	fe091be3          	bnez	s2,8000c45a <__subtf3+0x320>
    8000c468:	56fd                	li	a3,-1
    8000c46a:	5efd                	li	t4,-1
    8000c46c:	89be                	mv	s3,a5
    8000c46e:	4795                	li	a5,5
    8000c470:	4609                	li	a2,2
    8000c472:	0017e793          	ori	a5,a5,1
    8000c476:	4ac48963          	beq	s1,a2,8000c928 <__subtf3+0x7ee>
    8000c47a:	460d                	li	a2,3
    8000c47c:	4ac48163          	beq	s1,a2,8000c91e <__subtf3+0x7e4>
    8000c480:	4a049663          	bnez	s1,8000c92c <__subtf3+0x7f2>
    8000c484:	00fef613          	andi	a2,t4,15
    8000c488:	4591                	li	a1,4
    8000c48a:	4ab60163          	beq	a2,a1,8000c92c <__subtf3+0x7f2>
    8000c48e:	004e8593          	addi	a1,t4,4
    8000c492:	01d5beb3          	sltu	t4,a1,t4
    8000c496:	96f6                	add	a3,a3,t4
    8000c498:	8eae                	mv	t4,a1
    8000c49a:	a949                	j	8000c92c <__subtf3+0x7f2>
    8000c49c:	c491                	beqz	s1,8000c4a8 <__subtf3+0x36e>
    8000c49e:	470d                	li	a4,3
    8000c4a0:	00e49863          	bne	s1,a4,8000c4b0 <__subtf3+0x376>
    8000c4a4:	00091b63          	bnez	s2,8000c4ba <__subtf3+0x380>
    8000c4a8:	4681                	li	a3,0
    8000c4aa:	4e81                	li	t4,0
    8000c4ac:	4795                	li	a5,5
    8000c4ae:	ac4d                	j	8000c760 <__subtf3+0x626>
    8000c4b0:	4709                	li	a4,2
    8000c4b2:	00e49463          	bne	s1,a4,8000c4ba <__subtf3+0x380>
    8000c4b6:	fe0919e3          	bnez	s2,8000c4a8 <__subtf3+0x36e>
    8000c4ba:	56fd                	li	a3,-1
    8000c4bc:	5efd                	li	t4,-1
    8000c4be:	ffe78993          	addi	s3,a5,-2
    8000c4c2:	4701                	li	a4,0
    8000c4c4:	b76d                	j	8000c46e <__subtf3+0x334>
    8000c4c6:	0ae05963          	blez	a4,8000c578 <__subtf3+0x43e>
    8000c4ca:	06089563          	bnez	a7,8000c534 <__subtf3+0x3fa>
    8000c4ce:	01d6e733          	or	a4,a3,t4
    8000c4d2:	ce0707e3          	beqz	a4,8000c1c0 <__subtf3+0x86>
    8000c4d6:	fff7871b          	addiw	a4,a5,-1
    8000c4da:	e315                	bnez	a4,8000c4fe <__subtf3+0x3c4>
    8000c4dc:	41df0eb3          	sub	t4,t5,t4
    8000c4e0:	40d586b3          	sub	a3,a1,a3
    8000c4e4:	01df3f33          	sltu	t5,t5,t4
    8000c4e8:	41e686b3          	sub	a3,a3,t5
    8000c4ec:	00c69793          	slli	a5,a3,0xc
    8000c4f0:	3c07d763          	bgez	a5,8000c8be <__subtf3+0x784>
    8000c4f4:	547d                	li	s0,-1
    8000c4f6:	8035                	srli	s0,s0,0xd
    8000c4f8:	8c75                	and	s0,s0,a3
    8000c4fa:	8a76                	mv	s4,t4
    8000c4fc:	acfd                	j	8000c7fa <__subtf3+0x6c0>
    8000c4fe:	d2c305e3          	beq	t1,a2,8000c228 <__subtf3+0xee>
    8000c502:	07400793          	li	a5,116
    8000c506:	06e7c463          	blt	a5,a4,8000c56e <__subtf3+0x434>
    8000c50a:	03f00793          	li	a5,63
    8000c50e:	02e7c963          	blt	a5,a4,8000c540 <__subtf3+0x406>
    8000c512:	04000413          	li	s0,64
    8000c516:	9c19                	subw	s0,s0,a4
    8000c518:	008697b3          	sll	a5,a3,s0
    8000c51c:	00eed633          	srl	a2,t4,a4
    8000c520:	008e9eb3          	sll	t4,t4,s0
    8000c524:	8fd1                	or	a5,a5,a2
    8000c526:	01d03eb3          	snez	t4,t4
    8000c52a:	01d7eeb3          	or	t4,a5,t4
    8000c52e:	00e6d6b3          	srl	a3,a3,a4
    8000c532:	b76d                	j	8000c4dc <__subtf3+0x3a2>
    8000c534:	cec30ae3          	beq	t1,a2,8000c228 <__subtf3+0xee>
    8000c538:	4785                	li	a5,1
    8000c53a:	17ce                	slli	a5,a5,0x33
    8000c53c:	8edd                	or	a3,a3,a5
    8000c53e:	b7d1                	j	8000c502 <__subtf3+0x3c8>
    8000c540:	fc07079b          	addiw	a5,a4,-64
    8000c544:	04000613          	li	a2,64
    8000c548:	00f6d7b3          	srl	a5,a3,a5
    8000c54c:	4401                	li	s0,0
    8000c54e:	00c70863          	beq	a4,a2,8000c55e <__subtf3+0x424>
    8000c552:	08000413          	li	s0,128
    8000c556:	40e4073b          	subw	a4,s0,a4
    8000c55a:	00e69433          	sll	s0,a3,a4
    8000c55e:	01d46eb3          	or	t4,s0,t4
    8000c562:	01d03eb3          	snez	t4,t4
    8000c566:	01d7eeb3          	or	t4,a5,t4
    8000c56a:	4681                	li	a3,0
    8000c56c:	bf85                	j	8000c4dc <__subtf3+0x3a2>
    8000c56e:	01d6eeb3          	or	t4,a3,t4
    8000c572:	01d03eb3          	snez	t4,t4
    8000c576:	bfd5                	j	8000c56a <__subtf3+0x430>
    8000c578:	cb71                	beqz	a4,8000c64c <__subtf3+0x512>
    8000c57a:	08031563          	bnez	t1,8000c604 <__subtf3+0x4ca>
    8000c57e:	01e5e533          	or	a0,a1,t5
    8000c582:	ed01                	bnez	a0,8000c59a <__subtf3+0x460>
    8000c584:	34c89563          	bne	a7,a2,8000c8ce <__subtf3+0x794>
    8000c588:	01d6e7b3          	or	a5,a3,t4
    8000c58c:	38078163          	beqz	a5,8000c90e <__subtf3+0x7d4>
    8000c590:	00d69793          	slli	a5,a3,0xd
    8000c594:	89c6                	mv	s3,a7
    8000c596:	8972                	mv	s2,t3
    8000c598:	bb15                	j	8000c2cc <__subtf3+0x192>
    8000c59a:	557d                	li	a0,-1
    8000c59c:	00a71d63          	bne	a4,a0,8000c5b6 <__subtf3+0x47c>
    8000c5a0:	41ee8f33          	sub	t5,t4,t5
    8000c5a4:	8e8d                	sub	a3,a3,a1
    8000c5a6:	01eebeb3          	sltu	t4,t4,t5
    8000c5aa:	41d686b3          	sub	a3,a3,t4
    8000c5ae:	8efa                	mv	t4,t5
    8000c5b0:	89c6                	mv	s3,a7
    8000c5b2:	8972                	mv	s2,t3
    8000c5b4:	bf25                	j	8000c4ec <__subtf3+0x3b2>
    8000c5b6:	fcc889e3          	beq	a7,a2,8000c588 <__subtf3+0x44e>
    8000c5ba:	fff7c793          	not	a5,a5
    8000c5be:	2781                	sext.w	a5,a5
    8000c5c0:	07400713          	li	a4,116
    8000c5c4:	06f74f63          	blt	a4,a5,8000c642 <__subtf3+0x508>
    8000c5c8:	03f00713          	li	a4,63
    8000c5cc:	04f74463          	blt	a4,a5,8000c614 <__subtf3+0x4da>
    8000c5d0:	04000513          	li	a0,64
    8000c5d4:	9d1d                	subw	a0,a0,a5
    8000c5d6:	00ff5833          	srl	a6,t5,a5
    8000c5da:	00a59433          	sll	s0,a1,a0
    8000c5de:	00af1f33          	sll	t5,t5,a0
    8000c5e2:	01046433          	or	s0,s0,a6
    8000c5e6:	01e03f33          	snez	t5,t5
    8000c5ea:	01e46f33          	or	t5,s0,t5
    8000c5ee:	00f5d7b3          	srl	a5,a1,a5
    8000c5f2:	41ee8f33          	sub	t5,t4,t5
    8000c5f6:	40f687b3          	sub	a5,a3,a5
    8000c5fa:	01eeb6b3          	sltu	a3,t4,t5
    8000c5fe:	40d786b3          	sub	a3,a5,a3
    8000c602:	b775                	j	8000c5ae <__subtf3+0x474>
    8000c604:	f8c882e3          	beq	a7,a2,8000c588 <__subtf3+0x44e>
    8000c608:	4705                	li	a4,1
    8000c60a:	174e                	slli	a4,a4,0x33
    8000c60c:	40f007bb          	negw	a5,a5
    8000c610:	8dd9                	or	a1,a1,a4
    8000c612:	b77d                	j	8000c5c0 <__subtf3+0x486>
    8000c614:	fc07841b          	addiw	s0,a5,-64
    8000c618:	04000713          	li	a4,64
    8000c61c:	0085d433          	srl	s0,a1,s0
    8000c620:	4501                	li	a0,0
    8000c622:	00e78863          	beq	a5,a4,8000c632 <__subtf3+0x4f8>
    8000c626:	08000513          	li	a0,128
    8000c62a:	40f507bb          	subw	a5,a0,a5
    8000c62e:	00f59533          	sll	a0,a1,a5
    8000c632:	01e56f33          	or	t5,a0,t5
    8000c636:	01e03f33          	snez	t5,t5
    8000c63a:	01e46f33          	or	t5,s0,t5
    8000c63e:	4781                	li	a5,0
    8000c640:	bf4d                	j	8000c5f2 <__subtf3+0x4b8>
    8000c642:	01e5e433          	or	s0,a1,t5
    8000c646:	00803f33          	snez	t5,s0
    8000c64a:	bfd5                	j	8000c63e <__subtf3+0x504>
    8000c64c:	00130813          	addi	a6,t1,1
    8000c650:	ffe50793          	addi	a5,a0,-2
    8000c654:	00f877b3          	and	a5,a6,a5
    8000c658:	16079e63          	bnez	a5,8000c7d4 <__subtf3+0x69a>
    8000c65c:	01e5e833          	or	a6,a1,t5
    8000c660:	01d6e533          	or	a0,a3,t4
    8000c664:	0a031263          	bnez	t1,8000c708 <__subtf3+0x5ce>
    8000c668:	06081063          	bnez	a6,8000c6c8 <__subtf3+0x58e>
    8000c66c:	26051463          	bnez	a0,8000c8d4 <__subtf3+0x79a>
    8000c670:	ffe48913          	addi	s2,s1,-2
    8000c674:	00193913          	seqz	s2,s2
    8000c678:	4581                	li	a1,0
    8000c67a:	4f01                	li	t5,0
    8000c67c:	00bf6eb3          	or	t4,t5,a1
    8000c680:	280e8c63          	beqz	t4,8000c918 <__subtf3+0x7de>
    8000c684:	001f1613          	slli	a2,t5,0x1
    8000c688:	03ff5793          	srli	a5,t5,0x3f
    8000c68c:	00159713          	slli	a4,a1,0x1
    8000c690:	00767693          	andi	a3,a2,7
    8000c694:	973e                	add	a4,a4,a5
    8000c696:	4781                	li	a5,0
    8000c698:	c285                	beqz	a3,8000c6b8 <__subtf3+0x57e>
    8000c69a:	4789                	li	a5,2
    8000c69c:	24f48b63          	beq	s1,a5,8000c8f2 <__subtf3+0x7b8>
    8000c6a0:	478d                	li	a5,3
    8000c6a2:	22f48f63          	beq	s1,a5,8000c8e0 <__subtf3+0x7a6>
    8000c6a6:	4785                	li	a5,1
    8000c6a8:	e881                	bnez	s1,8000c6b8 <__subtf3+0x57e>
    8000c6aa:	00f67693          	andi	a3,a2,15
    8000c6ae:	4511                	li	a0,4
    8000c6b0:	ffc63613          	sltiu	a2,a2,-4
    8000c6b4:	22a69b63          	bne	a3,a0,8000c8ea <__subtf3+0x7b0>
    8000c6b8:	9351                	srli	a4,a4,0x34
    8000c6ba:	00174713          	xori	a4,a4,1
    8000c6be:	8b05                	andi	a4,a4,1
    8000c6c0:	86ae                	mv	a3,a1
    8000c6c2:	8efa                	mv	t4,t5
    8000c6c4:	4981                	li	s3,0
    8000c6c6:	b321                	j	8000c3ce <__subtf3+0x294>
    8000c6c8:	d955                	beqz	a0,8000c67c <__subtf3+0x542>
    8000c6ca:	41df0733          	sub	a4,t5,t4
    8000c6ce:	00ef3633          	sltu	a2,t5,a4
    8000c6d2:	40d587b3          	sub	a5,a1,a3
    8000c6d6:	8f91                	sub	a5,a5,a2
    8000c6d8:	00c79613          	slli	a2,a5,0xc
    8000c6dc:	00065c63          	bgez	a2,8000c6f4 <__subtf3+0x5ba>
    8000c6e0:	41ee8f33          	sub	t5,t4,t5
    8000c6e4:	40b68433          	sub	s0,a3,a1
    8000c6e8:	01eeb6b3          	sltu	a3,t4,t5
    8000c6ec:	40d405b3          	sub	a1,s0,a3
    8000c6f0:	8972                	mv	s2,t3
    8000c6f2:	b769                	j	8000c67c <__subtf3+0x542>
    8000c6f4:	00f76f33          	or	t5,a4,a5
    8000c6f8:	1e0f1163          	bnez	t5,8000c8da <__subtf3+0x7a0>
    8000c6fc:	ffe48913          	addi	s2,s1,-2
    8000c700:	00193913          	seqz	s2,s2
    8000c704:	4581                	li	a1,0
    8000c706:	bf9d                	j	8000c67c <__subtf3+0x542>
    8000c708:	02c31f63          	bne	t1,a2,8000c746 <__subtf3+0x60c>
    8000c70c:	24080963          	beqz	a6,8000c95e <__subtf3+0x824>
    8000c710:	0325d793          	srli	a5,a1,0x32
    8000c714:	8b85                	andi	a5,a5,1
    8000c716:	0017b793          	seqz	a5,a5
    8000c71a:	0792                	slli	a5,a5,0x4
    8000c71c:	02689a63          	bne	a7,t1,8000c750 <__subtf3+0x616>
    8000c720:	c511                	beqz	a0,8000c72c <__subtf3+0x5f2>
    8000c722:	00d69613          	slli	a2,a3,0xd
    8000c726:	00064363          	bltz	a2,8000c72c <__subtf3+0x5f2>
    8000c72a:	47c1                	li	a5,16
    8000c72c:	02081263          	bnez	a6,8000c750 <__subtf3+0x616>
    8000c730:	8972                	mv	s2,t3
    8000c732:	ce0512e3          	bnez	a0,8000c416 <__subtf3+0x2dc>
    8000c736:	4685                	li	a3,1
    8000c738:	69a1                	lui	s3,0x8
    8000c73a:	4e81                	li	t4,0
    8000c73c:	4901                	li	s2,0
    8000c73e:	16ca                	slli	a3,a3,0x32
    8000c740:	19fd                	addi	s3,s3,-1
    8000c742:	47c1                	li	a5,16
    8000c744:	a831                	j	8000c760 <__subtf3+0x626>
    8000c746:	4781                	li	a5,0
    8000c748:	fec892e3          	bne	a7,a2,8000c72c <__subtf3+0x5f2>
    8000c74c:	4781                	li	a5,0
    8000c74e:	bfc9                	j	8000c720 <__subtf3+0x5e6>
    8000c750:	cc0501e3          	beqz	a0,8000c412 <__subtf3+0x2d8>
    8000c754:	4685                	li	a3,1
    8000c756:	69a1                	lui	s3,0x8
    8000c758:	4901                	li	s2,0
    8000c75a:	16ca                	slli	a3,a3,0x32
    8000c75c:	4e81                	li	t4,0
    8000c75e:	19fd                	addi	s3,s3,-1
    8000c760:	00c69713          	slli	a4,a3,0xc
    8000c764:	00075c63          	bgez	a4,8000c77c <__subtf3+0x642>
    8000c768:	6721                	lui	a4,0x8
    8000c76a:	0985                	addi	s3,s3,1
    8000c76c:	fff70613          	addi	a2,a4,-1 # 7fff <_stack_size-0x1>
    8000c770:	1cc98363          	beq	s3,a2,8000c936 <__subtf3+0x7fc>
    8000c774:	577d                	li	a4,-1
    8000c776:	174e                	slli	a4,a4,0x33
    8000c778:	177d                	addi	a4,a4,-1
    8000c77a:	8ef9                	and	a3,a3,a4
    8000c77c:	6721                	lui	a4,0x8
    8000c77e:	03d69513          	slli	a0,a3,0x3d
    8000c782:	003ede93          	srli	t4,t4,0x3
    8000c786:	177d                	addi	a4,a4,-1
    8000c788:	01d56533          	or	a0,a0,t4
    8000c78c:	828d                	srli	a3,a3,0x3
    8000c78e:	00e99963          	bne	s3,a4,8000c7a0 <__subtf3+0x666>
    8000c792:	8d55                	or	a0,a0,a3
    8000c794:	4681                	li	a3,0
    8000c796:	c509                	beqz	a0,8000c7a0 <__subtf3+0x666>
    8000c798:	4685                	li	a3,1
    8000c79a:	16be                	slli	a3,a3,0x2f
    8000c79c:	4501                	li	a0,0
    8000c79e:	4901                	li	s2,0
    8000c7a0:	65a1                	lui	a1,0x8
    8000c7a2:	577d                	li	a4,-1
    8000c7a4:	15fd                	addi	a1,a1,-1
    8000c7a6:	01075613          	srli	a2,a4,0x10
    8000c7aa:	00b9f5b3          	and	a1,s3,a1
    8000c7ae:	15c2                	slli	a1,a1,0x30
    8000c7b0:	8ef1                	and	a3,a3,a2
    8000c7b2:	8dd5                	or	a1,a1,a3
    8000c7b4:	8305                	srli	a4,a4,0x1
    8000c7b6:	197e                	slli	s2,s2,0x3f
    8000c7b8:	8df9                	and	a1,a1,a4
    8000c7ba:	0125e5b3          	or	a1,a1,s2
    8000c7be:	c399                	beqz	a5,8000c7c4 <__subtf3+0x68a>
    8000c7c0:	0017a073          	csrs	fflags,a5
    8000c7c4:	70a2                	ld	ra,40(sp)
    8000c7c6:	7402                	ld	s0,32(sp)
    8000c7c8:	64e2                	ld	s1,24(sp)
    8000c7ca:	6942                	ld	s2,16(sp)
    8000c7cc:	69a2                	ld	s3,8(sp)
    8000c7ce:	6a02                	ld	s4,0(sp)
    8000c7d0:	6145                	addi	sp,sp,48
    8000c7d2:	8082                	ret
    8000c7d4:	41df0a33          	sub	s4,t5,t4
    8000c7d8:	014f37b3          	sltu	a5,t5,s4
    8000c7dc:	40d58433          	sub	s0,a1,a3
    8000c7e0:	8c1d                	sub	s0,s0,a5
    8000c7e2:	00c41793          	slli	a5,s0,0xc
    8000c7e6:	0607de63          	bgez	a5,8000c862 <__subtf3+0x728>
    8000c7ea:	41ee8a33          	sub	s4,t4,t5
    8000c7ee:	40b68433          	sub	s0,a3,a1
    8000c7f2:	014eb6b3          	sltu	a3,t4,s4
    8000c7f6:	8c15                	sub	s0,s0,a3
    8000c7f8:	8972                	mv	s2,t3
    8000c7fa:	c82d                	beqz	s0,8000c86c <__subtf3+0x732>
    8000c7fc:	8522                	mv	a0,s0
    8000c7fe:	ffffb097          	auipc	ra,0xffffb
    8000c802:	e20080e7          	jalr	-480(ra) # 8000761e <__clzdi2>
    8000c806:	2501                	sext.w	a0,a0
    8000c808:	ff45061b          	addiw	a2,a0,-12
    8000c80c:	03f00793          	li	a5,63
    8000c810:	8f32                	mv	t5,a2
    8000c812:	06c7c563          	blt	a5,a2,8000c87c <__subtf3+0x742>
    8000c816:	04000693          	li	a3,64
    8000c81a:	9e91                	subw	a3,a3,a2
    8000c81c:	00c41433          	sll	s0,s0,a2
    8000c820:	00da56b3          	srl	a3,s4,a3
    8000c824:	8c55                	or	s0,s0,a3
    8000c826:	00ca1eb3          	sll	t4,s4,a2
    8000c82a:	09364463          	blt	a2,s3,8000c8b2 <__subtf3+0x778>
    8000c82e:	413f09bb          	subw	s3,t5,s3
    8000c832:	0019869b          	addiw	a3,s3,1
    8000c836:	03f00713          	li	a4,63
    8000c83a:	04d74763          	blt	a4,a3,8000c888 <__subtf3+0x74e>
    8000c83e:	04000613          	li	a2,64
    8000c842:	9e15                	subw	a2,a2,a3
    8000c844:	00c41f33          	sll	t5,s0,a2
    8000c848:	00ded533          	srl	a0,t4,a3
    8000c84c:	00ce9633          	sll	a2,t4,a2
    8000c850:	00af6f33          	or	t5,t5,a0
    8000c854:	00c03633          	snez	a2,a2
    8000c858:	00cf6f33          	or	t5,t5,a2
    8000c85c:	00d455b3          	srl	a1,s0,a3
    8000c860:	bd31                	j	8000c67c <__subtf3+0x542>
    8000c862:	008a6f33          	or	t5,s4,s0
    8000c866:	f80f1ae3          	bnez	t5,8000c7fa <__subtf3+0x6c0>
    8000c86a:	bd49                	j	8000c6fc <__subtf3+0x5c2>
    8000c86c:	8552                	mv	a0,s4
    8000c86e:	ffffb097          	auipc	ra,0xffffb
    8000c872:	db0080e7          	jalr	-592(ra) # 8000761e <__clzdi2>
    8000c876:	0405051b          	addiw	a0,a0,64
    8000c87a:	b779                	j	8000c808 <__subtf3+0x6ce>
    8000c87c:	fb45041b          	addiw	s0,a0,-76
    8000c880:	008a1433          	sll	s0,s4,s0
    8000c884:	4e81                	li	t4,0
    8000c886:	b755                	j	8000c82a <__subtf3+0x6f0>
    8000c888:	fc198f1b          	addiw	t5,s3,-63
    8000c88c:	04000713          	li	a4,64
    8000c890:	01e45f33          	srl	t5,s0,t5
    8000c894:	4601                	li	a2,0
    8000c896:	00e68763          	beq	a3,a4,8000c8a4 <__subtf3+0x76a>
    8000c89a:	08000613          	li	a2,128
    8000c89e:	9e15                	subw	a2,a2,a3
    8000c8a0:	00c41633          	sll	a2,s0,a2
    8000c8a4:	00cee633          	or	a2,t4,a2
    8000c8a8:	00c03633          	snez	a2,a2
    8000c8ac:	00cf6f33          	or	t5,t5,a2
    8000c8b0:	bd91                	j	8000c704 <__subtf3+0x5ca>
    8000c8b2:	56fd                	li	a3,-1
    8000c8b4:	16ce                	slli	a3,a3,0x33
    8000c8b6:	16fd                	addi	a3,a3,-1
    8000c8b8:	40c989b3          	sub	s3,s3,a2
    8000c8bc:	8ee1                	and	a3,a3,s0
    8000c8be:	960991e3          	bnez	s3,8000c220 <__subtf3+0xe6>
    8000c8c2:	85b6                	mv	a1,a3
    8000c8c4:	8f76                	mv	t5,t4
    8000c8c6:	bb5d                	j	8000c67c <__subtf3+0x542>
    8000c8c8:	86ae                	mv	a3,a1
    8000c8ca:	8efa                	mv	t4,t5
    8000c8cc:	bfcd                	j	8000c8be <__subtf3+0x784>
    8000c8ce:	89c6                	mv	s3,a7
    8000c8d0:	8972                	mv	s2,t3
    8000c8d2:	b7f5                	j	8000c8be <__subtf3+0x784>
    8000c8d4:	85b6                	mv	a1,a3
    8000c8d6:	8f76                	mv	t5,t4
    8000c8d8:	bd21                	j	8000c6f0 <__subtf3+0x5b6>
    8000c8da:	85be                	mv	a1,a5
    8000c8dc:	8f3a                	mv	t5,a4
    8000c8de:	bb79                	j	8000c67c <__subtf3+0x542>
    8000c8e0:	4785                	li	a5,1
    8000c8e2:	dc091be3          	bnez	s2,8000c6b8 <__subtf3+0x57e>
    8000c8e6:	ff863613          	sltiu	a2,a2,-8
    8000c8ea:	00164613          	xori	a2,a2,1
    8000c8ee:	9732                	add	a4,a4,a2
    8000c8f0:	b3e1                	j	8000c6b8 <__subtf3+0x57e>
    8000c8f2:	4785                	li	a5,1
    8000c8f4:	dc0902e3          	beqz	s2,8000c6b8 <__subtf3+0x57e>
    8000c8f8:	b7fd                	j	8000c8e6 <__subtf3+0x7ac>
    8000c8fa:	4681                	li	a3,0
    8000c8fc:	4e81                	li	t4,0
    8000c8fe:	4781                	li	a5,0
    8000c900:	b585                	j	8000c760 <__subtf3+0x626>
    8000c902:	4681                	li	a3,0
    8000c904:	4e81                	li	t4,0
    8000c906:	89c6                	mv	s3,a7
    8000c908:	bfdd                	j	8000c8fe <__subtf3+0x7c4>
    8000c90a:	4681                	li	a3,0
    8000c90c:	bfcd                	j	8000c8fe <__subtf3+0x7c4>
    8000c90e:	4681                	li	a3,0
    8000c910:	4e81                	li	t4,0
    8000c912:	89c6                	mv	s3,a7
    8000c914:	8972                	mv	s2,t3
    8000c916:	b7e5                	j	8000c8fe <__subtf3+0x7c4>
    8000c918:	4681                	li	a3,0
    8000c91a:	4981                	li	s3,0
    8000c91c:	b7cd                	j	8000c8fe <__subtf3+0x7c4>
    8000c91e:	00091763          	bnez	s2,8000c92c <__subtf3+0x7f2>
    8000c922:	008e8593          	addi	a1,t4,8
    8000c926:	b6b5                	j	8000c492 <__subtf3+0x358>
    8000c928:	fe091de3          	bnez	s2,8000c922 <__subtf3+0x7e8>
    8000c92c:	e2070ae3          	beqz	a4,8000c760 <__subtf3+0x626>
    8000c930:	0027e793          	ori	a5,a5,2
    8000c934:	b535                	j	8000c760 <__subtf3+0x626>
    8000c936:	4e81                	li	t4,0
    8000c938:	cc99                	beqz	s1,8000c956 <__subtf3+0x81c>
    8000c93a:	468d                	li	a3,3
    8000c93c:	00d49863          	bne	s1,a3,8000c94c <__subtf3+0x812>
    8000c940:	00090b63          	beqz	s2,8000c956 <__subtf3+0x81c>
    8000c944:	5efd                	li	t4,-1
    8000c946:	ffe70993          	addi	s3,a4,-2 # 7ffe <_stack_size-0x2>
    8000c94a:	a031                	j	8000c956 <__subtf3+0x81c>
    8000c94c:	4689                	li	a3,2
    8000c94e:	fed49be3          	bne	s1,a3,8000c944 <__subtf3+0x80a>
    8000c952:	fe0909e3          	beqz	s2,8000c944 <__subtf3+0x80a>
    8000c956:	0057e793          	ori	a5,a5,5
    8000c95a:	86f6                	mv	a3,t4
    8000c95c:	b505                	j	8000c77c <__subtf3+0x642>
    8000c95e:	4781                	li	a5,0
    8000c960:	dc6898e3          	bne	a7,t1,8000c730 <__subtf3+0x5f6>
    8000c964:	b3e5                	j	8000c74c <__subtf3+0x612>
    8000c966:	aa0508e3          	beqz	a0,8000c416 <__subtf3+0x2dc>
    8000c96a:	b465                	j	8000c412 <__subtf3+0x2d8>
    8000c96c:	ac689fe3          	bne	a7,t1,8000c44a <__subtf3+0x310>
    8000c970:	bc4d                	j	8000c422 <__subtf3+0x2e8>

000000008000c972 <__fixtfsi>:
    8000c972:	002027f3          	frrm	a5
    8000c976:	57fd                	li	a5,-1
    8000c978:	00159693          	slli	a3,a1,0x1
    8000c97c:	6611                	lui	a2,0x4
    8000c97e:	83c1                	srli	a5,a5,0x10
    8000c980:	92c5                	srli	a3,a3,0x31
    8000c982:	ffe60713          	addi	a4,a2,-2 # 3ffe <_stack_size-0x4002>
    8000c986:	8fed                	and	a5,a5,a1
    8000c988:	91fd                	srli	a1,a1,0x3f
    8000c98a:	00d74863          	blt	a4,a3,8000c99a <__fixtfsi+0x28>
    8000c98e:	e6a5                	bnez	a3,8000c9f6 <__fixtfsi+0x84>
    8000c990:	8fc9                	or	a5,a5,a0
    8000c992:	4701                	li	a4,0
    8000c994:	efb9                	bnez	a5,8000c9f2 <__fixtfsi+0x80>
    8000c996:	853a                	mv	a0,a4
    8000c998:	8082                	ret
    8000c99a:	01d60713          	addi	a4,a2,29
    8000c99e:	02d75363          	ble	a3,a4,8000c9c4 <__fixtfsi+0x52>
    8000c9a2:	80000737          	lui	a4,0x80000
    8000c9a6:	fff74713          	not	a4,a4
    8000c9aa:	9f2d                	addw	a4,a4,a1
    8000c9ac:	c5b9                	beqz	a1,8000c9fa <__fixtfsi+0x88>
    8000c9ae:	01e60593          	addi	a1,a2,30
    8000c9b2:	4641                	li	a2,16
    8000c9b4:	04b69463          	bne	a3,a1,8000c9fc <__fixtfsi+0x8a>
    8000c9b8:	0117d693          	srli	a3,a5,0x11
    8000c9bc:	e2a1                	bnez	a3,8000c9fc <__fixtfsi+0x8a>
    8000c9be:	17be                	slli	a5,a5,0x2f
    8000c9c0:	8fc9                	or	a5,a5,a0
    8000c9c2:	bfc9                	j	8000c994 <__fixtfsi+0x22>
    8000c9c4:	4705                	li	a4,1
    8000c9c6:	1742                	slli	a4,a4,0x30
    8000c9c8:	8fd9                	or	a5,a5,a4
    8000c9ca:	7771                	lui	a4,0xffffc
    8000c9cc:	2681                	sext.w	a3,a3
    8000c9ce:	2745                	addiw	a4,a4,17
    8000c9d0:	9f35                	addw	a4,a4,a3
    8000c9d2:	00e79733          	sll	a4,a5,a4
    8000c9d6:	8d59                	or	a0,a0,a4
    8000c9d8:	6711                	lui	a4,0x4
    8000c9da:	02f7071b          	addiw	a4,a4,47
    8000c9de:	40d706bb          	subw	a3,a4,a3
    8000c9e2:	00d7d7b3          	srl	a5,a5,a3
    8000c9e6:	0007871b          	sext.w	a4,a5
    8000c9ea:	c199                	beqz	a1,8000c9f0 <__fixtfsi+0x7e>
    8000c9ec:	40e0073b          	negw	a4,a4
    8000c9f0:	d15d                	beqz	a0,8000c996 <__fixtfsi+0x24>
    8000c9f2:	4605                	li	a2,1
    8000c9f4:	a021                	j	8000c9fc <__fixtfsi+0x8a>
    8000c9f6:	4701                	li	a4,0
    8000c9f8:	bfed                	j	8000c9f2 <__fixtfsi+0x80>
    8000c9fa:	4641                	li	a2,16
    8000c9fc:	00162073          	csrs	fflags,a2
    8000ca00:	bf59                	j	8000c996 <__fixtfsi+0x24>

000000008000ca02 <__floatsitf>:
    8000ca02:	1101                	addi	sp,sp,-32
    8000ca04:	ec06                	sd	ra,24(sp)
    8000ca06:	e822                	sd	s0,16(sp)
    8000ca08:	e426                	sd	s1,8(sp)
    8000ca0a:	cd39                	beqz	a0,8000ca68 <__floatsitf+0x66>
    8000ca0c:	0005079b          	sext.w	a5,a0
    8000ca10:	03f55493          	srli	s1,a0,0x3f
    8000ca14:	00055463          	bgez	a0,8000ca1c <__floatsitf+0x1a>
    8000ca18:	40f007bb          	negw	a5,a5
    8000ca1c:	02079413          	slli	s0,a5,0x20
    8000ca20:	9001                	srli	s0,s0,0x20
    8000ca22:	8522                	mv	a0,s0
    8000ca24:	ffffb097          	auipc	ra,0xffffb
    8000ca28:	bfa080e7          	jalr	-1030(ra) # 8000761e <__clzdi2>
    8000ca2c:	6691                	lui	a3,0x4
    8000ca2e:	03e6879b          	addiw	a5,a3,62
    8000ca32:	40a7873b          	subw	a4,a5,a0
    8000ca36:	02f6869b          	addiw	a3,a3,47
    8000ca3a:	9e99                	subw	a3,a3,a4
    8000ca3c:	00d417b3          	sll	a5,s0,a3
    8000ca40:	6621                	lui	a2,0x8
    8000ca42:	56fd                	li	a3,-1
    8000ca44:	167d                	addi	a2,a2,-1
    8000ca46:	0106d413          	srli	s0,a3,0x10
    8000ca4a:	8f71                	and	a4,a4,a2
    8000ca4c:	8fe1                	and	a5,a5,s0
    8000ca4e:	60e2                	ld	ra,24(sp)
    8000ca50:	6442                	ld	s0,16(sp)
    8000ca52:	1742                	slli	a4,a4,0x30
    8000ca54:	8fd9                	or	a5,a5,a4
    8000ca56:	8285                	srli	a3,a3,0x1
    8000ca58:	03f49593          	slli	a1,s1,0x3f
    8000ca5c:	8ff5                	and	a5,a5,a3
    8000ca5e:	64a2                	ld	s1,8(sp)
    8000ca60:	4501                	li	a0,0
    8000ca62:	8ddd                	or	a1,a1,a5
    8000ca64:	6105                	addi	sp,sp,32
    8000ca66:	8082                	ret
    8000ca68:	4781                	li	a5,0
    8000ca6a:	4701                	li	a4,0
    8000ca6c:	4481                	li	s1,0
    8000ca6e:	bfc9                	j	8000ca40 <__floatsitf+0x3e>

000000008000ca70 <__extenddftf2>:
    8000ca70:	1101                	addi	sp,sp,-32
    8000ca72:	ec06                	sd	ra,24(sp)
    8000ca74:	e822                	sd	s0,16(sp)
    8000ca76:	e426                	sd	s1,8(sp)
    8000ca78:	002027f3          	frrm	a5
    8000ca7c:	03455713          	srli	a4,a0,0x34
    8000ca80:	7ff77713          	andi	a4,a4,2047
    8000ca84:	547d                	li	s0,-1
    8000ca86:	00170793          	addi	a5,a4,1 # 4001 <_stack_size-0x3fff>
    8000ca8a:	8031                	srli	s0,s0,0xc
    8000ca8c:	7fe7f793          	andi	a5,a5,2046
    8000ca90:	8c69                	and	s0,s0,a0
    8000ca92:	03f55493          	srli	s1,a0,0x3f
    8000ca96:	cb91                	beqz	a5,8000caaa <__extenddftf2+0x3a>
    8000ca98:	6791                	lui	a5,0x4
    8000ca9a:	c0078793          	addi	a5,a5,-1024 # 3c00 <_stack_size-0x4400>
    8000ca9e:	973e                	add	a4,a4,a5
    8000caa0:	00445793          	srli	a5,s0,0x4
    8000caa4:	1472                	slli	s0,s0,0x3c
    8000caa6:	4681                	li	a3,0
    8000caa8:	a085                	j	8000cb08 <__extenddftf2+0x98>
    8000caaa:	e321                	bnez	a4,8000caea <__extenddftf2+0x7a>
    8000caac:	4781                	li	a5,0
    8000caae:	dc65                	beqz	s0,8000caa6 <__extenddftf2+0x36>
    8000cab0:	8522                	mv	a0,s0
    8000cab2:	ffffb097          	auipc	ra,0xffffb
    8000cab6:	b6c080e7          	jalr	-1172(ra) # 8000761e <__clzdi2>
    8000caba:	0005071b          	sext.w	a4,a0
    8000cabe:	47b9                	li	a5,14
    8000cac0:	00e7cf63          	blt	a5,a4,8000cade <__extenddftf2+0x6e>
    8000cac4:	47bd                	li	a5,15
    8000cac6:	9f89                	subw	a5,a5,a0
    8000cac8:	0315071b          	addiw	a4,a0,49
    8000cacc:	00f457b3          	srl	a5,s0,a5
    8000cad0:	00e41433          	sll	s0,s0,a4
    8000cad4:	6711                	lui	a4,0x4
    8000cad6:	c0c7071b          	addiw	a4,a4,-1012
    8000cada:	9f09                	subw	a4,a4,a0
    8000cadc:	b7e9                	j	8000caa6 <__extenddftf2+0x36>
    8000cade:	ff15079b          	addiw	a5,a0,-15
    8000cae2:	00f417b3          	sll	a5,s0,a5
    8000cae6:	4401                	li	s0,0
    8000cae8:	b7f5                	j	8000cad4 <__extenddftf2+0x64>
    8000caea:	c429                	beqz	s0,8000cb34 <__extenddftf2+0xc4>
    8000caec:	4705                	li	a4,1
    8000caee:	03371693          	slli	a3,a4,0x33
    8000caf2:	8ee1                	and	a3,a3,s0
    8000caf4:	00445793          	srli	a5,s0,0x4
    8000caf8:	173e                	slli	a4,a4,0x2f
    8000cafa:	0016b693          	seqz	a3,a3
    8000cafe:	8fd9                	or	a5,a5,a4
    8000cb00:	6721                	lui	a4,0x8
    8000cb02:	0692                	slli	a3,a3,0x4
    8000cb04:	1472                	slli	s0,s0,0x3c
    8000cb06:	177d                	addi	a4,a4,-1
    8000cb08:	6521                	lui	a0,0x8
    8000cb0a:	567d                	li	a2,-1
    8000cb0c:	157d                	addi	a0,a0,-1
    8000cb0e:	01065593          	srli	a1,a2,0x10
    8000cb12:	8f69                	and	a4,a4,a0
    8000cb14:	1742                	slli	a4,a4,0x30
    8000cb16:	8dfd                	and	a1,a1,a5
    8000cb18:	8dd9                	or	a1,a1,a4
    8000cb1a:	8205                	srli	a2,a2,0x1
    8000cb1c:	14fe                	slli	s1,s1,0x3f
    8000cb1e:	8df1                	and	a1,a1,a2
    8000cb20:	8dc5                	or	a1,a1,s1
    8000cb22:	c299                	beqz	a3,8000cb28 <__extenddftf2+0xb8>
    8000cb24:	0016a073          	csrs	fflags,a3
    8000cb28:	8522                	mv	a0,s0
    8000cb2a:	60e2                	ld	ra,24(sp)
    8000cb2c:	6442                	ld	s0,16(sp)
    8000cb2e:	64a2                	ld	s1,8(sp)
    8000cb30:	6105                	addi	sp,sp,32
    8000cb32:	8082                	ret
    8000cb34:	6721                	lui	a4,0x8
    8000cb36:	4781                	li	a5,0
    8000cb38:	177d                	addi	a4,a4,-1
    8000cb3a:	b7b5                	j	8000caa6 <__extenddftf2+0x36>

000000008000cb3c <__trunctfdf2>:
    8000cb3c:	002026f3          	frrm	a3
    8000cb40:	57fd                	li	a5,-1
    8000cb42:	68a1                	lui	a7,0x8
    8000cb44:	83c1                	srli	a5,a5,0x10
    8000cb46:	0305d713          	srli	a4,a1,0x30
    8000cb4a:	fff88813          	addi	a6,a7,-1 # 7fff <_stack_size-0x1>
    8000cb4e:	03f5d613          	srli	a2,a1,0x3f
    8000cb52:	8dfd                	and	a1,a1,a5
    8000cb54:	00359793          	slli	a5,a1,0x3
    8000cb58:	01077733          	and	a4,a4,a6
    8000cb5c:	03d55593          	srli	a1,a0,0x3d
    8000cb60:	8ddd                	or	a1,a1,a5
    8000cb62:	18f9                	addi	a7,a7,-2
    8000cb64:	00170793          	addi	a5,a4,1 # 8001 <_stack_size+0x1>
    8000cb68:	0117f8b3          	and	a7,a5,a7
    8000cb6c:	2681                	sext.w	a3,a3
    8000cb6e:	00351e93          	slli	t4,a0,0x3
    8000cb72:	16088b63          	beqz	a7,8000cce8 <__trunctfdf2+0x1ac>
    8000cb76:	7e71                	lui	t3,0xffffc
    8000cb78:	400e0e13          	addi	t3,t3,1024 # ffffffffffffc400 <_buffer_start+0xffffffff7ffb4bc0>
    8000cb7c:	9e3a                	add	t3,t3,a4
    8000cb7e:	7fe00793          	li	a5,2046
    8000cb82:	09c7db63          	ble	t3,a5,8000cc18 <__trunctfdf2+0xdc>
    8000cb86:	c2a9                	beqz	a3,8000cbc8 <__trunctfdf2+0x8c>
    8000cb88:	478d                	li	a5,3
    8000cb8a:	02f69b63          	bne	a3,a5,8000cbc0 <__trunctfdf2+0x84>
    8000cb8e:	ce0d                	beqz	a2,8000cbc8 <__trunctfdf2+0x8c>
    8000cb90:	57fd                	li	a5,-1
    8000cb92:	7fe00e13          	li	t3,2046
    8000cb96:	4701                	li	a4,0
    8000cb98:	4895                	li	a7,5
    8000cb9a:	4589                	li	a1,2
    8000cb9c:	0018e893          	ori	a7,a7,1
    8000cba0:	18b68f63          	beq	a3,a1,8000cd3e <__trunctfdf2+0x202>
    8000cba4:	458d                	li	a1,3
    8000cba6:	18b68863          	beq	a3,a1,8000cd36 <__trunctfdf2+0x1fa>
    8000cbaa:	e699                	bnez	a3,8000cbb8 <__trunctfdf2+0x7c>
    8000cbac:	00f7f593          	andi	a1,a5,15
    8000cbb0:	4511                	li	a0,4
    8000cbb2:	00a58363          	beq	a1,a0,8000cbb8 <__trunctfdf2+0x7c>
    8000cbb6:	0791                	addi	a5,a5,4
    8000cbb8:	cf01                	beqz	a4,8000cbd0 <__trunctfdf2+0x94>
    8000cbba:	0028e893          	ori	a7,a7,2
    8000cbbe:	a809                	j	8000cbd0 <__trunctfdf2+0x94>
    8000cbc0:	4789                	li	a5,2
    8000cbc2:	fcf697e3          	bne	a3,a5,8000cb90 <__trunctfdf2+0x54>
    8000cbc6:	d669                	beqz	a2,8000cb90 <__trunctfdf2+0x54>
    8000cbc8:	4781                	li	a5,0
    8000cbca:	7ff00e13          	li	t3,2047
    8000cbce:	4895                	li	a7,5
    8000cbd0:	00879713          	slli	a4,a5,0x8
    8000cbd4:	00075b63          	bgez	a4,8000cbea <__trunctfdf2+0xae>
    8000cbd8:	0e05                	addi	t3,t3,1
    8000cbda:	7ff00713          	li	a4,2047
    8000cbde:	16ee0363          	beq	t3,a4,8000cd44 <__trunctfdf2+0x208>
    8000cbe2:	56fd                	li	a3,-1
    8000cbe4:	16de                	slli	a3,a3,0x37
    8000cbe6:	16fd                	addi	a3,a3,-1
    8000cbe8:	8ff5                	and	a5,a5,a3
    8000cbea:	7ff00713          	li	a4,2047
    8000cbee:	838d                	srli	a5,a5,0x3
    8000cbf0:	00ee1663          	bne	t3,a4,8000cbfc <__trunctfdf2+0xc0>
    8000cbf4:	c781                	beqz	a5,8000cbfc <__trunctfdf2+0xc0>
    8000cbf6:	4785                	li	a5,1
    8000cbf8:	17ce                	slli	a5,a5,0x33
    8000cbfa:	4601                	li	a2,0
    8000cbfc:	577d                	li	a4,-1
    8000cbfe:	7ffe7513          	andi	a0,t3,2047
    8000cc02:	8331                	srli	a4,a4,0xc
    8000cc04:	1552                	slli	a0,a0,0x34
    8000cc06:	8ff9                	and	a5,a5,a4
    8000cc08:	167e                	slli	a2,a2,0x3f
    8000cc0a:	8d5d                	or	a0,a0,a5
    8000cc0c:	8d51                	or	a0,a0,a2
    8000cc0e:	14088c63          	beqz	a7,8000cd66 <__trunctfdf2+0x22a>
    8000cc12:	0018a073          	csrs	fflags,a7
    8000cc16:	8082                	ret
    8000cc18:	0bc04363          	bgtz	t3,8000ccbe <__trunctfdf2+0x182>
    8000cc1c:	fcc00793          	li	a5,-52
    8000cc20:	0efe4f63          	blt	t3,a5,8000cd1e <__trunctfdf2+0x1e2>
    8000cc24:	4785                	li	a5,1
    8000cc26:	17ce                	slli	a5,a5,0x33
    8000cc28:	03d00313          	li	t1,61
    8000cc2c:	8ddd                	or	a1,a1,a5
    8000cc2e:	41c30333          	sub	t1,t1,t3
    8000cc32:	03f00793          	li	a5,63
    8000cc36:	000e051b          	sext.w	a0,t3
    8000cc3a:	0467cd63          	blt	a5,t1,8000cc94 <__trunctfdf2+0x158>
    8000cc3e:	0035081b          	addiw	a6,a0,3
    8000cc42:	03d00713          	li	a4,61
    8000cc46:	9f09                	subw	a4,a4,a0
    8000cc48:	010e97b3          	sll	a5,t4,a6
    8000cc4c:	00eed733          	srl	a4,t4,a4
    8000cc50:	00f037b3          	snez	a5,a5
    8000cc54:	8fd9                	or	a5,a5,a4
    8000cc56:	010595b3          	sll	a1,a1,a6
    8000cc5a:	8fcd                	or	a5,a5,a1
    8000cc5c:	4e01                	li	t3,0
    8000cc5e:	cbf1                	beqz	a5,8000cd32 <__trunctfdf2+0x1f6>
    8000cc60:	00179713          	slli	a4,a5,0x1
    8000cc64:	00777593          	andi	a1,a4,7
    8000cc68:	4881                	li	a7,0
    8000cc6a:	cd99                	beqz	a1,8000cc88 <__trunctfdf2+0x14c>
    8000cc6c:	4589                	li	a1,2
    8000cc6e:	0ab68d63          	beq	a3,a1,8000cd28 <__trunctfdf2+0x1ec>
    8000cc72:	458d                	li	a1,3
    8000cc74:	4885                	li	a7,1
    8000cc76:	0ab68663          	beq	a3,a1,8000cd22 <__trunctfdf2+0x1e6>
    8000cc7a:	e699                	bnez	a3,8000cc88 <__trunctfdf2+0x14c>
    8000cc7c:	00f77593          	andi	a1,a4,15
    8000cc80:	4511                	li	a0,4
    8000cc82:	00a58363          	beq	a1,a0,8000cc88 <__trunctfdf2+0x14c>
    8000cc86:	0711                	addi	a4,a4,4
    8000cc88:	9361                	srli	a4,a4,0x38
    8000cc8a:	00174713          	xori	a4,a4,1
    8000cc8e:	8b05                	andi	a4,a4,1
    8000cc90:	4e01                	li	t3,0
    8000cc92:	a091                	j	8000ccd6 <__trunctfdf2+0x19a>
    8000cc94:	58f5                	li	a7,-3
    8000cc96:	40a888bb          	subw	a7,a7,a0
    8000cc9a:	04000793          	li	a5,64
    8000cc9e:	0115d8b3          	srl	a7,a1,a7
    8000cca2:	4801                	li	a6,0
    8000cca4:	00f30663          	beq	t1,a5,8000ccb0 <__trunctfdf2+0x174>
    8000cca8:	0435071b          	addiw	a4,a0,67
    8000ccac:	00e59833          	sll	a6,a1,a4
    8000ccb0:	01d86833          	or	a6,a6,t4
    8000ccb4:	01003833          	snez	a6,a6
    8000ccb8:	0108e7b3          	or	a5,a7,a6
    8000ccbc:	b745                	j	8000cc5c <__trunctfdf2+0x120>
    8000ccbe:	00751793          	slli	a5,a0,0x7
    8000ccc2:	00f037b3          	snez	a5,a5
    8000ccc6:	03ced813          	srli	a6,t4,0x3c
    8000ccca:	0107e7b3          	or	a5,a5,a6
    8000ccce:	0592                	slli	a1,a1,0x4
    8000ccd0:	8fcd                	or	a5,a5,a1
    8000ccd2:	4701                	li	a4,0
    8000ccd4:	4881                	li	a7,0
    8000ccd6:	0077f593          	andi	a1,a5,7
    8000ccda:	ec0590e3          	bnez	a1,8000cb9a <__trunctfdf2+0x5e>
    8000ccde:	ee0709e3          	beqz	a4,8000cbd0 <__trunctfdf2+0x94>
    8000cce2:	0018f713          	andi	a4,a7,1
    8000cce6:	bdc9                	j	8000cbb8 <__trunctfdf2+0x7c>
    8000cce8:	01d5e7b3          	or	a5,a1,t4
    8000ccec:	e701                	bnez	a4,8000ccf4 <__trunctfdf2+0x1b8>
    8000ccee:	00f037b3          	snez	a5,a5
    8000ccf2:	b7ad                	j	8000cc5c <__trunctfdf2+0x120>
    8000ccf4:	cf8d                	beqz	a5,8000cd2e <__trunctfdf2+0x1f2>
    8000ccf6:	4881                	li	a7,0
    8000ccf8:	01071763          	bne	a4,a6,8000cd06 <__trunctfdf2+0x1ca>
    8000ccfc:	0325d893          	srli	a7,a1,0x32
    8000cd00:	0018b893          	seqz	a7,a7
    8000cd04:	0892                	slli	a7,a7,0x4
    8000cd06:	03ced793          	srli	a5,t4,0x3c
    8000cd0a:	0592                	slli	a1,a1,0x4
    8000cd0c:	8ddd                	or	a1,a1,a5
    8000cd0e:	4785                	li	a5,1
    8000cd10:	99e1                	andi	a1,a1,-8
    8000cd12:	17da                	slli	a5,a5,0x36
    8000cd14:	8fcd                	or	a5,a5,a1
    8000cd16:	7ff00e13          	li	t3,2047
    8000cd1a:	4701                	li	a4,0
    8000cd1c:	bf6d                	j	8000ccd6 <__trunctfdf2+0x19a>
    8000cd1e:	4785                	li	a5,1
    8000cd20:	b781                	j	8000cc60 <__trunctfdf2+0x124>
    8000cd22:	f23d                	bnez	a2,8000cc88 <__trunctfdf2+0x14c>
    8000cd24:	0721                	addi	a4,a4,8
    8000cd26:	b78d                	j	8000cc88 <__trunctfdf2+0x14c>
    8000cd28:	4885                	li	a7,1
    8000cd2a:	de39                	beqz	a2,8000cc88 <__trunctfdf2+0x14c>
    8000cd2c:	bfe5                	j	8000cd24 <__trunctfdf2+0x1e8>
    8000cd2e:	7ff00e13          	li	t3,2047
    8000cd32:	4881                	li	a7,0
    8000cd34:	bd71                	j	8000cbd0 <__trunctfdf2+0x94>
    8000cd36:	e80611e3          	bnez	a2,8000cbb8 <__trunctfdf2+0x7c>
    8000cd3a:	07a1                	addi	a5,a5,8
    8000cd3c:	bdb5                	j	8000cbb8 <__trunctfdf2+0x7c>
    8000cd3e:	e6060de3          	beqz	a2,8000cbb8 <__trunctfdf2+0x7c>
    8000cd42:	bfe5                	j	8000cd3a <__trunctfdf2+0x1fe>
    8000cd44:	4781                	li	a5,0
    8000cd46:	ce89                	beqz	a3,8000cd60 <__trunctfdf2+0x224>
    8000cd48:	470d                	li	a4,3
    8000cd4a:	00e69763          	bne	a3,a4,8000cd58 <__trunctfdf2+0x21c>
    8000cd4e:	ca09                	beqz	a2,8000cd60 <__trunctfdf2+0x224>
    8000cd50:	57fd                	li	a5,-1
    8000cd52:	7fe00e13          	li	t3,2046
    8000cd56:	a029                	j	8000cd60 <__trunctfdf2+0x224>
    8000cd58:	4709                	li	a4,2
    8000cd5a:	fee69be3          	bne	a3,a4,8000cd50 <__trunctfdf2+0x214>
    8000cd5e:	da6d                	beqz	a2,8000cd50 <__trunctfdf2+0x214>
    8000cd60:	0058e893          	ori	a7,a7,5
    8000cd64:	b559                	j	8000cbea <__trunctfdf2+0xae>
    8000cd66:	8082                	ret
